(iprototypes.random_based_mcmc1
random_MCMC
p0
(dp1
S'best_pipelines'
p2
(lp3
ccopy_reg
_reconstructor
p4
(cprototypes.data_analytic_pipeline
image_classification_pipeline
p5
c__builtin__
object
p6
Ntp7
Rp8
(dp9
S'f1_score'
p10
cnumpy.core.multiarray
scalar
p11
(cnumpy
dtype
p12
(S'f8'
p13
I0
I1
tp14
Rp15
(I3
S'<'
p16
NNNI-1
I-1
I0
tp17
bS'\x00\x00\x00\x00\x00\x00\xf8\xff'
p18
tp19
Rp20
sS'pca_whiten'
p21
g11
(g12
(S'b1'
p22
I0
I1
tp23
Rp24
(I3
S'|'
p25
NNNI-1
I-1
I0
tp26
bS'\x00'
p27
tp28
Rp29
sS'data_name'
p30
S'breast'
p31
sS'kwargs'
p32
(dp33
g21
g29
sS'svm_C'
p34
g11
(g15
S'\x1dZ\xf9,\x87\xd5\x10@'
p35
tp36
Rp37
sS'svm_gamma'
p38
g11
(g15
S'N>\xc0\xc5K\xeb\x13@'
p39
tp40
Rp41
ssS'dimensionality_reduction'
p42
g11
(g12
(S'S3'
p43
I0
I1
tp44
Rp45
(I3
S'|'
p46
NNNI3
I1
I0
tp47
bS'PCA'
p48
tp49
Rp50
sS'test_size'
p51
F0.2
sg38
g41
sS'feature_extraction'
p52
g11
(g12
(S'S9'
p53
I0
I1
tp54
Rp55
(I3
S'|'
p56
NNNI9
I1
I0
tp57
bS'inception'
p58
tp59
Rp60
sg34
g37
sS'result'
p61
g11
(g15
S'^*^r\t[\xf0?'
p62
tp63
Rp64
sS'learning_algorithm'
p65
g11
(g12
(S'S3'
p66
I0
I1
tp67
Rp68
(I3
S'|'
p69
NNNI3
I1
I0
tp70
bS'SVM'
p71
tp72
Rp73
sS'val_splits'
p74
I3
sS'ml_type'
p75
S'validation'
p76
sS'accuracy'
p77
g11
(g15
S'\x93\x87\xbe\xb8\xfc\x1d\xdf?'
p78
tp79
Rp80
sS'type1'
p81
S'random1'
p82
sS'data_location'
p83
S'/gpfs/u/home/CGHI/CGHIarch/barn/EP_project/data/'
p84
sbag4
(g5
g6
Ntp85
Rp86
(dp87
g10
g11
(g15
S'\x00\x00\x00\x00\x00\x00\xf8\xff'
p88
tp89
Rp90
sS'n_estimators'
p91
g11
(g15
S'\x00\x00\x00\x00\x00@e@'
p92
tp93
Rp94
sg21
g29
sg30
g31
sg32
(dp95
g91
g94
sS'max_features'
p96
g11
(g15
S'\xa2\xbb\n\xbe\xb7P\xdc?'
p97
tp98
Rp99
sg21
g29
ssg42
g11
(g12
(S'S3'
p100
I0
I1
tp101
Rp102
(I3
S'|'
p103
NNNI3
I1
I0
tp104
bS'PCA'
p105
tp106
Rp107
sg51
F0.2
sg52
g11
(g12
(S'S3'
p108
I0
I1
tp109
Rp110
(I3
S'|'
p111
NNNI3
I1
I0
tp112
bS'VGG'
p113
tp114
Rp115
sg61
g11
(g15
S'I\xabYD\x90\xb8\xe6?'
p116
tp117
Rp118
sg65
g11
(g12
(S'S2'
p119
I0
I1
tp120
Rp121
(I3
S'|'
p122
NNNI2
I1
I0
tp123
bS'RF'
p124
tp125
Rp126
sg74
I3
sg96
g99
sg75
g76
sg77
g11
(g15
S'\xb8\x176\x91\xa2\xd6\xe6?'
p127
tp128
Rp129
sg81
g82
sg83
g84
sbag4
(g5
g6
Ntp130
Rp131
(dp132
g10
g11
(g15
S'\x00\x00\x00\x00\x00\x00\xf8\xff'
p133
tp134
Rp135
sg91
g11
(g15
S'\x00\x00\x00\x00\x00\xc0p@'
p136
tp137
Rp138
sg21
g29
sg30
g31
sg32
(dp139
g91
g138
sg96
g11
(g15
S'\xaa\xb7\x94\xc18D\xe3?'
p140
tp141
Rp142
sg21
g29
ssg42
g11
(g12
(S'S3'
p143
I0
I1
tp144
Rp145
(I3
S'|'
p146
NNNI3
I1
I0
tp147
bS'PCA'
p148
tp149
Rp150
sg51
F0.2
sg52
g11
(g12
(S'S3'
p151
I0
I1
tp152
Rp153
(I3
S'|'
p154
NNNI3
I1
I0
tp155
bS'VGG'
p156
tp157
Rp158
sg61
g11
(g15
S'\xf88]cn\xae\xe6?'
p159
tp160
Rp161
sg65
g11
(g12
(S'S2'
p162
I0
I1
tp163
Rp164
(I3
S'|'
p165
NNNI2
I1
I0
tp166
bS'RF'
p167
tp168
Rp169
sg74
I3
sg96
g142
sg75
g76
sg77
g11
(g15
S'=\xfc8\xef\x11z\xe6?'
p170
tp171
Rp172
sg81
g82
sg83
g84
sbasS'paths'
p173
(lp174
(lp175
S'VGG'
p176
aS'PCA'
p177
aS'SVM'
p178
aa(lp179
g176
ag177
aS'RF'
p180
aa(lp181
g176
aS'ISOMAP'
p182
ag178
aa(lp183
g176
ag182
ag180
aa(lp184
S'haralick'
p185
ag177
ag178
aa(lp186
g185
ag177
ag180
aa(lp187
g185
ag182
ag178
aa(lp188
g185
ag182
ag180
aa(lp189
S'inception'
p190
ag177
ag178
aa(lp191
g190
ag177
ag180
aa(lp192
g190
ag182
ag178
aa(lp193
g190
ag182
ag180
aasS'pipeline'
p194
(dp195
S'n_neighbors'
p196
(lp197
I3
aI4
aI5
aI6
aI7
asg21
(lp198
I01
aI00
asg91
cnumpy.core.multiarray
_reconstruct
p199
(cnumpy
ndarray
p200
(I0
tp201
S'b'
p202
tp203
Rp204
(I1
(I10
tp205
g15
I00
S'\x00\x00\x00\x00\x00\x00 @\x00\x00\x00\x00\x00\x00D@\x00\x00\x00\x00\x00@R@\x00\x00\x00\x00\x00@Z@\x00\x00\x00\x00\x00@a@\x00\x00\x00\x00\x00@e@\x00\x00\x00\x00\x00`i@\x00\x00\x00\x00\x00`m@\x00\x00\x00\x00\x00\xc0p@\x00\x00\x00\x00\x00\xc0r@'
p206
tp207
bsg42
(lp208
g177
ag182
asg38
g199
(g200
(I0
tp209
g202
tp210
Rp211
(I1
(I10
tp212
g15
I00
S"{\x14\xaeG\xe1z\x84?\x102Tv\x98\xba\xec?\xe7\xd5\xc4\xb3\xa2\x91\xfc?b\xc9/\x96\xfcb\x05@\xd2'}\xd2'}\x0c@!Ce\x87\xa9\xcb\x11@X\xf2\x8b%\xbfX\x15@\x90\xa1\xb2\xc3\xd4\xe5\x18@\xc8P\xd9a\xear\x1c@\x00\x00\x00\x00\x00\x00 @"
p213
tp214
bsg52
(lp215
g176
ag185
ag190
asS'haralick_distance'
p216
(lp217
I1
aI2
aI3
asS'n_components'
p218
(lp219
I2
aI3
aI4
asg65
(lp220
g178
ag180
asg96
g199
(g200
(I0
tp221
g202
tp222
Rp223
(I1
(I5
tp224
g15
I00
S'333333\xd3?\x9a\x99\x99\x99\x99\x99\xd9?\x00\x00\x00\x00\x00\x00\xe0?433333\xe3?hfffff\xe6?'
p225
tp226
bsg34
g199
(g200
(I0
tp227
g202
tp228
Rp229
(I1
(I10
tp230
g15
I00
S'\x9a\x99\x99\x99\x99\x99\xb9?gfffff&@\xce\xcc\xcc\xcc\xccL6@43333\xb3@@\x01\x00\x00\x00\x00@F@\xce\xcc\xcc\xcc\xcc\xccK@\xcd\xcc\xcc\xcc\xcc\xacP@43333sS@\x9a\x99\x99\x99\x999V@\x00\x00\x00\x00\x00\x00Y@'
p231
tp232
bssS'pipelines'
p233
(lp234
g8
ag4
(g5
g6
Ntp235
Rp236
(dp237
g10
g11
(g15
S'\x00\x00\x00\x00\x00\x00\xf8\xff'
p238
tp239
Rp240
sg91
g11
(g15
S'\x00\x00\x00\x00\x00\xc0r@'
p241
tp242
Rp243
sg21
g11
(g24
S'\x01'
p244
tp245
Rp246
sg30
g31
sg32
(dp247
g91
g243
sg96
g11
(g15
S'H\x92\x0fg\r\xa5\xe0?'
p248
tp249
Rp250
sg21
g246
ssg42
g11
(g12
(S'S3'
p251
I0
I1
tp252
Rp253
(I3
S'|'
p254
NNNI3
I1
I0
tp255
bS'PCA'
p256
tp257
Rp258
sg51
F0.2
sg52
g11
(g12
(S'S9'
p259
I0
I1
tp260
Rp261
(I3
S'|'
p262
NNNI9
I1
I0
tp263
bS'inception'
p264
tp265
Rp266
sg61
g11
(g15
S'xT\xc5\thu\xf4?'
p267
tp268
Rp269
sg65
g11
(g12
(S'S2'
p270
I0
I1
tp271
Rp272
(I3
S'|'
p273
NNNI2
I1
I0
tp274
bS'RF'
p275
tp276
Rp277
sg74
I3
sg96
g250
sg75
g76
sg77
g11
(g15
S"\xcd\xb9'\x1c\xa4\xe6\xe0?"
p278
tp279
Rp280
sg81
g82
sg83
g84
sbag86
ag4
(g5
g6
Ntp281
Rp282
(dp283
g10
g11
(g15
S'\x00\x00\x00\x00\x00\x00\xf8\xff'
p284
tp285
Rp286
sg91
g11
(g15
S'\x00\x00\x00\x00\x00@R@'
p287
tp288
Rp289
sg30
g31
sg196
g11
(g12
(S'i8'
p290
I0
I1
tp291
Rp292
(I3
S'<'
p293
NNNI-1
I-1
I0
tp294
bS'\x03\x00\x00\x00\x00\x00\x00\x00'
p295
tp296
Rp297
sg32
(dp298
g91
g289
sg196
g297
sg218
g11
(g292
S'\x04\x00\x00\x00\x00\x00\x00\x00'
p299
tp300
Rp301
sg96
g11
(g15
S'Q\x9c\xcfOP{\xe3?'
p302
tp303
Rp304
ssg42
g11
(g12
(S'S6'
p305
I0
I1
tp306
Rp307
(I3
S'|'
p308
NNNI6
I1
I0
tp309
bS'ISOMAP'
p310
tp311
Rp312
sg51
F0.2
sg218
g301
sg52
g11
(g12
(S'S9'
p313
I0
I1
tp314
Rp315
(I3
S'|'
p316
NNNI9
I1
I0
tp317
bS'inception'
p318
tp319
Rp320
sg61
g11
(g15
S'K\x07\xc88\x8f\x07\x08@'
p321
tp322
Rp323
sg65
g11
(g12
(S'S2'
p324
I0
I1
tp325
Rp326
(I3
S'|'
p327
NNNI2
I1
I0
tp328
bS'RF'
p329
tp330
Rp331
sg74
I3
sg96
g304
sg75
g76
sg77
g11
(g15
S'5\xc7\xd2J\x08\x96\xdc?'
p332
tp333
Rp334
sg81
g82
sg83
g84
sbag4
(g5
g6
Ntp335
Rp336
(dp337
g10
g11
(g15
S'\x00\x00\x00\x00\x00\x00\xf8\xff'
p338
tp339
Rp340
sg91
g11
(g15
S'\x00\x00\x00\x00\x00`i@'
p341
tp342
Rp343
sg30
g31
sg196
g11
(g292
S'\x03\x00\x00\x00\x00\x00\x00\x00'
p344
tp345
Rp346
sg32
(dp347
g91
g343
sg196
g346
sg218
g11
(g292
S'\x02\x00\x00\x00\x00\x00\x00\x00'
p348
tp349
Rp350
sg96
g11
(g15
S'\x1e\xef\xb0[1\xf5\xe5?'
p351
tp352
Rp353
ssg42
g11
(g12
(S'S6'
p354
I0
I1
tp355
Rp356
(I3
S'|'
p357
NNNI6
I1
I0
tp358
bS'ISOMAP'
p359
tp360
Rp361
sg51
F0.2
sg218
g350
sg52
g11
(g12
(S'S9'
p362
I0
I1
tp363
Rp364
(I3
S'|'
p365
NNNI9
I1
I0
tp366
bS'inception'
p367
tp368
Rp369
sg61
g11
(g15
S'\xc0\t\x86\x90\xd0\xf5\x05@'
p370
tp371
Rp372
sg65
g11
(g12
(S'S2'
p373
I0
I1
tp374
Rp375
(I3
S'|'
p376
NNNI2
I1
I0
tp377
bS'RF'
p378
tp379
Rp380
sg74
I3
sg96
g353
sg75
g76
sg77
g11
(g15
S'\xd8_\xa2\x14\x16\xc5\xdc?'
p381
tp382
Rp383
sg81
g82
sg83
g84
sbag4
(g5
g6
Ntp384
Rp385
(dp386
g10
g11
(g15
S'\x00\x00\x00\x00\x00\x00\xf8\xff'
p387
tp388
Rp389
sg91
g11
(g15
S'\x00\x00\x00\x00\x00\xc0p@'
p390
tp391
Rp392
sg21
g246
sg30
g31
sg32
(dp393
g91
g392
sg96
g11
(g15
S'\x1a\x1c\x86\x9d\xf6)\xe5?'
p394
tp395
Rp396
sg21
g246
ssg42
g11
(g12
(S'S3'
p397
I0
I1
tp398
Rp399
(I3
S'|'
p400
NNNI3
I1
I0
tp401
bS'PCA'
p402
tp403
Rp404
sg51
F0.2
sg52
g11
(g12
(S'S3'
p405
I0
I1
tp406
Rp407
(I3
S'|'
p408
NNNI3
I1
I0
tp409
bS'VGG'
p410
tp411
Rp412
sg61
g11
(g15
S'\x0f\xf8\x80\xfc\xd2\xe2\xe6?'
p413
tp414
Rp415
sg65
g11
(g12
(S'S2'
p416
I0
I1
tp417
Rp418
(I3
S'|'
p419
NNNI2
I1
I0
tp420
bS'RF'
p421
tp422
Rp423
sg74
I3
sg96
g396
sg75
g76
sg77
g11
(g15
S'\xb3S\xe4@\x01\xed\xe6?'
p424
tp425
Rp426
sg81
g82
sg83
g84
sbag4
(g5
g6
Ntp427
Rp428
(dp429
g10
g11
(g15
S'\x00\x00\x00\x00\x00\x00\xf8\xff'
p430
tp431
Rp432
sg21
g246
sg30
g31
sg32
(dp433
g21
g246
sg34
g11
(g15
S'F-\xa2v>! @'
p434
tp435
Rp436
sg38
g11
(g15
S'\xcc\x92B\xc4i-\x13@'
p437
tp438
Rp439
ssg42
g11
(g12
(S'S3'
p440
I0
I1
tp441
Rp442
(I3
S'|'
p443
NNNI3
I1
I0
tp444
bS'PCA'
p445
tp446
Rp447
sg51
F0.2
sg38
g439
sg52
g11
(g12
(S'S9'
p448
I0
I1
tp449
Rp450
(I3
S'|'
p451
NNNI9
I1
I0
tp452
bS'inception'
p453
tp454
Rp455
sg34
g436
sg61
g11
(g15
S'a4M\x00\xc0O\xf0?'
p456
tp457
Rp458
sg65
g11
(g12
(S'S3'
p459
I0
I1
tp460
Rp461
(I3
S'|'
p462
NNNI3
I1
I0
tp463
bS'SVM'
p464
tp465
Rp466
sg74
I3
sg75
g76
sg77
g11
(g15
S']\x82H\xf0<x\xdf?'
p467
tp468
Rp469
sg81
g82
sg83
g84
sbag4
(g5
g6
Ntp470
Rp471
(dp472
g10
g11
(g15
S'\x00\x00\x00\x00\x00\x00\xf8\xff'
p473
tp474
Rp475
sg196
g11
(g292
S'\x06\x00\x00\x00\x00\x00\x00\x00'
p476
tp477
Rp478
sg30
g31
sg32
(dp479
g196
g478
sg34
g11
(g15
S"xV+\x95'SI@"
p480
tp481
Rp482
sg216
g11
(g292
S'\x03\x00\x00\x00\x00\x00\x00\x00'
p483
tp484
Rp485
sg218
g11
(g292
S'\x04\x00\x00\x00\x00\x00\x00\x00'
p486
tp487
Rp488
sg38
g11
(g15
S'9\xf7\xfa\x0f\xea3\xdd?'
p489
tp490
Rp491
ssg38
g491
sg42
g11
(g12
(S'S6'
p492
I0
I1
tp493
Rp494
(I3
S'|'
p495
NNNI6
I1
I0
tp496
bS'ISOMAP'
p497
tp498
Rp499
sg51
F0.2
sg218
g488
sg52
g11
(g12
(S'S8'
p500
I0
I1
tp501
Rp502
(I3
S'|'
p503
NNNI8
I1
I0
tp504
bS'haralick'
p505
tp506
Rp507
sg34
g482
sg216
g485
sg61
g11
(g15
S'\xf4#\x10\xf9\x90\xda\xea?'
p508
tp509
Rp510
sg65
g11
(g12
(S'S3'
p511
I0
I1
tp512
Rp513
(I3
S'|'
p514
NNNI3
I1
I0
tp515
bS'SVM'
p516
tp517
Rp518
sg74
I3
sg75
g76
sg77
g11
(g15
S'\t\xb9\x1f\xa9\x9a\xc4\xe3?'
p519
tp520
Rp521
sg81
g82
sg83
g84
sbag4
(g5
g6
Ntp522
Rp523
(dp524
g10
g11
(g15
S'\x00\x00\x00\x00\x00\x00\xf8\xff'
p525
tp526
Rp527
sg196
g11
(g292
S'\x07\x00\x00\x00\x00\x00\x00\x00'
p528
tp529
Rp530
sg30
g31
sg32
(dp531
g196
g530
sg34
g11
(g15
S'`H\x07{PuU@'
p532
tp533
Rp534
sg218
g11
(g292
S'\x04\x00\x00\x00\x00\x00\x00\x00'
p535
tp536
Rp537
sg38
g11
(g15
S':\\\x9e\x8b\x8d"\x12@'
p538
tp539
Rp540
ssg38
g540
sg42
g11
(g12
(S'S6'
p541
I0
I1
tp542
Rp543
(I3
S'|'
p544
NNNI6
I1
I0
tp545
bS'ISOMAP'
p546
tp547
Rp548
sg51
F0.2
sg218
g537
sg52
g11
(g12
(S'S9'
p549
I0
I1
tp550
Rp551
(I3
S'|'
p552
NNNI9
I1
I0
tp553
bS'inception'
p554
tp555
Rp556
sg34
g534
sg61
g11
(g15
S'\xd5\xc0\xe7\xad]b\xf0?'
p557
tp558
Rp559
sg65
g11
(g12
(S'S3'
p560
I0
I1
tp561
Rp562
(I3
S'|'
p563
NNNI3
I1
I0
tp564
bS'SVM'
p565
tp566
Rp567
sg74
I3
sg75
g76
sg77
g11
(g15
S'\x03\xf5\xcdX\xf9\xda\xdf?'
p568
tp569
Rp570
sg81
g82
sg83
g84
sbag4
(g5
g6
Ntp571
Rp572
(dp573
g10
g11
(g15
S'\x00\x00\x00\x00\x00\x00\xf8\xff'
p574
tp575
Rp576
sg196
g11
(g292
S'\x04\x00\x00\x00\x00\x00\x00\x00'
p577
tp578
Rp579
sg30
g31
sg32
(dp580
g196
g579
sg34
g11
(g15
S'\xe7"4\x9fk\xb4T@'
p581
tp582
Rp583
sg216
g11
(g292
S'\x03\x00\x00\x00\x00\x00\x00\x00'
p584
tp585
Rp586
sg218
g11
(g292
S'\x02\x00\x00\x00\x00\x00\x00\x00'
p587
tp588
Rp589
sg38
g11
(g15
S'\xf6{\t\x94\x9e\xdf\x1e@'
p590
tp591
Rp592
ssg38
g592
sg42
g11
(g12
(S'S6'
p593
I0
I1
tp594
Rp595
(I3
S'|'
p596
NNNI6
I1
I0
tp597
bS'ISOMAP'
p598
tp599
Rp600
sg51
F0.2
sg218
g589
sg52
g11
(g12
(S'S8'
p601
I0
I1
tp602
Rp603
(I3
S'|'
p604
NNNI8
I1
I0
tp605
bS'haralick'
p606
tp607
Rp608
sg34
g583
sg216
g586
sg61
g11
(g15
S'\xbd\x84C\x83u\x82\xeb?'
p609
tp610
Rp611
sg65
g11
(g12
(S'S3'
p612
I0
I1
tp613
Rp614
(I3
S'|'
p615
NNNI3
I1
I0
tp616
bS'SVM'
p617
tp618
Rp619
sg74
I3
sg75
g76
sg77
g11
(g15
S'\xcd\npJ\x84\xdc\xe3?'
p620
tp621
Rp622
sg81
g82
sg83
g84
sbag4
(g5
g6
Ntp623
Rp624
(dp625
g10
g11
(g15
S'\x00\x00\x00\x00\x00\x00\xf8\xff'
p626
tp627
Rp628
sg91
g11
(g15
S'\x00\x00\x00\x00\x00\x00 @'
p629
tp630
Rp631
sg21
g29
sg30
g31
sg32
(dp632
g91
g631
sg96
g11
(g15
S'_\xd4\xd4f\xeab\xd6?'
p633
tp634
Rp635
sg21
g29
ssg42
g11
(g12
(S'S3'
p636
I0
I1
tp637
Rp638
(I3
S'|'
p639
NNNI3
I1
I0
tp640
bS'PCA'
p641
tp642
Rp643
sg51
F0.2
sg52
g11
(g12
(S'S3'
p644
I0
I1
tp645
Rp646
(I3
S'|'
p647
NNNI3
I1
I0
tp648
bS'VGG'
p649
tp650
Rp651
sg61
g11
(g15
S'}\x88\x02\xb5P\x16\x02@'
p652
tp653
Rp654
sg65
g11
(g12
(S'S2'
p655
I0
I1
tp656
Rp657
(I3
S'|'
p658
NNNI2
I1
I0
tp659
bS'RF'
p660
tp661
Rp662
sg74
I3
sg96
g635
sg75
g76
sg77
g11
(g15
S'\x8b7@Z\xa8\x92\xe5?'
p663
tp664
Rp665
sg81
g82
sg83
g84
sbag4
(g5
g6
Ntp666
Rp667
(dp668
g10
g11
(g15
S'\x00\x00\x00\x00\x00\x00\xf8\xff'
p669
tp670
Rp671
sg91
g11
(g15
S'\x00\x00\x00\x00\x00`m@'
p672
tp673
Rp674
sg21
g29
sg30
g31
sg32
(dp675
g91
g674
sg96
g11
(g15
S'\x07\xe1.\xe0.\xd4\xde?'
p676
tp677
Rp678
sg21
g29
ssg42
g11
(g12
(S'S3'
p679
I0
I1
tp680
Rp681
(I3
S'|'
p682
NNNI3
I1
I0
tp683
bS'PCA'
p684
tp685
Rp686
sg51
F0.2
sg52
g11
(g12
(S'S9'
p687
I0
I1
tp688
Rp689
(I3
S'|'
p690
NNNI9
I1
I0
tp691
bS'inception'
p692
tp693
Rp694
sg61
g11
(g15
S'\xdd\xa3\xdeo\xb8x\xf5?'
p695
tp696
Rp697
sg65
g11
(g12
(S'S2'
p698
I0
I1
tp699
Rp700
(I3
S'|'
p701
NNNI2
I1
I0
tp702
bS'RF'
p703
tp704
Rp705
sg74
I3
sg96
g678
sg75
g76
sg77
g11
(g15
S'S\x9e*z\x13\x8a\xe0?'
p706
tp707
Rp708
sg81
g82
sg83
g84
sbag4
(g5
g6
Ntp709
Rp710
(dp711
g10
g11
(g15
S'\x00\x00\x00\x00\x00\x00\xf8\xff'
p712
tp713
Rp714
sg196
g11
(g292
S'\x06\x00\x00\x00\x00\x00\x00\x00'
p715
tp716
Rp717
sg30
g31
sg32
(dp718
g196
g717
sg34
g11
(g15
S'\x7f\xb2ey\x07z6@'
p719
tp720
Rp721
sg216
g11
(g292
S'\x01\x00\x00\x00\x00\x00\x00\x00'
p722
tp723
Rp724
sg218
g11
(g292
S'\x02\x00\x00\x00\x00\x00\x00\x00'
p725
tp726
Rp727
sg38
g11
(g15
S'h\x1cu\x91\x8fh\x0b@'
p728
tp729
Rp730
ssg38
g730
sg42
g11
(g12
(S'S6'
p731
I0
I1
tp732
Rp733
(I3
S'|'
p734
NNNI6
I1
I0
tp735
bS'ISOMAP'
p736
tp737
Rp738
sg51
F0.2
sg218
g727
sg52
g11
(g12
(S'S8'
p739
I0
I1
tp740
Rp741
(I3
S'|'
p742
NNNI8
I1
I0
tp743
bS'haralick'
p744
tp745
Rp746
sg34
g721
sg216
g724
sg61
g11
(g15
S'\x7f\xa3J-\x8f\xde\xec?'
p747
tp748
Rp749
sg65
g11
(g12
(S'S3'
p750
I0
I1
tp751
Rp752
(I3
S'|'
p753
NNNI3
I1
I0
tp754
bS'SVM'
p755
tp756
Rp757
sg74
I3
sg75
g76
sg77
g11
(g15
S'\x89\xf9\x9c\xdc\xf0\x82\xe2?'
p758
tp759
Rp760
sg81
g82
sg83
g84
sbag4
(g5
g6
Ntp761
Rp762
(dp763
g10
g11
(g15
S'\x00\x00\x00\x00\x00\x00\xf8\xff'
p764
tp765
Rp766
sg21
g246
sg30
g31
sg32
(dp767
g21
g246
sg34
g11
(g15
S'v\xee\x17\xf27/D@'
p768
tp769
Rp770
sg38
g11
(g15
S'\xf2\xecN\xa8%Q\x0b@'
p771
tp772
Rp773
ssg42
g11
(g12
(S'S3'
p774
I0
I1
tp775
Rp776
(I3
S'|'
p777
NNNI3
I1
I0
tp778
bS'PCA'
p779
tp780
Rp781
sg51
F0.2
sg38
g773
sg52
g11
(g12
(S'S9'
p782
I0
I1
tp783
Rp784
(I3
S'|'
p785
NNNI9
I1
I0
tp786
bS'inception'
p787
tp788
Rp789
sg34
g770
sg61
g11
(g15
S'\xbc^\xa3/\x081\xf0?'
p790
tp791
Rp792
sg65
g11
(g12
(S'S3'
p793
I0
I1
tp794
Rp795
(I3
S'|'
p796
NNNI3
I1
I0
tp797
bS'SVM'
p798
tp799
Rp800
sg74
I3
sg75
g76
sg77
g11
(g15
S't\xd3\xf1L^\x92\xde?'
p801
tp802
Rp803
sg81
g82
sg83
g84
sbag4
(g5
g6
Ntp804
Rp805
(dp806
g10
g11
(g15
S'\x00\x00\x00\x00\x00\x00\xf8\xff'
p807
tp808
Rp809
sg91
g11
(g15
S'\x00\x00\x00\x00\x00@Z@'
p810
tp811
Rp812
sg21
g246
sg30
g31
sg32
(dp813
g91
g812
sg96
g11
(g15
S'\x92\xb2\xb4\xa5\xc9\x03\xe3?'
p814
tp815
Rp816
sg21
g246
sg216
g11
(g292
S'\x01\x00\x00\x00\x00\x00\x00\x00'
p817
tp818
Rp819
ssg42
g11
(g12
(S'S3'
p820
I0
I1
tp821
Rp822
(I3
S'|'
p823
NNNI3
I1
I0
tp824
bS'PCA'
p825
tp826
Rp827
sg51
F0.2
sg52
g11
(g12
(S'S8'
p828
I0
I1
tp829
Rp830
(I3
S'|'
p831
NNNI8
I1
I0
tp832
bS'haralick'
p833
tp834
Rp835
sg216
g819
sg61
g11
(g15
S'\xd9\xad\x86m\x7f\x12\x12@'
p836
tp837
Rp838
sg65
g11
(g12
(S'S2'
p839
I0
I1
tp840
Rp841
(I3
S'|'
p842
NNNI2
I1
I0
tp843
bS'RF'
p844
tp845
Rp846
sg74
I3
sg96
g816
sg75
g76
sg77
g11
(g15
S'\x01\xd2B\x95\x8cr\xe0?'
p847
tp848
Rp849
sg81
g82
sg83
g84
sbag4
(g5
g6
Ntp850
Rp851
(dp852
g10
g11
(g15
S'\x00\x00\x00\x00\x00\x00\xf8\xff'
p853
tp854
Rp855
sg196
g11
(g292
S'\x04\x00\x00\x00\x00\x00\x00\x00'
p856
tp857
Rp858
sg30
g31
sg32
(dp859
g196
g858
sg34
g11
(g15
S'\xd8ugK\x9d\xd9\x1d@'
p860
tp861
Rp862
sg218
g11
(g292
S'\x04\x00\x00\x00\x00\x00\x00\x00'
p863
tp864
Rp865
sg38
g11
(g15
S'\xc08\xbc\xec\t\xd9\xfb?'
p866
tp867
Rp868
ssg38
g868
sg42
g11
(g12
(S'S6'
p869
I0
I1
tp870
Rp871
(I3
S'|'
p872
NNNI6
I1
I0
tp873
bS'ISOMAP'
p874
tp875
Rp876
sg51
F0.2
sg218
g865
sg52
g11
(g12
(S'S3'
p877
I0
I1
tp878
Rp879
(I3
S'|'
p880
NNNI3
I1
I0
tp881
bS'VGG'
p882
tp883
Rp884
sg34
g862
sg61
g11
(g15
S'y4pGBG\xee?'
p885
tp886
Rp887
sg65
g11
(g12
(S'S3'
p888
I0
I1
tp889
Rp890
(I3
S'|'
p891
NNNI3
I1
I0
tp892
bS'SVM'
p893
tp894
Rp895
sg74
I3
sg75
g76
sg77
g11
(g15
S'\xd1]\xadF\xbd\xcb\xe1?'
p896
tp897
Rp898
sg81
g82
sg83
g84
sbag4
(g5
g6
Ntp899
Rp900
(dp901
g10
g11
(g15
S'\x00\x00\x00\x00\x00\x00\xf8\xff'
p902
tp903
Rp904
sg196
g11
(g292
S'\x07\x00\x00\x00\x00\x00\x00\x00'
p905
tp906
Rp907
sg30
g31
sg32
(dp908
g196
g907
sg34
g11
(g15
S'=@mSF\xa9\x0e@'
p909
tp910
Rp911
sg216
g11
(g292
S'\x01\x00\x00\x00\x00\x00\x00\x00'
p912
tp913
Rp914
sg218
g11
(g292
S'\x04\x00\x00\x00\x00\x00\x00\x00'
p915
tp916
Rp917
sg38
g11
(g15
S'\xa8\xd0\xdd\xecj\xa0\xdf?'
p918
tp919
Rp920
ssg38
g920
sg42
g11
(g12
(S'S6'
p921
I0
I1
tp922
Rp923
(I3
S'|'
p924
NNNI6
I1
I0
tp925
bS'ISOMAP'
p926
tp927
Rp928
sg51
F0.2
sg218
g917
sg52
g11
(g12
(S'S8'
p929
I0
I1
tp930
Rp931
(I3
S'|'
p932
NNNI8
I1
I0
tp933
bS'haralick'
p934
tp935
Rp936
sg34
g911
sg216
g914
sg61
g11
(g15
S'7p\x15\x83z\xdd\xea?'
p937
tp938
Rp939
sg65
g11
(g12
(S'S3'
p940
I0
I1
tp941
Rp942
(I3
S'|'
p943
NNNI3
I1
I0
tp944
bS'SVM'
p945
tp946
Rp947
sg74
I3
sg75
g76
sg77
g11
(g15
S'COv\xebJi\xe4?'
p948
tp949
Rp950
sg81
g82
sg83
g84
sbag4
(g5
g6
Ntp951
Rp952
(dp953
g10
g11
(g15
S'\x00\x00\x00\x00\x00\x00\xf8\xff'
p954
tp955
Rp956
sg91
g11
(g15
S'\x00\x00\x00\x00\x00@R@'
p957
tp958
Rp959
sg30
g31
sg196
g11
(g292
S'\x06\x00\x00\x00\x00\x00\x00\x00'
p960
tp961
Rp962
sg32
(dp963
g91
g959
sg196
g962
sg218
g11
(g292
S'\x03\x00\x00\x00\x00\x00\x00\x00'
p964
tp965
Rp966
sg96
g11
(g15
S'\xb0s\xb4\x07L\xe1\xea?'
p967
tp968
Rp969
ssg42
g11
(g12
(S'S6'
p970
I0
I1
tp971
Rp972
(I3
S'|'
p973
NNNI6
I1
I0
tp974
bS'ISOMAP'
p975
tp976
Rp977
sg51
F0.2
sg218
g966
sg52
g11
(g12
(S'S3'
p978
I0
I1
tp979
Rp980
(I3
S'|'
p981
NNNI3
I1
I0
tp982
bS'VGG'
p983
tp984
Rp985
sg61
g11
(g15
S'\xb0"\x0c\xe4f\x0e\xf7?'
p986
tp987
Rp988
sg65
g11
(g12
(S'S2'
p989
I0
I1
tp990
Rp991
(I3
S'|'
p992
NNNI2
I1
I0
tp993
bS'RF'
p994
tp995
Rp996
sg74
I3
sg96
g969
sg75
g76
sg77
g11
(g15
S'\xdfF\x7f($\x17\xe0?'
p997
tp998
Rp999
sg81
g82
sg83
g84
sbag4
(g5
g6
Ntp1000
Rp1001
(dp1002
g10
g11
(g15
S'\x00\x00\x00\x00\x00\x00\xf8\xff'
p1003
tp1004
Rp1005
sg196
g11
(g292
S'\x07\x00\x00\x00\x00\x00\x00\x00'
p1006
tp1007
Rp1008
sg30
g31
sg32
(dp1009
g196
g1008
sg34
g11
(g15
S'\xcf\x04~c\xe2\xc0Q@'
p1010
tp1011
Rp1012
sg216
g11
(g292
S'\x02\x00\x00\x00\x00\x00\x00\x00'
p1013
tp1014
Rp1015
sg218
g11
(g292
S'\x03\x00\x00\x00\x00\x00\x00\x00'
p1016
tp1017
Rp1018
sg38
g11
(g15
S'\t\x0fc\xc80\xb0\xf6?'
p1019
tp1020
Rp1021
ssg38
g1021
sg42
g11
(g12
(S'S6'
p1022
I0
I1
tp1023
Rp1024
(I3
S'|'
p1025
NNNI6
I1
I0
tp1026
bS'ISOMAP'
p1027
tp1028
Rp1029
sg51
F0.2
sg218
g1018
sg52
g11
(g12
(S'S8'
p1030
I0
I1
tp1031
Rp1032
(I3
S'|'
p1033
NNNI8
I1
I0
tp1034
bS'haralick'
p1035
tp1036
Rp1037
sg34
g1012
sg216
g1015
sg61
g11
(g15
S'\x9bm\x88\x00\xee\x96\xec?'
p1038
tp1039
Rp1040
sg65
g11
(g12
(S'S3'
p1041
I0
I1
tp1042
Rp1043
(I3
S'|'
p1044
NNNI3
I1
I0
tp1045
bS'SVM'
p1046
tp1047
Rp1048
sg74
I3
sg75
g76
sg77
g11
(g15
S'\x8c\xe6\xf7+\xc8\x9c\xe2?'
p1049
tp1050
Rp1051
sg81
g82
sg83
g84
sbag4
(g5
g6
Ntp1052
Rp1053
(dp1054
g10
g11
(g15
S'\x00\x00\x00\x00\x00\x00\xf8\xff'
p1055
tp1056
Rp1057
sg21
g29
sg30
g31
sg32
(dp1058
g21
g29
sg34
g11
(g15
S'\xf1\x94\x03\xa7\x1eSS@'
p1059
tp1060
Rp1061
sg38
g11
(g15
S'\xad$\x99R\xcb\xa0\x15@'
p1062
tp1063
Rp1064
ssg42
g11
(g12
(S'S3'
p1065
I0
I1
tp1066
Rp1067
(I3
S'|'
p1068
NNNI3
I1
I0
tp1069
bS'PCA'
p1070
tp1071
Rp1072
sg51
F0.2
sg38
g1064
sg52
g11
(g12
(S'S3'
p1073
I0
I1
tp1074
Rp1075
(I3
S'|'
p1076
NNNI3
I1
I0
tp1077
bS'VGG'
p1078
tp1079
Rp1080
sg34
g1061
sg61
g11
(g15
S'}\xc9\xd4r*\x92\xf0?'
p1081
tp1082
Rp1083
sg65
g11
(g12
(S'S3'
p1084
I0
I1
tp1085
Rp1086
(I3
S'|'
p1087
NNNI3
I1
I0
tp1088
bS'SVM'
p1089
tp1090
Rp1091
sg74
I3
sg75
g76
sg77
g11
(g15
S'P\xbc\x01\xd2B\x95\xdc?'
p1092
tp1093
Rp1094
sg81
g82
sg83
g84
sbag4
(g5
g6
Ntp1095
Rp1096
(dp1097
g10
g11
(g15
S'\x00\x00\x00\x00\x00\x00\xf8\xff'
p1098
tp1099
Rp1100
sg91
g11
(g15
S'\x00\x00\x00\x00\x00@Z@'
p1101
tp1102
Rp1103
sg21
g29
sg30
g31
sg32
(dp1104
g91
g1103
sg96
g11
(g15
S'\xce="\x8f\x80\x04\xe6?'
p1105
tp1106
Rp1107
sg21
g29
ssg42
g11
(g12
(S'S3'
p1108
I0
I1
tp1109
Rp1110
(I3
S'|'
p1111
NNNI3
I1
I0
tp1112
bS'PCA'
p1113
tp1114
Rp1115
sg51
F0.2
sg52
g11
(g12
(S'S9'
p1116
I0
I1
tp1117
Rp1118
(I3
S'|'
p1119
NNNI9
I1
I0
tp1120
bS'inception'
p1121
tp1122
Rp1123
sg61
g11
(g15
S'm\xed\xf5\xfb\x14y\xf7?'
p1124
tp1125
Rp1126
sg65
g11
(g12
(S'S2'
p1127
I0
I1
tp1128
Rp1129
(I3
S'|'
p1130
NNNI2
I1
I0
tp1131
bS'RF'
p1132
tp1133
Rp1134
sg74
I3
sg96
g1107
sg75
g76
sg77
g11
(g15
S'\x17\xf0z\x1b\xfd\xa1\xe0?'
p1135
tp1136
Rp1137
sg81
g82
sg83
g84
sbag4
(g5
g6
Ntp1138
Rp1139
(dp1140
g10
g11
(g15
S'\x00\x00\x00\x00\x00\x00\xf8\xff'
p1141
tp1142
Rp1143
sg91
g11
(g15
S'\x00\x00\x00\x00\x00@e@'
p1144
tp1145
Rp1146
sg30
g31
sg196
g11
(g292
S'\x07\x00\x00\x00\x00\x00\x00\x00'
p1147
tp1148
Rp1149
sg32
(dp1150
g91
g1146
sg196
g1149
sg216
g11
(g292
S'\x03\x00\x00\x00\x00\x00\x00\x00'
p1151
tp1152
Rp1153
sg218
g11
(g292
S'\x04\x00\x00\x00\x00\x00\x00\x00'
p1154
tp1155
Rp1156
sg96
g11
(g15
S'L\xba|wNu\xdd?'
p1157
tp1158
Rp1159
ssg42
g11
(g12
(S'S6'
p1160
I0
I1
tp1161
Rp1162
(I3
S'|'
p1163
NNNI6
I1
I0
tp1164
bS'ISOMAP'
p1165
tp1166
Rp1167
sg51
F0.2
sg218
g1156
sg52
g11
(g12
(S'S8'
p1168
I0
I1
tp1169
Rp1170
(I3
S'|'
p1171
NNNI8
I1
I0
tp1172
bS'haralick'
p1173
tp1174
Rp1175
sg216
g1153
sg61
g11
(g15
S'}l\xbb\xf7\x9d\xf4\xf0?'
p1176
tp1177
Rp1178
sg65
g11
(g12
(S'S2'
p1179
I0
I1
tp1180
Rp1181
(I3
S'|'
p1182
NNNI2
I1
I0
tp1183
bS'RF'
p1184
tp1185
Rp1186
sg74
I3
sg96
g1159
sg75
g76
sg77
g11
(g15
S'Q\x8eDg\xcf\x07\xe5?'
p1187
tp1188
Rp1189
sg81
g82
sg83
g84
sbag4
(g5
g6
Ntp1190
Rp1191
(dp1192
g10
g11
(g15
S'\x00\x00\x00\x00\x00\x00\xf8\xff'
p1193
tp1194
Rp1195
sg91
g11
(g15
S'\x00\x00\x00\x00\x00\x00 @'
p1196
tp1197
Rp1198
sg21
g246
sg30
g31
sg32
(dp1199
g91
g1198
sg96
g11
(g15
S'q\xe9\xb1\xd3\x9f\x01\xd6?'
p1200
tp1201
Rp1202
sg21
g246
sg216
g11
(g292
S'\x01\x00\x00\x00\x00\x00\x00\x00'
p1203
tp1204
Rp1205
ssg42
g11
(g12
(S'S3'
p1206
I0
I1
tp1207
Rp1208
(I3
S'|'
p1209
NNNI3
I1
I0
tp1210
bS'PCA'
p1211
tp1212
Rp1213
sg51
F0.2
sg52
g11
(g12
(S'S8'
p1214
I0
I1
tp1215
Rp1216
(I3
S'|'
p1217
NNNI8
I1
I0
tp1218
bS'haralick'
p1219
tp1220
Rp1221
sg216
g1205
sg61
g11
(g15
S'\xb6L\x1f\xcad\xb9"@'
p1222
tp1223
Rp1224
sg65
g11
(g12
(S'S2'
p1225
I0
I1
tp1226
Rp1227
(I3
S'|'
p1228
NNNI2
I1
I0
tp1229
bS'RF'
p1230
tp1231
Rp1232
sg74
I3
sg96
g1202
sg75
g76
sg77
g11
(g15
S'\xc5#\x936v\x8a\xe0?'
p1233
tp1234
Rp1235
sg81
g82
sg83
g84
sbag4
(g5
g6
Ntp1236
Rp1237
(dp1238
g10
g11
(g15
S'\x00\x00\x00\x00\x00\x00\xf8\xff'
p1239
tp1240
Rp1241
sg21
g29
sg30
g31
sg32
(dp1242
g21
g29
sg34
g11
(g15
S'\x97G\xf6\xb1I\xd2X@'
p1243
tp1244
Rp1245
sg38
g11
(g15
S'\x7f\xc5\xf9\x9e\x10\x98\x1a@'
p1246
tp1247
Rp1248
ssg42
g11
(g12
(S'S3'
p1249
I0
I1
tp1250
Rp1251
(I3
S'|'
p1252
NNNI3
I1
I0
tp1253
bS'PCA'
p1254
tp1255
Rp1256
sg51
F0.2
sg38
g1248
sg52
g11
(g12
(S'S9'
p1257
I0
I1
tp1258
Rp1259
(I3
S'|'
p1260
NNNI9
I1
I0
tp1261
bS'inception'
p1262
tp1263
Rp1264
sg34
g1245
sg61
g11
(g15
S'\x9d#\x18\x86\xe9R\xf0?'
p1265
tp1266
Rp1267
sg65
g11
(g12
(S'S3'
p1268
I0
I1
tp1269
Rp1270
(I3
S'|'
p1271
NNNI3
I1
I0
tp1272
bS'SVM'
p1273
tp1274
Rp1275
sg74
I3
sg75
g76
sg77
g11
(g15
S'\x19+_\xfb\xcfM\xdf?'
p1276
tp1277
Rp1278
sg81
g82
sg83
g84
sbag4
(g5
g6
Ntp1279
Rp1280
(dp1281
g10
g11
(g15
S'\x00\x00\x00\x00\x00\x00\xf8\xff'
p1282
tp1283
Rp1284
sg196
g11
(g292
S'\x06\x00\x00\x00\x00\x00\x00\x00'
p1285
tp1286
Rp1287
sg30
g31
sg32
(dp1288
g196
g1287
sg34
g11
(g15
S'\x12\xe2\xefSb#\x1f@'
p1289
tp1290
Rp1291
sg218
g11
(g292
S'\x02\x00\x00\x00\x00\x00\x00\x00'
p1292
tp1293
Rp1294
sg38
g11
(g15
S'\x97\xff.\x91c\xe8\x0e@'
p1295
tp1296
Rp1297
ssg38
g1297
sg42
g11
(g12
(S'S6'
p1298
I0
I1
tp1299
Rp1300
(I3
S'|'
p1301
NNNI6
I1
I0
tp1302
bS'ISOMAP'
p1303
tp1304
Rp1305
sg51
F0.2
sg218
g1294
sg52
g11
(g12
(S'S3'
p1306
I0
I1
tp1307
Rp1308
(I3
S'|'
p1309
NNNI3
I1
I0
tp1310
bS'VGG'
p1311
tp1312
Rp1313
sg34
g1291
sg61
g11
(g15
S'\x90\xc2\xaf\x05\xe9\x99\xef?'
p1314
tp1315
Rp1316
sg65
g11
(g12
(S'S3'
p1317
I0
I1
tp1318
Rp1319
(I3
S'|'
p1320
NNNI3
I1
I0
tp1321
bS'SVM'
p1322
tp1323
Rp1324
sg74
I3
sg75
g76
sg77
g11
(g15
S']\x82H\xf0<x\xdf?'
p1325
tp1326
Rp1327
sg81
g82
sg83
g84
sbag4
(g5
g6
Ntp1328
Rp1329
(dp1330
g10
g11
(g15
S'\x00\x00\x00\x00\x00\x00\xf8\xff'
p1331
tp1332
Rp1333
sg91
g11
(g15
S'\x00\x00\x00\x00\x00@Z@'
p1334
tp1335
Rp1336
sg21
g246
sg30
g31
sg32
(dp1337
g91
g1336
sg96
g11
(g15
S'\xdb\xfc\xe9\xb1t\x1a\xd4?'
p1338
tp1339
Rp1340
sg21
g246
sg216
g11
(g292
S'\x02\x00\x00\x00\x00\x00\x00\x00'
p1341
tp1342
Rp1343
ssg42
g11
(g12
(S'S3'
p1344
I0
I1
tp1345
Rp1346
(I3
S'|'
p1347
NNNI3
I1
I0
tp1348
bS'PCA'
p1349
tp1350
Rp1351
sg51
F0.2
sg52
g11
(g12
(S'S8'
p1352
I0
I1
tp1353
Rp1354
(I3
S'|'
p1355
NNNI8
I1
I0
tp1356
bS'haralick'
p1357
tp1358
Rp1359
sg216
g1343
sg61
g11
(g15
S'\xf0=\x013%\x17\xf4?'
p1360
tp1361
Rp1362
sg65
g11
(g12
(S'S2'
p1363
I0
I1
tp1364
Rp1365
(I3
S'|'
p1366
NNNI2
I1
I0
tp1367
bS'RF'
p1368
tp1369
Rp1370
sg74
I3
sg96
g1340
sg75
g76
sg77
g11
(g15
S'(?/\xaa\xc5\xc2\xe4?'
p1371
tp1372
Rp1373
sg81
g82
sg83
g84
sbag4
(g5
g6
Ntp1374
Rp1375
(dp1376
g10
g11
(g15
S'\x00\x00\x00\x00\x00\x00\xf8\xff'
p1377
tp1378
Rp1379
sg196
g11
(g292
S'\x07\x00\x00\x00\x00\x00\x00\x00'
p1380
tp1381
Rp1382
sg30
g31
sg32
(dp1383
g196
g1382
sg34
g11
(g15
S'\tD\x85\xac\xb3\x93T@'
p1384
tp1385
Rp1386
sg218
g11
(g292
S'\x02\x00\x00\x00\x00\x00\x00\x00'
p1387
tp1388
Rp1389
sg38
g11
(g15
S'\x90\x9d$\xad\x8d:\x10@'
p1390
tp1391
Rp1392
ssg38
g1392
sg42
g11
(g12
(S'S6'
p1393
I0
I1
tp1394
Rp1395
(I3
S'|'
p1396
NNNI6
I1
I0
tp1397
bS'ISOMAP'
p1398
tp1399
Rp1400
sg51
F0.2
sg218
g1389
sg52
g11
(g12
(S'S9'
p1401
I0
I1
tp1402
Rp1403
(I3
S'|'
p1404
NNNI9
I1
I0
tp1405
bS'inception'
p1406
tp1407
Rp1408
sg34
g1386
sg61
g11
(g15
S'Pb\x84\x88^P\xf0?'
p1409
tp1410
Rp1411
sg65
g11
(g12
(S'S3'
p1412
I0
I1
tp1413
Rp1414
(I3
S'|'
p1415
NNNI3
I1
I0
tp1416
bS'SVM'
p1417
tp1418
Rp1419
sg74
I3
sg75
g76
sg77
g11
(g15
S'\xa1\xce\xff=\xa3}\xdf?'
p1420
tp1421
Rp1422
sg81
g82
sg83
g84
sbag4
(g5
g6
Ntp1423
Rp1424
(dp1425
g10
g11
(g15
S'\x00\x00\x00\x00\x00\x00\xf8\xff'
p1426
tp1427
Rp1428
sg91
g11
(g15
S'\x00\x00\x00\x00\x00@R@'
p1429
tp1430
Rp1431
sg30
g31
sg196
g11
(g292
S'\x03\x00\x00\x00\x00\x00\x00\x00'
p1432
tp1433
Rp1434
sg32
(dp1435
g91
g1431
sg196
g1434
sg216
g11
(g292
S'\x02\x00\x00\x00\x00\x00\x00\x00'
p1436
tp1437
Rp1438
sg218
g11
(g292
S'\x04\x00\x00\x00\x00\x00\x00\x00'
p1439
tp1440
Rp1441
sg96
g11
(g15
S'\xa1K\x1c"\x02\xe1\xe4?'
p1442
tp1443
Rp1444
ssg42
g11
(g12
(S'S6'
p1445
I0
I1
tp1446
Rp1447
(I3
S'|'
p1448
NNNI6
I1
I0
tp1449
bS'ISOMAP'
p1450
tp1451
Rp1452
sg51
F0.2
sg218
g1441
sg52
g11
(g12
(S'S8'
p1453
I0
I1
tp1454
Rp1455
(I3
S'|'
p1456
NNNI8
I1
I0
tp1457
bS'haralick'
p1458
tp1459
Rp1460
sg216
g1438
sg61
g11
(g15
S'l\x91\t\x9d\xc0\x1f\x05@'
p1461
tp1462
Rp1463
sg65
g11
(g12
(S'S2'
p1464
I0
I1
tp1465
Rp1466
(I3
S'|'
p1467
NNNI2
I1
I0
tp1468
bS'RF'
p1469
tp1470
Rp1471
sg74
I3
sg96
g1444
sg75
g76
sg77
g11
(g15
S'x9\xd4\xf9\xbfg\xe4?'
p1472
tp1473
Rp1474
sg81
g82
sg83
g84
sbag4
(g5
g6
Ntp1475
Rp1476
(dp1477
g10
g11
(g15
S'\x00\x00\x00\x00\x00\x00\xf8\xff'
p1478
tp1479
Rp1480
sg91
g11
(g15
S'\x00\x00\x00\x00\x00\xc0p@'
p1481
tp1482
Rp1483
sg30
g31
sg196
g11
(g292
S'\x03\x00\x00\x00\x00\x00\x00\x00'
p1484
tp1485
Rp1486
sg32
(dp1487
g91
g1483
sg196
g1486
sg218
g11
(g292
S'\x03\x00\x00\x00\x00\x00\x00\x00'
p1488
tp1489
Rp1490
sg96
g11
(g15
S'nC\x1f+\xfaA\xec?'
p1491
tp1492
Rp1493
ssg42
g11
(g12
(S'S6'
p1494
I0
I1
tp1495
Rp1496
(I3
S'|'
p1497
NNNI6
I1
I0
tp1498
bS'ISOMAP'
p1499
tp1500
Rp1501
sg51
F0.2
sg218
g1490
sg52
g11
(g12
(S'S9'
p1502
I0
I1
tp1503
Rp1504
(I3
S'|'
p1505
NNNI9
I1
I0
tp1506
bS'inception'
p1507
tp1508
Rp1509
sg61
g11
(g15
S'-I\xb7M\xca9\x05@'
p1510
tp1511
Rp1512
sg65
g11
(g12
(S'S2'
p1513
I0
I1
tp1514
Rp1515
(I3
S'|'
p1516
NNNI2
I1
I0
tp1517
bS'RF'
p1518
tp1519
Rp1520
sg74
I3
sg96
g1493
sg75
g76
sg77
g11
(g15
S'\x95\xed\xa0e^\xf3\xdc?'
p1521
tp1522
Rp1523
sg81
g82
sg83
g84
sbag4
(g5
g6
Ntp1524
Rp1525
(dp1526
g10
g11
(g15
S'\x00\x00\x00\x00\x00\x00\xf8\xff'
p1527
tp1528
Rp1529
sg91
g11
(g15
S'\x00\x00\x00\x00\x00@e@'
p1530
tp1531
Rp1532
sg30
g31
sg196
g11
(g292
S'\x04\x00\x00\x00\x00\x00\x00\x00'
p1533
tp1534
Rp1535
sg32
(dp1536
g91
g1532
sg196
g1535
sg218
g11
(g292
S'\x03\x00\x00\x00\x00\x00\x00\x00'
p1537
tp1538
Rp1539
sg96
g11
(g15
S'l#K\xc5\xb0\xee\xdd?'
p1540
tp1541
Rp1542
ssg42
g11
(g12
(S'S6'
p1543
I0
I1
tp1544
Rp1545
(I3
S'|'
p1546
NNNI6
I1
I0
tp1547
bS'ISOMAP'
p1548
tp1549
Rp1550
sg51
F0.2
sg218
g1539
sg52
g11
(g12
(S'S3'
p1551
I0
I1
tp1552
Rp1553
(I3
S'|'
p1554
NNNI3
I1
I0
tp1555
bS'VGG'
p1556
tp1557
Rp1558
sg61
g11
(g15
S'\xacQ\xf8\xc0k\xad\xee?'
p1559
tp1560
Rp1561
sg65
g11
(g12
(S'S2'
p1562
I0
I1
tp1563
Rp1564
(I3
S'|'
p1565
NNNI2
I1
I0
tp1566
bS'RF'
p1567
tp1568
Rp1569
sg74
I3
sg96
g1542
sg75
g76
sg77
g11
(g15
S'\xbf\xfe\x12\xa5\xb0(\xe2?'
p1570
tp1571
Rp1572
sg81
g82
sg83
g84
sbag4
(g5
g6
Ntp1573
Rp1574
(dp1575
g10
g11
(g15
S'\x00\x00\x00\x00\x00\x00\xf8\xff'
p1576
tp1577
Rp1578
sg91
g11
(g15
S'\x00\x00\x00\x00\x00@Z@'
p1579
tp1580
Rp1581
sg21
g246
sg30
g31
sg32
(dp1582
g91
g1581
sg96
g11
(g15
S'T\xcb\xbb\xe6\x18l\xdc?'
p1583
tp1584
Rp1585
sg21
g246
sg216
g11
(g292
S'\x03\x00\x00\x00\x00\x00\x00\x00'
p1586
tp1587
Rp1588
ssg42
g11
(g12
(S'S3'
p1589
I0
I1
tp1590
Rp1591
(I3
S'|'
p1592
NNNI3
I1
I0
tp1593
bS'PCA'
p1594
tp1595
Rp1596
sg51
F0.2
sg52
g11
(g12
(S'S8'
p1597
I0
I1
tp1598
Rp1599
(I3
S'|'
p1600
NNNI8
I1
I0
tp1601
bS'haralick'
p1602
tp1603
Rp1604
sg216
g1588
sg61
g11
(g15
S'\xef\x8e\x8f\xc9\xbb$\xfc?'
p1605
tp1606
Rp1607
sg65
g11
(g12
(S'S2'
p1608
I0
I1
tp1609
Rp1610
(I3
S'|'
p1611
NNNI2
I1
I0
tp1612
bS'RF'
p1613
tp1614
Rp1615
sg74
I3
sg96
g1585
sg75
g76
sg77
g11
(g15
S'\x8d<\xf4\xc5\xe5\xef\xe4?'
p1616
tp1617
Rp1618
sg81
g82
sg83
g84
sbag4
(g5
g6
Ntp1619
Rp1620
(dp1621
g10
g11
(g15
S'\x00\x00\x00\x00\x00\x00\xf8\xff'
p1622
tp1623
Rp1624
sg21
g246
sg30
g31
sg32
(dp1625
g21
g246
sg34
g11
(g15
S'\xfdV\xbb\x92\xc8\xc07@'
p1626
tp1627
Rp1628
sg38
g11
(g15
S'cB\xd2\x1f\x07\xc1\x17@'
p1629
tp1630
Rp1631
ssg42
g11
(g12
(S'S3'
p1632
I0
I1
tp1633
Rp1634
(I3
S'|'
p1635
NNNI3
I1
I0
tp1636
bS'PCA'
p1637
tp1638
Rp1639
sg51
F0.2
sg38
g1631
sg52
g11
(g12
(S'S3'
p1640
I0
I1
tp1641
Rp1642
(I3
S'|'
p1643
NNNI3
I1
I0
tp1644
bS'VGG'
p1645
tp1646
Rp1647
sg34
g1628
sg61
g11
(g15
S'\xf1Kd\x05\x17\x99\xf0?'
p1648
tp1649
Rp1650
sg65
g11
(g12
(S'S3'
p1651
I0
I1
tp1652
Rp1653
(I3
S'|'
p1654
NNNI3
I1
I0
tp1655
bS'SVM'
p1656
tp1657
Rp1658
sg74
I3
sg75
g76
sg77
g11
(g15
S'\rJ\x00#\x8b\xc3\xdc?'
p1659
tp1660
Rp1661
sg81
g82
sg83
g84
sbag4
(g5
g6
Ntp1662
Rp1663
(dp1664
g10
g11
(g15
S'\x00\x00\x00\x00\x00\x00\xf8\xff'
p1665
tp1666
Rp1667
sg91
g11
(g15
S'\x00\x00\x00\x00\x00@a@'
p1668
tp1669
Rp1670
sg30
g31
sg196
g11
(g292
S'\x03\x00\x00\x00\x00\x00\x00\x00'
p1671
tp1672
Rp1673
sg32
(dp1674
g91
g1670
sg196
g1673
sg218
g11
(g292
S'\x03\x00\x00\x00\x00\x00\x00\x00'
p1675
tp1676
Rp1677
sg96
g11
(g15
S'8\x11H\xc5\xfd\xf6\xec?'
p1678
tp1679
Rp1680
ssg42
g11
(g12
(S'S6'
p1681
I0
I1
tp1682
Rp1683
(I3
S'|'
p1684
NNNI6
I1
I0
tp1685
bS'ISOMAP'
p1686
tp1687
Rp1688
sg51
F0.2
sg218
g1677
sg52
g11
(g12
(S'S9'
p1689
I0
I1
tp1690
Rp1691
(I3
S'|'
p1692
NNNI9
I1
I0
tp1693
bS'inception'
p1694
tp1695
Rp1696
sg61
g11
(g15
S'y\xa3\x92%\x88\x1f\x03@'
p1697
tp1698
Rp1699
sg65
g11
(g12
(S'S2'
p1700
I0
I1
tp1701
Rp1702
(I3
S'|'
p1703
NNNI2
I1
I0
tp1704
bS'RF'
p1705
tp1706
Rp1707
sg74
I3
sg96
g1680
sg75
g76
sg77
g11
(g15
S'\x95\xed\xa0e^\xf3\xdc?'
p1708
tp1709
Rp1710
sg81
g82
sg83
g84
sbag4
(g5
g6
Ntp1711
Rp1712
(dp1713
g10
g11
(g15
S'\x00\x00\x00\x00\x00\x00\xf8\xff'
p1714
tp1715
Rp1716
sg91
g11
(g15
S'\x00\x00\x00\x00\x00@Z@'
p1717
tp1718
Rp1719
sg21
g246
sg30
g31
sg32
(dp1720
g91
g1719
sg96
g11
(g15
S'J\x98\xd3\x08p\x91\xee?'
p1721
tp1722
Rp1723
sg21
g246
ssg42
g11
(g12
(S'S3'
p1724
I0
I1
tp1725
Rp1726
(I3
S'|'
p1727
NNNI3
I1
I0
tp1728
bS'PCA'
p1729
tp1730
Rp1731
sg51
F0.2
sg52
g11
(g12
(S'S9'
p1732
I0
I1
tp1733
Rp1734
(I3
S'|'
p1735
NNNI9
I1
I0
tp1736
bS'inception'
p1737
tp1738
Rp1739
sg61
g11
(g15
S'\x04\xd8\x0cUP\x8e\xfa?'
p1740
tp1741
Rp1742
sg65
g11
(g12
(S'S2'
p1743
I0
I1
tp1744
Rp1745
(I3
S'|'
p1746
NNNI2
I1
I0
tp1747
bS'RF'
p1748
tp1749
Rp1750
sg74
I3
sg96
g1723
sg75
g76
sg77
g11
(g15
S'9{>\x88e\xfd\xe0?'
p1751
tp1752
Rp1753
sg81
g82
sg83
g84
sbag4
(g5
g6
Ntp1754
Rp1755
(dp1756
g10
g11
(g15
S'\x00\x00\x00\x00\x00\x00\xf8\xff'
p1757
tp1758
Rp1759
sg91
g11
(g15
S'\x00\x00\x00\x00\x00\x00D@'
p1760
tp1761
Rp1762
sg21
g29
sg30
g31
sg32
(dp1763
g91
g1762
sg96
g11
(g15
S'\x0e\xbb>\xe9\xe7P\xef?'
p1764
tp1765
Rp1766
sg21
g29
ssg42
g11
(g12
(S'S3'
p1767
I0
I1
tp1768
Rp1769
(I3
S'|'
p1770
NNNI3
I1
I0
tp1771
bS'PCA'
p1772
tp1773
Rp1774
sg51
F0.2
sg52
g11
(g12
(S'S9'
p1775
I0
I1
tp1776
Rp1777
(I3
S'|'
p1778
NNNI9
I1
I0
tp1779
bS'inception'
p1780
tp1781
Rp1782
sg61
g11
(g15
S'\x00D}G\xedj\x03@'
p1783
tp1784
Rp1785
sg65
g11
(g12
(S'S2'
p1786
I0
I1
tp1787
Rp1788
(I3
S'|'
p1789
NNNI2
I1
I0
tp1790
bS'RF'
p1791
tp1792
Rp1793
sg74
I3
sg96
g1766
sg75
g76
sg77
g11
(g15
S'\xe0\x18\xc2\xbd\xb0\x89\xe0?'
p1794
tp1795
Rp1796
sg81
g82
sg83
g84
sbag4
(g5
g6
Ntp1797
Rp1798
(dp1799
g10
g11
(g15
S'\x00\x00\x00\x00\x00\x00\xf8\xff'
p1800
tp1801
Rp1802
sg91
g11
(g15
S'\x00\x00\x00\x00\x00\x00 @'
p1803
tp1804
Rp1805
sg21
g29
sg30
g31
sg32
(dp1806
g91
g1805
sg96
g11
(g15
S'CoS\xe3\xa8\x9b\xdb?'
p1807
tp1808
Rp1809
sg21
g29
ssg42
g11
(g12
(S'S3'
p1810
I0
I1
tp1811
Rp1812
(I3
S'|'
p1813
NNNI3
I1
I0
tp1814
bS'PCA'
p1815
tp1816
Rp1817
sg51
F0.2
sg52
g11
(g12
(S'S9'
p1818
I0
I1
tp1819
Rp1820
(I3
S'|'
p1821
NNNI9
I1
I0
tp1822
bS'inception'
p1823
tp1824
Rp1825
sg61
g11
(g15
S'\x10\xa34%\xfd\xf6\x10@'
p1826
tp1827
Rp1828
sg65
g11
(g12
(S'S2'
p1829
I0
I1
tp1830
Rp1831
(I3
S'|'
p1832
NNNI2
I1
I0
tp1833
bS'RF'
p1834
tp1835
Rp1836
sg74
I3
sg96
g1809
sg75
g76
sg77
g11
(g15
S'\xada\xd5\x85\xecu\xdf?'
p1837
tp1838
Rp1839
sg81
g82
sg83
g84
sbag4
(g5
g6
Ntp1840
Rp1841
(dp1842
g10
g11
(g15
S'\x00\x00\x00\x00\x00\x00\xf8\xff'
p1843
tp1844
Rp1845
sg196
g11
(g292
S'\x03\x00\x00\x00\x00\x00\x00\x00'
p1846
tp1847
Rp1848
sg30
g31
sg32
(dp1849
g196
g1848
sg34
g11
(g15
S'\x95\xe5S\x8dP@E@'
p1850
tp1851
Rp1852
sg218
g11
(g292
S'\x02\x00\x00\x00\x00\x00\x00\x00'
p1853
tp1854
Rp1855
sg38
g11
(g15
S'\x03\xa3^\xa4Z\xe0\x19@'
p1856
tp1857
Rp1858
ssg38
g1858
sg42
g11
(g12
(S'S6'
p1859
I0
I1
tp1860
Rp1861
(I3
S'|'
p1862
NNNI6
I1
I0
tp1863
bS'ISOMAP'
p1864
tp1865
Rp1866
sg51
F0.2
sg218
g1855
sg52
g11
(g12
(S'S9'
p1867
I0
I1
tp1868
Rp1869
(I3
S'|'
p1870
NNNI9
I1
I0
tp1871
bS'inception'
p1872
tp1873
Rp1874
sg34
g1852
sg61
g11
(g15
S'\x0f\xc7\x89\xb4qg\xf0?'
p1875
tp1876
Rp1877
sg65
g11
(g12
(S'S3'
p1878
I0
I1
tp1879
Rp1880
(I3
S'|'
p1881
NNNI3
I1
I0
tp1882
bS'SVM'
p1883
tp1884
Rp1885
sg74
I3
sg75
g76
sg77
g11
(g15
S'xwwwww\xdf?'
p1886
tp1887
Rp1888
sg81
g82
sg83
g84
sbag4
(g5
g6
Ntp1889
Rp1890
(dp1891
g10
g11
(g15
S'\x00\x00\x00\x00\x00\x00\xf8\xff'
p1892
tp1893
Rp1894
sg196
g11
(g292
S'\x04\x00\x00\x00\x00\x00\x00\x00'
p1895
tp1896
Rp1897
sg30
g31
sg32
(dp1898
g196
g1897
sg34
g11
(g15
S'\x17g\xb1\x99\xf9J8@'
p1899
tp1900
Rp1901
sg216
g11
(g292
S'\x03\x00\x00\x00\x00\x00\x00\x00'
p1902
tp1903
Rp1904
sg218
g11
(g292
S'\x04\x00\x00\x00\x00\x00\x00\x00'
p1905
tp1906
Rp1907
sg38
g11
(g15
S'\xdf\x9f\x98\x8f\xf4\xf8\x1d@'
p1908
tp1909
Rp1910
ssg38
g1910
sg42
g11
(g12
(S'S6'
p1911
I0
I1
tp1912
Rp1913
(I3
S'|'
p1914
NNNI6
I1
I0
tp1915
bS'ISOMAP'
p1916
tp1917
Rp1918
sg51
F0.2
sg218
g1907
sg52
g11
(g12
(S'S8'
p1919
I0
I1
tp1920
Rp1921
(I3
S'|'
p1922
NNNI8
I1
I0
tp1923
bS'haralick'
p1924
tp1925
Rp1926
sg34
g1901
sg216
g1904
sg61
g11
(g15
S'\xd3\x8f7[\xdc\x7f\xed?'
p1927
tp1928
Rp1929
sg65
g11
(g12
(S'S3'
p1930
I0
I1
tp1931
Rp1932
(I3
S'|'
p1933
NNNI3
I1
I0
tp1934
bS'SVM'
p1935
tp1936
Rp1937
sg74
I3
sg75
g76
sg77
g11
(g15
S'X\xb3\xc4\xf8\x94i\xe3?'
p1938
tp1939
Rp1940
sg81
g82
sg83
g84
sbag4
(g5
g6
Ntp1941
Rp1942
(dp1943
g10
g11
(g15
S'\x00\x00\x00\x00\x00\x00\xf8\xff'
p1944
tp1945
Rp1946
sg91
g11
(g15
S'\x00\x00\x00\x00\x00\xc0p@'
p1947
tp1948
Rp1949
sg30
g31
sg196
g11
(g292
S'\x04\x00\x00\x00\x00\x00\x00\x00'
p1950
tp1951
Rp1952
sg32
(dp1953
g91
g1949
sg196
g1952
sg216
g11
(g292
S'\x03\x00\x00\x00\x00\x00\x00\x00'
p1954
tp1955
Rp1956
sg218
g11
(g292
S'\x04\x00\x00\x00\x00\x00\x00\x00'
p1957
tp1958
Rp1959
sg96
g11
(g15
S'#\xd2FX\xc1+\xd5?'
p1960
tp1961
Rp1962
ssg42
g11
(g12
(S'S6'
p1963
I0
I1
tp1964
Rp1965
(I3
S'|'
p1966
NNNI6
I1
I0
tp1967
bS'ISOMAP'
p1968
tp1969
Rp1970
sg51
F0.2
sg218
g1959
sg52
g11
(g12
(S'S8'
p1971
I0
I1
tp1972
Rp1973
(I3
S'|'
p1974
NNNI8
I1
I0
tp1975
bS'haralick'
p1976
tp1977
Rp1978
sg216
g1956
sg61
g11
(g15
S')\xbd\xe5\x84\x11\xa7\xf0?'
p1979
tp1980
Rp1981
sg65
g11
(g12
(S'S2'
p1982
I0
I1
tp1983
Rp1984
(I3
S'|'
p1985
NNNI2
I1
I0
tp1986
bS'RF'
p1987
tp1988
Rp1989
sg74
I3
sg96
g1962
sg75
g76
sg77
g11
(g15
S'3\xa7\x06%\x80\x91\xe5?'
p1990
tp1991
Rp1992
sg81
g82
sg83
g84
sbag4
(g5
g6
Ntp1993
Rp1994
(dp1995
g10
g11
(g15
S'\x00\x00\x00\x00\x00\x00\xf8\xff'
p1996
tp1997
Rp1998
sg91
g11
(g15
S'\x00\x00\x00\x00\x00`i@'
p1999
tp2000
Rp2001
sg21
g29
sg30
g31
sg32
(dp2002
g91
g2001
sg96
g11
(g15
S'J\xea\xd9\xe3\xbdV\xde?'
p2003
tp2004
Rp2005
sg21
g29
ssg42
g11
(g12
(S'S3'
p2006
I0
I1
tp2007
Rp2008
(I3
S'|'
p2009
NNNI3
I1
I0
tp2010
bS'PCA'
p2011
tp2012
Rp2013
sg51
F0.2
sg52
g11
(g12
(S'S3'
p2014
I0
I1
tp2015
Rp2016
(I3
S'|'
p2017
NNNI3
I1
I0
tp2018
bS'VGG'
p2019
tp2020
Rp2021
sg61
g11
(g15
S'ES\x05\xb3\x9b\xec\xe6?'
p2022
tp2023
Rp2024
sg65
g11
(g12
(S'S2'
p2025
I0
I1
tp2026
Rp2027
(I3
S'|'
p2028
NNNI2
I1
I0
tp2029
bS'RF'
p2030
tp2031
Rp2032
sg74
I3
sg96
g2005
sg75
g76
sg77
g11
(g15
S'\xdb\xd0\xb6h~\xbf\xe6?'
p2033
tp2034
Rp2035
sg81
g82
sg83
g84
sbag4
(g5
g6
Ntp2036
Rp2037
(dp2038
g10
g11
(g15
S'\x00\x00\x00\x00\x00\x00\xf8\xff'
p2039
tp2040
Rp2041
sg91
g11
(g15
S'\x00\x00\x00\x00\x00@R@'
p2042
tp2043
Rp2044
sg21
g246
sg30
g31
sg32
(dp2045
g91
g2044
sg96
g11
(g15
S'\xaeI\x97\x7f\xe6N\xd5?'
p2046
tp2047
Rp2048
sg21
g246
ssg42
g11
(g12
(S'S3'
p2049
I0
I1
tp2050
Rp2051
(I3
S'|'
p2052
NNNI3
I1
I0
tp2053
bS'PCA'
p2054
tp2055
Rp2056
sg51
F0.2
sg52
g11
(g12
(S'S9'
p2057
I0
I1
tp2058
Rp2059
(I3
S'|'
p2060
NNNI9
I1
I0
tp2061
bS'inception'
p2062
tp2063
Rp2064
sg61
g11
(g15
S'\x99\xec\xf7\xbb\xbce\xf5?'
p2065
tp2066
Rp2067
sg65
g11
(g12
(S'S2'
p2068
I0
I1
tp2069
Rp2070
(I3
S'|'
p2071
NNNI2
I1
I0
tp2072
bS'RF'
p2073
tp2074
Rp2075
sg74
I3
sg96
g2048
sg75
g76
sg77
g11
(g15
S'\xa4j\x12_\x9a\xa1\xe0?'
p2076
tp2077
Rp2078
sg81
g82
sg83
g84
sbag4
(g5
g6
Ntp2079
Rp2080
(dp2081
g10
g11
(g15
S'\x00\x00\x00\x00\x00\x00\xf8\xff'
p2082
tp2083
Rp2084
sg21
g29
sg30
g31
sg32
(dp2085
g21
g29
sg34
g11
(g15
S'\x10\xe5\x8c\xf8ED+@'
p2086
tp2087
Rp2088
sg38
g11
(g15
S'oI\x95^\xb7\xa7\x01@'
p2089
tp2090
Rp2091
ssg42
g11
(g12
(S'S3'
p2092
I0
I1
tp2093
Rp2094
(I3
S'|'
p2095
NNNI3
I1
I0
tp2096
bS'PCA'
p2097
tp2098
Rp2099
sg51
F0.2
sg38
g2091
sg52
g11
(g12
(S'S3'
p2100
I0
I1
tp2101
Rp2102
(I3
S'|'
p2103
NNNI3
I1
I0
tp2104
bS'VGG'
p2105
tp2106
Rp2107
sg34
g2088
sg61
g11
(g15
S'\xcc5\xe3`\xf7Y\xef?'
p2108
tp2109
Rp2110
sg65
g11
(g12
(S'S3'
p2111
I0
I1
tp2112
Rp2113
(I3
S'|'
p2114
NNNI3
I1
I0
tp2115
bS'SVM'
p2116
tp2117
Rp2118
sg74
I3
sg75
g76
sg77
g11
(g15
S'\xc1\x0e\xf9\xb7\xf4\xaa\xdd?'
p2119
tp2120
Rp2121
sg81
g82
sg83
g84
sbag4
(g5
g6
Ntp2122
Rp2123
(dp2124
g10
g11
(g15
S'\x00\x00\x00\x00\x00\x00\xf8\xff'
p2125
tp2126
Rp2127
sg91
g11
(g15
S'\x00\x00\x00\x00\x00@R@'
p2128
tp2129
Rp2130
sg30
g31
sg196
g11
(g292
S'\x03\x00\x00\x00\x00\x00\x00\x00'
p2131
tp2132
Rp2133
sg32
(dp2134
g91
g2130
sg196
g2133
sg218
g11
(g292
S'\x04\x00\x00\x00\x00\x00\x00\x00'
p2135
tp2136
Rp2137
sg96
g11
(g15
S'\x06\x92\xf8\xffP\xe3\xe9?'
p2138
tp2139
Rp2140
ssg42
g11
(g12
(S'S6'
p2141
I0
I1
tp2142
Rp2143
(I3
S'|'
p2144
NNNI6
I1
I0
tp2145
bS'ISOMAP'
p2146
tp2147
Rp2148
sg51
F0.2
sg218
g2137
sg52
g11
(g12
(S'S9'
p2149
I0
I1
tp2150
Rp2151
(I3
S'|'
p2152
NNNI9
I1
I0
tp2153
bS'inception'
p2154
tp2155
Rp2156
sg61
g11
(g15
S'\xfb\xd4\xbb\xf5V`\t@'
p2157
tp2158
Rp2159
sg65
g11
(g12
(S'S2'
p2160
I0
I1
tp2161
Rp2162
(I3
S'|'
p2163
NNNI2
I1
I0
tp2164
bS'RF'
p2165
tp2166
Rp2167
sg74
I3
sg96
g2140
sg75
g76
sg77
g11
(g15
S'\x88e\xfd\xc4\x1b \xdd?'
p2168
tp2169
Rp2170
sg81
g82
sg83
g84
sbag4
(g5
g6
Ntp2171
Rp2172
(dp2173
g10
g11
(g15
S'\x00\x00\x00\x00\x00\x00\xf8\xff'
p2174
tp2175
Rp2176
sg196
g11
(g292
S'\x05\x00\x00\x00\x00\x00\x00\x00'
p2177
tp2178
Rp2179
sg30
g31
sg32
(dp2180
g196
g2179
sg34
g11
(g15
S'\xefE\xcf=d\xdfR@'
p2181
tp2182
Rp2183
sg218
g11
(g292
S'\x02\x00\x00\x00\x00\x00\x00\x00'
p2184
tp2185
Rp2186
sg38
g11
(g15
S'%\x89/_r4\x19@'
p2187
tp2188
Rp2189
ssg38
g2189
sg42
g11
(g12
(S'S6'
p2190
I0
I1
tp2191
Rp2192
(I3
S'|'
p2193
NNNI6
I1
I0
tp2194
bS'ISOMAP'
p2195
tp2196
Rp2197
sg51
F0.2
sg218
g2186
sg52
g11
(g12
(S'S9'
p2198
I0
I1
tp2199
Rp2200
(I3
S'|'
p2201
NNNI9
I1
I0
tp2202
bS'inception'
p2203
tp2204
Rp2205
sg34
g2183
sg61
g11
(g15
S'\xa7\x0b\xc0\x9f\x84f\xf0?'
p2206
tp2207
Rp2208
sg65
g11
(g12
(S'S3'
p2209
I0
I1
tp2210
Rp2211
(I3
S'|'
p2212
NNNI3
I1
I0
tp2213
bS'SVM'
p2214
tp2215
Rp2216
sg74
I3
sg75
g76
sg77
g11
(g15
S'\xb9\x04\x91\xe0y\xf0\xde?'
p2217
tp2218
Rp2219
sg81
g82
sg83
g84
sbag4
(g5
g6
Ntp2220
Rp2221
(dp2222
g10
g11
(g15
S'\x00\x00\x00\x00\x00\x00\xf8\xff'
p2223
tp2224
Rp2225
sg196
g11
(g292
S'\x03\x00\x00\x00\x00\x00\x00\x00'
p2226
tp2227
Rp2228
sg30
g31
sg32
(dp2229
g196
g2228
sg34
g11
(g15
S'\x8d\xa0\xecN\x10\xbbS@'
p2230
tp2231
Rp2232
sg218
g11
(g292
S'\x03\x00\x00\x00\x00\x00\x00\x00'
p2233
tp2234
Rp2235
sg38
g11
(g15
S'\x80l\x18\xf7\xe8\x1d\x10@'
p2236
tp2237
Rp2238
ssg38
g2238
sg42
g11
(g12
(S'S6'
p2239
I0
I1
tp2240
Rp2241
(I3
S'|'
p2242
NNNI6
I1
I0
tp2243
bS'ISOMAP'
p2244
tp2245
Rp2246
sg51
F0.2
sg218
g2235
sg52
g11
(g12
(S'S9'
p2247
I0
I1
tp2248
Rp2249
(I3
S'|'
p2250
NNNI9
I1
I0
tp2251
bS'inception'
p2252
tp2253
Rp2254
sg34
g2232
sg61
g11
(g15
S'\xe5\x0658\xebO\xf0?'
p2255
tp2256
Rp2257
sg65
g11
(g12
(S'S3'
p2258
I0
I1
tp2259
Rp2260
(I3
S'|'
p2261
NNNI3
I1
I0
tp2262
bS'SVM'
p2263
tp2264
Rp2265
sg74
I3
sg75
g76
sg77
g11
(g15
S'k\xef\xd3\xd64\xa4\xdf?'
p2266
tp2267
Rp2268
sg81
g82
sg83
g84
sbag4
(g5
g6
Ntp2269
Rp2270
(dp2271
g10
g11
(g15
S'\x00\x00\x00\x00\x00\x00\xf8\xff'
p2272
tp2273
Rp2274
sg91
g11
(g15
S'\x00\x00\x00\x00\x00\xc0p@'
p2275
tp2276
Rp2277
sg30
g31
sg196
g11
(g292
S'\x03\x00\x00\x00\x00\x00\x00\x00'
p2278
tp2279
Rp2280
sg32
(dp2281
g91
g2277
sg196
g2280
sg218
g11
(g292
S'\x02\x00\x00\x00\x00\x00\x00\x00'
p2282
tp2283
Rp2284
sg96
g11
(g15
S'\xecZ\xb0\x02\xd9{\xec?'
p2285
tp2286
Rp2287
ssg42
g11
(g12
(S'S6'
p2288
I0
I1
tp2289
Rp2290
(I3
S'|'
p2291
NNNI6
I1
I0
tp2292
bS'ISOMAP'
p2293
tp2294
Rp2295
sg51
F0.2
sg218
g2284
sg52
g11
(g12
(S'S3'
p2296
I0
I1
tp2297
Rp2298
(I3
S'|'
p2299
NNNI3
I1
I0
tp2300
bS'VGG'
p2301
tp2302
Rp2303
sg61
g11
(g15
S'\xd5}\xd8\xf7F+\xf8?'
p2304
tp2305
Rp2306
sg65
g11
(g12
(S'S2'
p2307
I0
I1
tp2308
Rp2309
(I3
S'|'
p2310
NNNI2
I1
I0
tp2311
bS'RF'
p2312
tp2313
Rp2314
sg74
I3
sg96
g2287
sg75
g76
sg77
g11
(g15
S'\x95\xca\x15\xa2\xf1\x8a\xe1?'
p2315
tp2316
Rp2317
sg81
g82
sg83
g84
sbag4
(g5
g6
Ntp2318
Rp2319
(dp2320
g10
g11
(g15
S'\x00\x00\x00\x00\x00\x00\xf8\xff'
p2321
tp2322
Rp2323
sg91
g11
(g15
S'\x00\x00\x00\x00\x00`m@'
p2324
tp2325
Rp2326
sg21
g246
sg30
g31
sg32
(dp2327
g91
g2326
sg96
g11
(g15
S'kF\xc4*z\x81\xe1?'
p2328
tp2329
Rp2330
sg21
g246
ssg42
g11
(g12
(S'S3'
p2331
I0
I1
tp2332
Rp2333
(I3
S'|'
p2334
NNNI3
I1
I0
tp2335
bS'PCA'
p2336
tp2337
Rp2338
sg51
F0.2
sg52
g11
(g12
(S'S9'
p2339
I0
I1
tp2340
Rp2341
(I3
S'|'
p2342
NNNI9
I1
I0
tp2343
bS'inception'
p2344
tp2345
Rp2346
sg61
g11
(g15
S'\xd5^\xe6\x95~\x98\xf5?'
p2347
tp2348
Rp2349
sg65
g11
(g12
(S'S2'
p2350
I0
I1
tp2351
Rp2352
(I3
S'|'
p2353
NNNI2
I1
I0
tp2354
bS'RF'
p2355
tp2356
Rp2357
sg74
I3
sg96
g2330
sg75
g76
sg77
g11
(g15
S'\th\xd7z\xba\xce\xe0?'
p2358
tp2359
Rp2360
sg81
g82
sg83
g84
sbag4
(g5
g6
Ntp2361
Rp2362
(dp2363
g10
g11
(g15
S'\x00\x00\x00\x00\x00\x00\xf8\xff'
p2364
tp2365
Rp2366
sg91
g11
(g15
S'\x00\x00\x00\x00\x00\x00D@'
p2367
tp2368
Rp2369
sg30
g31
sg196
g11
(g292
S'\x06\x00\x00\x00\x00\x00\x00\x00'
p2370
tp2371
Rp2372
sg32
(dp2373
g91
g2369
sg196
g2372
sg218
g11
(g292
S'\x02\x00\x00\x00\x00\x00\x00\x00'
p2374
tp2375
Rp2376
sg96
g11
(g15
S'\x8e\xb2\x00\t\x1d\x95\xea?'
p2377
tp2378
Rp2379
ssg42
g11
(g12
(S'S6'
p2380
I0
I1
tp2381
Rp2382
(I3
S'|'
p2383
NNNI6
I1
I0
tp2384
bS'ISOMAP'
p2385
tp2386
Rp2387
sg51
F0.2
sg218
g2376
sg52
g11
(g12
(S'S9'
p2388
I0
I1
tp2389
Rp2390
(I3
S'|'
p2391
NNNI9
I1
I0
tp2392
bS'inception'
p2393
tp2394
Rp2395
sg61
g11
(g15
S'u \xadOv\xa0\x06@'
p2396
tp2397
Rp2398
sg65
g11
(g12
(S'S2'
p2399
I0
I1
tp2400
Rp2401
(I3
S'|'
p2402
NNNI2
I1
I0
tp2403
bS'RF'
p2404
tp2405
Rp2406
sg74
I3
sg96
g2379
sg75
g76
sg77
g11
(g15
S'\xed\xb3\n\x0f\x1cC\xe0?'
p2407
tp2408
Rp2409
sg81
g82
sg83
g84
sbag4
(g5
g6
Ntp2410
Rp2411
(dp2412
g10
g11
(g15
S'\x00\x00\x00\x00\x00\x00\xf8\xff'
p2413
tp2414
Rp2415
sg91
g11
(g15
S'\x00\x00\x00\x00\x00\xc0p@'
p2416
tp2417
Rp2418
sg21
g246
sg30
g31
sg32
(dp2419
g91
g2418
sg96
g11
(g15
S'\xac\t\xf4\x0e`|\xe4?'
p2420
tp2421
Rp2422
sg21
g246
ssg42
g11
(g12
(S'S3'
p2423
I0
I1
tp2424
Rp2425
(I3
S'|'
p2426
NNNI3
I1
I0
tp2427
bS'PCA'
p2428
tp2429
Rp2430
sg51
F0.2
sg52
g11
(g12
(S'S3'
p2431
I0
I1
tp2432
Rp2433
(I3
S'|'
p2434
NNNI3
I1
I0
tp2435
bS'VGG'
p2436
tp2437
Rp2438
sg61
g11
(g15
S' A\x1eh\x90\x13\xe7?'
p2439
tp2440
Rp2441
sg65
g11
(g12
(S'S2'
p2442
I0
I1
tp2443
Rp2444
(I3
S'|'
p2445
NNNI2
I1
I0
tp2446
bS'RF'
p2447
tp2448
Rp2449
sg74
I3
sg96
g2422
sg75
g76
sg77
g11
(g15
S'\x8f\xc8 \xd4\x98\x91\xe6?'
p2450
tp2451
Rp2452
sg81
g82
sg83
g84
sbag131
ag4
(g5
g6
Ntp2453
Rp2454
(dp2455
g10
g11
(g15
S'\x00\x00\x00\x00\x00\x00\xf8\xff'
p2456
tp2457
Rp2458
sg91
g11
(g15
S'\x00\x00\x00\x00\x00\x00D@'
p2459
tp2460
Rp2461
sg30
g31
sg196
g11
(g292
S'\x03\x00\x00\x00\x00\x00\x00\x00'
p2462
tp2463
Rp2464
sg32
(dp2465
g91
g2461
sg196
g2464
sg216
g11
(g292
S'\x01\x00\x00\x00\x00\x00\x00\x00'
p2466
tp2467
Rp2468
sg218
g11
(g292
S'\x02\x00\x00\x00\x00\x00\x00\x00'
p2469
tp2470
Rp2471
sg96
g11
(g15
S'\xabj\xbd\xd0\xab\x87\xd6?'
p2472
tp2473
Rp2474
ssg42
g11
(g12
(S'S6'
p2475
I0
I1
tp2476
Rp2477
(I3
S'|'
p2478
NNNI6
I1
I0
tp2479
bS'ISOMAP'
p2480
tp2481
Rp2482
sg51
F0.2
sg218
g2471
sg52
g11
(g12
(S'S8'
p2483
I0
I1
tp2484
Rp2485
(I3
S'|'
p2486
NNNI8
I1
I0
tp2487
bS'haralick'
p2488
tp2489
Rp2490
sg216
g2468
sg61
g11
(g15
S'<\xcclbY\xdd\x0b@'
p2491
tp2492
Rp2493
sg65
g11
(g12
(S'S2'
p2494
I0
I1
tp2495
Rp2496
(I3
S'|'
p2497
NNNI2
I1
I0
tp2498
bS'RF'
p2499
tp2500
Rp2501
sg74
I3
sg96
g2474
sg75
g76
sg77
g11
(g15
S'WB\xb0\xa4,o\xe1?'
p2502
tp2503
Rp2504
sg81
g82
sg83
g84
sbag4
(g5
g6
Ntp2505
Rp2506
(dp2507
g10
g11
(g15
S'\x00\x00\x00\x00\x00\x00\xf8\xff'
p2508
tp2509
Rp2510
sg91
g11
(g15
S'\x00\x00\x00\x00\x00`m@'
p2511
tp2512
Rp2513
sg21
g246
sg30
g31
sg32
(dp2514
g91
g2513
sg96
g11
(g15
S'\xce\xbc\x01\x0e@v\xe3?'
p2515
tp2516
Rp2517
sg21
g246
ssg42
g11
(g12
(S'S3'
p2518
I0
I1
tp2519
Rp2520
(I3
S'|'
p2521
NNNI3
I1
I0
tp2522
bS'PCA'
p2523
tp2524
Rp2525
sg51
F0.2
sg52
g11
(g12
(S'S3'
p2526
I0
I1
tp2527
Rp2528
(I3
S'|'
p2529
NNNI3
I1
I0
tp2530
bS'VGG'
p2531
tp2532
Rp2533
sg61
g11
(g15
S's\x7f\x8b\x9d.\x00\xe7?'
p2534
tp2535
Rp2536
sg65
g11
(g12
(S'S2'
p2537
I0
I1
tp2538
Rp2539
(I3
S'|'
p2540
NNNI2
I1
I0
tp2541
bS'RF'
p2542
tp2543
Rp2544
sg74
I3
sg96
g2517
sg75
g76
sg77
g11
(g15
S'hKN\xac\x1b\xbf\xe6?'
p2545
tp2546
Rp2547
sg81
g82
sg83
g84
sbag4
(g5
g6
Ntp2548
Rp2549
(dp2550
g10
g11
(g15
S'\x00\x00\x00\x00\x00\x00\xf8\xff'
p2551
tp2552
Rp2553
sg21
g246
sg30
g31
sg32
(dp2554
g21
g246
sg34
g11
(g15
S'\xf1\x8d\xc3/\x8a3F@'
p2555
tp2556
Rp2557
sg38
g11
(g15
S'\xc2o\x0b\x12\xbep\x12@'
p2558
tp2559
Rp2560
ssg42
g11
(g12
(S'S3'
p2561
I0
I1
tp2562
Rp2563
(I3
S'|'
p2564
NNNI3
I1
I0
tp2565
bS'PCA'
p2566
tp2567
Rp2568
sg51
F0.2
sg38
g2560
sg52
g11
(g12
(S'S3'
p2569
I0
I1
tp2570
Rp2571
(I3
S'|'
p2572
NNNI3
I1
I0
tp2573
bS'VGG'
p2574
tp2575
Rp2576
sg34
g2557
sg61
g11
(g15
S'!\x1bM\x02Ut\xf0?'
p2577
tp2578
Rp2579
sg65
g11
(g12
(S'S3'
p2580
I0
I1
tp2581
Rp2582
(I3
S'|'
p2583
NNNI3
I1
I0
tp2584
bS'SVM'
p2585
tp2586
Rp2587
sg74
I3
sg75
g76
sg77
g11
(g15
S'P\xbc\x01\xd2B\x95\xdc?'
p2588
tp2589
Rp2590
sg81
g82
sg83
g84
sbag4
(g5
g6
Ntp2591
Rp2592
(dp2593
g10
g11
(g15
S'\x00\x00\x00\x00\x00\x00\xf8\xff'
p2594
tp2595
Rp2596
sg91
g11
(g15
S'\x00\x00\x00\x00\x00`i@'
p2597
tp2598
Rp2599
sg21
g246
sg30
g31
sg32
(dp2600
g91
g2599
sg96
g11
(g15
S'/\xd5\xc5He\xa8\xd5?'
p2601
tp2602
Rp2603
sg21
g246
ssg42
g11
(g12
(S'S3'
p2604
I0
I1
tp2605
Rp2606
(I3
S'|'
p2607
NNNI3
I1
I0
tp2608
bS'PCA'
p2609
tp2610
Rp2611
sg51
F0.2
sg52
g11
(g12
(S'S9'
p2612
I0
I1
tp2613
Rp2614
(I3
S'|'
p2615
NNNI9
I1
I0
tp2616
bS'inception'
p2617
tp2618
Rp2619
sg61
g11
(g15
S'\xb3Z\x1f4\xdf\xf2\xf6?'
p2620
tp2621
Rp2622
sg65
g11
(g12
(S'S2'
p2623
I0
I1
tp2624
Rp2625
(I3
S'|'
p2626
NNNI2
I1
I0
tp2627
bS'RF'
p2628
tp2629
Rp2630
sg74
I3
sg96
g2603
sg75
g76
sg77
g11
(g15
S'1\xe5\xa9\xa27\xa1\xe0?'
p2631
tp2632
Rp2633
sg81
g82
sg83
g84
sbag4
(g5
g6
Ntp2634
Rp2635
(dp2636
g10
g11
(g15
S'\x00\x00\x00\x00\x00\x00\xf8\xff'
p2637
tp2638
Rp2639
sg196
g11
(g292
S'\x05\x00\x00\x00\x00\x00\x00\x00'
p2640
tp2641
Rp2642
sg30
g31
sg32
(dp2643
g196
g2642
sg34
g11
(g15
S'7\xba\xb88\xee\xf9W@'
p2644
tp2645
Rp2646
sg218
g11
(g292
S'\x04\x00\x00\x00\x00\x00\x00\x00'
p2647
tp2648
Rp2649
sg38
g11
(g15
S'N\xa6Z\x08\xc8\x92\x1a@'
p2650
tp2651
Rp2652
ssg38
g2652
sg42
g11
(g12
(S'S6'
p2653
I0
I1
tp2654
Rp2655
(I3
S'|'
p2656
NNNI6
I1
I0
tp2657
bS'ISOMAP'
p2658
tp2659
Rp2660
sg51
F0.2
sg218
g2649
sg52
g11
(g12
(S'S9'
p2661
I0
I1
tp2662
Rp2663
(I3
S'|'
p2664
NNNI9
I1
I0
tp2665
bS'inception'
p2666
tp2667
Rp2668
sg34
g2646
sg61
g11
(g15
S'\xd5D\xa4\xd0kj\xf0?'
p2669
tp2670
Rp2671
sg65
g11
(g12
(S'S3'
p2672
I0
I1
tp2673
Rp2674
(I3
S'|'
p2675
NNNI3
I1
I0
tp2676
bS'SVM'
p2677
tp2678
Rp2679
sg74
I3
sg75
g76
sg77
g11
(g15
S'\xc4\xcd\x96\x9cX7\xde?'
p2680
tp2681
Rp2682
sg81
g82
sg83
g84
sbag4
(g5
g6
Ntp2683
Rp2684
(dp2685
g10
g11
(g15
S'\x00\x00\x00\x00\x00\x00\xf8\xff'
p2686
tp2687
Rp2688
sg196
g11
(g292
S'\x03\x00\x00\x00\x00\x00\x00\x00'
p2689
tp2690
Rp2691
sg30
g31
sg32
(dp2692
g196
g2691
sg34
g11
(g15
S'\x1e\x08{\xe5\x19.H@'
p2693
tp2694
Rp2695
sg218
g11
(g292
S'\x04\x00\x00\x00\x00\x00\x00\x00'
p2696
tp2697
Rp2698
sg38
g11
(g15
S'\xdd\x97\x82\x01\xe5\x84\xe3?'
p2699
tp2700
Rp2701
ssg38
g2701
sg42
g11
(g12
(S'S6'
p2702
I0
I1
tp2703
Rp2704
(I3
S'|'
p2705
NNNI6
I1
I0
tp2706
bS'ISOMAP'
p2707
tp2708
Rp2709
sg51
F0.2
sg218
g2698
sg52
g11
(g12
(S'S9'
p2710
I0
I1
tp2711
Rp2712
(I3
S'|'
p2713
NNNI9
I1
I0
tp2714
bS'inception'
p2715
tp2716
Rp2717
sg34
g2695
sg61
g11
(g15
S'\x9d7\x1c\xc9N@\xf0?'
p2718
tp2719
Rp2720
sg65
g11
(g12
(S'S3'
p2721
I0
I1
tp2722
Rp2723
(I3
S'|'
p2724
NNNI3
I1
I0
tp2725
bS'SVM'
p2726
tp2727
Rp2728
sg74
I3
sg75
g76
sg77
g11
(g15
S'\xd8\x82-\xd8\x82-\xe0?'
p2729
tp2730
Rp2731
sg81
g82
sg83
g84
sbag4
(g5
g6
Ntp2732
Rp2733
(dp2734
g10
g11
(g15
S'\x00\x00\x00\x00\x00\x00\xf8\xff'
p2735
tp2736
Rp2737
sg21
g29
sg30
g31
sg32
(dp2738
g21
g29
sg34
g11
(g15
S"\x8f'\x14%\xc8EV@"
p2739
tp2740
Rp2741
sg38
g11
(g15
S'\x94\x1fa\xc5\xb4c\x15@'
p2742
tp2743
Rp2744
ssg42
g11
(g12
(S'S3'
p2745
I0
I1
tp2746
Rp2747
(I3
S'|'
p2748
NNNI3
I1
I0
tp2749
bS'PCA'
p2750
tp2751
Rp2752
sg51
F0.2
sg38
g2744
sg52
g11
(g12
(S'S3'
p2753
I0
I1
tp2754
Rp2755
(I3
S'|'
p2756
NNNI3
I1
I0
tp2757
bS'VGG'
p2758
tp2759
Rp2760
sg34
g2741
sg61
g11
(g15
S'\x83q\xc9\xae\x9e\x87\xf0?'
p2761
tp2762
Rp2763
sg65
g11
(g12
(S'S3'
p2764
I0
I1
tp2765
Rp2766
(I3
S'|'
p2767
NNNI3
I1
I0
tp2768
bS'SVM'
p2769
tp2770
Rp2771
sg74
I3
sg75
g76
sg77
g11
(g15
S'P\xbc\x01\xd2B\x95\xdc?'
p2772
tp2773
Rp2774
sg81
g82
sg83
g84
sbag4
(g5
g6
Ntp2775
Rp2776
(dp2777
g10
g11
(g15
S'\x00\x00\x00\x00\x00\x00\xf8\xff'
p2778
tp2779
Rp2780
sg196
g11
(g292
S'\x03\x00\x00\x00\x00\x00\x00\x00'
p2781
tp2782
Rp2783
sg30
g31
sg32
(dp2784
g196
g2783
sg34
g11
(g15
S'\xff9\xc3\x8d\xd1\xd0H@'
p2785
tp2786
Rp2787
sg218
g11
(g292
S'\x03\x00\x00\x00\x00\x00\x00\x00'
p2788
tp2789
Rp2790
sg38
g11
(g15
S'\xae\x17\xe6jc{\xe9?'
p2791
tp2792
Rp2793
ssg38
g2793
sg42
g11
(g12
(S'S6'
p2794
I0
I1
tp2795
Rp2796
(I3
S'|'
p2797
NNNI6
I1
I0
tp2798
bS'ISOMAP'
p2799
tp2800
Rp2801
sg51
F0.2
sg218
g2790
sg52
g11
(g12
(S'S9'
p2802
I0
I1
tp2803
Rp2804
(I3
S'|'
p2805
NNNI9
I1
I0
tp2806
bS'inception'
p2807
tp2808
Rp2809
sg34
g2787
sg61
g11
(g15
S'\xb7\x045@\x9dM\xf0?'
p2810
tp2811
Rp2812
sg65
g11
(g12
(S'S3'
p2813
I0
I1
tp2814
Rp2815
(I3
S'|'
p2816
NNNI3
I1
I0
tp2817
bS'SVM'
p2818
tp2819
Rp2820
sg74
I3
sg75
g76
sg77
g11
(g15
S')O\x15\xbd\tE\xe0?'
p2821
tp2822
Rp2823
sg81
g82
sg83
g84
sbag4
(g5
g6
Ntp2824
Rp2825
(dp2826
g10
g11
(g15
S'\x00\x00\x00\x00\x00\x00\xf8\xff'
p2827
tp2828
Rp2829
sg91
g11
(g15
S'\x00\x00\x00\x00\x00`m@'
p2830
tp2831
Rp2832
sg30
g31
sg196
g11
(g292
S'\x04\x00\x00\x00\x00\x00\x00\x00'
p2833
tp2834
Rp2835
sg32
(dp2836
g91
g2832
sg196
g2835
sg218
g11
(g292
S'\x04\x00\x00\x00\x00\x00\x00\x00'
p2837
tp2838
Rp2839
sg96
g11
(g15
S'\x86j\xbdA\x98\x1e\xe3?'
p2840
tp2841
Rp2842
ssg42
g11
(g12
(S'S6'
p2843
I0
I1
tp2844
Rp2845
(I3
S'|'
p2846
NNNI6
I1
I0
tp2847
bS'ISOMAP'
p2848
tp2849
Rp2850
sg51
F0.2
sg218
g2839
sg52
g11
(g12
(S'S3'
p2851
I0
I1
tp2852
Rp2853
(I3
S'|'
p2854
NNNI3
I1
I0
tp2855
bS'VGG'
p2856
tp2857
Rp2858
sg61
g11
(g15
S')?\x92\xb9\x83\xca\xec?'
p2859
tp2860
Rp2861
sg65
g11
(g12
(S'S2'
p2862
I0
I1
tp2863
Rp2864
(I3
S'|'
p2865
NNNI2
I1
I0
tp2866
bS'RF'
p2867
tp2868
Rp2869
sg74
I3
sg96
g2842
sg75
g76
sg77
g11
(g15
S'\x14o\x80\xb4P%\xe3?'
p2870
tp2871
Rp2872
sg81
g82
sg83
g84
sbag4
(g5
g6
Ntp2873
Rp2874
(dp2875
g10
g11
(g15
S'\x00\x00\x00\x00\x00\x00\xf8\xff'
p2876
tp2877
Rp2878
sg91
g11
(g15
S'\x00\x00\x00\x00\x00\xc0r@'
p2879
tp2880
Rp2881
sg21
g246
sg30
g31
sg32
(dp2882
g91
g2881
sg96
g11
(g15
S'hcj\xe4\xf6r\xed?'
p2883
tp2884
Rp2885
sg21
g246
ssg42
g11
(g12
(S'S3'
p2886
I0
I1
tp2887
Rp2888
(I3
S'|'
p2889
NNNI3
I1
I0
tp2890
bS'PCA'
p2891
tp2892
Rp2893
sg51
F0.2
sg52
g11
(g12
(S'S9'
p2894
I0
I1
tp2895
Rp2896
(I3
S'|'
p2897
NNNI9
I1
I0
tp2898
bS'inception'
p2899
tp2900
Rp2901
sg61
g11
(g15
S'\xbd\x1cs\xc3\x92\xbc\xf4?'
p2902
tp2903
Rp2904
sg65
g11
(g12
(S'S2'
p2905
I0
I1
tp2906
Rp2907
(I3
S'|'
p2908
NNNI2
I1
I0
tp2909
bS'RF'
p2910
tp2911
Rp2912
sg74
I3
sg96
g2885
sg75
g76
sg77
g11
(g15
S'\xad\x00\xa7D\xc8\xfd\xe0?'
p2913
tp2914
Rp2915
sg81
g82
sg83
g84
sbag4
(g5
g6
Ntp2916
Rp2917
(dp2918
g10
g11
(g15
S'\x00\x00\x00\x00\x00\x00\xf8\xff'
p2919
tp2920
Rp2921
sg21
g246
sg30
g31
sg32
(dp2922
g21
g246
sg34
g11
(g15
S'N\xa0\xf7D\x8clR@'
p2923
tp2924
Rp2925
sg38
g11
(g15
S'\x83v\xc4\xb3<\xc6\x12@'
p2926
tp2927
Rp2928
ssg42
g11
(g12
(S'S3'
p2929
I0
I1
tp2930
Rp2931
(I3
S'|'
p2932
NNNI3
I1
I0
tp2933
bS'PCA'
p2934
tp2935
Rp2936
sg51
F0.2
sg38
g2928
sg52
g11
(g12
(S'S9'
p2937
I0
I1
tp2938
Rp2939
(I3
S'|'
p2940
NNNI9
I1
I0
tp2941
bS'inception'
p2942
tp2943
Rp2944
sg34
g2925
sg61
g11
(g15
S'\xac\x98\xf8\xd9\x16D\xf0?'
p2945
tp2946
Rp2947
sg65
g11
(g12
(S'S3'
p2948
I0
I1
tp2949
Rp2950
(I3
S'|'
p2951
NNNI3
I1
I0
tp2952
bS'SVM'
p2953
tp2954
Rp2955
sg74
I3
sg75
g76
sg77
g11
(g15
S'\x9f\x0fbY?\xf1\xde?'
p2956
tp2957
Rp2958
sg81
g82
sg83
g84
sbag4
(g5
g6
Ntp2959
Rp2960
(dp2961
g10
g11
(g15
S'\x00\x00\x00\x00\x00\x00\xf8\xff'
p2962
tp2963
Rp2964
sg196
g11
(g292
S'\x05\x00\x00\x00\x00\x00\x00\x00'
p2965
tp2966
Rp2967
sg30
g31
sg32
(dp2968
g196
g2967
sg34
g11
(g15
S'A\x8bo&\xf96M@'
p2969
tp2970
Rp2971
sg218
g11
(g292
S'\x02\x00\x00\x00\x00\x00\x00\x00'
p2972
tp2973
Rp2974
sg38
g11
(g15
S'`\xa0\xe7\xd2\xdb\x80\x06@'
p2975
tp2976
Rp2977
ssg38
g2977
sg42
g11
(g12
(S'S6'
p2978
I0
I1
tp2979
Rp2980
(I3
S'|'
p2981
NNNI6
I1
I0
tp2982
bS'ISOMAP'
p2983
tp2984
Rp2985
sg51
F0.2
sg218
g2974
sg52
g11
(g12
(S'S3'
p2986
I0
I1
tp2987
Rp2988
(I3
S'|'
p2989
NNNI3
I1
I0
tp2990
bS'VGG'
p2991
tp2992
Rp2993
sg34
g2971
sg61
g11
(g15
S'\xf80\xd1f\x80\xc8\xee?'
p2994
tp2995
Rp2996
sg65
g11
(g12
(S'S3'
p2997
I0
I1
tp2998
Rp2999
(I3
S'|'
p3000
NNNI3
I1
I0
tp3001
bS'SVM'
p3002
tp3003
Rp3004
sg74
I3
sg75
g76
sg77
g11
(g15
S'\x83\xb1\x91\x87\xbe\xb8\xe0?'
p3005
tp3006
Rp3007
sg81
g82
sg83
g84
sbag4
(g5
g6
Ntp3008
Rp3009
(dp3010
g10
g11
(g15
S'\x00\x00\x00\x00\x00\x00\xf8\xff'
p3011
tp3012
Rp3013
sg196
g11
(g292
S'\x07\x00\x00\x00\x00\x00\x00\x00'
p3014
tp3015
Rp3016
sg30
g31
sg32
(dp3017
g196
g3016
sg34
g11
(g15
S'\xef\x84\x7f\xc6\xab\x8dV@'
p3018
tp3019
Rp3020
sg218
g11
(g292
S'\x04\x00\x00\x00\x00\x00\x00\x00'
p3021
tp3022
Rp3023
sg38
g11
(g15
S'\x88\xd2 p\x1a\xf2\x1d@'
p3024
tp3025
Rp3026
ssg38
g3026
sg42
g11
(g12
(S'S6'
p3027
I0
I1
tp3028
Rp3029
(I3
S'|'
p3030
NNNI6
I1
I0
tp3031
bS'ISOMAP'
p3032
tp3033
Rp3034
sg51
F0.2
sg218
g3023
sg52
g11
(g12
(S'S9'
p3035
I0
I1
tp3036
Rp3037
(I3
S'|'
p3038
NNNI9
I1
I0
tp3039
bS'inception'
p3040
tp3041
Rp3042
sg34
g3020
sg61
g11
(g15
S')\xe7\xc3k\x83\x83\xf0?'
p3043
tp3044
Rp3045
sg65
g11
(g12
(S'S3'
p3046
I0
I1
tp3047
Rp3048
(I3
S'|'
p3049
NNNI3
I1
I0
tp3050
bS'SVM'
p3051
tp3052
Rp3053
sg74
I3
sg75
g76
sg77
g11
(g15
S'm\xc9\x89u\xe3\xd7\xdf?'
p3054
tp3055
Rp3056
sg81
g82
sg83
g84
sbag4
(g5
g6
Ntp3057
Rp3058
(dp3059
g10
g11
(g15
S'\x00\x00\x00\x00\x00\x00\xf8\xff'
p3060
tp3061
Rp3062
sg196
g11
(g292
S'\x04\x00\x00\x00\x00\x00\x00\x00'
p3063
tp3064
Rp3065
sg30
g31
sg32
(dp3066
g196
g3065
sg34
g11
(g15
S'\xddNL\xcc\xb52V@'
p3067
tp3068
Rp3069
sg218
g11
(g292
S'\x03\x00\x00\x00\x00\x00\x00\x00'
p3070
tp3071
Rp3072
sg38
g11
(g15
S'\x92\xc9\x9c\x83\rj\x0c@'
p3073
tp3074
Rp3075
ssg38
g3075
sg42
g11
(g12
(S'S6'
p3076
I0
I1
tp3077
Rp3078
(I3
S'|'
p3079
NNNI6
I1
I0
tp3080
bS'ISOMAP'
p3081
tp3082
Rp3083
sg51
F0.2
sg218
g3072
sg52
g11
(g12
(S'S9'
p3084
I0
I1
tp3085
Rp3086
(I3
S'|'
p3087
NNNI9
I1
I0
tp3088
bS'inception'
p3089
tp3090
Rp3091
sg34
g3069
sg61
g11
(g15
S'\xbd\xd5\x85|cO\xf0?'
p3092
tp3093
Rp3094
sg65
g11
(g12
(S'S3'
p3095
I0
I1
tp3096
Rp3097
(I3
S'|'
p3098
NNNI3
I1
I0
tp3099
bS'SVM'
p3100
tp3101
Rp3102
sg74
I3
sg75
g76
sg77
g11
(g15
S'\xf3\x92t\x19\x08\xd4\xdf?'
p3103
tp3104
Rp3105
sg81
g82
sg83
g84
sbag4
(g5
g6
Ntp3106
Rp3107
(dp3108
g10
g11
(g15
S'\x00\x00\x00\x00\x00\x00\xf8\xff'
p3109
tp3110
Rp3111
sg196
g11
(g292
S'\x05\x00\x00\x00\x00\x00\x00\x00'
p3112
tp3113
Rp3114
sg30
g31
sg32
(dp3115
g196
g3114
sg34
g11
(g15
S'\xaf\xbe\x8d\xd0\x84\xdc\x08@'
p3116
tp3117
Rp3118
sg218
g11
(g292
S'\x03\x00\x00\x00\x00\x00\x00\x00'
p3119
tp3120
Rp3121
sg38
g11
(g15
S'\xf6)1G\xa3\x12\x12@'
p3122
tp3123
Rp3124
ssg38
g3124
sg42
g11
(g12
(S'S6'
p3125
I0
I1
tp3126
Rp3127
(I3
S'|'
p3128
NNNI6
I1
I0
tp3129
bS'ISOMAP'
p3130
tp3131
Rp3132
sg51
F0.2
sg218
g3121
sg52
g11
(g12
(S'S9'
p3133
I0
I1
tp3134
Rp3135
(I3
S'|'
p3136
NNNI9
I1
I0
tp3137
bS'inception'
p3138
tp3139
Rp3140
sg34
g3118
sg61
g11
(g15
S'S\xf7\xdb\xd5\x1ca\xf0?'
p3141
tp3142
Rp3143
sg65
g11
(g12
(S'S3'
p3144
I0
I1
tp3145
Rp3146
(I3
S'|'
p3147
NNNI3
I1
I0
tp3148
bS'SVM'
p3149
tp3150
Rp3151
sg74
I3
sg75
g76
sg77
g11
(g15
S'\xecJi\xc4\xd5\t\xde?'
p3152
tp3153
Rp3154
sg81
g82
sg83
g84
sbag4
(g5
g6
Ntp3155
Rp3156
(dp3157
g10
g11
(g15
S'\x00\x00\x00\x00\x00\x00\xf8\xff'
p3158
tp3159
Rp3160
sg196
g11
(g292
S'\x03\x00\x00\x00\x00\x00\x00\x00'
p3161
tp3162
Rp3163
sg30
g31
sg32
(dp3164
g196
g3163
sg34
g11
(g15
S"\xdb/'\xa2N\x18W@"
p3165
tp3166
Rp3167
sg218
g11
(g292
S'\x02\x00\x00\x00\x00\x00\x00\x00'
p3168
tp3169
Rp3170
sg38
g11
(g15
S'_\x9f\x85yq\xf8\x0e@'
p3171
tp3172
Rp3173
ssg38
g3173
sg42
g11
(g12
(S'S6'
p3174
I0
I1
tp3175
Rp3176
(I3
S'|'
p3177
NNNI6
I1
I0
tp3178
bS'ISOMAP'
p3179
tp3180
Rp3181
sg51
F0.2
sg218
g3170
sg52
g11
(g12
(S'S3'
p3182
I0
I1
tp3183
Rp3184
(I3
S'|'
p3185
NNNI3
I1
I0
tp3186
bS'VGG'
p3187
tp3188
Rp3189
sg34
g3167
sg61
g11
(g15
S'q~M+\x11:\xef?'
p3190
tp3191
Rp3192
sg65
g11
(g12
(S'S3'
p3193
I0
I1
tp3194
Rp3195
(I3
S'|'
p3196
NNNI3
I1
I0
tp3197
bS'SVM'
p3198
tp3199
Rp3200
sg74
I3
sg75
g76
sg77
g11
(g15
S'X\x9095(\x01\xe0?'
p3201
tp3202
Rp3203
sg81
g82
sg83
g84
sbag4
(g5
g6
Ntp3204
Rp3205
(dp3206
g10
g11
(g15
S'\x00\x00\x00\x00\x00\x00\xf8\xff'
p3207
tp3208
Rp3209
sg21
g246
sg30
g31
sg32
(dp3210
g21
g246
sg34
g11
(g15
S'H\xa4\xca6J\xdcQ@'
p3211
tp3212
Rp3213
sg38
g11
(g15
S'-L\xc6\xfc\xf1q\x1a@'
p3214
tp3215
Rp3216
ssg42
g11
(g12
(S'S3'
p3217
I0
I1
tp3218
Rp3219
(I3
S'|'
p3220
NNNI3
I1
I0
tp3221
bS'PCA'
p3222
tp3223
Rp3224
sg51
F0.2
sg38
g3216
sg52
g11
(g12
(S'S3'
p3225
I0
I1
tp3226
Rp3227
(I3
S'|'
p3228
NNNI3
I1
I0
tp3229
bS'VGG'
p3230
tp3231
Rp3232
sg34
g3213
sg61
g11
(g15
S'\x13\x86\xa3+\xf2\x95\xf0?'
p3233
tp3234
Rp3235
sg65
g11
(g12
(S'S3'
p3236
I0
I1
tp3237
Rp3238
(I3
S'|'
p3239
NNNI3
I1
I0
tp3240
bS'SVM'
p3241
tp3242
Rp3243
sg74
I3
sg75
g76
sg77
g11
(g15
S'\xcb\xd7\xfes\xd3\xf1\xdc?'
p3244
tp3245
Rp3246
sg81
g82
sg83
g84
sbag4
(g5
g6
Ntp3247
Rp3248
(dp3249
g10
g11
(g15
S'\x00\x00\x00\x00\x00\x00\xf8\xff'
p3250
tp3251
Rp3252
sg196
g11
(g292
S'\x05\x00\x00\x00\x00\x00\x00\x00'
p3253
tp3254
Rp3255
sg30
g31
sg32
(dp3256
g196
g3255
sg34
g11
(g15
S'\xfa\xf8\xfb-8\xbaD@'
p3257
tp3258
Rp3259
sg216
g11
(g292
S'\x03\x00\x00\x00\x00\x00\x00\x00'
p3260
tp3261
Rp3262
sg218
g11
(g292
S'\x03\x00\x00\x00\x00\x00\x00\x00'
p3263
tp3264
Rp3265
sg38
g11
(g15
S'\xc9WC\xce\xcc\xa0\x19@'
p3266
tp3267
Rp3268
ssg38
g3268
sg42
g11
(g12
(S'S6'
p3269
I0
I1
tp3270
Rp3271
(I3
S'|'
p3272
NNNI6
I1
I0
tp3273
bS'ISOMAP'
p3274
tp3275
Rp3276
sg51
F0.2
sg218
g3265
sg52
g11
(g12
(S'S8'
p3277
I0
I1
tp3278
Rp3279
(I3
S'|'
p3280
NNNI8
I1
I0
tp3281
bS'haralick'
p3282
tp3283
Rp3284
sg34
g3259
sg216
g3262
sg61
g11
(g15
S'\xf1\x8b\x8e$\x00n\xed?'
p3285
tp3286
Rp3287
sg65
g11
(g12
(S'S3'
p3288
I0
I1
tp3289
Rp3290
(I3
S'|'
p3291
NNNI3
I1
I0
tp3292
bS'SVM'
p3293
tp3294
Rp3295
sg74
I3
sg75
g76
sg77
g11
(g15
S'\xc9f\xea\x1fk\xf7\xe2?'
p3296
tp3297
Rp3298
sg81
g82
sg83
g84
sbag4
(g5
g6
Ntp3299
Rp3300
(dp3301
g10
g11
(g15
S'\x00\x00\x00\x00\x00\x00\xf8\xff'
p3302
tp3303
Rp3304
sg21
g246
sg30
g31
sg32
(dp3305
g21
g246
sg34
g11
(g15
S'+\x06\x11\x1e1\x05\x06@'
p3306
tp3307
Rp3308
sg38
g11
(g15
S'W\xc7\x7f\xb8am\x1d@'
p3309
tp3310
Rp3311
ssg42
g11
(g12
(S'S3'
p3312
I0
I1
tp3313
Rp3314
(I3
S'|'
p3315
NNNI3
I1
I0
tp3316
bS'PCA'
p3317
tp3318
Rp3319
sg51
F0.2
sg38
g3311
sg52
g11
(g12
(S'S9'
p3320
I0
I1
tp3321
Rp3322
(I3
S'|'
p3323
NNNI9
I1
I0
tp3324
bS'inception'
p3325
tp3326
Rp3327
sg34
g3308
sg61
g11
(g15
S'\xa3\xb6\x94\x85=G\xf0?'
p3328
tp3329
Rp3330
sg65
g11
(g12
(S'S3'
p3331
I0
I1
tp3332
Rp3333
(I3
S'|'
p3334
NNNI3
I1
I0
tp3335
bS'SVM'
p3336
tp3337
Rp3338
sg74
I3
sg75
g76
sg77
g11
(g15
S'\xac|\xed?7\x1d\xdf?'
p3339
tp3340
Rp3341
sg81
g82
sg83
g84
sbag4
(g5
g6
Ntp3342
Rp3343
(dp3344
g10
g11
(g15
S'\x00\x00\x00\x00\x00\x00\xf8\xff'
p3345
tp3346
Rp3347
sg91
g11
(g15
S'\x00\x00\x00\x00\x00\xc0r@'
p3348
tp3349
Rp3350
sg30
g31
sg196
g11
(g292
S'\x04\x00\x00\x00\x00\x00\x00\x00'
p3351
tp3352
Rp3353
sg32
(dp3354
g91
g3350
sg196
g3353
sg218
g11
(g292
S'\x02\x00\x00\x00\x00\x00\x00\x00'
p3355
tp3356
Rp3357
sg96
g11
(g15
S'\xaf\xe4-\xd7P\xce\xe3?'
p3358
tp3359
Rp3360
ssg42
g11
(g12
(S'S6'
p3361
I0
I1
tp3362
Rp3363
(I3
S'|'
p3364
NNNI6
I1
I0
tp3365
bS'ISOMAP'
p3366
tp3367
Rp3368
sg51
F0.2
sg218
g3357
sg52
g11
(g12
(S'S3'
p3369
I0
I1
tp3370
Rp3371
(I3
S'|'
p3372
NNNI3
I1
I0
tp3373
bS'VGG'
p3374
tp3375
Rp3376
sg61
g11
(g15
S'\x87\x8eM\x9f-]\xf1?'
p3377
tp3378
Rp3379
sg65
g11
(g12
(S'S2'
p3380
I0
I1
tp3381
Rp3382
(I3
S'|'
p3383
NNNI2
I1
I0
tp3384
bS'RF'
p3385
tp3386
Rp3387
sg74
I3
sg96
g3360
sg75
g76
sg77
g11
(g15
S'\xb8\xb6\x07P~^\xe0?'
p3388
tp3389
Rp3390
sg81
g82
sg83
g84
sbag4
(g5
g6
Ntp3391
Rp3392
(dp3393
g10
g11
(g15
S'\x00\x00\x00\x00\x00\x00\xf8\xff'
p3394
tp3395
Rp3396
sg91
g11
(g15
S'\x00\x00\x00\x00\x00\x00D@'
p3397
tp3398
Rp3399
sg21
g246
sg30
g31
sg32
(dp3400
g91
g3399
sg96
g11
(g15
S'\x08oM\xca\x94Q\xdf?'
p3401
tp3402
Rp3403
sg21
g246
ssg42
g11
(g12
(S'S3'
p3404
I0
I1
tp3405
Rp3406
(I3
S'|'
p3407
NNNI3
I1
I0
tp3408
bS'PCA'
p3409
tp3410
Rp3411
sg51
F0.2
sg52
g11
(g12
(S'S9'
p3412
I0
I1
tp3413
Rp3414
(I3
S'|'
p3415
NNNI9
I1
I0
tp3416
bS'inception'
p3417
tp3418
Rp3419
sg61
g11
(g15
S'I\xc8\xec\xef!h\x00@'
p3420
tp3421
Rp3422
sg65
g11
(g12
(S'S2'
p3423
I0
I1
tp3424
Rp3425
(I3
S'|'
p3426
NNNI2
I1
I0
tp3427
bS'RF'
p3428
tp3429
Rp3430
sg74
I3
sg96
g3403
sg75
g76
sg77
g11
(g15
S'\xfc\xfaK\x94\xc2\xa2\xe0?'
p3431
tp3432
Rp3433
sg81
g82
sg83
g84
sbag4
(g5
g6
Ntp3434
Rp3435
(dp3436
g10
g11
(g15
S'\x00\x00\x00\x00\x00\x00\xf8\xff'
p3437
tp3438
Rp3439
sg21
g246
sg30
g31
sg32
(dp3440
g21
g246
sg34
g11
(g15
S'\xc6\xff=\xa4\xf4mL@'
p3441
tp3442
Rp3443
sg38
g11
(g15
S'\xb7\x0bx\xc8\x07\xbf\x18@'
p3444
tp3445
Rp3446
ssg42
g11
(g12
(S'S3'
p3447
I0
I1
tp3448
Rp3449
(I3
S'|'
p3450
NNNI3
I1
I0
tp3451
bS'PCA'
p3452
tp3453
Rp3454
sg51
F0.2
sg38
g3446
sg52
g11
(g12
(S'S3'
p3455
I0
I1
tp3456
Rp3457
(I3
S'|'
p3458
NNNI3
I1
I0
tp3459
bS'VGG'
p3460
tp3461
Rp3462
sg34
g3443
sg61
g11
(g15
S'\xd94\xe3\x97\x19\x97\xf0?'
p3463
tp3464
Rp3465
sg65
g11
(g12
(S'S3'
p3466
I0
I1
tp3467
Rp3468
(I3
S'|'
p3469
NNNI3
I1
I0
tp3470
bS'SVM'
p3471
tp3472
Rp3473
sg74
I3
sg75
g76
sg77
g11
(g15
S'\rJ\x00#\x8b\xc3\xdc?'
p3474
tp3475
Rp3476
sg81
g82
sg83
g84
sbag4
(g5
g6
Ntp3477
Rp3478
(dp3479
g10
g11
(g15
S'\x00\x00\x00\x00\x00\x00\xf8\xff'
p3480
tp3481
Rp3482
sg21
g29
sg30
g31
sg32
(dp3483
g21
g29
sg34
g11
(g15
S'\xc4W\x01tUpM@'
p3484
tp3485
Rp3486
sg216
g11
(g292
S'\x01\x00\x00\x00\x00\x00\x00\x00'
p3487
tp3488
Rp3489
sg38
g11
(g15
S'\r\xd0\xb7oS\r\x01@'
p3490
tp3491
Rp3492
ssg42
g11
(g12
(S'S3'
p3493
I0
I1
tp3494
Rp3495
(I3
S'|'
p3496
NNNI3
I1
I0
tp3497
bS'PCA'
p3498
tp3499
Rp3500
sg51
F0.2
sg38
g3492
sg52
g11
(g12
(S'S8'
p3501
I0
I1
tp3502
Rp3503
(I3
S'|'
p3504
NNNI8
I1
I0
tp3505
bS'haralick'
p3506
tp3507
Rp3508
sg34
g3486
sg216
g3489
sg61
g11
(g15
S'\x8f\xba\xef\xd0>\xfb\xed?'
p3509
tp3510
Rp3511
sg65
g11
(g12
(S'S3'
p3512
I0
I1
tp3513
Rp3514
(I3
S'|'
p3515
NNNI3
I1
I0
tp3516
bS'SVM'
p3517
tp3518
Rp3519
sg74
I3
sg75
g76
sg77
g11
(g15
S'\xe0\x18\xc2\xbd\xb0\x89\xe0?'
p3520
tp3521
Rp3522
sg81
g82
sg83
g84
sbag4
(g5
g6
Ntp3523
Rp3524
(dp3525
g10
g11
(g15
S'\x00\x00\x00\x00\x00\x00\xf8\xff'
p3526
tp3527
Rp3528
sg91
g11
(g15
S'\x00\x00\x00\x00\x00`m@'
p3529
tp3530
Rp3531
sg30
g31
sg196
g11
(g292
S'\x03\x00\x00\x00\x00\x00\x00\x00'
p3532
tp3533
Rp3534
sg32
(dp3535
g91
g3531
sg196
g3534
sg216
g11
(g292
S'\x01\x00\x00\x00\x00\x00\x00\x00'
p3536
tp3537
Rp3538
sg218
g11
(g292
S'\x02\x00\x00\x00\x00\x00\x00\x00'
p3539
tp3540
Rp3541
sg96
g11
(g15
S'\r(\xb24Dc\xd9?'
p3542
tp3543
Rp3544
ssg42
g11
(g12
(S'S6'
p3545
I0
I1
tp3546
Rp3547
(I3
S'|'
p3548
NNNI6
I1
I0
tp3549
bS'ISOMAP'
p3550
tp3551
Rp3552
sg51
F0.2
sg218
g3541
sg52
g11
(g12
(S'S8'
p3553
I0
I1
tp3554
Rp3555
(I3
S'|'
p3556
NNNI8
I1
I0
tp3557
bS'haralick'
p3558
tp3559
Rp3560
sg216
g3538
sg61
g11
(g15
S'A\xf2>z\xe5\xed\x02@'
p3561
tp3562
Rp3563
sg65
g11
(g12
(S'S2'
p3564
I0
I1
tp3565
Rp3566
(I3
S'|'
p3567
NNNI2
I1
I0
tp3568
bS'RF'
p3569
tp3570
Rp3571
sg74
I3
sg96
g3544
sg75
g76
sg77
g11
(g15
S'\x97\x81@}3V\xe2?'
p3572
tp3573
Rp3574
sg81
g82
sg83
g84
sbag4
(g5
g6
Ntp3575
Rp3576
(dp3577
g10
g11
(g15
S'\x00\x00\x00\x00\x00\x00\xf8\xff'
p3578
tp3579
Rp3580
sg21
g29
sg30
g31
sg32
(dp3581
g21
g29
sg34
g11
(g15
S'\x0fX\xda,\xfb\xa6V@'
p3582
tp3583
Rp3584
sg216
g11
(g292
S'\x02\x00\x00\x00\x00\x00\x00\x00'
p3585
tp3586
Rp3587
sg38
g11
(g15
S'\xcc\xf52\x9a\xb8\x83\xf0?'
p3588
tp3589
Rp3590
ssg42
g11
(g12
(S'S3'
p3591
I0
I1
tp3592
Rp3593
(I3
S'|'
p3594
NNNI3
I1
I0
tp3595
bS'PCA'
p3596
tp3597
Rp3598
sg51
F0.2
sg38
g3590
sg52
g11
(g12
(S'S8'
p3599
I0
I1
tp3600
Rp3601
(I3
S'|'
p3602
NNNI8
I1
I0
tp3603
bS'haralick'
p3604
tp3605
Rp3606
sg34
g3584
sg216
g3587
sg61
g11
(g15
S'\xa8\x97L\xb53I\xea?'
p3607
tp3608
Rp3609
sg65
g11
(g12
(S'S3'
p3610
I0
I1
tp3611
Rp3612
(I3
S'|'
p3613
NNNI3
I1
I0
tp3614
bS'SVM'
p3615
tp3616
Rp3617
sg74
I3
sg75
g76
sg77
g11
(g15
S'\x1b\xb7\x8b\t\x83\xef\xe4?'
p3618
tp3619
Rp3620
sg81
g82
sg83
g84
sbag4
(g5
g6
Ntp3621
Rp3622
(dp3623
g10
g11
(g15
S'\x00\x00\x00\x00\x00\x00\xf8\xff'
p3624
tp3625
Rp3626
sg196
g11
(g292
S'\x07\x00\x00\x00\x00\x00\x00\x00'
p3627
tp3628
Rp3629
sg30
g31
sg32
(dp3630
g196
g3629
sg34
g11
(g15
S'\x17\x9f0\x0c:]E@'
p3631
tp3632
Rp3633
sg218
g11
(g292
S'\x02\x00\x00\x00\x00\x00\x00\x00'
p3634
tp3635
Rp3636
sg38
g11
(g15
S'\xb2z8\xb5\xc9\xf8\x0c@'
p3637
tp3638
Rp3639
ssg38
g3639
sg42
g11
(g12
(S'S6'
p3640
I0
I1
tp3641
Rp3642
(I3
S'|'
p3643
NNNI6
I1
I0
tp3644
bS'ISOMAP'
p3645
tp3646
Rp3647
sg51
F0.2
sg218
g3636
sg52
g11
(g12
(S'S3'
p3648
I0
I1
tp3649
Rp3650
(I3
S'|'
p3651
NNNI3
I1
I0
tp3652
bS'VGG'
p3653
tp3654
Rp3655
sg34
g3633
sg61
g11
(g15
S'g$\x9a\xe1D.\xf0?'
p3656
tp3657
Rp3658
sg65
g11
(g12
(S'S3'
p3659
I0
I1
tp3660
Rp3661
(I3
S'|'
p3662
NNNI3
I1
I0
tp3663
bS'SVM'
p3664
tp3665
Rp3666
sg74
I3
sg75
g76
sg77
g11
(g15
S'\x91I\x1b;E\x0e\xdc?'
p3667
tp3668
Rp3669
sg81
g82
sg83
g84
sbag4
(g5
g6
Ntp3670
Rp3671
(dp3672
g10
g11
(g15
S'\x00\x00\x00\x00\x00\x00\xf8\xff'
p3673
tp3674
Rp3675
sg196
g11
(g292
S'\x07\x00\x00\x00\x00\x00\x00\x00'
p3676
tp3677
Rp3678
sg30
g31
sg32
(dp3679
g196
g3678
sg34
g11
(g15
S'\r\xb2\xaa?\xa6\xd20@'
p3680
tp3681
Rp3682
sg218
g11
(g292
S'\x04\x00\x00\x00\x00\x00\x00\x00'
p3683
tp3684
Rp3685
sg38
g11
(g15
S'\xed\x8a\x90\x13"\x9f\x08@'
p3686
tp3687
Rp3688
ssg38
g3688
sg42
g11
(g12
(S'S6'
p3689
I0
I1
tp3690
Rp3691
(I3
S'|'
p3692
NNNI6
I1
I0
tp3693
bS'ISOMAP'
p3694
tp3695
Rp3696
sg51
F0.2
sg218
g3685
sg52
g11
(g12
(S'S3'
p3697
I0
I1
tp3698
Rp3699
(I3
S'|'
p3700
NNNI3
I1
I0
tp3701
bS'VGG'
p3702
tp3703
Rp3704
sg34
g3682
sg61
g11
(g15
S'\xfd>\xa7\x98\x83\xc0\xef?'
p3705
tp3706
Rp3707
sg65
g11
(g12
(S'S3'
p3708
I0
I1
tp3709
Rp3710
(I3
S'|'
p3711
NNNI3
I1
I0
tp3712
bS'SVM'
p3713
tp3714
Rp3715
sg74
I3
sg75
g76
sg77
g11
(g15
S'\xc7q\x1c\xc7q\x1c\xdf?'
p3716
tp3717
Rp3718
sg81
g82
sg83
g84
sbag4
(g5
g6
Ntp3719
Rp3720
(dp3721
g10
g11
(g15
S'\x00\x00\x00\x00\x00\x00\xf8\xff'
p3722
tp3723
Rp3724
sg196
g11
(g292
S'\x04\x00\x00\x00\x00\x00\x00\x00'
p3725
tp3726
Rp3727
sg30
g31
sg32
(dp3728
g196
g3727
sg34
g11
(g15
S'JO\x99\x92\x9b\xbfO@'
p3729
tp3730
Rp3731
sg218
g11
(g292
S'\x04\x00\x00\x00\x00\x00\x00\x00'
p3732
tp3733
Rp3734
sg38
g11
(g15
S'\x8e\xca?\xa9\xa6\xef\x19@'
p3735
tp3736
Rp3737
ssg38
g3737
sg42
g11
(g12
(S'S6'
p3738
I0
I1
tp3739
Rp3740
(I3
S'|'
p3741
NNNI6
I1
I0
tp3742
bS'ISOMAP'
p3743
tp3744
Rp3745
sg51
F0.2
sg218
g3734
sg52
g11
(g12
(S'S9'
p3746
I0
I1
tp3747
Rp3748
(I3
S'|'
p3749
NNNI9
I1
I0
tp3750
bS'inception'
p3751
tp3752
Rp3753
sg34
g3731
sg61
g11
(g15
S' \x1fi*>?\xf0?'
p3754
tp3755
Rp3756
sg65
g11
(g12
(S'S3'
p3757
I0
I1
tp3758
Rp3759
(I3
S'|'
p3760
NNNI3
I1
I0
tp3761
bS'SVM'
p3762
tp3763
Rp3764
sg74
I3
sg75
g76
sg77
g11
(g15
S"\xd9o\x88'ZG\xe0?"
p3765
tp3766
Rp3767
sg81
g82
sg83
g84
sbag4
(g5
g6
Ntp3768
Rp3769
(dp3770
g10
g11
(g15
S'\x00\x00\x00\x00\x00\x00\xf8\xff'
p3771
tp3772
Rp3773
sg91
g11
(g15
S'\x00\x00\x00\x00\x00`m@'
p3774
tp3775
Rp3776
sg30
g31
sg196
g11
(g292
S'\x05\x00\x00\x00\x00\x00\x00\x00'
p3777
tp3778
Rp3779
sg32
(dp3780
g91
g3776
sg196
g3779
sg218
g11
(g292
S'\x02\x00\x00\x00\x00\x00\x00\x00'
p3781
tp3782
Rp3783
sg96
g11
(g15
S'\x9e\xf4\x99*\t\xfe\xe2?'
p3784
tp3785
Rp3786
ssg42
g11
(g12
(S'S6'
p3787
I0
I1
tp3788
Rp3789
(I3
S'|'
p3790
NNNI6
I1
I0
tp3791
bS'ISOMAP'
p3792
tp3793
Rp3794
sg51
F0.2
sg218
g3783
sg52
g11
(g12
(S'S3'
p3795
I0
I1
tp3796
Rp3797
(I3
S'|'
p3798
NNNI3
I1
I0
tp3799
bS'VGG'
p3800
tp3801
Rp3802
sg61
g11
(g15
S'\xd8\x1dO\xbc\x8b\x04\xf7?'
p3803
tp3804
Rp3805
sg65
g11
(g12
(S'S2'
p3806
I0
I1
tp3807
Rp3808
(I3
S'|'
p3809
NNNI2
I1
I0
tp3810
bS'RF'
p3811
tp3812
Rp3813
sg74
I3
sg96
g3786
sg75
g76
sg77
g11
(g15
S'\xf9;\xae\xaf^\x16\xe0?'
p3814
tp3815
Rp3816
sg81
g82
sg83
g84
sbag4
(g5
g6
Ntp3817
Rp3818
(dp3819
g10
g11
(g15
S'\x00\x00\x00\x00\x00\x00\xf8\xff'
p3820
tp3821
Rp3822
sg91
g11
(g15
S'\x00\x00\x00\x00\x00\xc0p@'
p3823
tp3824
Rp3825
sg21
g29
sg30
g31
sg32
(dp3826
g91
g3825
sg96
g11
(g15
S"\xba\xf4'\xa9\x10\x13\xdc?"
p3827
tp3828
Rp3829
sg21
g29
sg216
g11
(g292
S'\x01\x00\x00\x00\x00\x00\x00\x00'
p3830
tp3831
Rp3832
ssg42
g11
(g12
(S'S3'
p3833
I0
I1
tp3834
Rp3835
(I3
S'|'
p3836
NNNI3
I1
I0
tp3837
bS'PCA'
p3838
tp3839
Rp3840
sg51
F0.2
sg52
g11
(g12
(S'S8'
p3841
I0
I1
tp3842
Rp3843
(I3
S'|'
p3844
NNNI8
I1
I0
tp3845
bS'haralick'
p3846
tp3847
Rp3848
sg216
g3832
sg61
g11
(g15
S'e\x9dhEI\x8d\x0f@'
p3849
tp3850
Rp3851
sg65
g11
(g12
(S'S2'
p3852
I0
I1
tp3853
Rp3854
(I3
S'|'
p3855
NNNI2
I1
I0
tp3856
bS'RF'
p3857
tp3858
Rp3859
sg74
I3
sg96
g3829
sg75
g76
sg77
g11
(g15
S'\x01\xd2B\x95\x8cr\xe0?'
p3860
tp3861
Rp3862
sg81
g82
sg83
g84
sbag4
(g5
g6
Ntp3863
Rp3864
(dp3865
g10
g11
(g15
S'\x00\x00\x00\x00\x00\x00\xf8\xff'
p3866
tp3867
Rp3868
sg196
g11
(g292
S'\x04\x00\x00\x00\x00\x00\x00\x00'
p3869
tp3870
Rp3871
sg30
g31
sg32
(dp3872
g196
g3871
sg34
g11
(g15
S'\x02\xe9\xe2\x1d\x93\xfcT@'
p3873
tp3874
Rp3875
sg218
g11
(g292
S'\x04\x00\x00\x00\x00\x00\x00\x00'
p3876
tp3877
Rp3878
sg38
g11
(g15
S'\xe0\xf1q\xb9O\x8a\r@'
p3879
tp3880
Rp3881
ssg38
g3881
sg42
g11
(g12
(S'S6'
p3882
I0
I1
tp3883
Rp3884
(I3
S'|'
p3885
NNNI6
I1
I0
tp3886
bS'ISOMAP'
p3887
tp3888
Rp3889
sg51
F0.2
sg218
g3878
sg52
g11
(g12
(S'S3'
p3890
I0
I1
tp3891
Rp3892
(I3
S'|'
p3893
NNNI3
I1
I0
tp3894
bS'VGG'
p3895
tp3896
Rp3897
sg34
g3875
sg61
g11
(g15
S'\xa5\x89WN4\x8b\xef?'
p3898
tp3899
Rp3900
sg65
g11
(g12
(S'S3'
p3901
I0
I1
tp3902
Rp3903
(I3
S'|'
p3904
NNNI3
I1
I0
tp3905
bS'SVM'
p3906
tp3907
Rp3908
sg74
I3
sg75
g76
sg77
g11
(g15
S'\x83\xb1\x91\x87\xbe\xb8\xe0?'
p3909
tp3910
Rp3911
sg81
g82
sg83
g84
sbag4
(g5
g6
Ntp3912
Rp3913
(dp3914
g10
g11
(g15
S'\x00\x00\x00\x00\x00\x00\xf8\xff'
p3915
tp3916
Rp3917
sg91
g11
(g15
S'\x00\x00\x00\x00\x00\xc0r@'
p3918
tp3919
Rp3920
sg21
g246
sg30
g31
sg32
(dp3921
g91
g3920
sg96
g11
(g15
S'F\xbb\xd8L\x8e\x8e\xd7?'
p3922
tp3923
Rp3924
sg21
g246
ssg42
g11
(g12
(S'S3'
p3925
I0
I1
tp3926
Rp3927
(I3
S'|'
p3928
NNNI3
I1
I0
tp3929
bS'PCA'
p3930
tp3931
Rp3932
sg51
F0.2
sg52
g11
(g12
(S'S3'
p3933
I0
I1
tp3934
Rp3935
(I3
S'|'
p3936
NNNI3
I1
I0
tp3937
bS'VGG'
p3938
tp3939
Rp3940
sg61
g11
(g15
S'\xc0O\xd66\x8d\xe4\xe6?'
p3941
tp3942
Rp3943
sg65
g11
(g12
(S'S2'
p3944
I0
I1
tp3945
Rp3946
(I3
S'|'
p3947
NNNI2
I1
I0
tp3948
bS'RF'
p3949
tp3950
Rp3951
sg74
I3
sg96
g3924
sg75
g76
sg77
g11
(g15
S'X\xf1gvLy\xe6?'
p3952
tp3953
Rp3954
sg81
g82
sg83
g84
sbag4
(g5
g6
Ntp3955
Rp3956
(dp3957
g10
g11
(g15
S'\x00\x00\x00\x00\x00\x00\xf8\xff'
p3958
tp3959
Rp3960
sg91
g11
(g15
S'\x00\x00\x00\x00\x00\xc0r@'
p3961
tp3962
Rp3963
sg21
g246
sg30
g31
sg32
(dp3964
g91
g3963
sg96
g11
(g15
S'\xdfl\xfb\x82+9\xe0?'
p3965
tp3966
Rp3967
sg21
g246
ssg42
g11
(g12
(S'S3'
p3968
I0
I1
tp3969
Rp3970
(I3
S'|'
p3971
NNNI3
I1
I0
tp3972
bS'PCA'
p3973
tp3974
Rp3975
sg51
F0.2
sg52
g11
(g12
(S'S9'
p3976
I0
I1
tp3977
Rp3978
(I3
S'|'
p3979
NNNI9
I1
I0
tp3980
bS'inception'
p3981
tp3982
Rp3983
sg61
g11
(g15
S'\x17\xb7u\xe2\xa5\xd8\xf5?'
p3984
tp3985
Rp3986
sg65
g11
(g12
(S'S2'
p3987
I0
I1
tp3988
Rp3989
(I3
S'|'
p3990
NNNI2
I1
I0
tp3991
bS'RF'
p3992
tp3993
Rp3994
sg74
I3
sg96
g3967
sg75
g76
sg77
g11
(g15
S'}\xed?7\x1d\xcf\xe0?'
p3995
tp3996
Rp3997
sg81
g82
sg83
g84
sbag4
(g5
g6
Ntp3998
Rp3999
(dp4000
g10
g11
(g15
S'\x00\x00\x00\x00\x00\x00\xf8\xff'
p4001
tp4002
Rp4003
sg91
g11
(g15
S'\x00\x00\x00\x00\x00`m@'
p4004
tp4005
Rp4006
sg21
g246
sg30
g31
sg32
(dp4007
g91
g4006
sg96
g11
(g15
S'\xf0y\x04\xb9\xcaB\xe4?'
p4008
tp4009
Rp4010
sg21
g246
ssg42
g11
(g12
(S'S3'
p4011
I0
I1
tp4012
Rp4013
(I3
S'|'
p4014
NNNI3
I1
I0
tp4015
bS'PCA'
p4016
tp4017
Rp4018
sg51
F0.2
sg52
g11
(g12
(S'S3'
p4019
I0
I1
tp4020
Rp4021
(I3
S'|'
p4022
NNNI3
I1
I0
tp4023
bS'VGG'
p4024
tp4025
Rp4026
sg61
g11
(g15
S'\xc8\x11,\x9a\x9e$\xe7?'
p4027
tp4028
Rp4029
sg65
g11
(g12
(S'S2'
p4030
I0
I1
tp4031
Rp4032
(I3
S'|'
p4033
NNNI2
I1
I0
tp4034
bS'RF'
p4035
tp4036
Rp4037
sg74
I3
sg96
g4010
sg75
g76
sg77
g11
(g15
S'\xb0\x81\xa1\xabtz\xe6?'
p4038
tp4039
Rp4040
sg81
g82
sg83
g84
sbag4
(g5
g6
Ntp4041
Rp4042
(dp4043
g10
g11
(g15
S'\x00\x00\x00\x00\x00\x00\xf8\xff'
p4044
tp4045
Rp4046
sg91
g11
(g15
S'\x00\x00\x00\x00\x00@e@'
p4047
tp4048
Rp4049
sg21
g246
sg30
g31
sg32
(dp4050
g91
g4049
sg96
g11
(g15
S'\xe23\xfe\xaa\x97\xbc\xef?'
p4051
tp4052
Rp4053
sg21
g246
sg216
g11
(g292
S'\x03\x00\x00\x00\x00\x00\x00\x00'
p4054
tp4055
Rp4056
ssg42
g11
(g12
(S'S3'
p4057
I0
I1
tp4058
Rp4059
(I3
S'|'
p4060
NNNI3
I1
I0
tp4061
bS'PCA'
p4062
tp4063
Rp4064
sg51
F0.2
sg52
g11
(g12
(S'S8'
p4065
I0
I1
tp4066
Rp4067
(I3
S'|'
p4068
NNNI8
I1
I0
tp4069
bS'haralick'
p4070
tp4071
Rp4072
sg216
g4056
sg61
g11
(g15
S'u\xd5\xc8\xf5\xe7\xd9\xf6?'
p4073
tp4074
Rp4075
sg65
g11
(g12
(S'S2'
p4076
I0
I1
tp4077
Rp4078
(I3
S'|'
p4079
NNNI2
I1
I0
tp4080
bS'RF'
p4081
tp4082
Rp4083
sg74
I3
sg96
g4053
sg75
g76
sg77
g11
(g15
S'\x00\xc2\\\x82H\xf0\xe4?'
p4084
tp4085
Rp4086
sg81
g82
sg83
g84
sbag4
(g5
g6
Ntp4087
Rp4088
(dp4089
g10
g11
(g15
S'\x00\x00\x00\x00\x00\x00\xf8\xff'
p4090
tp4091
Rp4092
sg91
g11
(g15
S'\x00\x00\x00\x00\x00@e@'
p4093
tp4094
Rp4095
sg30
g31
sg196
g11
(g292
S'\x03\x00\x00\x00\x00\x00\x00\x00'
p4096
tp4097
Rp4098
sg32
(dp4099
g91
g4095
sg196
g4098
sg218
g11
(g292
S'\x03\x00\x00\x00\x00\x00\x00\x00'
p4100
tp4101
Rp4102
sg96
g11
(g15
S'\xd9T\x8dA\xbb=\xe6?'
p4103
tp4104
Rp4105
ssg42
g11
(g12
(S'S6'
p4106
I0
I1
tp4107
Rp4108
(I3
S'|'
p4109
NNNI6
I1
I0
tp4110
bS'ISOMAP'
p4111
tp4112
Rp4113
sg51
F0.2
sg218
g4102
sg52
g11
(g12
(S'S3'
p4114
I0
I1
tp4115
Rp4116
(I3
S'|'
p4117
NNNI3
I1
I0
tp4118
bS'VGG'
p4119
tp4120
Rp4121
sg61
g11
(g15
S'\xe3f1\x14\x05?\xf5?'
p4122
tp4123
Rp4124
sg65
g11
(g12
(S'S2'
p4125
I0
I1
tp4126
Rp4127
(I3
S'|'
p4128
NNNI2
I1
I0
tp4129
bS'RF'
p4130
tp4131
Rp4132
sg74
I3
sg96
g4105
sg75
g76
sg77
g11
(g15
S'3\xd2\x04\xf2\x0e\xbb\xe0?'
p4133
tp4134
Rp4135
sg81
g82
sg83
g84
sbag4
(g5
g6
Ntp4136
Rp4137
(dp4138
g10
g11
(g15
S'\x00\x00\x00\x00\x00\x00\xf8\xff'
p4139
tp4140
Rp4141
sg21
g29
sg30
g31
sg32
(dp4142
g21
g29
sg34
g11
(g15
S'\x901=\x95\xfb\x0eD@'
p4143
tp4144
Rp4145
sg38
g11
(g15
S'Vf\xd2\xbf\xee\x05\xfa?'
p4146
tp4147
Rp4148
ssg42
g11
(g12
(S'S3'
p4149
I0
I1
tp4150
Rp4151
(I3
S'|'
p4152
NNNI3
I1
I0
tp4153
bS'PCA'
p4154
tp4155
Rp4156
sg51
F0.2
sg38
g4148
sg52
g11
(g12
(S'S9'
p4157
I0
I1
tp4158
Rp4159
(I3
S'|'
p4160
NNNI9
I1
I0
tp4161
bS'inception'
p4162
tp4163
Rp4164
sg34
g4145
sg61
g11
(g15
S'\x80D\xdaM\x84N\xf0?'
p4165
tp4166
Rp4167
sg65
g11
(g12
(S'S3'
p4168
I0
I1
tp4169
Rp4170
(I3
S'|'
p4171
NNNI3
I1
I0
tp4172
bS'SVM'
p4173
tp4174
Rp4175
sg74
I3
sg75
g76
sg77
g11
(g15
S'\xb7E\xf3\xfb\x15d\xde?'
p4176
tp4177
Rp4178
sg81
g82
sg83
g84
sbag4
(g5
g6
Ntp4179
Rp4180
(dp4181
g10
g11
(g15
S'\x00\x00\x00\x00\x00\x00\xf8\xff'
p4182
tp4183
Rp4184
sg21
g29
sg30
g31
sg32
(dp4185
g21
g29
sg34
g11
(g15
S"}'\xbc\xfb8TF@"
p4186
tp4187
Rp4188
sg216
g11
(g292
S'\x02\x00\x00\x00\x00\x00\x00\x00'
p4189
tp4190
Rp4191
sg38
g11
(g15
S'\xa5a\xa2\xbd\xe2\x04\xf4?'
p4192
tp4193
Rp4194
ssg42
g11
(g12
(S'S3'
p4195
I0
I1
tp4196
Rp4197
(I3
S'|'
p4198
NNNI3
I1
I0
tp4199
bS'PCA'
p4200
tp4201
Rp4202
sg51
F0.2
sg38
g4194
sg52
g11
(g12
(S'S8'
p4203
I0
I1
tp4204
Rp4205
(I3
S'|'
p4206
NNNI8
I1
I0
tp4207
bS'haralick'
p4208
tp4209
Rp4210
sg34
g4188
sg216
g4191
sg61
g11
(g15
S'\xf3\xc8\xaa\x95\xaaR\xea?'
p4211
tp4212
Rp4213
sg65
g11
(g12
(S'S3'
p4214
I0
I1
tp4215
Rp4216
(I3
S'|'
p4217
NNNI3
I1
I0
tp4218
bS'SVM'
p4219
tp4220
Rp4221
sg74
I3
sg75
g76
sg77
g11
(g15
S'!{\xddY$\xd9\xe4?'
p4222
tp4223
Rp4224
sg81
g82
sg83
g84
sbag4
(g5
g6
Ntp4225
Rp4226
(dp4227
g10
g11
(g15
S'\x00\x00\x00\x00\x00\x00\xf8\xff'
p4228
tp4229
Rp4230
sg196
g11
(g292
S'\x04\x00\x00\x00\x00\x00\x00\x00'
p4231
tp4232
Rp4233
sg30
g31
sg32
(dp4234
g196
g4233
sg34
g11
(g15
S'\x0c\xd4\xaa\xf3\x99}+@'
p4235
tp4236
Rp4237
sg216
g11
(g292
S'\x03\x00\x00\x00\x00\x00\x00\x00'
p4238
tp4239
Rp4240
sg218
g11
(g292
S'\x03\x00\x00\x00\x00\x00\x00\x00'
p4241
tp4242
Rp4243
sg38
g11
(g15
S'x)1\xa4\xa98\xeb?'
p4244
tp4245
Rp4246
ssg38
g4246
sg42
g11
(g12
(S'S6'
p4247
I0
I1
tp4248
Rp4249
(I3
S'|'
p4250
NNNI6
I1
I0
tp4251
bS'ISOMAP'
p4252
tp4253
Rp4254
sg51
F0.2
sg218
g4243
sg52
g11
(g12
(S'S8'
p4255
I0
I1
tp4256
Rp4257
(I3
S'|'
p4258
NNNI8
I1
I0
tp4259
bS'haralick'
p4260
tp4261
Rp4262
sg34
g4237
sg216
g4240
sg61
g11
(g15
S'hE\x1f\xec\x15v\xe9?'
p4263
tp4264
Rp4265
sg65
g11
(g12
(S'S3'
p4266
I0
I1
tp4267
Rp4268
(I3
S'|'
p4269
NNNI3
I1
I0
tp4270
bS'SVM'
p4271
tp4272
Rp4273
sg74
I3
sg75
g76
sg77
g11
(g15
S'\x95\xd2\x88\xab\x13L\xe5?'
p4274
tp4275
Rp4276
sg81
g82
sg83
g84
sbag4
(g5
g6
Ntp4277
Rp4278
(dp4279
g10
g11
(g15
S'\x00\x00\x00\x00\x00\x00\xf8\xff'
p4280
tp4281
Rp4282
sg21
g29
sg30
g31
sg32
(dp4283
g21
g29
sg34
g11
(g15
S'\xf44\x06\x19-\xd7T@'
p4284
tp4285
Rp4286
sg38
g11
(g15
S'\xd1\xd0\x0f\x82\x86=\r@'
p4287
tp4288
Rp4289
ssg42
g11
(g12
(S'S3'
p4290
I0
I1
tp4291
Rp4292
(I3
S'|'
p4293
NNNI3
I1
I0
tp4294
bS'PCA'
p4295
tp4296
Rp4297
sg51
F0.2
sg38
g4289
sg52
g11
(g12
(S'S9'
p4298
I0
I1
tp4299
Rp4300
(I3
S'|'
p4301
NNNI9
I1
I0
tp4302
bS'inception'
p4303
tp4304
Rp4305
sg34
g4286
sg61
g11
(g15
S'}B\x1aJ\x00L\xf0?'
p4306
tp4307
Rp4308
sg65
g11
(g12
(S'S3'
p4309
I0
I1
tp4310
Rp4311
(I3
S'|'
p4312
NNNI3
I1
I0
tp4313
bS'SVM'
p4314
tp4315
Rp4316
sg74
I3
sg75
g76
sg77
g11
(g15
S'\xb9\x04\x91\xe0y\xf0\xde?'
p4317
tp4318
Rp4319
sg81
g82
sg83
g84
sbag4
(g5
g6
Ntp4320
Rp4321
(dp4322
g10
g11
(g15
S'\x00\x00\x00\x00\x00\x00\xf8\xff'
p4323
tp4324
Rp4325
sg21
g246
sg30
g31
sg32
(dp4326
g21
g246
sg34
g11
(g15
S'\xa3q{\x0f\xd5\xf4R@'
p4327
tp4328
Rp4329
sg38
g11
(g15
S'\x9aF\x89\xf3\x0fW\xff?'
p4330
tp4331
Rp4332
ssg42
g11
(g12
(S'S3'
p4333
I0
I1
tp4334
Rp4335
(I3
S'|'
p4336
NNNI3
I1
I0
tp4337
bS'PCA'
p4338
tp4339
Rp4340
sg51
F0.2
sg38
g4332
sg52
g11
(g12
(S'S9'
p4341
I0
I1
tp4342
Rp4343
(I3
S'|'
p4344
NNNI9
I1
I0
tp4345
bS'inception'
p4346
tp4347
Rp4348
sg34
g4329
sg61
g11
(g15
S'\xc5E\xd3\x9co9\xf0?'
p4349
tp4350
Rp4351
sg65
g11
(g12
(S'S3'
p4352
I0
I1
tp4353
Rp4354
(I3
S'|'
p4355
NNNI3
I1
I0
tp4356
bS'SVM'
p4357
tp4358
Rp4359
sg74
I3
sg75
g76
sg77
g11
(g15
S'\x8f\xc8 \xd4\x98\x91\xde?'
p4360
tp4361
Rp4362
sg81
g82
sg83
g84
sbag4
(g5
g6
Ntp4363
Rp4364
(dp4365
g10
g11
(g15
S'\x00\x00\x00\x00\x00\x00\xf8\xff'
p4366
tp4367
Rp4368
sg91
g11
(g15
S'\x00\x00\x00\x00\x00`i@'
p4369
tp4370
Rp4371
sg30
g31
sg196
g11
(g292
S'\x04\x00\x00\x00\x00\x00\x00\x00'
p4372
tp4373
Rp4374
sg32
(dp4375
g91
g4371
sg196
g4374
sg218
g11
(g292
S'\x04\x00\x00\x00\x00\x00\x00\x00'
p4376
tp4377
Rp4378
sg96
g11
(g15
S'\xdf \x95\xecRG\xdd?'
p4379
tp4380
Rp4381
ssg42
g11
(g12
(S'S6'
p4382
I0
I1
tp4383
Rp4384
(I3
S'|'
p4385
NNNI6
I1
I0
tp4386
bS'ISOMAP'
p4387
tp4388
Rp4389
sg51
F0.2
sg218
g4378
sg52
g11
(g12
(S'S9'
p4390
I0
I1
tp4391
Rp4392
(I3
S'|'
p4393
NNNI9
I1
I0
tp4394
bS'inception'
p4395
tp4396
Rp4397
sg61
g11
(g15
S'\xe1i\x83\x88\xda_\xfc?'
p4398
tp4399
Rp4400
sg65
g11
(g12
(S'S2'
p4401
I0
I1
tp4402
Rp4403
(I3
S'|'
p4404
NNNI2
I1
I0
tp4405
bS'RF'
p4406
tp4407
Rp4408
sg74
I3
sg96
g4381
sg75
g76
sg77
g11
(g15
S'\xa3?\x14\x92\x0bx\xdd?'
p4409
tp4410
Rp4411
sg81
g82
sg83
g84
sbag4
(g5
g6
Ntp4412
Rp4413
(dp4414
g10
g11
(g15
S'\x00\x00\x00\x00\x00\x00\xf8\xff'
p4415
tp4416
Rp4417
sg21
g29
sg30
g31
sg32
(dp4418
g21
g29
sg34
g11
(g15
S'<"H\x11i\xaaF@'
p4419
tp4420
Rp4421
sg38
g11
(g15
S'\x90\x1eB\xf5\xf5\xb9\x19@'
p4422
tp4423
Rp4424
ssg42
g11
(g12
(S'S3'
p4425
I0
I1
tp4426
Rp4427
(I3
S'|'
p4428
NNNI3
I1
I0
tp4429
bS'PCA'
p4430
tp4431
Rp4432
sg51
F0.2
sg38
g4424
sg52
g11
(g12
(S'S3'
p4433
I0
I1
tp4434
Rp4435
(I3
S'|'
p4436
NNNI3
I1
I0
tp4437
bS'VGG'
p4438
tp4439
Rp4440
sg34
g4421
sg61
g11
(g15
S'[bi:W\x99\xf0?'
p4441
tp4442
Rp4443
sg65
g11
(g12
(S'S3'
p4444
I0
I1
tp4445
Rp4446
(I3
S'|'
p4447
NNNI3
I1
I0
tp4448
bS'SVM'
p4449
tp4450
Rp4451
sg74
I3
sg75
g76
sg77
g11
(g15
S'\xcb\xd7\xfes\xd3\xf1\xdc?'
p4452
tp4453
Rp4454
sg81
g82
sg83
g84
sbag4
(g5
g6
Ntp4455
Rp4456
(dp4457
g10
g11
(g15
S'\x00\x00\x00\x00\x00\x00\xf8\xff'
p4458
tp4459
Rp4460
sg21
g246
sg30
g31
sg32
(dp4461
g21
g246
sg34
g11
(g15
S'z=\xf2\x03\xc7\xb1X@'
p4462
tp4463
Rp4464
sg216
g11
(g292
S'\x02\x00\x00\x00\x00\x00\x00\x00'
p4465
tp4466
Rp4467
sg38
g11
(g15
S'\x1f\xf0\x87\x13G7\x10@'
p4468
tp4469
Rp4470
ssg42
g11
(g12
(S'S3'
p4471
I0
I1
tp4472
Rp4473
(I3
S'|'
p4474
NNNI3
I1
I0
tp4475
bS'PCA'
p4476
tp4477
Rp4478
sg51
F0.2
sg38
g4470
sg52
g11
(g12
(S'S8'
p4479
I0
I1
tp4480
Rp4481
(I3
S'|'
p4482
NNNI8
I1
I0
tp4483
bS'haralick'
p4484
tp4485
Rp4486
sg34
g4464
sg216
g4467
sg61
g11
(g15
S'\x11\xd0)\xdc\xef\xaa\xeb?'
p4487
tp4488
Rp4489
sg65
g11
(g12
(S'S3'
p4490
I0
I1
tp4491
Rp4492
(I3
S'|'
p4493
NNNI3
I1
I0
tp4494
bS'SVM'
p4495
tp4496
Rp4497
sg74
I3
sg75
g76
sg77
g11
(g15
S'Y\x98\xac>J\xc2\xe3?'
p4498
tp4499
Rp4500
sg81
g82
sg83
g84
sbag4
(g5
g6
Ntp4501
Rp4502
(dp4503
g10
g11
(g15
S'\x00\x00\x00\x00\x00\x00\xf8\xff'
p4504
tp4505
Rp4506
sg91
g11
(g15
S'\x00\x00\x00\x00\x00@a@'
p4507
tp4508
Rp4509
sg30
g31
sg196
g11
(g292
S'\x05\x00\x00\x00\x00\x00\x00\x00'
p4510
tp4511
Rp4512
sg32
(dp4513
g91
g4509
sg196
g4512
sg218
g11
(g292
S'\x04\x00\x00\x00\x00\x00\x00\x00'
p4514
tp4515
Rp4516
sg96
g11
(g15
S'Lp6F\x92\xc8\xe7?'
p4517
tp4518
Rp4519
ssg42
g11
(g12
(S'S6'
p4520
I0
I1
tp4521
Rp4522
(I3
S'|'
p4523
NNNI6
I1
I0
tp4524
bS'ISOMAP'
p4525
tp4526
Rp4527
sg51
F0.2
sg218
g4516
sg52
g11
(g12
(S'S9'
p4528
I0
I1
tp4529
Rp4530
(I3
S'|'
p4531
NNNI9
I1
I0
tp4532
bS'inception'
p4533
tp4534
Rp4535
sg61
g11
(g15
S'\xffz\xc6OK\xcc\x01@'
p4536
tp4537
Rp4538
sg65
g11
(g12
(S'S2'
p4539
I0
I1
tp4540
Rp4541
(I3
S'|'
p4542
NNNI2
I1
I0
tp4543
bS'RF'
p4544
tp4545
Rp4546
sg74
I3
sg96
g4519
sg75
g76
sg77
g11
(g15
S"\xe9p\xb3%'\xd6\xdd?"
p4547
tp4548
Rp4549
sg81
g82
sg83
g84
sbag4
(g5
g6
Ntp4550
Rp4551
(dp4552
g10
g11
(g15
S'\x00\x00\x00\x00\x00\x00\xf8\xff'
p4553
tp4554
Rp4555
sg91
g11
(g15
S'\x00\x00\x00\x00\x00\x00 @'
p4556
tp4557
Rp4558
sg30
g31
sg196
g11
(g292
S'\x07\x00\x00\x00\x00\x00\x00\x00'
p4559
tp4560
Rp4561
sg32
(dp4562
g91
g4558
sg196
g4561
sg218
g11
(g292
S'\x03\x00\x00\x00\x00\x00\x00\x00'
p4563
tp4564
Rp4565
sg96
g11
(g15
S'\xe1R(\x81\xd6\xf7\xe1?'
p4566
tp4567
Rp4568
ssg42
g11
(g12
(S'S6'
p4569
I0
I1
tp4570
Rp4571
(I3
S'|'
p4572
NNNI6
I1
I0
tp4573
bS'ISOMAP'
p4574
tp4575
Rp4576
sg51
F0.2
sg218
g4565
sg52
g11
(g12
(S'S3'
p4577
I0
I1
tp4578
Rp4579
(I3
S'|'
p4580
NNNI3
I1
I0
tp4581
bS'VGG'
p4582
tp4583
Rp4584
sg61
g11
(g15
S'\x93\xaa?%QO\x14@'
p4585
tp4586
Rp4587
sg65
g11
(g12
(S'S2'
p4588
I0
I1
tp4589
Rp4590
(I3
S'|'
p4591
NNNI2
I1
I0
tp4592
bS'RF'
p4593
tp4594
Rp4595
sg74
I3
sg96
g4568
sg75
g76
sg77
g11
(g15
S'\x8f\xad\x08\x1aN\xea\xde?'
p4596
tp4597
Rp4598
sg81
g82
sg83
g84
sbag4
(g5
g6
Ntp4599
Rp4600
(dp4601
g10
g11
(g15
S'\x00\x00\x00\x00\x00\x00\xf8\xff'
p4602
tp4603
Rp4604
sg196
g11
(g292
S'\x05\x00\x00\x00\x00\x00\x00\x00'
p4605
tp4606
Rp4607
sg30
g31
sg32
(dp4608
g196
g4607
sg34
g11
(g15
S'\x11D7\xcb\x80\x97P@'
p4609
tp4610
Rp4611
sg216
g11
(g292
S'\x02\x00\x00\x00\x00\x00\x00\x00'
p4612
tp4613
Rp4614
sg218
g11
(g292
S'\x03\x00\x00\x00\x00\x00\x00\x00'
p4615
tp4616
Rp4617
sg38
g11
(g15
S'q\x10\x8d\xdf^\x04\xcc?'
p4618
tp4619
Rp4620
ssg38
g4620
sg42
g11
(g12
(S'S6'
p4621
I0
I1
tp4622
Rp4623
(I3
S'|'
p4624
NNNI6
I1
I0
tp4625
bS'ISOMAP'
p4626
tp4627
Rp4628
sg51
F0.2
sg218
g4617
sg52
g11
(g12
(S'S8'
p4629
I0
I1
tp4630
Rp4631
(I3
S'|'
p4632
NNNI8
I1
I0
tp4633
bS'haralick'
p4634
tp4635
Rp4636
sg34
g4611
sg216
g4614
sg61
g11
(g15
S'\xfb\xa4\xe1\x00\xaa\xdf\xe9?'
p4637
tp4638
Rp4639
sg65
g11
(g12
(S'S3'
p4640
I0
I1
tp4641
Rp4642
(I3
S'|'
p4643
NNNI3
I1
I0
tp4644
bS'SVM'
p4645
tp4646
Rp4647
sg74
I3
sg75
g76
sg77
g11
(g15
S'\xec\x90\x7fK\xaf\xda\xe4?'
p4648
tp4649
Rp4650
sg81
g82
sg83
g84
sbag4
(g5
g6
Ntp4651
Rp4652
(dp4653
g10
g11
(g15
S'\x00\x00\x00\x00\x00\x00\xf8\xff'
p4654
tp4655
Rp4656
sg91
g11
(g15
S'\x00\x00\x00\x00\x00@Z@'
p4657
tp4658
Rp4659
sg21
g246
sg30
g31
sg32
(dp4660
g91
g4659
sg96
g11
(g15
S'\xba\xd4\x03_A\xc5\xe7?'
p4661
tp4662
Rp4663
sg21
g246
ssg42
g11
(g12
(S'S3'
p4664
I0
I1
tp4665
Rp4666
(I3
S'|'
p4667
NNNI3
I1
I0
tp4668
bS'PCA'
p4669
tp4670
Rp4671
sg51
F0.2
sg52
g11
(g12
(S'S3'
p4672
I0
I1
tp4673
Rp4674
(I3
S'|'
p4675
NNNI3
I1
I0
tp4676
bS'VGG'
p4677
tp4678
Rp4679
sg61
g11
(g15
S',m\xd4\xa8\xda:\xe7?'
p4680
tp4681
Rp4682
sg65
g11
(g12
(S'S2'
p4683
I0
I1
tp4684
Rp4685
(I3
S'|'
p4686
NNNI2
I1
I0
tp4687
bS'RF'
p4688
tp4689
Rp4690
sg74
I3
sg96
g4663
sg75
g76
sg77
g11
(g15
S'%\xd9L\xfdc\xed\xe6?'
p4691
tp4692
Rp4693
sg81
g82
sg83
g84
sbag4
(g5
g6
Ntp4694
Rp4695
(dp4696
g10
g11
(g15
S'\x00\x00\x00\x00\x00\x00\xf8\xff'
p4697
tp4698
Rp4699
sg91
g11
(g15
S'\x00\x00\x00\x00\x00@Z@'
p4700
tp4701
Rp4702
sg21
g246
sg30
g31
sg32
(dp4703
g91
g4702
sg96
g11
(g15
S'k\xffe\xd3\xb0_\xe9?'
p4704
tp4705
Rp4706
sg21
g246
sg216
g11
(g292
S'\x01\x00\x00\x00\x00\x00\x00\x00'
p4707
tp4708
Rp4709
ssg42
g11
(g12
(S'S3'
p4710
I0
I1
tp4711
Rp4712
(I3
S'|'
p4713
NNNI3
I1
I0
tp4714
bS'PCA'
p4715
tp4716
Rp4717
sg51
F0.2
sg52
g11
(g12
(S'S8'
p4718
I0
I1
tp4719
Rp4720
(I3
S'|'
p4721
NNNI8
I1
I0
tp4722
bS'haralick'
p4723
tp4724
Rp4725
sg216
g4709
sg61
g11
(g15
S"o\x7f\xf3\x11'\x02\x13@"
p4726
tp4727
Rp4728
sg65
g11
(g12
(S'S2'
p4729
I0
I1
tp4730
Rp4731
(I3
S'|'
p4732
NNNI2
I1
I0
tp4733
bS'RF'
p4734
tp4735
Rp4736
sg74
I3
sg96
g4706
sg75
g76
sg77
g11
(g15
S'\x01\xd2B\x95\x8cr\xe0?'
p4737
tp4738
Rp4739
sg81
g82
sg83
g84
sbag4
(g5
g6
Ntp4740
Rp4741
(dp4742
g10
g11
(g15
S'\x00\x00\x00\x00\x00\x00\xf8\xff'
p4743
tp4744
Rp4745
sg91
g11
(g15
S'\x00\x00\x00\x00\x00\xc0r@'
p4746
tp4747
Rp4748
sg30
g31
sg196
g11
(g292
S'\x03\x00\x00\x00\x00\x00\x00\x00'
p4749
tp4750
Rp4751
sg32
(dp4752
g91
g4748
sg196
g4751
sg216
g11
(g292
S'\x02\x00\x00\x00\x00\x00\x00\x00'
p4753
tp4754
Rp4755
sg218
g11
(g292
S'\x02\x00\x00\x00\x00\x00\x00\x00'
p4756
tp4757
Rp4758
sg96
g11
(g15
S'\xee_6[{Q\xee?'
p4759
tp4760
Rp4761
ssg42
g11
(g12
(S'S6'
p4762
I0
I1
tp4763
Rp4764
(I3
S'|'
p4765
NNNI6
I1
I0
tp4766
bS'ISOMAP'
p4767
tp4768
Rp4769
sg51
F0.2
sg218
g4758
sg52
g11
(g12
(S'S8'
p4770
I0
I1
tp4771
Rp4772
(I3
S'|'
p4773
NNNI8
I1
I0
tp4774
bS'haralick'
p4775
tp4776
Rp4777
sg216
g4755
sg61
g11
(g15
S'E}\x97M\xbc[\x00@'
p4778
tp4779
Rp4780
sg65
g11
(g12
(S'S2'
p4781
I0
I1
tp4782
Rp4783
(I3
S'|'
p4784
NNNI2
I1
I0
tp4785
bS'RF'
p4786
tp4787
Rp4788
sg74
I3
sg96
g4761
sg75
g76
sg77
g11
(g15
S'q\xd6\xb0\xeaB\xf6\xe2?'
p4789
tp4790
Rp4791
sg81
g82
sg83
g84
sbag4
(g5
g6
Ntp4792
Rp4793
(dp4794
g10
g11
(g15
S'\x00\x00\x00\x00\x00\x00\xf8\xff'
p4795
tp4796
Rp4797
sg21
g29
sg30
g31
sg32
(dp4798
g21
g29
sg34
g11
(g15
S't\x84\xca7M\xcaL@'
p4799
tp4800
Rp4801
sg38
g11
(g15
S'|\x83k\xf9\xf4\t\x15@'
p4802
tp4803
Rp4804
ssg42
g11
(g12
(S'S3'
p4805
I0
I1
tp4806
Rp4807
(I3
S'|'
p4808
NNNI3
I1
I0
tp4809
bS'PCA'
p4810
tp4811
Rp4812
sg51
F0.2
sg38
g4804
sg52
g11
(g12
(S'S9'
p4813
I0
I1
tp4814
Rp4815
(I3
S'|'
p4816
NNNI9
I1
I0
tp4817
bS'inception'
p4818
tp4819
Rp4820
sg34
g4801
sg61
g11
(g15
S'\x9c@3\xdf\x92E\xf0?'
p4821
tp4822
Rp4823
sg65
g11
(g12
(S'S3'
p4824
I0
I1
tp4825
Rp4826
(I3
S'|'
p4827
NNNI3
I1
I0
tp4828
bS'SVM'
p4829
tp4830
Rp4831
sg74
I3
sg75
g76
sg77
g11
(g15
S'\x19+_\xfb\xcfM\xdf?'
p4832
tp4833
Rp4834
sg81
g82
sg83
g84
sbag4
(g5
g6
Ntp4835
Rp4836
(dp4837
g10
g11
(g15
S'\x00\x00\x00\x00\x00\x00\xf8\xff'
p4838
tp4839
Rp4840
sg91
g11
(g15
S'\x00\x00\x00\x00\x00@a@'
p4841
tp4842
Rp4843
sg30
g31
sg196
g11
(g292
S'\x03\x00\x00\x00\x00\x00\x00\x00'
p4844
tp4845
Rp4846
sg32
(dp4847
g91
g4843
sg196
g4846
sg216
g11
(g292
S'\x02\x00\x00\x00\x00\x00\x00\x00'
p4848
tp4849
Rp4850
sg218
g11
(g292
S'\x03\x00\x00\x00\x00\x00\x00\x00'
p4851
tp4852
Rp4853
sg96
g11
(g15
S'!4\x97\xdc5\x86\xd6?'
p4854
tp4855
Rp4856
ssg42
g11
(g12
(S'S6'
p4857
I0
I1
tp4858
Rp4859
(I3
S'|'
p4860
NNNI6
I1
I0
tp4861
bS'ISOMAP'
p4862
tp4863
Rp4864
sg51
F0.2
sg218
g4853
sg52
g11
(g12
(S'S8'
p4865
I0
I1
tp4866
Rp4867
(I3
S'|'
p4868
NNNI8
I1
I0
tp4869
bS'haralick'
p4870
tp4871
Rp4872
sg216
g4850
sg61
g11
(g15
S'}}\xcf\xd1U\xaa\xfe?'
p4873
tp4874
Rp4875
sg65
g11
(g12
(S'S2'
p4876
I0
I1
tp4877
Rp4878
(I3
S'|'
p4879
NNNI2
I1
I0
tp4880
bS'RF'
p4881
tp4882
Rp4883
sg74
I3
sg96
g4856
sg75
g76
sg77
g11
(g15
S'GT*W\x88\xc6\xe3?'
p4884
tp4885
Rp4886
sg81
g82
sg83
g84
sbasS'error_curve'
p4887
(lp4888
g64
ag64
ag118
ag118
ag118
ag118
ag118
ag118
ag118
ag118
ag118
ag118
ag118
ag118
ag118
ag118
ag118
ag118
ag118
ag118
ag118
ag118
ag118
ag118
ag118
ag118
ag118
ag118
ag118
ag118
ag118
ag118
ag118
ag118
ag118
ag118
ag118
ag118
ag118
ag118
ag118
ag118
ag118
ag118
ag118
ag118
ag118
ag118
ag118
ag161
ag161
ag161
ag161
ag161
ag161
ag161
ag161
ag161
ag161
ag161
ag161
ag161
ag161
ag161
ag161
ag161
ag161
ag161
ag161
ag161
ag161
ag161
ag161
ag161
ag161
ag161
ag161
ag161
ag161
ag161
ag161
ag161
ag161
ag161
ag161
ag161
ag161
ag161
ag161
ag161
ag161
ag161
ag161
ag161
ag161
ag161
ag161
ag161
ag161
ag161
ag161
ag161
asS'iters'
p4889
I51
sg30
g31
sS'results_loc'
p4890
S'/gpfs/u/home/CGHI/CGHIarch/barn/EP_project/results/'
p4891
sS'times'
p4892
(lp4893
F0.18413710594177246
aF2.7243590354919434
aF4.331716060638428
aF5.297171115875244
aF7.254370927810669
aF9.97368597984314
aF10.163279056549072
aF32.299209117889404
aF32.79269504547119
aF54.96657204627991
aF55.16198110580444
aF57.15496611595154
aF81.61696600914001
aF81.81317901611328
aF106.6932430267334
aF107.27265691757202
aF132.54228711128235
aF133.6596269607544
aF158.9316029548645
aF159.15944409370422
aF160.1388499736786
aF183.86354804039001
aF205.85514903068542
aF206.04731798171997
aF206.63347506523132
aF229.5593740940094
aF230.0393509864807
aF252.8265950679779
aF255.33289408683777
aF257.21779108047485
aF280.32095193862915
aF280.54345703125
aF282.0095269680023
aF283.01511812210083
aF283.46891808509827
aF283.6459319591522
aF284.08936500549316
aF306.83047795295715
aF333.60572600364685
aF335.5337510108948
aF336.2248890399933
aF336.435506105423
aF337.4153690338135
aF337.8918950557709
aF338.3431749343872
aF340.91864490509033
aF342.9461600780487
aF343.7423460483551
aF346.36582589149475
aF348.9878990650177
aF371.05965089797974
aF373.35574293136597
aF373.58957600593567
aF375.313383102417
aF375.79149889945984
aF376.23677110671997
aF376.4600479602814
aF376.8985960483551
aF379.26100397109985
aF381.99859595298767
aF382.1971380710602
aF382.80685806274414
aF383.3041880130768
aF383.7625958919525
aF384.21805906295776
aF384.80885791778564
aF385.03364610671997
aF407.24278593063354
aF407.4258749485016
aF410.2513530254364
aF410.68757009506226
aF410.91094398498535
aF433.4024569988251
aF459.7802469730377
aF484.355712890625
aF484.97900199890137
aF485.5922429561615
aF486.05862498283386
aF488.3922030925751
aF514.9360010623932
aF515.5280709266663
aF518.3026919364929
aF520.8401479721069
aF523.1444160938263
aF546.7125859260559
aF548.5470099449158
aF548.7292709350586
aF571.4268770217896
aF593.8631899356842
aF594.0575180053711
aF594.2432630062103
aF596.2001469135284
aF596.4259450435638
aF618.4831309318542
aF619.9817779064178
aF620.5877950191498
aF643.3081910610199
aF644.4415860176086
aF667.1640870571136
aF691.7330710887909
aF691.9265348911285
aF717.2524969577789
asS'data_loc'
p4894
g84
sS'run'
p4895
I3
sg81
S'random_MCMC'
p4896
sb.