(iprototypes.random_based_mcmc1
random_MCMC
p0
(dp1
S'best_pipelines'
p2
(lp3
ccopy_reg
_reconstructor
p4
(cprototypes.data_analytic_pipeline
image_classification_pipeline
p5
c__builtin__
object
p6
Ntp7
Rp8
(dp9
S'f1_score'
p10
cnumpy.core.multiarray
scalar
p11
(cnumpy
dtype
p12
(S'f8'
p13
I0
I1
tp14
Rp15
(I3
S'<'
p16
NNNI-1
I-1
I0
tp17
bS'\x00\x00\x00\x00\x00\x00\xf8\xff'
p18
tp19
Rp20
sS'n_estimators'
p21
g11
(g15
S'\x00\x00\x00\x00\x00\x00D@'
p22
tp23
Rp24
sS'pca_whiten'
p25
g11
(g12
(S'b1'
p26
I0
I1
tp27
Rp28
(I3
S'|'
p29
NNNI-1
I-1
I0
tp30
bS'\x01'
p31
tp32
Rp33
sS'data_name'
p34
S'matsc_dataset1'
p35
sS'kwargs'
p36
(dp37
g21
g24
sS'max_features'
p38
g11
(g15
S'd\xa1\n5\xa6\x14\xde?'
p39
tp40
Rp41
sg25
g33
sS'haralick_distance'
p42
g11
(g12
(S'i8'
p43
I0
I1
tp44
Rp45
(I3
S'<'
p46
NNNI-1
I-1
I0
tp47
bS'\x02\x00\x00\x00\x00\x00\x00\x00'
p48
tp49
Rp50
ssS'dimensionality_reduction'
p51
g11
(g12
(S'S3'
p52
I0
I1
tp53
Rp54
(I3
S'|'
p55
NNNI3
I1
I0
tp56
bS'PCA'
p57
tp58
Rp59
sS'test_size'
p60
F0.2
sS'feature_extraction'
p61
g11
(g12
(S'S8'
p62
I0
I1
tp63
Rp64
(I3
S'|'
p65
NNNI8
I1
I0
tp66
bS'haralick'
p67
tp68
Rp69
sg42
g50
sS'result'
p70
g11
(g15
S'\x8c\xcc\xdc\xc1(\xf6\xec?'
p71
tp72
Rp73
sS'learning_algorithm'
p74
g11
(g12
(S'S2'
p75
I0
I1
tp76
Rp77
(I3
S'|'
p78
NNNI2
I1
I0
tp79
bS'RF'
p80
tp81
Rp82
sS'val_splits'
p83
I3
sg38
g41
sS'ml_type'
p84
S'validation'
p85
sS'accuracy'
p86
g11
(g15
S'\xc7\xbd\xcf\xab\xf3c\xeb?'
p87
tp88
Rp89
sS'type1'
p90
S'random1'
p91
sS'data_location'
p92
S'/gpfs/u/home/CGHI/CGHIarch/barn/EP_project/data/'
p93
sbag4
(g5
g6
Ntp94
Rp95
(dp96
g10
g11
(g15
S'\x00\x00\x00\x00\x00\x00\xf8\xff'
p97
tp98
Rp99
sS'n_neighbors'
p100
g11
(g45
S'\x07\x00\x00\x00\x00\x00\x00\x00'
p101
tp102
Rp103
sg34
g35
sg36
(dp104
g100
g103
sS'svm_C'
p105
g11
(g15
S'[\xa5\xe5\xb1\xfa\xe73@'
p106
tp107
Rp108
sg42
g11
(g45
S'\x01\x00\x00\x00\x00\x00\x00\x00'
p109
tp110
Rp111
sS'n_components'
p112
g11
(g45
S'\x04\x00\x00\x00\x00\x00\x00\x00'
p113
tp114
Rp115
sS'svm_gamma'
p116
g11
(g15
S'\x9b\xa5\xace\xfb\xb2\x16@'
p117
tp118
Rp119
ssg116
g119
sg51
g11
(g12
(S'S6'
p120
I0
I1
tp121
Rp122
(I3
S'|'
p123
NNNI6
I1
I0
tp124
bS'ISOMAP'
p125
tp126
Rp127
sg60
F0.2
sg112
g115
sg61
g11
(g12
(S'S8'
p128
I0
I1
tp129
Rp130
(I3
S'|'
p131
NNNI8
I1
I0
tp132
bS'haralick'
p133
tp134
Rp135
sg105
g108
sg42
g111
sg70
g11
(g15
S'\xf8]\xa5b\r\x90\xdb?'
p136
tp137
Rp138
sg74
g11
(g12
(S'S3'
p139
I0
I1
tp140
Rp141
(I3
S'|'
p142
NNNI3
I1
I0
tp143
bS'SVM'
p144
tp145
Rp146
sg83
I3
sg84
g85
sg86
g11
(g15
S'g\xd8\xf4\xbb-J\xe9?'
p147
tp148
Rp149
sg90
g91
sg92
g93
sbag4
(g5
g6
Ntp150
Rp151
(dp152
g10
g11
(g15
S'\x00\x00\x00\x00\x00\x00\xf8\xff'
p153
tp154
Rp155
sg25
g33
sg34
g35
sg36
(dp156
g25
g33
sg105
g11
(g15
S'\xb3\xa8\xcd\xab\xaa<J@'
p157
tp158
Rp159
sg116
g11
(g15
S'\r\xe3%\xa4V\x81\x0f@'
p160
tp161
Rp162
ssg51
g11
(g12
(S'S3'
p163
I0
I1
tp164
Rp165
(I3
S'|'
p166
NNNI3
I1
I0
tp167
bS'PCA'
p168
tp169
Rp170
sg60
F0.2
sg116
g162
sg61
g11
(g12
(S'S3'
p171
I0
I1
tp172
Rp173
(I3
S'|'
p174
NNNI3
I1
I0
tp175
bS'VGG'
p176
tp177
Rp178
sg105
g159
sg70
g11
(g15
S'l\xb2\xa6\x14(s\xd8?'
p179
tp180
Rp181
sg74
g11
(g12
(S'S3'
p182
I0
I1
tp183
Rp184
(I3
S'|'
p185
NNNI3
I1
I0
tp186
bS'SVM'
p187
tp188
Rp189
sg83
I3
sg84
g85
sg86
g11
(g15
S'\xf8=\xb1\xca\x97\xfd\xe9?'
p190
tp191
Rp192
sg90
g91
sg92
g93
sbag4
(g5
g6
Ntp193
Rp194
(dp195
g10
g11
(g15
S'\x00\x00\x00\x00\x00\x00\xf8\xff'
p196
tp197
Rp198
sg100
g11
(g45
S'\x03\x00\x00\x00\x00\x00\x00\x00'
p199
tp200
Rp201
sg34
g35
sg36
(dp202
g100
g201
sg105
g11
(g15
S'\x0fs\xb3\xee\xd3\x82/@'
p203
tp204
Rp205
sg112
g11
(g45
S'\x04\x00\x00\x00\x00\x00\x00\x00'
p206
tp207
Rp208
sg116
g11
(g15
S'\x0fk2\x10r\xb7\t@'
p209
tp210
Rp211
ssg116
g211
sg51
g11
(g12
(S'S6'
p212
I0
I1
tp213
Rp214
(I3
S'|'
p215
NNNI6
I1
I0
tp216
bS'ISOMAP'
p217
tp218
Rp219
sg60
F0.2
sg112
g208
sg61
g11
(g12
(S'S3'
p220
I0
I1
tp221
Rp222
(I3
S'|'
p223
NNNI3
I1
I0
tp224
bS'VGG'
p225
tp226
Rp227
sg105
g205
sg70
g11
(g15
S'\x80\x0et\xd6\xc6x\xd7?'
p228
tp229
Rp230
sg74
g11
(g12
(S'S3'
p231
I0
I1
tp232
Rp233
(I3
S'|'
p234
NNNI3
I1
I0
tp235
bS'SVM'
p236
tp237
Rp238
sg83
I3
sg84
g85
sg86
g11
(g15
S'\xefP\x8b\x16\x00-\xeb?'
p239
tp240
Rp241
sg90
g91
sg92
g93
sbag4
(g5
g6
Ntp242
Rp243
(dp244
g10
g11
(g15
S'\x00\x00\x00\x00\x00\x00\xf8\xff'
p245
tp246
Rp247
sg100
g11
(g45
S'\x06\x00\x00\x00\x00\x00\x00\x00'
p248
tp249
Rp250
sg34
g35
sg36
(dp251
g100
g250
sg105
g11
(g15
S"\x9c\x1e$\x0f'\xff\x14@"
p252
tp253
Rp254
sg112
g11
(g45
S'\x03\x00\x00\x00\x00\x00\x00\x00'
p255
tp256
Rp257
sg116
g11
(g15
S"q\xbe\xef\xf3\xef'\x01@"
p258
tp259
Rp260
ssg116
g260
sg51
g11
(g12
(S'S6'
p261
I0
I1
tp262
Rp263
(I3
S'|'
p264
NNNI6
I1
I0
tp265
bS'ISOMAP'
p266
tp267
Rp268
sg60
F0.2
sg112
g257
sg61
g11
(g12
(S'S3'
p269
I0
I1
tp270
Rp271
(I3
S'|'
p272
NNNI3
I1
I0
tp273
bS'VGG'
p274
tp275
Rp276
sg105
g254
sg70
g11
(g15
S'\xcfq\x003#\n\xd6?'
p277
tp278
Rp279
sg74
g11
(g12
(S'S3'
p280
I0
I1
tp281
Rp282
(I3
S'|'
p283
NNNI3
I1
I0
tp284
bS'SVM'
p285
tp286
Rp287
sg83
I3
sg84
g85
sg86
g11
(g15
S'\xf7!\xcbx\x1d\xd4\xea?'
p288
tp289
Rp290
sg90
g91
sg92
g93
sbag4
(g5
g6
Ntp291
Rp292
(dp293
g10
g11
(g15
S'\x00\x00\x00\x00\x00\x00\xf8\xff'
p294
tp295
Rp296
sg21
g11
(g15
S'\x00\x00\x00\x00\x00@R@'
p297
tp298
Rp299
sg25
g33
sg34
g35
sg36
(dp300
g21
g299
sg38
g11
(g15
S'\xd6\xf1N\x01\xfb\xa5\xe8?'
p301
tp302
Rp303
sg25
g33
ssg51
g11
(g12
(S'S3'
p304
I0
I1
tp305
Rp306
(I3
S'|'
p307
NNNI3
I1
I0
tp308
bS'PCA'
p309
tp310
Rp311
sg60
F0.2
sg61
g11
(g12
(S'S3'
p312
I0
I1
tp313
Rp314
(I3
S'|'
p315
NNNI3
I1
I0
tp316
bS'VGG'
p317
tp318
Rp319
sg70
g11
(g15
S'\xfb\xc8(N\xd2J\xd3?'
p320
tp321
Rp322
sg74
g11
(g12
(S'S2'
p323
I0
I1
tp324
Rp325
(I3
S'|'
p326
NNNI2
I1
I0
tp327
bS'RF'
p328
tp329
Rp330
sg83
I3
sg38
g303
sg84
g85
sg86
g11
(g15
S'\x87\x1f\xeeP\x8b\x16\xec?'
p331
tp332
Rp333
sg90
g91
sg92
g93
sbag4
(g5
g6
Ntp334
Rp335
(dp336
g10
g11
(g15
S'\x00\x00\x00\x00\x00\x00\xf8\xff'
p337
tp338
Rp339
sg21
g11
(g15
S'\x00\x00\x00\x00\x00@a@'
p340
tp341
Rp342
sg25
g33
sg34
g35
sg36
(dp343
g21
g342
sg38
g11
(g15
S'\x06\xad\x82Xqv\xe7?'
p344
tp345
Rp346
sg25
g33
ssg51
g11
(g12
(S'S3'
p347
I0
I1
tp348
Rp349
(I3
S'|'
p350
NNNI3
I1
I0
tp351
bS'PCA'
p352
tp353
Rp354
sg60
F0.2
sg61
g11
(g12
(S'S3'
p355
I0
I1
tp356
Rp357
(I3
S'|'
p358
NNNI3
I1
I0
tp359
bS'VGG'
p360
tp361
Rp362
sg70
g11
(g15
S'C\xc0\xa6YW\t\xd3?'
p363
tp364
Rp365
sg74
g11
(g12
(S'S2'
p366
I0
I1
tp367
Rp368
(I3
S'|'
p369
NNNI2
I1
I0
tp370
bS'RF'
p371
tp372
Rp373
sg83
I3
sg38
g346
sg84
g85
sg86
g11
(g15
S'H\x9d\xf2G\x9d\xf2\xeb?'
p374
tp375
Rp376
sg90
g91
sg92
g93
sbag4
(g5
g6
Ntp377
Rp378
(dp379
g10
g11
(g15
S'\x00\x00\x00\x00\x00\x00\xf8\xff'
p380
tp381
Rp382
sg21
g11
(g15
S'\x00\x00\x00\x00\x00@e@'
p383
tp384
Rp385
sg25
g33
sg34
g35
sg36
(dp386
g21
g385
sg38
g11
(g15
S'h\xd1\\\x0ewu\xe6?'
p387
tp388
Rp389
sg25
g33
ssg51
g11
(g12
(S'S3'
p390
I0
I1
tp391
Rp392
(I3
S'|'
p393
NNNI3
I1
I0
tp394
bS'PCA'
p395
tp396
Rp397
sg60
F0.2
sg61
g11
(g12
(S'S3'
p398
I0
I1
tp399
Rp400
(I3
S'|'
p401
NNNI3
I1
I0
tp402
bS'VGG'
p403
tp404
Rp405
sg70
g11
(g15
S'\xa2\xc3_\xb7\xe3\x9f\xd2?'
p406
tp407
Rp408
sg74
g11
(g12
(S'S2'
p409
I0
I1
tp410
Rp411
(I3
S'|'
p412
NNNI2
I1
I0
tp413
bS'RF'
p414
tp415
Rp416
sg83
I3
sg38
g389
sg84
g85
sg86
g11
(g15
S'\xfd\xba>7F(\xec?'
p417
tp418
Rp419
sg90
g91
sg92
g93
sbasS'paths'
p420
(lp421
(lp422
S'VGG'
p423
aS'PCA'
p424
aS'SVM'
p425
aa(lp426
g423
ag424
aS'RF'
p427
aa(lp428
g423
aS'ISOMAP'
p429
ag425
aa(lp430
g423
ag429
ag427
aa(lp431
S'haralick'
p432
ag424
ag425
aa(lp433
g432
ag424
ag427
aa(lp434
g432
ag429
ag425
aa(lp435
g432
ag429
ag427
aa(lp436
S'inception'
p437
ag424
ag425
aa(lp438
g437
ag424
ag427
aa(lp439
g437
ag429
ag425
aa(lp440
g437
ag429
ag427
aasS'pipeline'
p441
(dp442
g100
(lp443
I3
aI4
aI5
aI6
aI7
asg25
(lp444
I01
aI00
asg21
cnumpy.core.multiarray
_reconstruct
p445
(cnumpy
ndarray
p446
(I0
tp447
S'b'
p448
tp449
Rp450
(I1
(I10
tp451
g15
I00
S'\x00\x00\x00\x00\x00\x00 @\x00\x00\x00\x00\x00\x00D@\x00\x00\x00\x00\x00@R@\x00\x00\x00\x00\x00@Z@\x00\x00\x00\x00\x00@a@\x00\x00\x00\x00\x00@e@\x00\x00\x00\x00\x00`i@\x00\x00\x00\x00\x00`m@\x00\x00\x00\x00\x00\xc0p@\x00\x00\x00\x00\x00\xc0r@'
p452
tp453
bsg51
(lp454
g424
ag429
asg116
g445
(g446
(I0
tp455
g448
tp456
Rp457
(I1
(I10
tp458
g15
I00
S"{\x14\xaeG\xe1z\x84?\x102Tv\x98\xba\xec?\xe7\xd5\xc4\xb3\xa2\x91\xfc?b\xc9/\x96\xfcb\x05@\xd2'}\xd2'}\x0c@!Ce\x87\xa9\xcb\x11@X\xf2\x8b%\xbfX\x15@\x90\xa1\xb2\xc3\xd4\xe5\x18@\xc8P\xd9a\xear\x1c@\x00\x00\x00\x00\x00\x00 @"
p459
tp460
bsg61
(lp461
g423
ag432
ag437
asg42
(lp462
I1
aI2
aI3
asg112
(lp463
I2
aI3
aI4
asg74
(lp464
g425
ag427
asg38
g445
(g446
(I0
tp465
g448
tp466
Rp467
(I1
(I5
tp468
g15
I00
S'333333\xd3?\x9a\x99\x99\x99\x99\x99\xd9?\x00\x00\x00\x00\x00\x00\xe0?433333\xe3?hfffff\xe6?'
p469
tp470
bsg105
g445
(g446
(I0
tp471
g448
tp472
Rp473
(I1
(I10
tp474
g15
I00
S'\x9a\x99\x99\x99\x99\x99\xb9?gfffff&@\xce\xcc\xcc\xcc\xccL6@43333\xb3@@\x01\x00\x00\x00\x00@F@\xce\xcc\xcc\xcc\xcc\xccK@\xcd\xcc\xcc\xcc\xcc\xacP@43333sS@\x9a\x99\x99\x99\x999V@\x00\x00\x00\x00\x00\x00Y@'
p475
tp476
bssS'pipelines'
p477
(lp478
g8
ag95
ag4
(g5
g6
Ntp479
Rp480
(dp481
g10
g11
(g15
S'\x00\x00\x00\x00\x00\x00\xf8\xff'
p482
tp483
Rp484
sg21
g11
(g15
S'\x00\x00\x00\x00\x00`i@'
p485
tp486
Rp487
sg34
g35
sg100
g11
(g45
S'\x06\x00\x00\x00\x00\x00\x00\x00'
p488
tp489
Rp490
sg36
(dp491
g21
g487
sg100
g490
sg42
g11
(g45
S'\x03\x00\x00\x00\x00\x00\x00\x00'
p492
tp493
Rp494
sg112
g11
(g45
S'\x03\x00\x00\x00\x00\x00\x00\x00'
p495
tp496
Rp497
sg38
g11
(g15
S'\xfa\x95?\x13y!\xea?'
p498
tp499
Rp500
ssg51
g11
(g12
(S'S6'
p501
I0
I1
tp502
Rp503
(I3
S'|'
p504
NNNI6
I1
I0
tp505
bS'ISOMAP'
p506
tp507
Rp508
sg60
F0.2
sg112
g497
sg61
g11
(g12
(S'S8'
p509
I0
I1
tp510
Rp511
(I3
S'|'
p512
NNNI8
I1
I0
tp513
bS'haralick'
p514
tp515
Rp516
sg42
g494
sg70
g11
(g15
S'9\x1e\xec\r\xb0\xc6\xec?'
p517
tp518
Rp519
sg74
g11
(g12
(S'S2'
p520
I0
I1
tp521
Rp522
(I3
S'|'
p523
NNNI2
I1
I0
tp524
bS'RF'
p525
tp526
Rp527
sg83
I3
sg38
g500
sg84
g85
sg86
g11
(g15
S'\xd4\x85!\xeaX{\xea?'
p528
tp529
Rp530
sg90
g91
sg92
g93
sbag4
(g5
g6
Ntp531
Rp532
(dp533
g10
g11
(g15
S'\x00\x00\x00\x00\x00\x00\xf8\xff'
p534
tp535
Rp536
sg25
g33
sg34
g35
sg36
(dp537
g25
g33
sg105
g11
(g15
S'\x9a\xc1\xbf\xfaw\x1cN@'
p538
tp539
Rp540
sg42
g11
(g45
S'\x03\x00\x00\x00\x00\x00\x00\x00'
p541
tp542
Rp543
sg116
g11
(g15
S'UmSW\xa8~\x0e@'
p544
tp545
Rp546
ssg51
g11
(g12
(S'S3'
p547
I0
I1
tp548
Rp549
(I3
S'|'
p550
NNNI3
I1
I0
tp551
bS'PCA'
p552
tp553
Rp554
sg60
F0.2
sg116
g546
sg61
g11
(g12
(S'S8'
p555
I0
I1
tp556
Rp557
(I3
S'|'
p558
NNNI8
I1
I0
tp559
bS'haralick'
p560
tp561
Rp562
sg105
g540
sg42
g543
sg70
g11
(g15
S'in\r\xf9\xb8\xe1\xdd?'
p563
tp564
Rp565
sg74
g11
(g12
(S'S3'
p566
I0
I1
tp567
Rp568
(I3
S'|'
p569
NNNI3
I1
I0
tp570
bS'SVM'
p571
tp572
Rp573
sg83
I3
sg84
g85
sg86
g11
(g15
S'\x00\xa7W\xf6\xb83\xea?'
p574
tp575
Rp576
sg90
g91
sg92
g93
sbag151
ag4
(g5
g6
Ntp577
Rp578
(dp579
g10
g11
(g15
S'\x00\x00\x00\x00\x00\x00\xf8\xff'
p580
tp581
Rp582
sg25
g33
sg34
g35
sg36
(dp583
g25
g33
sg105
g11
(g15
S'Hc\xecfG\xcfE@'
p584
tp585
Rp586
sg116
g11
(g15
S'\x99\x11h\xdb\xe1Q\x13@'
p587
tp588
Rp589
ssg51
g11
(g12
(S'S3'
p590
I0
I1
tp591
Rp592
(I3
S'|'
p593
NNNI3
I1
I0
tp594
bS'PCA'
p595
tp596
Rp597
sg60
F0.2
sg116
g589
sg61
g11
(g12
(S'S3'
p598
I0
I1
tp599
Rp600
(I3
S'|'
p601
NNNI3
I1
I0
tp602
bS'VGG'
p603
tp604
Rp605
sg105
g586
sg70
g11
(g15
S'\rR\xe2\xa8\x82\x9b\xd8?'
p606
tp607
Rp608
sg74
g11
(g12
(S'S3'
p609
I0
I1
tp610
Rp611
(I3
S'|'
p612
NNNI3
I1
I0
tp613
bS'SVM'
p614
tp615
Rp616
sg83
I3
sg84
g85
sg86
g11
(g15
S'\xcd\x84\x14\xf53\xb6\xe9?'
p617
tp618
Rp619
sg90
g91
sg92
g93
sbag194
ag4
(g5
g6
Ntp620
Rp621
(dp622
g10
g11
(g15
S'\x00\x00\x00\x00\x00\x00\xf8\xff'
p623
tp624
Rp625
sg100
g11
(g45
S'\x03\x00\x00\x00\x00\x00\x00\x00'
p626
tp627
Rp628
sg34
g35
sg36
(dp629
g100
g628
sg105
g11
(g15
S'\xd1\x96\xfe\xac\xc4\xee\x1a@'
p630
tp631
Rp632
sg42
g11
(g45
S'\x03\x00\x00\x00\x00\x00\x00\x00'
p633
tp634
Rp635
sg112
g11
(g45
S'\x03\x00\x00\x00\x00\x00\x00\x00'
p636
tp637
Rp638
sg116
g11
(g15
S'Mx9\xfc\xbeH\x16@'
p639
tp640
Rp641
ssg116
g641
sg51
g11
(g12
(S'S6'
p642
I0
I1
tp643
Rp644
(I3
S'|'
p645
NNNI6
I1
I0
tp646
bS'ISOMAP'
p647
tp648
Rp649
sg60
F0.2
sg112
g638
sg61
g11
(g12
(S'S8'
p650
I0
I1
tp651
Rp652
(I3
S'|'
p653
NNNI8
I1
I0
tp654
bS'haralick'
p655
tp656
Rp657
sg105
g632
sg42
g635
sg70
g11
(g15
S'i\x85\x8f\tl#\xdd?'
p658
tp659
Rp660
sg74
g11
(g12
(S'S3'
p661
I0
I1
tp662
Rp663
(I3
S'|'
p664
NNNI3
I1
I0
tp665
bS'SVM'
p666
tp667
Rp668
sg83
I3
sg84
g85
sg86
g11
(g15
S'\xb5x\xf0\x00\xe0!\xea?'
p669
tp670
Rp671
sg90
g91
sg92
g93
sbag4
(g5
g6
Ntp672
Rp673
(dp674
g10
g11
(g15
S'\x00\x00\x00\x00\x00\x00\xf8\xff'
p675
tp676
Rp677
sg25
g33
sg34
g35
sg36
(dp678
g25
g33
sg105
g11
(g15
S'\xd5\x8bZ \x1dY$@'
p679
tp680
Rp681
sg116
g11
(g15
S'F\x0b*\x8bwG\x12@'
p682
tp683
Rp684
ssg51
g11
(g12
(S'S3'
p685
I0
I1
tp686
Rp687
(I3
S'|'
p688
NNNI3
I1
I0
tp689
bS'PCA'
p690
tp691
Rp692
sg60
F0.2
sg116
g684
sg61
g11
(g12
(S'S3'
p693
I0
I1
tp694
Rp695
(I3
S'|'
p696
NNNI3
I1
I0
tp697
bS'VGG'
p698
tp699
Rp700
sg105
g681
sg70
g11
(g15
S'\xd7\n\x9d\xf0\xda\x9c\xd8?'
p701
tp702
Rp703
sg74
g11
(g12
(S'S3'
p704
I0
I1
tp705
Rp706
(I3
S'|'
p707
NNNI3
I1
I0
tp708
bS'SVM'
p709
tp710
Rp711
sg83
I3
sg84
g85
sg86
g11
(g15
S'c\xe1\xe2\xdf\xe5\xd9\xe9?'
p712
tp713
Rp714
sg90
g91
sg92
g93
sbag4
(g5
g6
Ntp715
Rp716
(dp717
g10
g11
(g15
S'\x00\x00\x00\x00\x00\x00\xf8\xff'
p718
tp719
Rp720
sg100
g11
(g45
S'\x07\x00\x00\x00\x00\x00\x00\x00'
p721
tp722
Rp723
sg34
g35
sg36
(dp724
g100
g723
sg105
g11
(g15
S'Z\xf5N*<GS@'
p725
tp726
Rp727
sg112
g11
(g45
S'\x04\x00\x00\x00\x00\x00\x00\x00'
p728
tp729
Rp730
sg116
g11
(g15
S'\xe3&\x82\x1f\xba\xe1\xf0?'
p731
tp732
Rp733
ssg116
g733
sg51
g11
(g12
(S'S6'
p734
I0
I1
tp735
Rp736
(I3
S'|'
p737
NNNI6
I1
I0
tp738
bS'ISOMAP'
p739
tp740
Rp741
sg60
F0.2
sg112
g730
sg61
g11
(g12
(S'S3'
p742
I0
I1
tp743
Rp744
(I3
S'|'
p745
NNNI3
I1
I0
tp746
bS'VGG'
p747
tp748
Rp749
sg105
g727
sg70
g11
(g15
S'P,\x0eH\xd2\x94\xd8?'
p750
tp751
Rp752
sg74
g11
(g12
(S'S3'
p753
I0
I1
tp754
Rp755
(I3
S'|'
p756
NNNI3
I1
I0
tp757
bS'SVM'
p758
tp759
Rp760
sg83
I3
sg84
g85
sg86
g11
(g15
S'u\x8e[\xc1\xf5\x8c\xea?'
p761
tp762
Rp763
sg90
g91
sg92
g93
sbag4
(g5
g6
Ntp764
Rp765
(dp766
g10
g11
(g15
S'\x00\x00\x00\x00\x00\x00\xf8\xff'
p767
tp768
Rp769
sg100
g11
(g45
S'\x04\x00\x00\x00\x00\x00\x00\x00'
p770
tp771
Rp772
sg34
g35
sg36
(dp773
g100
g772
sg105
g11
(g15
S'm\xb3\xefR+}0@'
p774
tp775
Rp776
sg112
g11
(g45
S'\x02\x00\x00\x00\x00\x00\x00\x00'
p777
tp778
Rp779
sg116
g11
(g15
S'\xde\x87\r{e\x8b\xfe?'
p780
tp781
Rp782
ssg116
g782
sg51
g11
(g12
(S'S6'
p783
I0
I1
tp784
Rp785
(I3
S'|'
p786
NNNI6
I1
I0
tp787
bS'ISOMAP'
p788
tp789
Rp790
sg60
F0.2
sg112
g779
sg61
g11
(g12
(S'S9'
p791
I0
I1
tp792
Rp793
(I3
S'|'
p794
NNNI9
I1
I0
tp795
bS'inception'
p796
tp797
Rp798
sg105
g776
sg70
g11
(g15
S'@\xe1F\xe7\xbaX\xe0?'
p799
tp800
Rp801
sg74
g11
(g12
(S'S3'
p802
I0
I1
tp803
Rp804
(I3
S'|'
p805
NNNI3
I1
I0
tp806
bS'SVM'
p807
tp808
Rp809
sg83
I3
sg84
g85
sg86
g11
(g15
S'\x9d\xc5t\x16\xd3Y\xe0?'
p810
tp811
Rp812
sg90
g91
sg92
g93
sbag4
(g5
g6
Ntp813
Rp814
(dp815
g10
g11
(g15
S'\x00\x00\x00\x00\x00\x00\xf8\xff'
p816
tp817
Rp818
sg21
g11
(g15
S'\x00\x00\x00\x00\x00\xc0r@'
p819
tp820
Rp821
sg34
g35
sg100
g11
(g45
S'\x04\x00\x00\x00\x00\x00\x00\x00'
p822
tp823
Rp824
sg36
(dp825
g21
g821
sg100
g824
sg112
g11
(g45
S'\x04\x00\x00\x00\x00\x00\x00\x00'
p826
tp827
Rp828
sg38
g11
(g15
S'n\xc1\xafP\xe8F\xe0?'
p829
tp830
Rp831
ssg51
g11
(g12
(S'S6'
p832
I0
I1
tp833
Rp834
(I3
S'|'
p835
NNNI6
I1
I0
tp836
bS'ISOMAP'
p837
tp838
Rp839
sg60
F0.2
sg112
g828
sg61
g11
(g12
(S'S9'
p840
I0
I1
tp841
Rp842
(I3
S'|'
p843
NNNI9
I1
I0
tp844
bS'inception'
p845
tp846
Rp847
sg70
g11
(g15
S'\xe0g\xb4\xccs\xe0\xed?'
p848
tp849
Rp850
sg74
g11
(g12
(S'S2'
p851
I0
I1
tp852
Rp853
(I3
S'|'
p854
NNNI2
I1
I0
tp855
bS'RF'
p856
tp857
Rp858
sg83
I3
sg38
g831
sg84
g85
sg86
g11
(g15
S'\xd5\x9f\x0b4\xe3\x84\xe5?'
p859
tp860
Rp861
sg90
g91
sg92
g93
sbag4
(g5
g6
Ntp862
Rp863
(dp864
g10
g11
(g15
S'\x00\x00\x00\x00\x00\x00\xf8\xff'
p865
tp866
Rp867
sg21
g11
(g15
S'\x00\x00\x00\x00\x00\x00 @'
p868
tp869
Rp870
sg25
g33
sg34
g35
sg36
(dp871
g21
g870
sg38
g11
(g15
S'\xf0_\xd7\xc5\xb2L\xe3?'
p872
tp873
Rp874
sg25
g33
sg42
g11
(g45
S'\x01\x00\x00\x00\x00\x00\x00\x00'
p875
tp876
Rp877
ssg51
g11
(g12
(S'S3'
p878
I0
I1
tp879
Rp880
(I3
S'|'
p881
NNNI3
I1
I0
tp882
bS'PCA'
p883
tp884
Rp885
sg60
F0.2
sg61
g11
(g12
(S'S8'
p886
I0
I1
tp887
Rp888
(I3
S'|'
p889
NNNI8
I1
I0
tp890
bS'haralick'
p891
tp892
Rp893
sg42
g877
sg70
g11
(g15
S'\xc0\xc39\xe8;J\x0b@'
p894
tp895
Rp896
sg74
g11
(g12
(S'S2'
p897
I0
I1
tp898
Rp899
(I3
S'|'
p900
NNNI2
I1
I0
tp901
bS'RF'
p902
tp903
Rp904
sg83
I3
sg38
g874
sg84
g85
sg86
g11
(g15
S'\xdb\xb4\xffi\x95>\xe8?'
p905
tp906
Rp907
sg90
g91
sg92
g93
sbag4
(g5
g6
Ntp908
Rp909
(dp910
g10
g11
(g15
S'\x00\x00\x00\x00\x00\x00\xf8\xff'
p911
tp912
Rp913
sg21
g11
(g15
S'\x00\x00\x00\x00\x00@R@'
p914
tp915
Rp916
sg34
g35
sg100
g11
(g45
S'\x04\x00\x00\x00\x00\x00\x00\x00'
p917
tp918
Rp919
sg36
(dp920
g21
g916
sg100
g919
sg42
g11
(g45
S'\x03\x00\x00\x00\x00\x00\x00\x00'
p921
tp922
Rp923
sg112
g11
(g45
S'\x03\x00\x00\x00\x00\x00\x00\x00'
p924
tp925
Rp926
sg38
g11
(g15
S'\x08\x9a26\xa9^\xeb?'
p927
tp928
Rp929
ssg51
g11
(g12
(S'S6'
p930
I0
I1
tp931
Rp932
(I3
S'|'
p933
NNNI6
I1
I0
tp934
bS'ISOMAP'
p935
tp936
Rp937
sg60
F0.2
sg112
g926
sg61
g11
(g12
(S'S8'
p938
I0
I1
tp939
Rp940
(I3
S'|'
p941
NNNI8
I1
I0
tp942
bS'haralick'
p943
tp944
Rp945
sg42
g923
sg70
g11
(g15
S'!sn\x12\xf1}\xf3?'
p946
tp947
Rp948
sg74
g11
(g12
(S'S2'
p949
I0
I1
tp950
Rp951
(I3
S'|'
p952
NNNI2
I1
I0
tp953
bS'RF'
p954
tp955
Rp956
sg83
I3
sg38
g929
sg84
g85
sg86
g11
(g15
S'\xff\xf2\n\xdb:{\xea?'
p957
tp958
Rp959
sg90
g91
sg92
g93
sbag4
(g5
g6
Ntp960
Rp961
(dp962
g10
g11
(g15
S'\x00\x00\x00\x00\x00\x00\xf8\xff'
p963
tp964
Rp965
sg100
g11
(g45
S'\x06\x00\x00\x00\x00\x00\x00\x00'
p966
tp967
Rp968
sg34
g35
sg36
(dp969
g100
g968
sg105
g11
(g15
S'\xbe\xac*\x14\xa0\x10N@'
p970
tp971
Rp972
sg112
g11
(g45
S'\x03\x00\x00\x00\x00\x00\x00\x00'
p973
tp974
Rp975
sg116
g11
(g15
S'\xc1\xe0\xfc\x15\x915\x07@'
p976
tp977
Rp978
ssg116
g978
sg51
g11
(g12
(S'S6'
p979
I0
I1
tp980
Rp981
(I3
S'|'
p982
NNNI6
I1
I0
tp983
bS'ISOMAP'
p984
tp985
Rp986
sg60
F0.2
sg112
g975
sg61
g11
(g12
(S'S9'
p987
I0
I1
tp988
Rp989
(I3
S'|'
p990
NNNI9
I1
I0
tp991
bS'inception'
p992
tp993
Rp994
sg105
g972
sg70
g11
(g15
S'i\xd4\x17\x92&(\xe0?'
p995
tp996
Rp997
sg74
g11
(g12
(S'S3'
p998
I0
I1
tp999
Rp1000
(I3
S'|'
p1001
NNNI3
I1
I0
tp1002
bS'SVM'
p1003
tp1004
Rp1005
sg83
I3
sg84
g85
sg86
g11
(g15
S'\x81w\x89e\xad\x1d\xe1?'
p1006
tp1007
Rp1008
sg90
g91
sg92
g93
sbag4
(g5
g6
Ntp1009
Rp1010
(dp1011
g10
g11
(g15
S'\x00\x00\x00\x00\x00\x00\xf8\xff'
p1012
tp1013
Rp1014
sg100
g11
(g45
S'\x04\x00\x00\x00\x00\x00\x00\x00'
p1015
tp1016
Rp1017
sg34
g35
sg36
(dp1018
g100
g1017
sg105
g11
(g15
S'KW\x0e\xa3\xd5\xb9T@'
p1019
tp1020
Rp1021
sg112
g11
(g45
S'\x03\x00\x00\x00\x00\x00\x00\x00'
p1022
tp1023
Rp1024
sg116
g11
(g15
S'\xe1\xedN\x8c\x15q\x19@'
p1025
tp1026
Rp1027
ssg116
g1027
sg51
g11
(g12
(S'S6'
p1028
I0
I1
tp1029
Rp1030
(I3
S'|'
p1031
NNNI6
I1
I0
tp1032
bS'ISOMAP'
p1033
tp1034
Rp1035
sg60
F0.2
sg112
g1024
sg61
g11
(g12
(S'S3'
p1036
I0
I1
tp1037
Rp1038
(I3
S'|'
p1039
NNNI3
I1
I0
tp1040
bS'VGG'
p1041
tp1042
Rp1043
sg105
g1021
sg70
g11
(g15
S"X'\x01K<\xc3\xdc?"
p1044
tp1045
Rp1046
sg74
g11
(g12
(S'S3'
p1047
I0
I1
tp1048
Rp1049
(I3
S'|'
p1050
NNNI3
I1
I0
tp1051
bS'SVM'
p1052
tp1053
Rp1054
sg83
I3
sg84
g85
sg86
g11
(g15
S'\x8dN\xcc\xd0\xc7\xd9\xe9?'
p1055
tp1056
Rp1057
sg90
g91
sg92
g93
sbag4
(g5
g6
Ntp1058
Rp1059
(dp1060
g10
g11
(g15
S'\x00\x00\x00\x00\x00\x00\xf8\xff'
p1061
tp1062
Rp1063
sg21
g11
(g15
S'\x00\x00\x00\x00\x00`i@'
p1064
tp1065
Rp1066
sg25
g11
(g28
S'\x00'
p1067
tp1068
Rp1069
sg34
g35
sg36
(dp1070
g21
g1066
sg38
g11
(g15
S'\xc6\x83\xac\xca/t\xe6?'
p1071
tp1072
Rp1073
sg25
g1069
sg42
g11
(g45
S'\x01\x00\x00\x00\x00\x00\x00\x00'
p1074
tp1075
Rp1076
ssg51
g11
(g12
(S'S3'
p1077
I0
I1
tp1078
Rp1079
(I3
S'|'
p1080
NNNI3
I1
I0
tp1081
bS'PCA'
p1082
tp1083
Rp1084
sg60
F0.2
sg61
g11
(g12
(S'S8'
p1085
I0
I1
tp1086
Rp1087
(I3
S'|'
p1088
NNNI8
I1
I0
tp1089
bS'haralick'
p1090
tp1091
Rp1092
sg42
g1076
sg70
g11
(g15
S'u\x92\xfd\xe7D\xaf\xf6?'
p1093
tp1094
Rp1095
sg74
g11
(g12
(S'S2'
p1096
I0
I1
tp1097
Rp1098
(I3
S'|'
p1099
NNNI2
I1
I0
tp1100
bS'RF'
p1101
tp1102
Rp1103
sg83
I3
sg38
g1073
sg84
g85
sg86
g11
(g15
S'\t\x19\xfb6\xbf\xae\xe7?'
p1104
tp1105
Rp1106
sg90
g91
sg92
g93
sbag4
(g5
g6
Ntp1107
Rp1108
(dp1109
g10
g11
(g15
S'\x00\x00\x00\x00\x00\x00\xf8\xff'
p1110
tp1111
Rp1112
sg100
g11
(g45
S'\x04\x00\x00\x00\x00\x00\x00\x00'
p1113
tp1114
Rp1115
sg34
g35
sg36
(dp1116
g100
g1115
sg105
g11
(g15
S'Nv\r\xc3\xac\xcd6@'
p1117
tp1118
Rp1119
sg112
g11
(g45
S'\x03\x00\x00\x00\x00\x00\x00\x00'
p1120
tp1121
Rp1122
sg116
g11
(g15
S'\xb2\xcf\xe0V\xfa\xb6\x00@'
p1123
tp1124
Rp1125
ssg116
g1125
sg51
g11
(g12
(S'S6'
p1126
I0
I1
tp1127
Rp1128
(I3
S'|'
p1129
NNNI6
I1
I0
tp1130
bS'ISOMAP'
p1131
tp1132
Rp1133
sg60
F0.2
sg112
g1122
sg61
g11
(g12
(S'S3'
p1134
I0
I1
tp1135
Rp1136
(I3
S'|'
p1137
NNNI3
I1
I0
tp1138
bS'VGG'
p1139
tp1140
Rp1141
sg105
g1119
sg70
g11
(g15
S'\xe8\tL``s\xd9?'
p1142
tp1143
Rp1144
sg74
g11
(g12
(S'S3'
p1145
I0
I1
tp1146
Rp1147
(I3
S'|'
p1148
NNNI3
I1
I0
tp1149
bS'SVM'
p1150
tp1151
Rp1152
sg83
I3
sg84
g85
sg86
g11
(g15
S'\x17K\xe2\xb3\x10W\xea?'
p1153
tp1154
Rp1155
sg90
g91
sg92
g93
sbag4
(g5
g6
Ntp1156
Rp1157
(dp1158
g10
g11
(g15
S'\x00\x00\x00\x00\x00\x00\xf8\xff'
p1159
tp1160
Rp1161
sg100
g11
(g45
S'\x06\x00\x00\x00\x00\x00\x00\x00'
p1162
tp1163
Rp1164
sg34
g35
sg36
(dp1165
g100
g1164
sg105
g11
(g15
S'\xdd"\xa5N\n\xb2@@'
p1166
tp1167
Rp1168
sg42
g11
(g45
S'\x02\x00\x00\x00\x00\x00\x00\x00'
p1169
tp1170
Rp1171
sg112
g11
(g45
S'\x03\x00\x00\x00\x00\x00\x00\x00'
p1172
tp1173
Rp1174
sg116
g11
(g15
S'\xed*\x07\xe3O\xaf\xed?'
p1175
tp1176
Rp1177
ssg116
g1177
sg51
g11
(g12
(S'S6'
p1178
I0
I1
tp1179
Rp1180
(I3
S'|'
p1181
NNNI6
I1
I0
tp1182
bS'ISOMAP'
p1183
tp1184
Rp1185
sg60
F0.2
sg112
g1174
sg61
g11
(g12
(S'S8'
p1186
I0
I1
tp1187
Rp1188
(I3
S'|'
p1189
NNNI8
I1
I0
tp1190
bS'haralick'
p1191
tp1192
Rp1193
sg105
g1168
sg42
g1171
sg70
g11
(g15
S'\xf0\r\xbc\x18\xbcK\xdc?'
p1194
tp1195
Rp1196
sg74
g11
(g12
(S'S3'
p1197
I0
I1
tp1198
Rp1199
(I3
S'|'
p1200
NNNI3
I1
I0
tp1201
bS'SVM'
p1202
tp1203
Rp1204
sg83
I3
sg84
g85
sg86
g11
(g15
S'\xad\xc3\x96\xf0<\xa4\xe9?'
p1205
tp1206
Rp1207
sg90
g91
sg92
g93
sbag4
(g5
g6
Ntp1208
Rp1209
(dp1210
g10
g11
(g15
S'\x00\x00\x00\x00\x00\x00\xf8\xff'
p1211
tp1212
Rp1213
sg25
g1069
sg34
g35
sg36
(dp1214
g25
g1069
sg105
g11
(g15
S'i\x8c\xa6=+oV@'
p1215
tp1216
Rp1217
sg116
g11
(g15
S'\xf2\xc6#^D\x0b\x19@'
p1218
tp1219
Rp1220
ssg51
g11
(g12
(S'S3'
p1221
I0
I1
tp1222
Rp1223
(I3
S'|'
p1224
NNNI3
I1
I0
tp1225
bS'PCA'
p1226
tp1227
Rp1228
sg60
F0.2
sg116
g1220
sg61
g11
(g12
(S'S3'
p1229
I0
I1
tp1230
Rp1231
(I3
S'|'
p1232
NNNI3
I1
I0
tp1233
bS'VGG'
p1234
tp1235
Rp1236
sg105
g1217
sg70
g11
(g15
S'\xc0G\x8a#\x1f\xf1\xd8?'
p1237
tp1238
Rp1239
sg74
g11
(g12
(S'S3'
p1240
I0
I1
tp1241
Rp1242
(I3
S'|'
p1243
NNNI3
I1
I0
tp1244
bS'SVM'
p1245
tp1246
Rp1247
sg83
I3
sg84
g85
sg86
g11
(g15
S'\xad\xc3\x96\xf0<\xa4\xe9?'
p1248
tp1249
Rp1250
sg90
g91
sg92
g93
sbag4
(g5
g6
Ntp1251
Rp1252
(dp1253
g10
g11
(g15
S'\x00\x00\x00\x00\x00\x00\xf8\xff'
p1254
tp1255
Rp1256
sg25
g1069
sg34
g35
sg36
(dp1257
g25
g1069
sg105
g11
(g15
S'\x11\xf3\xe2|\xfb\xc4J@'
p1258
tp1259
Rp1260
sg116
g11
(g15
S'\x17>\xcd\x12{\x1b\x1a@'
p1261
tp1262
Rp1263
ssg51
g11
(g12
(S'S3'
p1264
I0
I1
tp1265
Rp1266
(I3
S'|'
p1267
NNNI3
I1
I0
tp1268
bS'PCA'
p1269
tp1270
Rp1271
sg60
F0.2
sg116
g1263
sg61
g11
(g12
(S'S9'
p1272
I0
I1
tp1273
Rp1274
(I3
S'|'
p1275
NNNI9
I1
I0
tp1276
bS'inception'
p1277
tp1278
Rp1279
sg105
g1260
sg70
g11
(g15
S'\x96|\xe3D\x1a\x88\xe0?'
p1280
tp1281
Rp1282
sg74
g11
(g12
(S'S3'
p1283
I0
I1
tp1284
Rp1285
(I3
S'|'
p1286
NNNI3
I1
I0
tp1287
bS'SVM'
p1288
tp1289
Rp1290
sg83
I3
sg84
g85
sg86
g11
(g15
S'Q\xe6\xba\x11d\xbf\xe4?'
p1291
tp1292
Rp1293
sg90
g91
sg92
g93
sbag4
(g5
g6
Ntp1294
Rp1295
(dp1296
g10
g11
(g15
S'\x00\x00\x00\x00\x00\x00\xf8\xff'
p1297
tp1298
Rp1299
sg25
g33
sg34
g35
sg36
(dp1300
g25
g33
sg105
g11
(g15
S'.\x05d\xf2\xa2}S@'
p1301
tp1302
Rp1303
sg116
g11
(g15
S'\x8e\xf3\x99\xab\xdb0\x10@'
p1304
tp1305
Rp1306
ssg51
g11
(g12
(S'S3'
p1307
I0
I1
tp1308
Rp1309
(I3
S'|'
p1310
NNNI3
I1
I0
tp1311
bS'PCA'
p1312
tp1313
Rp1314
sg60
F0.2
sg116
g1306
sg61
g11
(g12
(S'S9'
p1315
I0
I1
tp1316
Rp1317
(I3
S'|'
p1318
NNNI9
I1
I0
tp1319
bS'inception'
p1320
tp1321
Rp1322
sg105
g1303
sg70
g11
(g15
S"'\x9b^\x17\xf2\x8b\xe0?"
p1323
tp1324
Rp1325
sg74
g11
(g12
(S'S3'
p1326
I0
I1
tp1327
Rp1328
(I3
S'|'
p1329
NNNI3
I1
I0
tp1330
bS'SVM'
p1331
tp1332
Rp1333
sg83
I3
sg84
g85
sg86
g11
(g15
S'\x90\x1c\x036\xd0\x9b\xe4?'
p1334
tp1335
Rp1336
sg90
g91
sg92
g93
sbag243
ag4
(g5
g6
Ntp1337
Rp1338
(dp1339
g10
g11
(g15
S'\x00\x00\x00\x00\x00\x00\xf8\xff'
p1340
tp1341
Rp1342
sg25
g33
sg34
g35
sg36
(dp1343
g25
g33
sg105
g11
(g15
S'\x9e\x12\xe4o\xb1\xddX@'
p1344
tp1345
Rp1346
sg116
g11
(g15
S'\x12r\x01\x9b\xc0\x0e\x1c@'
p1347
tp1348
Rp1349
ssg51
g11
(g12
(S'S3'
p1350
I0
I1
tp1351
Rp1352
(I3
S'|'
p1353
NNNI3
I1
I0
tp1354
bS'PCA'
p1355
tp1356
Rp1357
sg60
F0.2
sg116
g1349
sg61
g11
(g12
(S'S3'
p1358
I0
I1
tp1359
Rp1360
(I3
S'|'
p1361
NNNI3
I1
I0
tp1362
bS'VGG'
p1363
tp1364
Rp1365
sg105
g1346
sg70
g11
(g15
S'P\xbccD\xd1l\xd9?'
p1366
tp1367
Rp1368
sg74
g11
(g12
(S'S3'
p1369
I0
I1
tp1370
Rp1371
(I3
S'|'
p1372
NNNI3
I1
I0
tp1373
bS'SVM'
p1374
tp1375
Rp1376
sg83
I3
sg84
g85
sg86
g11
(g15
S'\xad\xc3\x96\xf0<\xa4\xe9?'
p1377
tp1378
Rp1379
sg90
g91
sg92
g93
sbag4
(g5
g6
Ntp1380
Rp1381
(dp1382
g10
g11
(g15
S'\x00\x00\x00\x00\x00\x00\xf8\xff'
p1383
tp1384
Rp1385
sg100
g11
(g45
S'\x04\x00\x00\x00\x00\x00\x00\x00'
p1386
tp1387
Rp1388
sg34
g35
sg36
(dp1389
g100
g1388
sg105
g11
(g15
S'\x8c\r\xb2\xfdtqF@'
p1390
tp1391
Rp1392
sg42
g11
(g45
S'\x01\x00\x00\x00\x00\x00\x00\x00'
p1393
tp1394
Rp1395
sg112
g11
(g45
S'\x02\x00\x00\x00\x00\x00\x00\x00'
p1396
tp1397
Rp1398
sg116
g11
(g15
S'\x86U\xd5\xfb#\xaa\xc5?'
p1399
tp1400
Rp1401
ssg116
g1401
sg51
g11
(g12
(S'S6'
p1402
I0
I1
tp1403
Rp1404
(I3
S'|'
p1405
NNNI6
I1
I0
tp1406
bS'ISOMAP'
p1407
tp1408
Rp1409
sg60
F0.2
sg112
g1398
sg61
g11
(g12
(S'S8'
p1410
I0
I1
tp1411
Rp1412
(I3
S'|'
p1413
NNNI8
I1
I0
tp1414
bS'haralick'
p1415
tp1416
Rp1417
sg105
g1392
sg42
g1395
sg70
g11
(g15
S'iR&\xf6\xa9v\xde?'
p1418
tp1419
Rp1420
sg74
g11
(g12
(S'S3'
p1421
I0
I1
tp1422
Rp1423
(I3
S'|'
p1424
NNNI3
I1
I0
tp1425
bS'SVM'
p1426
tp1427
Rp1428
sg83
I3
sg84
g85
sg86
g11
(g15
S'%\x97\xb3z\xec\x08\xe8?'
p1429
tp1430
Rp1431
sg90
g91
sg92
g93
sbag4
(g5
g6
Ntp1432
Rp1433
(dp1434
g10
g11
(g15
S'\x00\x00\x00\x00\x00\x00\xf8\xff'
p1435
tp1436
Rp1437
sg25
g1069
sg34
g35
sg36
(dp1438
g25
g1069
sg105
g11
(g15
S'BjF\xb3\x1c1A@'
p1439
tp1440
Rp1441
sg116
g11
(g15
S'\xa4\x13\xc4\xf15\xb1\x0f@'
p1442
tp1443
Rp1444
ssg51
g11
(g12
(S'S3'
p1445
I0
I1
tp1446
Rp1447
(I3
S'|'
p1448
NNNI3
I1
I0
tp1449
bS'PCA'
p1450
tp1451
Rp1452
sg60
F0.2
sg116
g1444
sg61
g11
(g12
(S'S3'
p1453
I0
I1
tp1454
Rp1455
(I3
S'|'
p1456
NNNI3
I1
I0
tp1457
bS'VGG'
p1458
tp1459
Rp1460
sg105
g1441
sg70
g11
(g15
S'\xa0{C\xd4\xc28\xd8?'
p1461
tp1462
Rp1463
sg74
g11
(g12
(S'S3'
p1464
I0
I1
tp1465
Rp1466
(I3
S'|'
p1467
NNNI3
I1
I0
tp1468
bS'SVM'
p1469
tp1470
Rp1471
sg83
I3
sg84
g85
sg86
g11
(g15
S'\xf8=\xb1\xca\x97\xfd\xe9?'
p1472
tp1473
Rp1474
sg90
g91
sg92
g93
sbag4
(g5
g6
Ntp1475
Rp1476
(dp1477
g10
g11
(g15
S'\x00\x00\x00\x00\x00\x00\xf8\xff'
p1478
tp1479
Rp1480
sg100
g11
(g45
S'\x06\x00\x00\x00\x00\x00\x00\x00'
p1481
tp1482
Rp1483
sg34
g35
sg36
(dp1484
g100
g1483
sg105
g11
(g15
S'\xb9)@\xe3.$;@'
p1485
tp1486
Rp1487
sg42
g11
(g45
S'\x01\x00\x00\x00\x00\x00\x00\x00'
p1488
tp1489
Rp1490
sg112
g11
(g45
S'\x03\x00\x00\x00\x00\x00\x00\x00'
p1491
tp1492
Rp1493
sg116
g11
(g15
S'\x13\x16I\x92{\x91\x19@'
p1494
tp1495
Rp1496
ssg116
g1496
sg51
g11
(g12
(S'S6'
p1497
I0
I1
tp1498
Rp1499
(I3
S'|'
p1500
NNNI6
I1
I0
tp1501
bS'ISOMAP'
p1502
tp1503
Rp1504
sg60
F0.2
sg112
g1493
sg61
g11
(g12
(S'S8'
p1505
I0
I1
tp1506
Rp1507
(I3
S'|'
p1508
NNNI8
I1
I0
tp1509
bS'haralick'
p1510
tp1511
Rp1512
sg105
g1487
sg42
g1490
sg70
g11
(g15
S'\xe8h\x01+LU\xd9?'
p1513
tp1514
Rp1515
sg74
g11
(g12
(S'S3'
p1516
I0
I1
tp1517
Rp1518
(I3
S'|'
p1519
NNNI3
I1
I0
tp1520
bS'SVM'
p1521
tp1522
Rp1523
sg83
I3
sg84
g85
sg86
g11
(g15
S'\xf7\xd5\x17\x94\x9b\x8c\xea?'
p1524
tp1525
Rp1526
sg90
g91
sg92
g93
sbag4
(g5
g6
Ntp1527
Rp1528
(dp1529
g10
g11
(g15
S'\x00\x00\x00\x00\x00\x00\xf8\xff'
p1530
tp1531
Rp1532
sg25
g1069
sg34
g35
sg36
(dp1533
g25
g1069
sg105
g11
(g15
S'|\xd5x\xb3\x81\xc4\x15@'
p1534
tp1535
Rp1536
sg116
g11
(g15
S'\x97nN\x87\xa9\xbc\x1a@'
p1537
tp1538
Rp1539
ssg51
g11
(g12
(S'S3'
p1540
I0
I1
tp1541
Rp1542
(I3
S'|'
p1543
NNNI3
I1
I0
tp1544
bS'PCA'
p1545
tp1546
Rp1547
sg60
F0.2
sg116
g1539
sg61
g11
(g12
(S'S9'
p1548
I0
I1
tp1549
Rp1550
(I3
S'|'
p1551
NNNI9
I1
I0
tp1552
bS'inception'
p1553
tp1554
Rp1555
sg105
g1536
sg70
g11
(g15
S'fJ\xff\xca,\x89\xe0?'
p1556
tp1557
Rp1558
sg74
g11
(g12
(S'S3'
p1559
I0
I1
tp1560
Rp1561
(I3
S'|'
p1562
NNNI3
I1
I0
tp1563
bS'SVM'
p1564
tp1565
Rp1566
sg83
I3
sg84
g85
sg86
g11
(g15
S'm4\xa6\xc2\x89\xfb\xe3?'
p1567
tp1568
Rp1569
sg90
g91
sg92
g93
sbag4
(g5
g6
Ntp1570
Rp1571
(dp1572
g10
g11
(g15
S'\x00\x00\x00\x00\x00\x00\xf8\xff'
p1573
tp1574
Rp1575
sg25
g1069
sg34
g35
sg36
(dp1576
g25
g1069
sg105
g11
(g15
S'\xe0\xc4\x16\x87 \xa4G@'
p1577
tp1578
Rp1579
sg42
g11
(g45
S'\x02\x00\x00\x00\x00\x00\x00\x00'
p1580
tp1581
Rp1582
sg116
g11
(g15
S'\xfc\xa1J\\\x91\xda\x08@'
p1583
tp1584
Rp1585
ssg51
g11
(g12
(S'S3'
p1586
I0
I1
tp1587
Rp1588
(I3
S'|'
p1589
NNNI3
I1
I0
tp1590
bS'PCA'
p1591
tp1592
Rp1593
sg60
F0.2
sg116
g1585
sg61
g11
(g12
(S'S8'
p1594
I0
I1
tp1595
Rp1596
(I3
S'|'
p1597
NNNI8
I1
I0
tp1598
bS'haralick'
p1599
tp1600
Rp1601
sg105
g1579
sg42
g1582
sg70
g11
(g15
S'm\xedoS\x0e\xb0\xd9?'
p1602
tp1603
Rp1604
sg74
g11
(g12
(S'S3'
p1605
I0
I1
tp1606
Rp1607
(I3
S'|'
p1608
NNNI3
I1
I0
tp1609
bS'SVM'
p1610
tp1611
Rp1612
sg83
I3
sg84
g85
sg86
g11
(g15
S'\xbb\x11d\xbf\x08v\xeb?'
p1613
tp1614
Rp1615
sg90
g91
sg92
g93
sbag4
(g5
g6
Ntp1616
Rp1617
(dp1618
g10
g11
(g15
S'\x00\x00\x00\x00\x00\x00\xf8\xff'
p1619
tp1620
Rp1621
sg21
g11
(g15
S'\x00\x00\x00\x00\x00`i@'
p1622
tp1623
Rp1624
sg25
g33
sg34
g35
sg36
(dp1625
g21
g1624
sg38
g11
(g15
S'\x9a\x00\xd8{\xde_\xde?'
p1626
tp1627
Rp1628
sg25
g33
sg42
g11
(g45
S'\x03\x00\x00\x00\x00\x00\x00\x00'
p1629
tp1630
Rp1631
ssg51
g11
(g12
(S'S3'
p1632
I0
I1
tp1633
Rp1634
(I3
S'|'
p1635
NNNI3
I1
I0
tp1636
bS'PCA'
p1637
tp1638
Rp1639
sg60
F0.2
sg61
g11
(g12
(S'S8'
p1640
I0
I1
tp1641
Rp1642
(I3
S'|'
p1643
NNNI8
I1
I0
tp1644
bS'haralick'
p1645
tp1646
Rp1647
sg42
g1631
sg70
g11
(g15
S'\x1a\x02\x1a\x8ea\xea\xe4?'
p1648
tp1649
Rp1650
sg74
g11
(g12
(S'S2'
p1651
I0
I1
tp1652
Rp1653
(I3
S'|'
p1654
NNNI2
I1
I0
tp1655
bS'RF'
p1656
tp1657
Rp1658
sg83
I3
sg38
g1628
sg84
g85
sg86
g11
(g15
S'\xbb\x11d\xbf\x08v\xeb?'
p1659
tp1660
Rp1661
sg90
g91
sg92
g93
sbag4
(g5
g6
Ntp1662
Rp1663
(dp1664
g10
g11
(g15
S'\x00\x00\x00\x00\x00\x00\xf8\xff'
p1665
tp1666
Rp1667
sg21
g11
(g15
S'\x00\x00\x00\x00\x00@a@'
p1668
tp1669
Rp1670
sg25
g33
sg34
g35
sg36
(dp1671
g21
g1670
sg38
g11
(g15
S'H\xb2\xcd-\xdeW\xd6?'
p1672
tp1673
Rp1674
sg25
g33
sg42
g11
(g45
S'\x02\x00\x00\x00\x00\x00\x00\x00'
p1675
tp1676
Rp1677
ssg51
g11
(g12
(S'S3'
p1678
I0
I1
tp1679
Rp1680
(I3
S'|'
p1681
NNNI3
I1
I0
tp1682
bS'PCA'
p1683
tp1684
Rp1685
sg60
F0.2
sg61
g11
(g12
(S'S8'
p1686
I0
I1
tp1687
Rp1688
(I3
S'|'
p1689
NNNI8
I1
I0
tp1690
bS'haralick'
p1691
tp1692
Rp1693
sg42
g1677
sg70
g11
(g15
S'\x05\t\x93f\x0c\xd2\xe4?'
p1694
tp1695
Rp1696
sg74
g11
(g12
(S'S2'
p1697
I0
I1
tp1698
Rp1699
(I3
S'|'
p1700
NNNI2
I1
I0
tp1701
bS'RF'
p1702
tp1703
Rp1704
sg83
I3
sg38
g1674
sg84
g85
sg86
g11
(g15
S'Pn2\xaa\xba\x99\xeb?'
p1705
tp1706
Rp1707
sg90
g91
sg92
g93
sbag4
(g5
g6
Ntp1708
Rp1709
(dp1710
g10
g11
(g15
S'\x00\x00\x00\x00\x00\x00\xf8\xff'
p1711
tp1712
Rp1713
sg21
g11
(g15
S'\x00\x00\x00\x00\x00@e@'
p1714
tp1715
Rp1716
sg34
g35
sg100
g11
(g45
S'\x04\x00\x00\x00\x00\x00\x00\x00'
p1717
tp1718
Rp1719
sg36
(dp1720
g21
g1716
sg100
g1719
sg112
g11
(g45
S'\x04\x00\x00\x00\x00\x00\x00\x00'
p1721
tp1722
Rp1723
sg38
g11
(g15
S'\x05\xbf\x86n\xf1\xb8\xd6?'
p1724
tp1725
Rp1726
ssg51
g11
(g12
(S'S6'
p1727
I0
I1
tp1728
Rp1729
(I3
S'|'
p1730
NNNI6
I1
I0
tp1731
bS'ISOMAP'
p1732
tp1733
Rp1734
sg60
F0.2
sg112
g1723
sg61
g11
(g12
(S'S9'
p1735
I0
I1
tp1736
Rp1737
(I3
S'|'
p1738
NNNI9
I1
I0
tp1739
bS'inception'
p1740
tp1741
Rp1742
sg70
g11
(g15
S'c+%\xd0x\xdf\xf0?'
p1743
tp1744
Rp1745
sg74
g11
(g12
(S'S2'
p1746
I0
I1
tp1747
Rp1748
(I3
S'|'
p1749
NNNI2
I1
I0
tp1750
bS'RF'
p1751
tp1752
Rp1753
sg83
I3
sg38
g1726
sg84
g85
sg86
g11
(g15
S'\xf5\xac<\x1d\\\xde\xe5?'
p1754
tp1755
Rp1756
sg90
g91
sg92
g93
sbag4
(g5
g6
Ntp1757
Rp1758
(dp1759
g10
g11
(g15
S'\x00\x00\x00\x00\x00\x00\xf8\xff'
p1760
tp1761
Rp1762
sg25
g1069
sg34
g35
sg36
(dp1763
g25
g1069
sg105
g11
(g15
S'\x98\xd4\xe8k\xae<;@'
p1764
tp1765
Rp1766
sg116
g11
(g15
S'\x90$\x0em\xab\xa0\x18@'
p1767
tp1768
Rp1769
ssg51
g11
(g12
(S'S3'
p1770
I0
I1
tp1771
Rp1772
(I3
S'|'
p1773
NNNI3
I1
I0
tp1774
bS'PCA'
p1775
tp1776
Rp1777
sg60
F0.2
sg116
g1769
sg61
g11
(g12
(S'S3'
p1778
I0
I1
tp1779
Rp1780
(I3
S'|'
p1781
NNNI3
I1
I0
tp1782
bS'VGG'
p1783
tp1784
Rp1785
sg105
g1766
sg70
g11
(g15
S'\xbb\x8d\x08mdN\xd9?'
p1786
tp1787
Rp1788
sg74
g11
(g12
(S'S3'
p1789
I0
I1
tp1790
Rp1791
(I3
S'|'
p1792
NNNI3
I1
I0
tp1793
bS'SVM'
p1794
tp1795
Rp1796
sg83
I3
sg84
g85
sg86
g11
(g15
S'\xcd\x84\x14\xf53\xb6\xe9?'
p1797
tp1798
Rp1799
sg90
g91
sg92
g93
sbag4
(g5
g6
Ntp1800
Rp1801
(dp1802
g10
g11
(g15
S'\x00\x00\x00\x00\x00\x00\xf8\xff'
p1803
tp1804
Rp1805
sg100
g11
(g45
S'\x06\x00\x00\x00\x00\x00\x00\x00'
p1806
tp1807
Rp1808
sg34
g35
sg36
(dp1809
g100
g1808
sg105
g11
(g15
S'\xa9(\xd5\xd9\xcddS@'
p1810
tp1811
Rp1812
sg112
g11
(g45
S'\x03\x00\x00\x00\x00\x00\x00\x00'
p1813
tp1814
Rp1815
sg116
g11
(g15
S'\x96x=\xe9\x9b\xcc\x16@'
p1816
tp1817
Rp1818
ssg116
g1818
sg51
g11
(g12
(S'S6'
p1819
I0
I1
tp1820
Rp1821
(I3
S'|'
p1822
NNNI6
I1
I0
tp1823
bS'ISOMAP'
p1824
tp1825
Rp1826
sg60
F0.2
sg112
g1815
sg61
g11
(g12
(S'S3'
p1827
I0
I1
tp1828
Rp1829
(I3
S'|'
p1830
NNNI3
I1
I0
tp1831
bS'VGG'
p1832
tp1833
Rp1834
sg105
g1812
sg70
g11
(g15
S'\xb8e\x8b+^K\xdc?'
p1835
tp1836
Rp1837
sg74
g11
(g12
(S'S3'
p1838
I0
I1
tp1839
Rp1840
(I3
S'|'
p1841
NNNI3
I1
I0
tp1842
bS'SVM'
p1843
tp1844
Rp1845
sg83
I3
sg84
g85
sg86
g11
(g15
S'\x98F\xeb\xa14\x0f\xea?'
p1846
tp1847
Rp1848
sg90
g91
sg92
g93
sbag4
(g5
g6
Ntp1849
Rp1850
(dp1851
g10
g11
(g15
S'\x00\x00\x00\x00\x00\x00\xf8\xff'
p1852
tp1853
Rp1854
sg21
g11
(g15
S'\x00\x00\x00\x00\x00\xc0r@'
p1855
tp1856
Rp1857
sg34
g35
sg100
g11
(g45
S'\x06\x00\x00\x00\x00\x00\x00\x00'
p1858
tp1859
Rp1860
sg36
(dp1861
g21
g1857
sg100
g1860
sg112
g11
(g45
S'\x02\x00\x00\x00\x00\x00\x00\x00'
p1862
tp1863
Rp1864
sg38
g11
(g15
S'2\x14\x94\xf5\xab\x0c\xd9?'
p1865
tp1866
Rp1867
ssg51
g11
(g12
(S'S6'
p1868
I0
I1
tp1869
Rp1870
(I3
S'|'
p1871
NNNI6
I1
I0
tp1872
bS'ISOMAP'
p1873
tp1874
Rp1875
sg60
F0.2
sg112
g1864
sg61
g11
(g12
(S'S3'
p1876
I0
I1
tp1877
Rp1878
(I3
S'|'
p1879
NNNI3
I1
I0
tp1880
bS'VGG'
p1881
tp1882
Rp1883
sg70
g11
(g15
S'\x9d\x9fbae\xb9\xe2?'
p1884
tp1885
Rp1886
sg74
g11
(g12
(S'S2'
p1887
I0
I1
tp1888
Rp1889
(I3
S'|'
p1890
NNNI2
I1
I0
tp1891
bS'RF'
p1892
tp1893
Rp1894
sg83
I3
sg38
g1867
sg84
g85
sg86
g11
(g15
S'\xf7\x89d\xaf\x19E\xea?'
p1895
tp1896
Rp1897
sg90
g91
sg92
g93
sbag4
(g5
g6
Ntp1898
Rp1899
(dp1900
g10
g11
(g15
S'\x00\x00\x00\x00\x00\x00\xf8\xff'
p1901
tp1902
Rp1903
sg21
g11
(g15
S'\x00\x00\x00\x00\x00\xc0p@'
p1904
tp1905
Rp1906
sg34
g35
sg100
g11
(g45
S'\x03\x00\x00\x00\x00\x00\x00\x00'
p1907
tp1908
Rp1909
sg36
(dp1910
g21
g1906
sg100
g1909
sg112
g11
(g45
S'\x04\x00\x00\x00\x00\x00\x00\x00'
p1911
tp1912
Rp1913
sg38
g11
(g15
S'0\x1a\x9a\xa6Wp\xed?'
p1914
tp1915
Rp1916
ssg51
g11
(g12
(S'S6'
p1917
I0
I1
tp1918
Rp1919
(I3
S'|'
p1920
NNNI6
I1
I0
tp1921
bS'ISOMAP'
p1922
tp1923
Rp1924
sg60
F0.2
sg112
g1913
sg61
g11
(g12
(S'S3'
p1925
I0
I1
tp1926
Rp1927
(I3
S'|'
p1928
NNNI3
I1
I0
tp1929
bS'VGG'
p1930
tp1931
Rp1932
sg70
g11
(g15
S'\xffz\xbb\x0b"\xe2\xe4?'
p1933
tp1934
Rp1935
sg74
g11
(g12
(S'S2'
p1936
I0
I1
tp1937
Rp1938
(I3
S'|'
p1939
NNNI2
I1
I0
tp1940
bS'RF'
p1941
tp1942
Rp1943
sg83
I3
sg38
g1916
sg84
g85
sg86
g11
(g15
S'AP2n\xf6\xe5\xea?'
p1944
tp1945
Rp1946
sg90
g91
sg92
g93
sbag4
(g5
g6
Ntp1947
Rp1948
(dp1949
g10
g11
(g15
S'\x00\x00\x00\x00\x00\x00\xf8\xff'
p1950
tp1951
Rp1952
sg100
g11
(g45
S'\x07\x00\x00\x00\x00\x00\x00\x00'
p1953
tp1954
Rp1955
sg34
g35
sg36
(dp1956
g100
g1955
sg105
g11
(g15
S'\xeaU\xa1R\xe1jK@'
p1957
tp1958
Rp1959
sg42
g11
(g45
S'\x03\x00\x00\x00\x00\x00\x00\x00'
p1960
tp1961
Rp1962
sg112
g11
(g45
S'\x04\x00\x00\x00\x00\x00\x00\x00'
p1963
tp1964
Rp1965
sg116
g11
(g15
S'{\xa9\xff\xa2\xca\xc8\x15@'
p1966
tp1967
Rp1968
ssg116
g1968
sg51
g11
(g12
(S'S6'
p1969
I0
I1
tp1970
Rp1971
(I3
S'|'
p1972
NNNI6
I1
I0
tp1973
bS'ISOMAP'
p1974
tp1975
Rp1976
sg60
F0.2
sg112
g1965
sg61
g11
(g12
(S'S8'
p1977
I0
I1
tp1978
Rp1979
(I3
S'|'
p1980
NNNI8
I1
I0
tp1981
bS'haralick'
p1982
tp1983
Rp1984
sg105
g1959
sg42
g1962
sg70
g11
(g15
S'\xe8\x8a|cj$\xde?'
p1985
tp1986
Rp1987
sg74
g11
(g12
(S'S3'
p1988
I0
I1
tp1989
Rp1990
(I3
S'|'
p1991
NNNI3
I1
I0
tp1992
bS'SVM'
p1993
tp1994
Rp1995
sg83
I3
sg84
g85
sg86
g11
(g15
S'\xf53\xb6\xb1\xba\xa8\xe8?'
p1996
tp1997
Rp1998
sg90
g91
sg92
g93
sbag4
(g5
g6
Ntp1999
Rp2000
(dp2001
g10
g11
(g15
S'\x00\x00\x00\x00\x00\x00\xf8\xff'
p2002
tp2003
Rp2004
sg25
g1069
sg34
g35
sg36
(dp2005
g25
g1069
sg105
g11
(g15
S'\x0b\x1cXm|(W@'
p2006
tp2007
Rp2008
sg116
g11
(g15
S'\xceV\x90\xbe\xe3%\x18@'
p2009
tp2010
Rp2011
ssg51
g11
(g12
(S'S3'
p2012
I0
I1
tp2013
Rp2014
(I3
S'|'
p2015
NNNI3
I1
I0
tp2016
bS'PCA'
p2017
tp2018
Rp2019
sg60
F0.2
sg116
g2011
sg61
g11
(g12
(S'S3'
p2020
I0
I1
tp2021
Rp2022
(I3
S'|'
p2023
NNNI3
I1
I0
tp2024
bS'VGG'
p2025
tp2026
Rp2027
sg105
g2008
sg70
g11
(g15
S'\xb8\xd8z\x01b%\xd9?'
p2028
tp2029
Rp2030
sg74
g11
(g12
(S'S3'
p2031
I0
I1
tp2032
Rp2033
(I3
S'|'
p2034
NNNI3
I1
I0
tp2035
bS'SVM'
p2036
tp2037
Rp2038
sg83
I3
sg84
g85
sg86
g11
(g15
S'\xcd\x84\x14\xf53\xb6\xe9?'
p2039
tp2040
Rp2041
sg90
g91
sg92
g93
sbag4
(g5
g6
Ntp2042
Rp2043
(dp2044
g10
g11
(g15
S'\x00\x00\x00\x00\x00\x00\xf8\xff'
p2045
tp2046
Rp2047
sg21
g11
(g15
S'\x00\x00\x00\x00\x00@e@'
p2048
tp2049
Rp2050
sg25
g1069
sg34
g35
sg36
(dp2051
g21
g2050
sg38
g11
(g15
S'\x8c\x84\x14\xf4\xf9\xb7\xea?'
p2052
tp2053
Rp2054
sg25
g1069
sg42
g11
(g45
S'\x03\x00\x00\x00\x00\x00\x00\x00'
p2055
tp2056
Rp2057
ssg51
g11
(g12
(S'S3'
p2058
I0
I1
tp2059
Rp2060
(I3
S'|'
p2061
NNNI3
I1
I0
tp2062
bS'PCA'
p2063
tp2064
Rp2065
sg60
F0.2
sg61
g11
(g12
(S'S8'
p2066
I0
I1
tp2067
Rp2068
(I3
S'|'
p2069
NNNI8
I1
I0
tp2070
bS'haralick'
p2071
tp2072
Rp2073
sg42
g2057
sg70
g11
(g15
S'\x17\xd1\xca\x0b\xe8\x01\xe5?'
p2074
tp2075
Rp2076
sg74
g11
(g12
(S'S2'
p2077
I0
I1
tp2078
Rp2079
(I3
S'|'
p2080
NNNI2
I1
I0
tp2081
bS'RF'
p2082
tp2083
Rp2084
sg83
I3
sg38
g2054
sg84
g85
sg86
g11
(g15
S'\xc7\xbd\xcf\xab\xf3c\xeb?'
p2085
tp2086
Rp2087
sg90
g91
sg92
g93
sbag4
(g5
g6
Ntp2088
Rp2089
(dp2090
g10
g11
(g15
S'\x00\x00\x00\x00\x00\x00\xf8\xff'
p2091
tp2092
Rp2093
sg25
g1069
sg34
g35
sg36
(dp2094
g25
g1069
sg105
g11
(g15
S'{\xac\x15\xce\xe3\x171@'
p2095
tp2096
Rp2097
sg42
g11
(g45
S'\x01\x00\x00\x00\x00\x00\x00\x00'
p2098
tp2099
Rp2100
sg116
g11
(g15
S'\x18J]!\xa6_\x18@'
p2101
tp2102
Rp2103
ssg51
g11
(g12
(S'S3'
p2104
I0
I1
tp2105
Rp2106
(I3
S'|'
p2107
NNNI3
I1
I0
tp2108
bS'PCA'
p2109
tp2110
Rp2111
sg60
F0.2
sg116
g2103
sg61
g11
(g12
(S'S8'
p2112
I0
I1
tp2113
Rp2114
(I3
S'|'
p2115
NNNI8
I1
I0
tp2116
bS'haralick'
p2117
tp2118
Rp2119
sg105
g2097
sg42
g2100
sg70
g11
(g15
S'h\xc6\xe09!f\xdb?'
p2120
tp2121
Rp2122
sg74
g11
(g12
(S'S3'
p2123
I0
I1
tp2124
Rp2125
(I3
S'|'
p2126
NNNI3
I1
I0
tp2127
bS'SVM'
p2128
tp2129
Rp2130
sg83
I3
sg84
g85
sg86
g11
(g15
S'p\xc5\x1ap\xc5\x1a\xe8?'
p2131
tp2132
Rp2133
sg90
g91
sg92
g93
sbag4
(g5
g6
Ntp2134
Rp2135
(dp2136
g10
g11
(g15
S'\x00\x00\x00\x00\x00\x00\xf8\xff'
p2137
tp2138
Rp2139
sg100
g11
(g45
S'\x04\x00\x00\x00\x00\x00\x00\x00'
p2140
tp2141
Rp2142
sg34
g35
sg36
(dp2143
g100
g2142
sg105
g11
(g15
S'\xc4\tE<\x1f2W@'
p2144
tp2145
Rp2146
sg112
g11
(g45
S'\x03\x00\x00\x00\x00\x00\x00\x00'
p2147
tp2148
Rp2149
sg116
g11
(g15
S'\xa9\xd6(\xcd\x8e\x89\x0f@'
p2150
tp2151
Rp2152
ssg116
g2152
sg51
g11
(g12
(S'S6'
p2153
I0
I1
tp2154
Rp2155
(I3
S'|'
p2156
NNNI6
I1
I0
tp2157
bS'ISOMAP'
p2158
tp2159
Rp2160
sg60
F0.2
sg112
g2149
sg61
g11
(g12
(S'S3'
p2161
I0
I1
tp2162
Rp2163
(I3
S'|'
p2164
NNNI3
I1
I0
tp2165
bS'VGG'
p2166
tp2167
Rp2168
sg105
g2146
sg70
g11
(g15
S'4\xe6\xf2]\x00\xf4\xdd?'
p2169
tp2170
Rp2171
sg74
g11
(g12
(S'S3'
p2172
I0
I1
tp2173
Rp2174
(I3
S'|'
p2175
NNNI3
I1
I0
tp2176
bS'SVM'
p2177
tp2178
Rp2179
sg83
I3
sg84
g85
sg86
g11
(g15
S'\x18\xb3{\xea\x0c\xc8\xe9?'
p2180
tp2181
Rp2182
sg90
g91
sg92
g93
sbag4
(g5
g6
Ntp2183
Rp2184
(dp2185
g10
g11
(g15
S'\x00\x00\x00\x00\x00\x00\xf8\xff'
p2186
tp2187
Rp2188
sg21
g11
(g15
S'\x00\x00\x00\x00\x00`m@'
p2189
tp2190
Rp2191
sg34
g35
sg100
g11
(g45
S'\x05\x00\x00\x00\x00\x00\x00\x00'
p2192
tp2193
Rp2194
sg36
(dp2195
g21
g2191
sg100
g2194
sg112
g11
(g45
S'\x04\x00\x00\x00\x00\x00\x00\x00'
p2196
tp2197
Rp2198
sg38
g11
(g15
S"\xd2\xf4\xb1\xaa?'\xe0?"
p2199
tp2200
Rp2201
ssg51
g11
(g12
(S'S6'
p2202
I0
I1
tp2203
Rp2204
(I3
S'|'
p2205
NNNI6
I1
I0
tp2206
bS'ISOMAP'
p2207
tp2208
Rp2209
sg60
F0.2
sg112
g2198
sg61
g11
(g12
(S'S3'
p2210
I0
I1
tp2211
Rp2212
(I3
S'|'
p2213
NNNI3
I1
I0
tp2214
bS'VGG'
p2215
tp2216
Rp2217
sg70
g11
(g15
S'\xeb[\t\x88\xe7\x8f\xde?'
p2218
tp2219
Rp2220
sg74
g11
(g12
(S'S2'
p2221
I0
I1
tp2222
Rp2223
(I3
S'|'
p2224
NNNI2
I1
I0
tp2225
bS'RF'
p2226
tp2227
Rp2228
sg83
I3
sg38
g2201
sg84
g85
sg86
g11
(g15
S'\xcbLHQ?c\xeb?'
p2229
tp2230
Rp2231
sg90
g91
sg92
g93
sbag4
(g5
g6
Ntp2232
Rp2233
(dp2234
g10
g11
(g15
S'\x00\x00\x00\x00\x00\x00\xf8\xff'
p2235
tp2236
Rp2237
sg21
g11
(g15
S'\x00\x00\x00\x00\x00@Z@'
p2238
tp2239
Rp2240
sg25
g33
sg34
g35
sg36
(dp2241
g21
g2240
sg38
g11
(g15
S'\x08/a\x8d$\xf8\xdd?'
p2242
tp2243
Rp2244
sg25
g33
ssg51
g11
(g12
(S'S3'
p2245
I0
I1
tp2246
Rp2247
(I3
S'|'
p2248
NNNI3
I1
I0
tp2249
bS'PCA'
p2250
tp2251
Rp2252
sg60
F0.2
sg61
g11
(g12
(S'S9'
p2253
I0
I1
tp2254
Rp2255
(I3
S'|'
p2256
NNNI9
I1
I0
tp2257
bS'inception'
p2258
tp2259
Rp2260
sg70
g11
(g15
S'\x95-\x8b$\xde]\xe2?'
p2261
tp2262
Rp2263
sg74
g11
(g12
(S'S2'
p2264
I0
I1
tp2265
Rp2266
(I3
S'|'
p2267
NNNI2
I1
I0
tp2268
bS'RF'
p2269
tp2270
Rp2271
sg83
I3
sg38
g2244
sg84
g85
sg86
g11
(g15
S'\xa7\xdeoM\x92\x08\xe8?'
p2272
tp2273
Rp2274
sg90
g91
sg92
g93
sbag4
(g5
g6
Ntp2275
Rp2276
(dp2277
g10
g11
(g15
S'\x00\x00\x00\x00\x00\x00\xf8\xff'
p2278
tp2279
Rp2280
sg21
g11
(g15
S'\x00\x00\x00\x00\x00@R@'
p2281
tp2282
Rp2283
sg25
g1069
sg34
g35
sg36
(dp2284
g21
g2283
sg38
g11
(g15
S'N}\n|Vu\xe5?'
p2285
tp2286
Rp2287
sg25
g1069
ssg51
g11
(g12
(S'S3'
p2288
I0
I1
tp2289
Rp2290
(I3
S'|'
p2291
NNNI3
I1
I0
tp2292
bS'PCA'
p2293
tp2294
Rp2295
sg60
F0.2
sg61
g11
(g12
(S'S9'
p2296
I0
I1
tp2297
Rp2298
(I3
S'|'
p2299
NNNI9
I1
I0
tp2300
bS'inception'
p2301
tp2302
Rp2303
sg70
g11
(g15
S'\x13Y\xbb\xa8\xa0\xfa\xe4?'
p2304
tp2305
Rp2306
sg74
g11
(g12
(S'S2'
p2307
I0
I1
tp2308
Rp2309
(I3
S'|'
p2310
NNNI2
I1
I0
tp2311
bS'RF'
p2312
tp2313
Rp2314
sg83
I3
sg38
g2287
sg84
g85
sg86
g11
(g15
S'0\x8f\xd2KY>\xe8?'
p2315
tp2316
Rp2317
sg90
g91
sg92
g93
sbag292
ag4
(g5
g6
Ntp2318
Rp2319
(dp2320
g10
g11
(g15
S'\x00\x00\x00\x00\x00\x00\xf8\xff'
p2321
tp2322
Rp2323
sg25
g1069
sg34
g35
sg36
(dp2324
g25
g1069
sg105
g11
(g15
S'3\xf7\xfe#K\xf8C@'
p2325
tp2326
Rp2327
sg116
g11
(g15
S'#Y\x7fe\x89m\xfc?'
p2328
tp2329
Rp2330
ssg51
g11
(g12
(S'S3'
p2331
I0
I1
tp2332
Rp2333
(I3
S'|'
p2334
NNNI3
I1
I0
tp2335
bS'PCA'
p2336
tp2337
Rp2338
sg60
F0.2
sg116
g2330
sg61
g11
(g12
(S'S3'
p2339
I0
I1
tp2340
Rp2341
(I3
S'|'
p2342
NNNI3
I1
I0
tp2343
bS'VGG'
p2344
tp2345
Rp2346
sg105
g2327
sg70
g11
(g15
S'a\xd5\xdb\xb9\xe6\xad\xd7?'
p2347
tp2348
Rp2349
sg74
g11
(g12
(S'S3'
p2350
I0
I1
tp2351
Rp2352
(I3
S'|'
p2353
NNNI3
I1
I0
tp2354
bS'SVM'
p2355
tp2356
Rp2357
sg83
I3
sg84
g85
sg86
g11
(g15
S'mqhzV\x9e\xea?'
p2358
tp2359
Rp2360
sg90
g91
sg92
g93
sbag4
(g5
g6
Ntp2361
Rp2362
(dp2363
g10
g11
(g15
S'\x00\x00\x00\x00\x00\x00\xf8\xff'
p2364
tp2365
Rp2366
sg21
g11
(g15
S'\x00\x00\x00\x00\x00`i@'
p2367
tp2368
Rp2369
sg25
g33
sg34
g35
sg36
(dp2370
g21
g2369
sg38
g11
(g15
S'\xa8E`\x1f\xd0\x01\xe4?'
p2371
tp2372
Rp2373
sg25
g33
sg42
g11
(g45
S'\x01\x00\x00\x00\x00\x00\x00\x00'
p2374
tp2375
Rp2376
ssg51
g11
(g12
(S'S3'
p2377
I0
I1
tp2378
Rp2379
(I3
S'|'
p2380
NNNI3
I1
I0
tp2381
bS'PCA'
p2382
tp2383
Rp2384
sg60
F0.2
sg61
g11
(g12
(S'S8'
p2385
I0
I1
tp2386
Rp2387
(I3
S'|'
p2388
NNNI8
I1
I0
tp2389
bS'haralick'
p2390
tp2391
Rp2392
sg42
g2376
sg70
g11
(g15
S'S~\xf5,\x03\x88\xf5?'
p2393
tp2394
Rp2395
sg74
g11
(g12
(S'S2'
p2396
I0
I1
tp2397
Rp2398
(I3
S'|'
p2399
NNNI2
I1
I0
tp2400
bS'RF'
p2401
tp2402
Rp2403
sg83
I3
sg38
g2373
sg84
g85
sg86
g11
(g15
S'\t\x19\xfb6\xbf\xae\xe7?'
p2404
tp2405
Rp2406
sg90
g91
sg92
g93
sbag4
(g5
g6
Ntp2407
Rp2408
(dp2409
g10
g11
(g15
S'\x00\x00\x00\x00\x00\x00\xf8\xff'
p2410
tp2411
Rp2412
sg21
g11
(g15
S'\x00\x00\x00\x00\x00\x00D@'
p2413
tp2414
Rp2415
sg25
g33
sg34
g35
sg36
(dp2416
g21
g2415
sg38
g11
(g15
S'\xb2e\x88\xf3{\xea\xda?'
p2417
tp2418
Rp2419
sg25
g33
sg42
g11
(g45
S'\x01\x00\x00\x00\x00\x00\x00\x00'
p2420
tp2421
Rp2422
ssg51
g11
(g12
(S'S3'
p2423
I0
I1
tp2424
Rp2425
(I3
S'|'
p2426
NNNI3
I1
I0
tp2427
bS'PCA'
p2428
tp2429
Rp2430
sg60
F0.2
sg61
g11
(g12
(S'S8'
p2431
I0
I1
tp2432
Rp2433
(I3
S'|'
p2434
NNNI8
I1
I0
tp2435
bS'haralick'
p2436
tp2437
Rp2438
sg42
g2422
sg70
g11
(g15
S'`\x91N\x05\x8a\x01\xfa?'
p2439
tp2440
Rp2441
sg74
g11
(g12
(S'S2'
p2442
I0
I1
tp2443
Rp2444
(I3
S'|'
p2445
NNNI2
I1
I0
tp2446
bS'RF'
p2447
tp2448
Rp2449
sg83
I3
sg38
g2419
sg84
g85
sg86
g11
(g15
S'\xdd\xf7\xc4*_\xf6\xe7?'
p2450
tp2451
Rp2452
sg90
g91
sg92
g93
sbag4
(g5
g6
Ntp2453
Rp2454
(dp2455
g10
g11
(g15
S'\x00\x00\x00\x00\x00\x00\xf8\xff'
p2456
tp2457
Rp2458
sg21
g11
(g15
S'\x00\x00\x00\x00\x00\xc0r@'
p2459
tp2460
Rp2461
sg25
g33
sg34
g35
sg36
(dp2462
g21
g2461
sg38
g11
(g15
S'9@H\xa2m\xcf\xd8?'
p2463
tp2464
Rp2465
sg25
g33
sg42
g11
(g45
S'\x01\x00\x00\x00\x00\x00\x00\x00'
p2466
tp2467
Rp2468
ssg51
g11
(g12
(S'S3'
p2469
I0
I1
tp2470
Rp2471
(I3
S'|'
p2472
NNNI3
I1
I0
tp2473
bS'PCA'
p2474
tp2475
Rp2476
sg60
F0.2
sg61
g11
(g12
(S'S8'
p2477
I0
I1
tp2478
Rp2479
(I3
S'|'
p2480
NNNI8
I1
I0
tp2481
bS'haralick'
p2482
tp2483
Rp2484
sg42
g2468
sg70
g11
(g15
S'Mp\xbb\x97V\xa9\xf6?'
p2485
tp2486
Rp2487
sg74
g11
(g12
(S'S2'
p2488
I0
I1
tp2489
Rp2490
(I3
S'|'
p2491
NNNI2
I1
I0
tp2492
bS'RF'
p2493
tp2494
Rp2495
sg83
I3
sg38
g2465
sg84
g85
sg86
g11
(g15
S'\t\x19\xfb6\xbf\xae\xe7?'
p2496
tp2497
Rp2498
sg90
g91
sg92
g93
sbag4
(g5
g6
Ntp2499
Rp2500
(dp2501
g10
g11
(g15
S'\x00\x00\x00\x00\x00\x00\xf8\xff'
p2502
tp2503
Rp2504
sg21
g11
(g15
S'\x00\x00\x00\x00\x00@Z@'
p2505
tp2506
Rp2507
sg25
g33
sg34
g35
sg36
(dp2508
g21
g2507
sg38
g11
(g15
S'\x834q\xd6\xf3\\\xdb?'
p2509
tp2510
Rp2511
sg25
g33
sg42
g11
(g45
S'\x01\x00\x00\x00\x00\x00\x00\x00'
p2512
tp2513
Rp2514
ssg51
g11
(g12
(S'S3'
p2515
I0
I1
tp2516
Rp2517
(I3
S'|'
p2518
NNNI3
I1
I0
tp2519
bS'PCA'
p2520
tp2521
Rp2522
sg60
F0.2
sg61
g11
(g12
(S'S8'
p2523
I0
I1
tp2524
Rp2525
(I3
S'|'
p2526
NNNI8
I1
I0
tp2527
bS'haralick'
p2528
tp2529
Rp2530
sg42
g2514
sg70
g11
(g15
S'u\x1b\x918\xc1\xc5\xf9?'
p2531
tp2532
Rp2533
sg74
g11
(g12
(S'S2'
p2534
I0
I1
tp2535
Rp2536
(I3
S'|'
p2537
NNNI2
I1
I0
tp2538
bS'RF'
p2539
tp2540
Rp2541
sg83
I3
sg38
g2511
sg84
g85
sg86
g11
(g15
S'\t\x19\xfb6\xbf\xae\xe7?'
p2542
tp2543
Rp2544
sg90
g91
sg92
g93
sbag4
(g5
g6
Ntp2545
Rp2546
(dp2547
g10
g11
(g15
S'\x00\x00\x00\x00\x00\x00\xf8\xff'
p2548
tp2549
Rp2550
sg25
g1069
sg34
g35
sg36
(dp2551
g25
g1069
sg105
g11
(g15
S'p\xbc\xa7\xbbZ\x18&@'
p2552
tp2553
Rp2554
sg42
g11
(g45
S'\x03\x00\x00\x00\x00\x00\x00\x00'
p2555
tp2556
Rp2557
sg116
g11
(g15
S'\xb1Z\xb5\xc5\xbb\x11\xed?'
p2558
tp2559
Rp2560
ssg51
g11
(g12
(S'S3'
p2561
I0
I1
tp2562
Rp2563
(I3
S'|'
p2564
NNNI3
I1
I0
tp2565
bS'PCA'
p2566
tp2567
Rp2568
sg60
F0.2
sg116
g2560
sg61
g11
(g12
(S'S8'
p2569
I0
I1
tp2570
Rp2571
(I3
S'|'
p2572
NNNI8
I1
I0
tp2573
bS'haralick'
p2574
tp2575
Rp2576
sg105
g2554
sg42
g2557
sg70
g11
(g15
S'\x908\xc2?\x0fR\xdc?'
p2577
tp2578
Rp2579
sg74
g11
(g12
(S'S3'
p2580
I0
I1
tp2581
Rp2582
(I3
S'|'
p2583
NNNI3
I1
I0
tp2584
bS'SVM'
p2585
tp2586
Rp2587
sg83
I3
sg84
g85
sg86
g11
(g15
S'\x95k\xbf\x17g\xc8\xe9?'
p2588
tp2589
Rp2590
sg90
g91
sg92
g93
sbag4
(g5
g6
Ntp2591
Rp2592
(dp2593
g10
g11
(g15
S'\x00\x00\x00\x00\x00\x00\xf8\xff'
p2594
tp2595
Rp2596
sg21
g11
(g15
S'\x00\x00\x00\x00\x00@a@'
p2597
tp2598
Rp2599
sg25
g1069
sg34
g35
sg36
(dp2600
g21
g2599
sg38
g11
(g15
S'\x1e\xb8\x07\xeb\xa6\xf5\xee?'
p2601
tp2602
Rp2603
sg25
g1069
ssg51
g11
(g12
(S'S3'
p2604
I0
I1
tp2605
Rp2606
(I3
S'|'
p2607
NNNI3
I1
I0
tp2608
bS'PCA'
p2609
tp2610
Rp2611
sg60
F0.2
sg61
g11
(g12
(S'S9'
p2612
I0
I1
tp2613
Rp2614
(I3
S'|'
p2615
NNNI9
I1
I0
tp2616
bS'inception'
p2617
tp2618
Rp2619
sg70
g11
(g15
S'o\x17f\xe8B\x94\xe2?'
p2620
tp2621
Rp2622
sg74
g11
(g12
(S'S2'
p2623
I0
I1
tp2624
Rp2625
(I3
S'|'
p2626
NNNI2
I1
I0
tp2627
bS'RF'
p2628
tp2629
Rp2630
sg83
I3
sg38
g2603
sg84
g85
sg86
g11
(g15
S'P\x04\x9dk\xce\x08\xe8?'
p2631
tp2632
Rp2633
sg90
g91
sg92
g93
sbag4
(g5
g6
Ntp2634
Rp2635
(dp2636
g10
g11
(g15
S'\x00\x00\x00\x00\x00\x00\xf8\xff'
p2637
tp2638
Rp2639
sg100
g11
(g45
S'\x05\x00\x00\x00\x00\x00\x00\x00'
p2640
tp2641
Rp2642
sg34
g35
sg36
(dp2643
g100
g2642
sg105
g11
(g15
S'\xe1\xa9d\x9a\x1f\x02)@'
p2644
tp2645
Rp2646
sg112
g11
(g45
S'\x02\x00\x00\x00\x00\x00\x00\x00'
p2647
tp2648
Rp2649
sg116
g11
(g15
S'\xa4_\xe0\xc3s\x8f\x12@'
p2650
tp2651
Rp2652
ssg116
g2652
sg51
g11
(g12
(S'S6'
p2653
I0
I1
tp2654
Rp2655
(I3
S'|'
p2656
NNNI6
I1
I0
tp2657
bS'ISOMAP'
p2658
tp2659
Rp2660
sg60
F0.2
sg112
g2649
sg61
g11
(g12
(S'S9'
p2661
I0
I1
tp2662
Rp2663
(I3
S'|'
p2664
NNNI9
I1
I0
tp2665
bS'inception'
p2666
tp2667
Rp2668
sg105
g2646
sg70
g11
(g15
S'\x15\x99U\xd9)\xec\xdf?'
p2669
tp2670
Rp2671
sg74
g11
(g12
(S'S3'
p2672
I0
I1
tp2673
Rp2674
(I3
S'|'
p2675
NNNI3
I1
I0
tp2676
bS'SVM'
p2677
tp2678
Rp2679
sg83
I3
sg84
g85
sg86
g11
(g15
S'\\\x0b\xadi\xf0\xe2\xe1?'
p2680
tp2681
Rp2682
sg90
g91
sg92
g93
sbag4
(g5
g6
Ntp2683
Rp2684
(dp2685
g10
g11
(g15
S'\x00\x00\x00\x00\x00\x00\xf8\xff'
p2686
tp2687
Rp2688
sg21
g11
(g15
S'\x00\x00\x00\x00\x00@R@'
p2689
tp2690
Rp2691
sg25
g1069
sg34
g35
sg36
(dp2692
g21
g2691
sg38
g11
(g15
S'\x80\x9bIJ\xd7B\xe0?'
p2693
tp2694
Rp2695
sg25
g1069
ssg51
g11
(g12
(S'S3'
p2696
I0
I1
tp2697
Rp2698
(I3
S'|'
p2699
NNNI3
I1
I0
tp2700
bS'PCA'
p2701
tp2702
Rp2703
sg60
F0.2
sg61
g11
(g12
(S'S3'
p2704
I0
I1
tp2705
Rp2706
(I3
S'|'
p2707
NNNI3
I1
I0
tp2708
bS'VGG'
p2709
tp2710
Rp2711
sg70
g11
(g15
S'\xfd\xa1\xe6\xcdNV\xdb?'
p2712
tp2713
Rp2714
sg74
g11
(g12
(S'S2'
p2715
I0
I1
tp2716
Rp2717
(I3
S'|'
p2718
NNNI2
I1
I0
tp2719
bS'RF'
p2720
tp2721
Rp2722
sg83
I3
sg38
g2695
sg84
g85
sg86
g11
(g15
S'{s\x82d\xa0(\xec?'
p2723
tp2724
Rp2725
sg90
g91
sg92
g93
sbag4
(g5
g6
Ntp2726
Rp2727
(dp2728
g10
g11
(g15
S'\x00\x00\x00\x00\x00\x00\xf8\xff'
p2729
tp2730
Rp2731
sg21
g11
(g15
S'\x00\x00\x00\x00\x00@e@'
p2732
tp2733
Rp2734
sg34
g35
sg100
g11
(g45
S'\x06\x00\x00\x00\x00\x00\x00\x00'
p2735
tp2736
Rp2737
sg36
(dp2738
g21
g2734
sg100
g2737
sg112
g11
(g45
S'\x03\x00\x00\x00\x00\x00\x00\x00'
p2739
tp2740
Rp2741
sg38
g11
(g15
S'\\\xa1\\\x0eF\xc0\xe6?'
p2742
tp2743
Rp2744
ssg51
g11
(g12
(S'S6'
p2745
I0
I1
tp2746
Rp2747
(I3
S'|'
p2748
NNNI6
I1
I0
tp2749
bS'ISOMAP'
p2750
tp2751
Rp2752
sg60
F0.2
sg112
g2741
sg61
g11
(g12
(S'S3'
p2753
I0
I1
tp2754
Rp2755
(I3
S'|'
p2756
NNNI3
I1
I0
tp2757
bS'VGG'
p2758
tp2759
Rp2760
sg70
g11
(g15
S'\xefH\xe6\xf4k\x18\xe2?'
p2761
tp2762
Rp2763
sg74
g11
(g12
(S'S2'
p2764
I0
I1
tp2765
Rp2766
(I3
S'|'
p2767
NNNI2
I1
I0
tp2768
bS'RF'
p2769
tp2770
Rp2771
sg83
I3
sg38
g2744
sg84
g85
sg86
g11
(g15
S'\x94\xe7?\x8f\xf0-\xeb?'
p2772
tp2773
Rp2774
sg90
g91
sg92
g93
sbag4
(g5
g6
Ntp2775
Rp2776
(dp2777
g10
g11
(g15
S'\x00\x00\x00\x00\x00\x00\xf8\xff'
p2778
tp2779
Rp2780
sg100
g11
(g45
S'\x04\x00\x00\x00\x00\x00\x00\x00'
p2781
tp2782
Rp2783
sg34
g35
sg36
(dp2784
g100
g2783
sg105
g11
(g15
S'- N\x1f \x90P@'
p2785
tp2786
Rp2787
sg112
g11
(g45
S'\x03\x00\x00\x00\x00\x00\x00\x00'
p2788
tp2789
Rp2790
sg116
g11
(g15
S'L\xae\xd1f\xdeS\x07@'
p2791
tp2792
Rp2793
ssg116
g2793
sg51
g11
(g12
(S'S6'
p2794
I0
I1
tp2795
Rp2796
(I3
S'|'
p2797
NNNI6
I1
I0
tp2798
bS'ISOMAP'
p2799
tp2800
Rp2801
sg60
F0.2
sg112
g2790
sg61
g11
(g12
(S'S9'
p2802
I0
I1
tp2803
Rp2804
(I3
S'|'
p2805
NNNI9
I1
I0
tp2806
bS'inception'
p2807
tp2808
Rp2809
sg105
g2787
sg70
g11
(g15
S'>wbI\x9e9\xe0?'
p2810
tp2811
Rp2812
sg74
g11
(g12
(S'S3'
p2813
I0
I1
tp2814
Rp2815
(I3
S'|'
p2816
NNNI3
I1
I0
tp2817
bS'SVM'
p2818
tp2819
Rp2820
sg83
I3
sg84
g85
sg86
g11
(g15
S'T\xa2\x06>\xcf\xac\xe1?'
p2821
tp2822
Rp2823
sg90
g91
sg92
g93
sbag4
(g5
g6
Ntp2824
Rp2825
(dp2826
g10
g11
(g15
S'\x00\x00\x00\x00\x00\x00\xf8\xff'
p2827
tp2828
Rp2829
sg100
g11
(g45
S'\x03\x00\x00\x00\x00\x00\x00\x00'
p2830
tp2831
Rp2832
sg34
g35
sg36
(dp2833
g100
g2832
sg105
g11
(g15
S'\xa8\n~\xb0"\xdfE@'
p2834
tp2835
Rp2836
sg112
g11
(g45
S'\x03\x00\x00\x00\x00\x00\x00\x00'
p2837
tp2838
Rp2839
sg116
g11
(g15
S'\x8c>5\xd1\x11 \x19@'
p2840
tp2841
Rp2842
ssg116
g2842
sg51
g11
(g12
(S'S6'
p2843
I0
I1
tp2844
Rp2845
(I3
S'|'
p2846
NNNI6
I1
I0
tp2847
bS'ISOMAP'
p2848
tp2849
Rp2850
sg60
F0.2
sg112
g2839
sg61
g11
(g12
(S'S9'
p2851
I0
I1
tp2852
Rp2853
(I3
S'|'
p2854
NNNI9
I1
I0
tp2855
bS'inception'
p2856
tp2857
Rp2858
sg105
g2836
sg70
g11
(g15
S'\xee\xc3\xea\x04\xdd\x99\xe0?'
p2859
tp2860
Rp2861
sg74
g11
(g12
(S'S3'
p2862
I0
I1
tp2863
Rp2864
(I3
S'|'
p2865
NNNI3
I1
I0
tp2866
bS'SVM'
p2867
tp2868
Rp2869
sg83
I3
sg84
g85
sg86
g11
(g15
S'\xb3\x99\xccf2\x9b\xe1?'
p2870
tp2871
Rp2872
sg90
g91
sg92
g93
sbag4
(g5
g6
Ntp2873
Rp2874
(dp2875
g10
g11
(g15
S'\x00\x00\x00\x00\x00\x00\xf8\xff'
p2876
tp2877
Rp2878
sg100
g11
(g45
S'\x03\x00\x00\x00\x00\x00\x00\x00'
p2879
tp2880
Rp2881
sg34
g35
sg36
(dp2882
g100
g2881
sg105
g11
(g15
S'\xf9?\xc5<HL1@'
p2883
tp2884
Rp2885
sg112
g11
(g45
S'\x03\x00\x00\x00\x00\x00\x00\x00'
p2886
tp2887
Rp2888
sg116
g11
(g15
S'j\x8c \xfaa\xd1\x0f@'
p2889
tp2890
Rp2891
ssg116
g2891
sg51
g11
(g12
(S'S6'
p2892
I0
I1
tp2893
Rp2894
(I3
S'|'
p2895
NNNI6
I1
I0
tp2896
bS'ISOMAP'
p2897
tp2898
Rp2899
sg60
F0.2
sg112
g2888
sg61
g11
(g12
(S'S3'
p2900
I0
I1
tp2901
Rp2902
(I3
S'|'
p2903
NNNI3
I1
I0
tp2904
bS'VGG'
p2905
tp2906
Rp2907
sg105
g2885
sg70
g11
(g15
S'\xb0\x83\xfd\xe9\xbeL\xd7?'
p2908
tp2909
Rp2910
sg74
g11
(g12
(S'S3'
p2911
I0
I1
tp2912
Rp2913
(I3
S'|'
p2914
NNNI3
I1
I0
tp2915
bS'SVM'
p2916
tp2917
Rp2918
sg83
I3
sg84
g85
sg86
g11
(g15
S'\xc4\x97\xee@\x9c\xe5\xea?'
p2919
tp2920
Rp2921
sg90
g91
sg92
g93
sbag4
(g5
g6
Ntp2922
Rp2923
(dp2924
g10
g11
(g15
S'\x00\x00\x00\x00\x00\x00\xf8\xff'
p2925
tp2926
Rp2927
sg25
g1069
sg34
g35
sg36
(dp2928
g25
g1069
sg105
g11
(g15
S'\x107\xcaN{T)@'
p2929
tp2930
Rp2931
sg116
g11
(g15
S'\xbc\x8b\xdd\xc7\xbd\xf1\x1a@'
p2932
tp2933
Rp2934
ssg51
g11
(g12
(S'S3'
p2935
I0
I1
tp2936
Rp2937
(I3
S'|'
p2938
NNNI3
I1
I0
tp2939
bS'PCA'
p2940
tp2941
Rp2942
sg60
F0.2
sg116
g2934
sg61
g11
(g12
(S'S3'
p2943
I0
I1
tp2944
Rp2945
(I3
S'|'
p2946
NNNI3
I1
I0
tp2947
bS'VGG'
p2948
tp2949
Rp2950
sg105
g2931
sg70
g11
(g15
S'\xe8\xfd\x1f\x7f\xf9U\xd9?'
p2951
tp2952
Rp2953
sg74
g11
(g12
(S'S3'
p2954
I0
I1
tp2955
Rp2956
(I3
S'|'
p2957
NNNI3
I1
I0
tp2958
bS'SVM'
p2959
tp2960
Rp2961
sg83
I3
sg84
g85
sg86
g11
(g15
S'\xad\xc3\x96\xf0<\xa4\xe9?'
p2962
tp2963
Rp2964
sg90
g91
sg92
g93
sbag4
(g5
g6
Ntp2965
Rp2966
(dp2967
g10
g11
(g15
S'\x00\x00\x00\x00\x00\x00\xf8\xff'
p2968
tp2969
Rp2970
sg21
g11
(g15
S'\x00\x00\x00\x00\x00@Z@'
p2971
tp2972
Rp2973
sg34
g35
sg100
g11
(g45
S'\x07\x00\x00\x00\x00\x00\x00\x00'
p2974
tp2975
Rp2976
sg36
(dp2977
g21
g2973
sg100
g2976
sg42
g11
(g45
S'\x02\x00\x00\x00\x00\x00\x00\x00'
p2978
tp2979
Rp2980
sg112
g11
(g45
S'\x04\x00\x00\x00\x00\x00\x00\x00'
p2981
tp2982
Rp2983
sg38
g11
(g15
S'Hzh\x06\x16e\xe2?'
p2984
tp2985
Rp2986
ssg51
g11
(g12
(S'S6'
p2987
I0
I1
tp2988
Rp2989
(I3
S'|'
p2990
NNNI6
I1
I0
tp2991
bS'ISOMAP'
p2992
tp2993
Rp2994
sg60
F0.2
sg112
g2983
sg61
g11
(g12
(S'S8'
p2995
I0
I1
tp2996
Rp2997
(I3
S'|'
p2998
NNNI8
I1
I0
tp2999
bS'haralick'
p3000
tp3001
Rp3002
sg42
g2980
sg70
g11
(g15
S'\xadW/\x02\x93o\xe2?'
p3003
tp3004
Rp3005
sg74
g11
(g12
(S'S2'
p3006
I0
I1
tp3007
Rp3008
(I3
S'|'
p3009
NNNI2
I1
I0
tp3010
bS'RF'
p3011
tp3012
Rp3013
sg83
I3
sg38
g2986
sg84
g85
sg86
g11
(g15
S'1\x15N\xdc\xbf\xf8\xea?'
p3014
tp3015
Rp3016
sg90
g91
sg92
g93
sbag4
(g5
g6
Ntp3017
Rp3018
(dp3019
g10
g11
(g15
S'\x00\x00\x00\x00\x00\x00\xf8\xff'
p3020
tp3021
Rp3022
sg21
g11
(g15
S'\x00\x00\x00\x00\x00@e@'
p3023
tp3024
Rp3025
sg25
g1069
sg34
g35
sg36
(dp3026
g21
g3025
sg38
g11
(g15
S'\xa5s\x88\xaf\xfbA\xe4?'
p3027
tp3028
Rp3029
sg25
g1069
sg42
g11
(g45
S'\x03\x00\x00\x00\x00\x00\x00\x00'
p3030
tp3031
Rp3032
ssg51
g11
(g12
(S'S3'
p3033
I0
I1
tp3034
Rp3035
(I3
S'|'
p3036
NNNI3
I1
I0
tp3037
bS'PCA'
p3038
tp3039
Rp3040
sg60
F0.2
sg61
g11
(g12
(S'S8'
p3041
I0
I1
tp3042
Rp3043
(I3
S'|'
p3044
NNNI8
I1
I0
tp3045
bS'haralick'
p3046
tp3047
Rp3048
sg42
g3032
sg70
g11
(g15
S'\xef\xc5\xcf\x94t\xa0\xe2?'
p3049
tp3050
Rp3051
sg74
g11
(g12
(S'S2'
p3052
I0
I1
tp3053
Rp3054
(I3
S'|'
p3055
NNNI2
I1
I0
tp3056
bS'RF'
p3057
tp3058
Rp3059
sg83
I3
sg38
g3029
sg84
g85
sg86
g11
(g15
S'\x1dL\xef\xa85\x1c\xeb?'
p3060
tp3061
Rp3062
sg90
g91
sg92
g93
sbag4
(g5
g6
Ntp3063
Rp3064
(dp3065
g10
g11
(g15
S'\x00\x00\x00\x00\x00\x00\xf8\xff'
p3066
tp3067
Rp3068
sg100
g11
(g45
S'\x05\x00\x00\x00\x00\x00\x00\x00'
p3069
tp3070
Rp3071
sg34
g35
sg36
(dp3072
g100
g3071
sg105
g11
(g15
S' \xe5\xf7;a\xe2E@'
p3073
tp3074
Rp3075
sg112
g11
(g45
S'\x02\x00\x00\x00\x00\x00\x00\x00'
p3076
tp3077
Rp3078
sg116
g11
(g15
S'\xa4\xfb\x93\xe4\xdd\x91\xa9?'
p3079
tp3080
Rp3081
ssg116
g3081
sg51
g11
(g12
(S'S6'
p3082
I0
I1
tp3083
Rp3084
(I3
S'|'
p3085
NNNI6
I1
I0
tp3086
bS'ISOMAP'
p3087
tp3088
Rp3089
sg60
F0.2
sg112
g3078
sg61
g11
(g12
(S'S3'
p3090
I0
I1
tp3091
Rp3092
(I3
S'|'
p3093
NNNI3
I1
I0
tp3094
bS'VGG'
p3095
tp3096
Rp3097
sg105
g3075
sg70
g11
(g15
S'E\x81G\x8e\xc0\xd0\xda?'
p3098
tp3099
Rp3100
sg74
g11
(g12
(S'S3'
p3101
I0
I1
tp3102
Rp3103
(I3
S'|'
p3104
NNNI3
I1
I0
tp3105
bS'SVM'
p3106
tp3107
Rp3108
sg83
I3
sg84
g85
sg86
g11
(g15
S'\xc7T8q\xff\xe2\xe7?'
p3109
tp3110
Rp3111
sg90
g91
sg92
g93
sbag4
(g5
g6
Ntp3112
Rp3113
(dp3114
g10
g11
(g15
S'\x00\x00\x00\x00\x00\x00\xf8\xff'
p3115
tp3116
Rp3117
sg21
g11
(g15
S'\x00\x00\x00\x00\x00\x00D@'
p3118
tp3119
Rp3120
sg25
g33
sg34
g35
sg36
(dp3121
g21
g3120
sg38
g11
(g15
S'\xf9<cv\xdb\xe4\xd8?'
p3122
tp3123
Rp3124
sg25
g33
ssg51
g11
(g12
(S'S3'
p3125
I0
I1
tp3126
Rp3127
(I3
S'|'
p3128
NNNI3
I1
I0
tp3129
bS'PCA'
p3130
tp3131
Rp3132
sg60
F0.2
sg61
g11
(g12
(S'S3'
p3133
I0
I1
tp3134
Rp3135
(I3
S'|'
p3136
NNNI3
I1
I0
tp3137
bS'VGG'
p3138
tp3139
Rp3140
sg70
g11
(g15
S'p,\xb3\xe2\xc7s\xd7?'
p3141
tp3142
Rp3143
sg74
g11
(g12
(S'S2'
p3144
I0
I1
tp3145
Rp3146
(I3
S'|'
p3147
NNNI2
I1
I0
tp3148
bS'RF'
p3149
tp3150
Rp3151
sg83
I3
sg38
g3124
sg84
g85
sg86
g11
(g15
S'P\x06\x99s\xbe(\xec?'
p3152
tp3153
Rp3154
sg90
g91
sg92
g93
sbag4
(g5
g6
Ntp3155
Rp3156
(dp3157
g10
g11
(g15
S'\x00\x00\x00\x00\x00\x00\xf8\xff'
p3158
tp3159
Rp3160
sg21
g11
(g15
S'\x00\x00\x00\x00\x00@R@'
p3161
tp3162
Rp3163
sg34
g35
sg100
g11
(g45
S'\x06\x00\x00\x00\x00\x00\x00\x00'
p3164
tp3165
Rp3166
sg36
(dp3167
g21
g3163
sg100
g3166
sg42
g11
(g45
S'\x03\x00\x00\x00\x00\x00\x00\x00'
p3168
tp3169
Rp3170
sg112
g11
(g45
S'\x03\x00\x00\x00\x00\x00\x00\x00'
p3171
tp3172
Rp3173
sg38
g11
(g15
S"o\xfd\xe8'\x04\x9a\xd9?"
p3174
tp3175
Rp3176
ssg51
g11
(g12
(S'S6'
p3177
I0
I1
tp3178
Rp3179
(I3
S'|'
p3180
NNNI6
I1
I0
tp3181
bS'ISOMAP'
p3182
tp3183
Rp3184
sg60
F0.2
sg112
g3173
sg61
g11
(g12
(S'S8'
p3185
I0
I1
tp3186
Rp3187
(I3
S'|'
p3188
NNNI8
I1
I0
tp3189
bS'haralick'
p3190
tp3191
Rp3192
sg42
g3170
sg70
g11
(g15
S'\xb4\x01P\xd7C\x0b\xea?'
p3193
tp3194
Rp3195
sg74
g11
(g12
(S'S2'
p3196
I0
I1
tp3197
Rp3198
(I3
S'|'
p3199
NNNI2
I1
I0
tp3200
bS'RF'
p3201
tp3202
Rp3203
sg83
I3
sg38
g3176
sg84
g85
sg86
g11
(g15
S'\x05\xa8d\xeb\xdd\xf8\xea?'
p3204
tp3205
Rp3206
sg90
g91
sg92
g93
sbag4
(g5
g6
Ntp3207
Rp3208
(dp3209
g10
g11
(g15
S'\x00\x00\x00\x00\x00\x00\xf8\xff'
p3210
tp3211
Rp3212
sg100
g11
(g45
S'\x05\x00\x00\x00\x00\x00\x00\x00'
p3213
tp3214
Rp3215
sg34
g35
sg36
(dp3216
g100
g3215
sg105
g11
(g15
S'J\t\x1a\x87FG5@'
p3217
tp3218
Rp3219
sg42
g11
(g45
S'\x03\x00\x00\x00\x00\x00\x00\x00'
p3220
tp3221
Rp3222
sg112
g11
(g45
S'\x03\x00\x00\x00\x00\x00\x00\x00'
p3223
tp3224
Rp3225
sg116
g11
(g15
S'\xe6&<\x12\x17\xc4\x11@'
p3226
tp3227
Rp3228
ssg116
g3228
sg51
g11
(g12
(S'S6'
p3229
I0
I1
tp3230
Rp3231
(I3
S'|'
p3232
NNNI6
I1
I0
tp3233
bS'ISOMAP'
p3234
tp3235
Rp3236
sg60
F0.2
sg112
g3225
sg61
g11
(g12
(S'S8'
p3237
I0
I1
tp3238
Rp3239
(I3
S'|'
p3240
NNNI8
I1
I0
tp3241
bS'haralick'
p3242
tp3243
Rp3244
sg105
g3219
sg42
g3222
sg70
g11
(g15
S'l\xea\xb9\xb1Y;\xdd?'
p3245
tp3246
Rp3247
sg74
g11
(g12
(S'S3'
p3248
I0
I1
tp3249
Rp3250
(I3
S'|'
p3251
NNNI3
I1
I0
tp3252
bS'SVM'
p3253
tp3254
Rp3255
sg83
I3
sg84
g85
sg86
g11
(g15
S'\xf4\xae8%L\xfe\xe9?'
p3256
tp3257
Rp3258
sg90
g91
sg92
g93
sbag4
(g5
g6
Ntp3259
Rp3260
(dp3261
g10
g11
(g15
S'\x00\x00\x00\x00\x00\x00\xf8\xff'
p3262
tp3263
Rp3264
sg25
g33
sg34
g35
sg36
(dp3265
g25
g33
sg105
g11
(g15
S'\xe4\xb54\xae\\\xf2R@'
p3266
tp3267
Rp3268
sg116
g11
(g15
S'L\x08\xbd/\xf6\x06\x11@'
p3269
tp3270
Rp3271
ssg51
g11
(g12
(S'S3'
p3272
I0
I1
tp3273
Rp3274
(I3
S'|'
p3275
NNNI3
I1
I0
tp3276
bS'PCA'
p3277
tp3278
Rp3279
sg60
F0.2
sg116
g3271
sg61
g11
(g12
(S'S9'
p3280
I0
I1
tp3281
Rp3282
(I3
S'|'
p3283
NNNI9
I1
I0
tp3284
bS'inception'
p3285
tp3286
Rp3287
sg105
g3268
sg70
g11
(g15
S'M\x10\x9a\xcdK\x92\xe0?'
p3288
tp3289
Rp3290
sg74
g11
(g12
(S'S3'
p3291
I0
I1
tp3292
Rp3293
(I3
S'|'
p3294
NNNI3
I1
I0
tp3295
bS'SVM'
p3296
tp3297
Rp3298
sg83
I3
sg84
g85
sg86
g11
(g15
S'\x90\x1c\x036\xd0\x9b\xe4?'
p3299
tp3300
Rp3301
sg90
g91
sg92
g93
sbag4
(g5
g6
Ntp3302
Rp3303
(dp3304
g10
g11
(g15
S'\x00\x00\x00\x00\x00\x00\xf8\xff'
p3305
tp3306
Rp3307
sg100
g11
(g45
S'\x03\x00\x00\x00\x00\x00\x00\x00'
p3308
tp3309
Rp3310
sg34
g35
sg36
(dp3311
g100
g3310
sg105
g11
(g15
S'\x10\xc0F\xe0\x91w<@'
p3312
tp3313
Rp3314
sg42
g11
(g45
S'\x02\x00\x00\x00\x00\x00\x00\x00'
p3315
tp3316
Rp3317
sg112
g11
(g45
S'\x02\x00\x00\x00\x00\x00\x00\x00'
p3318
tp3319
Rp3320
sg116
g11
(g15
S'\n\x1c\xbf\t)\xf5\xfe?'
p3321
tp3322
Rp3323
ssg116
g3323
sg51
g11
(g12
(S'S6'
p3324
I0
I1
tp3325
Rp3326
(I3
S'|'
p3327
NNNI6
I1
I0
tp3328
bS'ISOMAP'
p3329
tp3330
Rp3331
sg60
F0.2
sg112
g3320
sg61
g11
(g12
(S'S8'
p3332
I0
I1
tp3333
Rp3334
(I3
S'|'
p3335
NNNI8
I1
I0
tp3336
bS'haralick'
p3337
tp3338
Rp3339
sg105
g3314
sg42
g3317
sg70
g11
(g15
S'3\x14\xa9\xb81R\xe1?'
p3340
tp3341
Rp3342
sg74
g11
(g12
(S'S3'
p3343
I0
I1
tp3344
Rp3345
(I3
S'|'
p3346
NNNI3
I1
I0
tp3347
bS'SVM'
p3348
tp3349
Rp3350
sg83
I3
sg84
g85
sg86
g11
(g15
S'\xe8\x9a3\x02e\x9f\xea?'
p3351
tp3352
Rp3353
sg90
g91
sg92
g93
sbag4
(g5
g6
Ntp3354
Rp3355
(dp3356
g10
g11
(g15
S'\x00\x00\x00\x00\x00\x00\xf8\xff'
p3357
tp3358
Rp3359
sg25
g1069
sg34
g35
sg36
(dp3360
g25
g1069
sg105
g11
(g15
S'e\xa6c\xa3F\xc2V@'
p3361
tp3362
Rp3363
sg116
g11
(g15
S'l\xa3\xb0\x13\xc6\xdf\x13@'
p3364
tp3365
Rp3366
ssg51
g11
(g12
(S'S3'
p3367
I0
I1
tp3368
Rp3369
(I3
S'|'
p3370
NNNI3
I1
I0
tp3371
bS'PCA'
p3372
tp3373
Rp3374
sg60
F0.2
sg116
g3366
sg61
g11
(g12
(S'S9'
p3375
I0
I1
tp3376
Rp3377
(I3
S'|'
p3378
NNNI9
I1
I0
tp3379
bS'inception'
p3380
tp3381
Rp3382
sg105
g3363
sg70
g11
(g15
S'ysP\xee\xeb\xa0\xe0?'
p3383
tp3384
Rp3385
sg74
g11
(g12
(S'S3'
p3386
I0
I1
tp3387
Rp3388
(I3
S'|'
p3389
NNNI3
I1
I0
tp3390
bS'SVM'
p3391
tp3392
Rp3393
sg83
I3
sg84
g85
sg86
g11
(g15
S'p\xa78\x16[\xd1\xe4?'
p3394
tp3395
Rp3396
sg90
g91
sg92
g93
sbag4
(g5
g6
Ntp3397
Rp3398
(dp3399
g10
g11
(g15
S'\x00\x00\x00\x00\x00\x00\xf8\xff'
p3400
tp3401
Rp3402
sg25
g33
sg34
g35
sg36
(dp3403
g25
g33
sg105
g11
(g15
S'\x87\xc4\x12\x04\xef\xd7P@'
p3404
tp3405
Rp3406
sg42
g11
(g45
S'\x02\x00\x00\x00\x00\x00\x00\x00'
p3407
tp3408
Rp3409
sg116
g11
(g15
S'3\xcbfv\x87\x00\xf6?'
p3410
tp3411
Rp3412
ssg51
g11
(g12
(S'S3'
p3413
I0
I1
tp3414
Rp3415
(I3
S'|'
p3416
NNNI3
I1
I0
tp3417
bS'PCA'
p3418
tp3419
Rp3420
sg60
F0.2
sg116
g3412
sg61
g11
(g12
(S'S8'
p3421
I0
I1
tp3422
Rp3423
(I3
S'|'
p3424
NNNI8
I1
I0
tp3425
bS'haralick'
p3426
tp3427
Rp3428
sg105
g3406
sg42
g3409
sg70
g11
(g15
S'9 \x9aVl\x9e\xda?'
p3429
tp3430
Rp3431
sg74
g11
(g12
(S'S3'
p3432
I0
I1
tp3433
Rp3434
(I3
S'|'
p3435
NNNI3
I1
I0
tp3436
bS'SVM'
p3437
tp3438
Rp3439
sg83
I3
sg84
g85
sg86
g11
(g15
S'\x9c\xb8\x7f\xf1\r\xd5\xea?'
p3440
tp3441
Rp3442
sg90
g91
sg92
g93
sbag4
(g5
g6
Ntp3443
Rp3444
(dp3445
g10
g11
(g15
S'\x00\x00\x00\x00\x00\x00\xf8\xff'
p3446
tp3447
Rp3448
sg21
g11
(g15
S'\x00\x00\x00\x00\x00\x00 @'
p3449
tp3450
Rp3451
sg34
g35
sg100
g11
(g45
S'\x07\x00\x00\x00\x00\x00\x00\x00'
p3452
tp3453
Rp3454
sg36
(dp3455
g21
g3451
sg100
g3454
sg112
g11
(g45
S'\x02\x00\x00\x00\x00\x00\x00\x00'
p3456
tp3457
Rp3458
sg38
g11
(g15
S'\xb2\x07\x18\x83\x0b\xc1\xec?'
p3459
tp3460
Rp3461
ssg51
g11
(g12
(S'S6'
p3462
I0
I1
tp3463
Rp3464
(I3
S'|'
p3465
NNNI6
I1
I0
tp3466
bS'ISOMAP'
p3467
tp3468
Rp3469
sg60
F0.2
sg112
g3458
sg61
g11
(g12
(S'S9'
p3470
I0
I1
tp3471
Rp3472
(I3
S'|'
p3473
NNNI9
I1
I0
tp3474
bS'inception'
p3475
tp3476
Rp3477
sg70
g11
(g15
S'\xdd\xeb\x97$\x15\xbb\xf5?'
p3478
tp3479
Rp3480
sg74
g11
(g12
(S'S2'
p3481
I0
I1
tp3482
Rp3483
(I3
S'|'
p3484
NNNI2
I1
I0
tp3485
bS'RF'
p3486
tp3487
Rp3488
sg83
I3
sg38
g3461
sg84
g85
sg86
g11
(g15
S'\x90h\xb6\x1aR\xe3\xe4?'
p3489
tp3490
Rp3491
sg90
g91
sg92
g93
sbag335
ag4
(g5
g6
Ntp3492
Rp3493
(dp3494
g10
g11
(g15
S'\x00\x00\x00\x00\x00\x00\xf8\xff'
p3495
tp3496
Rp3497
sg21
g11
(g15
S'\x00\x00\x00\x00\x00@e@'
p3498
tp3499
Rp3500
sg25
g33
sg34
g35
sg36
(dp3501
g21
g3500
sg38
g11
(g15
S'\x96\xa2\x01\xc3\xf8Z\xea?'
p3502
tp3503
Rp3504
sg25
g33
sg42
g11
(g45
S'\x01\x00\x00\x00\x00\x00\x00\x00'
p3505
tp3506
Rp3507
ssg51
g11
(g12
(S'S3'
p3508
I0
I1
tp3509
Rp3510
(I3
S'|'
p3511
NNNI3
I1
I0
tp3512
bS'PCA'
p3513
tp3514
Rp3515
sg60
F0.2
sg61
g11
(g12
(S'S8'
p3516
I0
I1
tp3517
Rp3518
(I3
S'|'
p3519
NNNI8
I1
I0
tp3520
bS'haralick'
p3521
tp3522
Rp3523
sg42
g3507
sg70
g11
(g15
S'\xf5Z\x1af\xeb}\xf7?'
p3524
tp3525
Rp3526
sg74
g11
(g12
(S'S2'
p3527
I0
I1
tp3528
Rp3529
(I3
S'|'
p3530
NNNI2
I1
I0
tp3531
bS'RF'
p3532
tp3533
Rp3534
sg83
I3
sg38
g3504
sg84
g85
sg86
g11
(g15
S'\t\x19\xfb6\xbf\xae\xe7?'
p3535
tp3536
Rp3537
sg90
g91
sg92
g93
sbag378
ag4
(g5
g6
Ntp3538
Rp3539
(dp3540
g10
g11
(g15
S'\x00\x00\x00\x00\x00\x00\xf8\xff'
p3541
tp3542
Rp3543
sg100
g11
(g45
S'\x03\x00\x00\x00\x00\x00\x00\x00'
p3544
tp3545
Rp3546
sg34
g35
sg36
(dp3547
g100
g3546
sg105
g11
(g15
S'\xe3\xedP\x1f\xf4\xd9\xd1?'
p3548
tp3549
Rp3550
sg112
g11
(g45
S'\x03\x00\x00\x00\x00\x00\x00\x00'
p3551
tp3552
Rp3553
sg116
g11
(g15
S'UJ%\xee\x8c\x1d\x10@'
p3554
tp3555
Rp3556
ssg116
g3556
sg51
g11
(g12
(S'S6'
p3557
I0
I1
tp3558
Rp3559
(I3
S'|'
p3560
NNNI6
I1
I0
tp3561
bS'ISOMAP'
p3562
tp3563
Rp3564
sg60
F0.2
sg112
g3553
sg61
g11
(g12
(S'S3'
p3565
I0
I1
tp3566
Rp3567
(I3
S'|'
p3568
NNNI3
I1
I0
tp3569
bS'VGG'
p3570
tp3571
Rp3572
sg105
g3550
sg70
g11
(g15
S'Wq\xe8\xecgD\xd5?'
p3573
tp3574
Rp3575
sg74
g11
(g12
(S'S3'
p3576
I0
I1
tp3577
Rp3578
(I3
S'|'
p3579
NNNI3
I1
I0
tp3580
bS'SVM'
p3581
tp3582
Rp3583
sg83
I3
sg84
g85
sg86
g11
(g15
S'\xf7!\xcbx\x1d\xd4\xea?'
p3584
tp3585
Rp3586
sg90
g91
sg92
g93
sbag4
(g5
g6
Ntp3587
Rp3588
(dp3589
g10
g11
(g15
S'\x00\x00\x00\x00\x00\x00\xf8\xff'
p3590
tp3591
Rp3592
sg21
g11
(g15
S'\x00\x00\x00\x00\x00`m@'
p3593
tp3594
Rp3595
sg34
g35
sg100
g11
(g45
S'\x07\x00\x00\x00\x00\x00\x00\x00'
p3596
tp3597
Rp3598
sg36
(dp3599
g21
g3595
sg100
g3598
sg112
g11
(g45
S'\x03\x00\x00\x00\x00\x00\x00\x00'
p3600
tp3601
Rp3602
sg38
g11
(g15
S'\xd0\x97\x14\xa81s\xea?'
p3603
tp3604
Rp3605
ssg51
g11
(g12
(S'S6'
p3606
I0
I1
tp3607
Rp3608
(I3
S'|'
p3609
NNNI6
I1
I0
tp3610
bS'ISOMAP'
p3611
tp3612
Rp3613
sg60
F0.2
sg112
g3602
sg61
g11
(g12
(S'S3'
p3614
I0
I1
tp3615
Rp3616
(I3
S'|'
p3617
NNNI3
I1
I0
tp3618
bS'VGG'
p3619
tp3620
Rp3621
sg70
g11
(g15
S'\xa5\xd6\xa9\xad\x13}\xe7?'
p3622
tp3623
Rp3624
sg74
g11
(g12
(S'S2'
p3625
I0
I1
tp3626
Rp3627
(I3
S'|'
p3628
NNNI2
I1
I0
tp3629
bS'RF'
p3630
tp3631
Rp3632
sg83
I3
sg38
g3605
sg84
g85
sg86
g11
(g15
S'u\xda\x0e\xa6w\xd4\xea?'
p3633
tp3634
Rp3635
sg90
g91
sg92
g93
sbag4
(g5
g6
Ntp3636
Rp3637
(dp3638
g10
g11
(g15
S'\x00\x00\x00\x00\x00\x00\xf8\xff'
p3639
tp3640
Rp3641
sg25
g1069
sg34
g35
sg36
(dp3642
g25
g1069
sg105
g11
(g15
S'x\xef\xee\xc2\xe94F@'
p3643
tp3644
Rp3645
sg116
g11
(g15
S'+\xd1\xbb4x;\x08@'
p3646
tp3647
Rp3648
ssg51
g11
(g12
(S'S3'
p3649
I0
I1
tp3650
Rp3651
(I3
S'|'
p3652
NNNI3
I1
I0
tp3653
bS'PCA'
p3654
tp3655
Rp3656
sg60
F0.2
sg116
g3648
sg61
g11
(g12
(S'S3'
p3657
I0
I1
tp3658
Rp3659
(I3
S'|'
p3660
NNNI3
I1
I0
tp3661
bS'VGG'
p3662
tp3663
Rp3664
sg105
g3645
sg70
g11
(g15
S'\xdfge\xfd\xdd\x13\xd8?'
p3665
tp3666
Rp3667
sg74
g11
(g12
(S'S3'
p3668
I0
I1
tp3669
Rp3670
(I3
S'|'
p3671
NNNI3
I1
I0
tp3672
bS'SVM'
p3673
tp3674
Rp3675
sg83
I3
sg84
g85
sg86
g11
(g15
S'\xb8\x07i\xa6+!\xea?'
p3676
tp3677
Rp3678
sg90
g91
sg92
g93
sbag4
(g5
g6
Ntp3679
Rp3680
(dp3681
g10
g11
(g15
S'\x00\x00\x00\x00\x00\x00\xf8\xff'
p3682
tp3683
Rp3684
sg25
g33
sg34
g35
sg36
(dp3685
g25
g33
sg105
g11
(g15
S'\x84\xb4\xfb\xea3G7@'
p3686
tp3687
Rp3688
sg42
g11
(g45
S'\x01\x00\x00\x00\x00\x00\x00\x00'
p3689
tp3690
Rp3691
sg116
g11
(g15
S'\xa8\xbf\xd4\xe6\xdf\x0e\x14@'
p3692
tp3693
Rp3694
ssg51
g11
(g12
(S'S3'
p3695
I0
I1
tp3696
Rp3697
(I3
S'|'
p3698
NNNI3
I1
I0
tp3699
bS'PCA'
p3700
tp3701
Rp3702
sg60
F0.2
sg116
g3694
sg61
g11
(g12
(S'S8'
p3703
I0
I1
tp3704
Rp3705
(I3
S'|'
p3706
NNNI8
I1
I0
tp3707
bS'haralick'
p3708
tp3709
Rp3710
sg105
g3688
sg42
g3691
sg70
g11
(g15
S'U\xbb\xc2Y\x1a@\xdc?'
p3711
tp3712
Rp3713
sg74
g11
(g12
(S'S3'
p3714
I0
I1
tp3715
Rp3716
(I3
S'|'
p3717
NNNI3
I1
I0
tp3718
bS'SVM'
p3719
tp3720
Rp3721
sg83
I3
sg84
g85
sg86
g11
(g15
S'\x0f\xc4Y.\x85\xd7\xe6?'
p3722
tp3723
Rp3724
sg90
g91
sg92
g93
sbag4
(g5
g6
Ntp3725
Rp3726
(dp3727
g10
g11
(g15
S'\x00\x00\x00\x00\x00\x00\xf8\xff'
p3728
tp3729
Rp3730
sg100
g11
(g45
S'\x04\x00\x00\x00\x00\x00\x00\x00'
p3731
tp3732
Rp3733
sg34
g35
sg36
(dp3734
g100
g3733
sg105
g11
(g15
S'\xe2\xcc\x97\x83U\x87U@'
p3735
tp3736
Rp3737
sg42
g11
(g45
S'\x01\x00\x00\x00\x00\x00\x00\x00'
p3738
tp3739
Rp3740
sg112
g11
(g45
S'\x04\x00\x00\x00\x00\x00\x00\x00'
p3741
tp3742
Rp3743
sg116
g11
(g15
S'`\xb13W,\x1c\x13@'
p3744
tp3745
Rp3746
ssg116
g3746
sg51
g11
(g12
(S'S6'
p3747
I0
I1
tp3748
Rp3749
(I3
S'|'
p3750
NNNI6
I1
I0
tp3751
bS'ISOMAP'
p3752
tp3753
Rp3754
sg60
F0.2
sg112
g3743
sg61
g11
(g12
(S'S8'
p3755
I0
I1
tp3756
Rp3757
(I3
S'|'
p3758
NNNI8
I1
I0
tp3759
bS'haralick'
p3760
tp3761
Rp3762
sg105
g3737
sg42
g3740
sg70
g11
(g15
S'\x08X\xc6\x88\x88\x17\xdc?'
p3763
tp3764
Rp3765
sg74
g11
(g12
(S'S3'
p3766
I0
I1
tp3767
Rp3768
(I3
S'|'
p3769
NNNI3
I1
I0
tp3770
bS'SVM'
p3771
tp3772
Rp3773
sg83
I3
sg84
g85
sg86
g11
(g15
S'\xa3\xe8[uB\xa8\xe8?'
p3774
tp3775
Rp3776
sg90
g91
sg92
g93
sbag4
(g5
g6
Ntp3777
Rp3778
(dp3779
g10
g11
(g15
S'\x00\x00\x00\x00\x00\x00\xf8\xff'
p3780
tp3781
Rp3782
sg25
g33
sg34
g35
sg36
(dp3783
g25
g33
sg105
g11
(g15
S'\xdeB\xa7\xb7\xe3\x89G@'
p3784
tp3785
Rp3786
sg42
g11
(g45
S'\x01\x00\x00\x00\x00\x00\x00\x00'
p3787
tp3788
Rp3789
sg116
g11
(g15
S'@\x8d\xa3>SM\x1e@'
p3790
tp3791
Rp3792
ssg51
g11
(g12
(S'S3'
p3793
I0
I1
tp3794
Rp3795
(I3
S'|'
p3796
NNNI3
I1
I0
tp3797
bS'PCA'
p3798
tp3799
Rp3800
sg60
F0.2
sg116
g3792
sg61
g11
(g12
(S'S8'
p3801
I0
I1
tp3802
Rp3803
(I3
S'|'
p3804
NNNI8
I1
I0
tp3805
bS'haralick'
p3806
tp3807
Rp3808
sg105
g3786
sg42
g3789
sg70
g11
(g15
S'YB\x85\x1fKo\xdd?'
p3809
tp3810
Rp3811
sg74
g11
(g12
(S'S3'
p3812
I0
I1
tp3813
Rp3814
(I3
S'|'
p3815
NNNI3
I1
I0
tp3816
bS'SVM'
p3817
tp3818
Rp3819
sg83
I3
sg84
g85
sg86
g11
(g15
S'\xf7\xe6\x04\xc9@Q\xe8?'
p3820
tp3821
Rp3822
sg90
g91
sg92
g93
sbag4
(g5
g6
Ntp3823
Rp3824
(dp3825
g10
g11
(g15
S'\x00\x00\x00\x00\x00\x00\xf8\xff'
p3826
tp3827
Rp3828
sg21
g11
(g15
S'\x00\x00\x00\x00\x00\xc0p@'
p3829
tp3830
Rp3831
sg34
g35
sg100
g11
(g45
S'\x03\x00\x00\x00\x00\x00\x00\x00'
p3832
tp3833
Rp3834
sg36
(dp3835
g21
g3831
sg100
g3834
sg42
g11
(g45
S'\x02\x00\x00\x00\x00\x00\x00\x00'
p3836
tp3837
Rp3838
sg112
g11
(g45
S'\x03\x00\x00\x00\x00\x00\x00\x00'
p3839
tp3840
Rp3841
sg38
g11
(g15
S'\x86\x7f\x13\x0b&\xa7\xd3?'
p3842
tp3843
Rp3844
ssg51
g11
(g12
(S'S6'
p3845
I0
I1
tp3846
Rp3847
(I3
S'|'
p3848
NNNI6
I1
I0
tp3849
bS'ISOMAP'
p3850
tp3851
Rp3852
sg60
F0.2
sg112
g3841
sg61
g11
(g12
(S'S8'
p3853
I0
I1
tp3854
Rp3855
(I3
S'|'
p3856
NNNI8
I1
I0
tp3857
bS'haralick'
p3858
tp3859
Rp3860
sg42
g3838
sg70
g11
(g15
S'Oz\xf4b\xf7\xc1\xf2?'
p3861
tp3862
Rp3863
sg74
g11
(g12
(S'S2'
p3864
I0
I1
tp3865
Rp3866
(I3
S'|'
p3867
NNNI2
I1
I0
tp3868
bS'RF'
p3869
tp3870
Rp3871
sg83
I3
sg38
g3844
sg84
g85
sg86
g11
(g15
S'\xe1Ms(\xbe\x92\xe9?'
p3872
tp3873
Rp3874
sg90
g91
sg92
g93
sbag4
(g5
g6
Ntp3875
Rp3876
(dp3877
g10
g11
(g15
S'\x00\x00\x00\x00\x00\x00\xf8\xff'
p3878
tp3879
Rp3880
sg100
g11
(g45
S'\x03\x00\x00\x00\x00\x00\x00\x00'
p3881
tp3882
Rp3883
sg34
g35
sg36
(dp3884
g100
g3883
sg105
g11
(g15
S'pP\x1a\x93IEB@'
p3885
tp3886
Rp3887
sg112
g11
(g45
S'\x04\x00\x00\x00\x00\x00\x00\x00'
p3888
tp3889
Rp3890
sg116
g11
(g15
S'\x8e\x80tN\x059\x19@'
p3891
tp3892
Rp3893
ssg116
g3893
sg51
g11
(g12
(S'S6'
p3894
I0
I1
tp3895
Rp3896
(I3
S'|'
p3897
NNNI6
I1
I0
tp3898
bS'ISOMAP'
p3899
tp3900
Rp3901
sg60
F0.2
sg112
g3890
sg61
g11
(g12
(S'S3'
p3902
I0
I1
tp3903
Rp3904
(I3
S'|'
p3905
NNNI3
I1
I0
tp3906
bS'VGG'
p3907
tp3908
Rp3909
sg105
g3887
sg70
g11
(g15
S'i\x0c\xbe\xf8\x15K\xd9?'
p3910
tp3911
Rp3912
sg74
g11
(g12
(S'S3'
p3913
I0
I1
tp3914
Rp3915
(I3
S'|'
p3916
NNNI3
I1
I0
tp3917
bS'SVM'
p3918
tp3919
Rp3920
sg83
I3
sg84
g85
sg86
g11
(g15
S'\x8c~\x99c\xcf\xf7\xea?'
p3921
tp3922
Rp3923
sg90
g91
sg92
g93
sbag4
(g5
g6
Ntp3924
Rp3925
(dp3926
g10
g11
(g15
S'\x00\x00\x00\x00\x00\x00\xf8\xff'
p3927
tp3928
Rp3929
sg21
g11
(g15
S'\x00\x00\x00\x00\x00`i@'
p3930
tp3931
Rp3932
sg25
g33
sg34
g35
sg36
(dp3933
g21
g3932
sg38
g11
(g15
S'L\xe0\xdb\x03\x7f\x19\xea?'
p3934
tp3935
Rp3936
sg25
g33
ssg51
g11
(g12
(S'S3'
p3937
I0
I1
tp3938
Rp3939
(I3
S'|'
p3940
NNNI3
I1
I0
tp3941
bS'PCA'
p3942
tp3943
Rp3944
sg60
F0.2
sg61
g11
(g12
(S'S3'
p3945
I0
I1
tp3946
Rp3947
(I3
S'|'
p3948
NNNI3
I1
I0
tp3949
bS'VGG'
p3950
tp3951
Rp3952
sg70
g11
(g15
S'=\xc2\xf2\xb6\xa9D\xd3?'
p3953
tp3954
Rp3955
sg74
g11
(g12
(S'S2'
p3956
I0
I1
tp3957
Rp3958
(I3
S'|'
p3959
NNNI2
I1
I0
tp3960
bS'RF'
p3961
tp3962
Rp3963
sg83
I3
sg38
g3936
sg84
g85
sg86
g11
(g15
S'((((((\xec?'
p3964
tp3965
Rp3966
sg90
g91
sg92
g93
sbag4
(g5
g6
Ntp3967
Rp3968
(dp3969
g10
g11
(g15
S'\x00\x00\x00\x00\x00\x00\xf8\xff'
p3970
tp3971
Rp3972
sg100
g11
(g45
S'\x05\x00\x00\x00\x00\x00\x00\x00'
p3973
tp3974
Rp3975
sg34
g35
sg36
(dp3976
g100
g3975
sg105
g11
(g15
S'Vs\xd1\x01j\x1aK@'
p3977
tp3978
Rp3979
sg112
g11
(g45
S'\x04\x00\x00\x00\x00\x00\x00\x00'
p3980
tp3981
Rp3982
sg116
g11
(g15
S'\x93\x91\x1a:#a\xe6?'
p3983
tp3984
Rp3985
ssg116
g3985
sg51
g11
(g12
(S'S6'
p3986
I0
I1
tp3987
Rp3988
(I3
S'|'
p3989
NNNI6
I1
I0
tp3990
bS'ISOMAP'
p3991
tp3992
Rp3993
sg60
F0.2
sg112
g3982
sg61
g11
(g12
(S'S9'
p3994
I0
I1
tp3995
Rp3996
(I3
S'|'
p3997
NNNI9
I1
I0
tp3998
bS'inception'
p3999
tp4000
Rp4001
sg105
g3979
sg70
g11
(g15
S'\xdd#U\x13\x80\x10\xe0?'
p4002
tp4003
Rp4004
sg74
g11
(g12
(S'S3'
p4005
I0
I1
tp4006
Rp4007
(I3
S'|'
p4008
NNNI3
I1
I0
tp4009
bS'SVM'
p4010
tp4011
Rp4012
sg83
I3
sg84
g85
sg86
g11
(g15
S'HBN6f\x06\xe2?'
p4013
tp4014
Rp4015
sg90
g91
sg92
g93
sbag4
(g5
g6
Ntp4016
Rp4017
(dp4018
g10
g11
(g15
S'\x00\x00\x00\x00\x00\x00\xf8\xff'
p4019
tp4020
Rp4021
sg21
g11
(g15
S'\x00\x00\x00\x00\x00@e@'
p4022
tp4023
Rp4024
sg34
g35
sg100
g11
(g45
S'\x06\x00\x00\x00\x00\x00\x00\x00'
p4025
tp4026
Rp4027
sg36
(dp4028
g21
g4024
sg100
g4027
sg112
g11
(g45
S'\x03\x00\x00\x00\x00\x00\x00\x00'
p4029
tp4030
Rp4031
sg38
g11
(g15
S'+q\x8a*\xd4#\xd8?'
p4032
tp4033
Rp4034
ssg51
g11
(g12
(S'S6'
p4035
I0
I1
tp4036
Rp4037
(I3
S'|'
p4038
NNNI6
I1
I0
tp4039
bS'ISOMAP'
p4040
tp4041
Rp4042
sg60
F0.2
sg112
g4031
sg61
g11
(g12
(S'S9'
p4043
I0
I1
tp4044
Rp4045
(I3
S'|'
p4046
NNNI9
I1
I0
tp4047
bS'inception'
p4048
tp4049
Rp4050
sg70
g11
(g15
S'}\xaf\xe7\x1d\x97%\xed?'
p4051
tp4052
Rp4053
sg74
g11
(g12
(S'S2'
p4054
I0
I1
tp4055
Rp4056
(I3
S'|'
p4057
NNNI2
I1
I0
tp4058
bS'RF'
p4059
tp4060
Rp4061
sg83
I3
sg38
g4034
sg84
g85
sg86
g11
(g15
S'`Pn2\xaa\xba\xe5?'
p4062
tp4063
Rp4064
sg90
g91
sg92
g93
sbag4
(g5
g6
Ntp4065
Rp4066
(dp4067
g10
g11
(g15
S'\x00\x00\x00\x00\x00\x00\xf8\xff'
p4068
tp4069
Rp4070
sg25
g1069
sg34
g35
sg36
(dp4071
g25
g1069
sg105
g11
(g15
S'\x9f\xb7\xf4af\xbb.@'
p4072
tp4073
Rp4074
sg116
g11
(g15
S'\xff\x13\xcaq\xe2\xa7\x11@'
p4075
tp4076
Rp4077
ssg51
g11
(g12
(S'S3'
p4078
I0
I1
tp4079
Rp4080
(I3
S'|'
p4081
NNNI3
I1
I0
tp4082
bS'PCA'
p4083
tp4084
Rp4085
sg60
F0.2
sg116
g4077
sg61
g11
(g12
(S'S9'
p4086
I0
I1
tp4087
Rp4088
(I3
S'|'
p4089
NNNI9
I1
I0
tp4090
bS'inception'
p4091
tp4092
Rp4093
sg105
g4074
sg70
g11
(g15
S'\x87a\xc4u\x08g\xe0?'
p4094
tp4095
Rp4096
sg74
g11
(g12
(S'S3'
p4097
I0
I1
tp4098
Rp4099
(I3
S'|'
p4100
NNNI3
I1
I0
tp4101
bS'SVM'
p4102
tp4103
Rp4104
sg83
I3
sg84
g85
sg86
g11
(g15
S'\xe3\xcf\xf6\xa8D\r\xe4?'
p4105
tp4106
Rp4107
sg90
g91
sg92
g93
sbag4
(g5
g6
Ntp4108
Rp4109
(dp4110
g10
g11
(g15
S'\x00\x00\x00\x00\x00\x00\xf8\xff'
p4111
tp4112
Rp4113
sg21
g11
(g15
S'\x00\x00\x00\x00\x00`m@'
p4114
tp4115
Rp4116
sg25
g1069
sg34
g35
sg36
(dp4117
g21
g4116
sg38
g11
(g15
S'\xd6\xce9=\xb8P\xd6?'
p4118
tp4119
Rp4120
sg25
g1069
ssg51
g11
(g12
(S'S3'
p4121
I0
I1
tp4122
Rp4123
(I3
S'|'
p4124
NNNI3
I1
I0
tp4125
bS'PCA'
p4126
tp4127
Rp4128
sg60
F0.2
sg61
g11
(g12
(S'S9'
p4129
I0
I1
tp4130
Rp4131
(I3
S'|'
p4132
NNNI9
I1
I0
tp4133
bS'inception'
p4134
tp4135
Rp4136
sg70
g11
(g15
S't\xe1\xda\x8c\x86\xc3\xe2?'
p4137
tp4138
Rp4139
sg74
g11
(g12
(S'S2'
p4140
I0
I1
tp4141
Rp4142
(I3
S'|'
p4143
NNNI2
I1
I0
tp4144
bS'RF'
p4145
tp4146
Rp4147
sg83
I3
sg38
g4120
sg84
g85
sg86
g11
(g15
S'0\xdb\x850\xdb\x85\xe8?'
p4148
tp4149
Rp4150
sg90
g91
sg92
g93
sbag4
(g5
g6
Ntp4151
Rp4152
(dp4153
g10
g11
(g15
S'\x00\x00\x00\x00\x00\x00\xf8\xff'
p4154
tp4155
Rp4156
sg21
g11
(g15
S'\x00\x00\x00\x00\x00@a@'
p4157
tp4158
Rp4159
sg25
g1069
sg34
g35
sg36
(dp4160
g21
g4159
sg38
g11
(g15
S'\x88"n\xbc\xd9\xd1\xda?'
p4161
tp4162
Rp4163
sg25
g1069
sg42
g11
(g45
S'\x02\x00\x00\x00\x00\x00\x00\x00'
p4164
tp4165
Rp4166
ssg51
g11
(g12
(S'S3'
p4167
I0
I1
tp4168
Rp4169
(I3
S'|'
p4170
NNNI3
I1
I0
tp4171
bS'PCA'
p4172
tp4173
Rp4174
sg60
F0.2
sg61
g11
(g12
(S'S8'
p4175
I0
I1
tp4176
Rp4177
(I3
S'|'
p4178
NNNI8
I1
I0
tp4179
bS'haralick'
p4180
tp4181
Rp4182
sg42
g4166
sg70
g11
(g15
S'\xccJ\x0c]\xc0\xa0\xe6?'
p4183
tp4184
Rp4185
sg74
g11
(g12
(S'S2'
p4186
I0
I1
tp4187
Rp4188
(I3
S'|'
p4189
NNNI2
I1
I0
tp4190
bS'RF'
p4191
tp4192
Rp4193
sg83
I3
sg38
g4163
sg84
g85
sg86
g11
(g15
S'\x118\xea\x85N\xbd\xeb?'
p4194
tp4195
Rp4196
sg90
g91
sg92
g93
sbag4
(g5
g6
Ntp4197
Rp4198
(dp4199
g10
g11
(g15
S'\x00\x00\x00\x00\x00\x00\xf8\xff'
p4200
tp4201
Rp4202
sg21
g11
(g15
S'\x00\x00\x00\x00\x00`i@'
p4203
tp4204
Rp4205
sg25
g1069
sg34
g35
sg36
(dp4206
g21
g4205
sg38
g11
(g15
S'\xb4\x97\x1d?\x91i\xe6?'
p4207
tp4208
Rp4209
sg25
g1069
ssg51
g11
(g12
(S'S3'
p4210
I0
I1
tp4211
Rp4212
(I3
S'|'
p4213
NNNI3
I1
I0
tp4214
bS'PCA'
p4215
tp4216
Rp4217
sg60
F0.2
sg61
g11
(g12
(S'S3'
p4218
I0
I1
tp4219
Rp4220
(I3
S'|'
p4221
NNNI3
I1
I0
tp4222
bS'VGG'
p4223
tp4224
Rp4225
sg70
g11
(g15
S')n\xaf9>H\xd3?'
p4226
tp4227
Rp4228
sg74
g11
(g12
(S'S2'
p4229
I0
I1
tp4230
Rp4231
(I3
S'|'
p4232
NNNI2
I1
I0
tp4233
bS'RF'
p4234
tp4235
Rp4236
sg83
I3
sg38
g4209
sg84
g85
sg86
g11
(g15
S'\xb3\x8c\xd7Am\x16\xec?'
p4237
tp4238
Rp4239
sg90
g91
sg92
g93
sbag4
(g5
g6
Ntp4240
Rp4241
(dp4242
g10
g11
(g15
S'\x00\x00\x00\x00\x00\x00\xf8\xff'
p4243
tp4244
Rp4245
sg25
g1069
sg34
g35
sg36
(dp4246
g25
g1069
sg105
g11
(g15
S'\xb3\xaa\xcfsGXS@'
p4247
tp4248
Rp4249
sg42
g11
(g45
S'\x03\x00\x00\x00\x00\x00\x00\x00'
p4250
tp4251
Rp4252
sg116
g11
(g15
S'?\x13+\x8f$<\t@'
p4253
tp4254
Rp4255
ssg51
g11
(g12
(S'S3'
p4256
I0
I1
tp4257
Rp4258
(I3
S'|'
p4259
NNNI3
I1
I0
tp4260
bS'PCA'
p4261
tp4262
Rp4263
sg60
F0.2
sg116
g4255
sg61
g11
(g12
(S'S8'
p4264
I0
I1
tp4265
Rp4266
(I3
S'|'
p4267
NNNI8
I1
I0
tp4268
bS'haralick'
p4269
tp4270
Rp4271
sg105
g4249
sg42
g4252
sg70
g11
(g15
S'0\x02\xd6\x14JO\xde?'
p4272
tp4273
Rp4274
sg74
g11
(g12
(S'S3'
p4275
I0
I1
tp4276
Rp4277
(I3
S'|'
p4278
NNNI3
I1
I0
tp4279
bS'SVM'
p4280
tp4281
Rp4282
sg83
I3
sg84
g85
sg86
g11
(g15
S'\x89W\xba\xf4\x7fi\xea?'
p4283
tp4284
Rp4285
sg90
g91
sg92
g93
sbag4
(g5
g6
Ntp4286
Rp4287
(dp4288
g10
g11
(g15
S'\x00\x00\x00\x00\x00\x00\xf8\xff'
p4289
tp4290
Rp4291
sg21
g11
(g15
S'\x00\x00\x00\x00\x00\x00D@'
p4292
tp4293
Rp4294
sg25
g33
sg34
g35
sg36
(dp4295
g21
g4294
sg38
g11
(g15
S'x\xd3\x81\xed\x1f_\xef?'
p4296
tp4297
Rp4298
sg25
g33
ssg51
g11
(g12
(S'S3'
p4299
I0
I1
tp4300
Rp4301
(I3
S'|'
p4302
NNNI3
I1
I0
tp4303
bS'PCA'
p4304
tp4305
Rp4306
sg60
F0.2
sg61
g11
(g12
(S'S9'
p4307
I0
I1
tp4308
Rp4309
(I3
S'|'
p4310
NNNI9
I1
I0
tp4311
bS'inception'
p4312
tp4313
Rp4314
sg70
g11
(g15
S'!\x07Y\x88\x98\x10\xf2?'
p4315
tp4316
Rp4317
sg74
g11
(g12
(S'S2'
p4318
I0
I1
tp4319
Rp4320
(I3
S'|'
p4321
NNNI2
I1
I0
tp4322
bS'RF'
p4323
tp4324
Rp4325
sg83
I3
sg38
g4298
sg84
g85
sg86
g11
(g15
S'\xe7\x14\xb8q\xfe\xe4\xe7?'
p4326
tp4327
Rp4328
sg90
g91
sg92
g93
sbag4
(g5
g6
Ntp4329
Rp4330
(dp4331
g10
g11
(g15
S'\x00\x00\x00\x00\x00\x00\xf8\xff'
p4332
tp4333
Rp4334
sg21
g11
(g15
S'\x00\x00\x00\x00\x00`i@'
p4335
tp4336
Rp4337
sg25
g33
sg34
g35
sg36
(dp4338
g21
g4337
sg38
g11
(g15
S'\x9e\xc3\xbd\xd1^\x03\xdf?'
p4339
tp4340
Rp4341
sg25
g33
ssg51
g11
(g12
(S'S3'
p4342
I0
I1
tp4343
Rp4344
(I3
S'|'
p4345
NNNI3
I1
I0
tp4346
bS'PCA'
p4347
tp4348
Rp4349
sg60
F0.2
sg61
g11
(g12
(S'S3'
p4350
I0
I1
tp4351
Rp4352
(I3
S'|'
p4353
NNNI3
I1
I0
tp4354
bS'VGG'
p4355
tp4356
Rp4357
sg70
g11
(g15
S'\x17\xc9G\xfclC\xd7?'
p4358
tp4359
Rp4360
sg74
g11
(g12
(S'S2'
p4361
I0
I1
tp4362
Rp4363
(I3
S'|'
p4364
NNNI2
I1
I0
tp4365
bS'RF'
p4366
tp4367
Rp4368
sg83
I3
sg38
g4341
sg84
g85
sg86
g11
(g15
S'\xc5\xa1\xe9Yy:\xec?'
p4369
tp4370
Rp4371
sg90
g91
sg92
g93
sbag4
(g5
g6
Ntp4372
Rp4373
(dp4374
g10
g11
(g15
S'\x00\x00\x00\x00\x00\x00\xf8\xff'
p4375
tp4376
Rp4377
sg21
g11
(g15
S'\x00\x00\x00\x00\x00@a@'
p4378
tp4379
Rp4380
sg25
g1069
sg34
g35
sg36
(dp4381
g21
g4380
sg38
g11
(g15
S'G!M\x85\x98\xe7\xd3?'
p4382
tp4383
Rp4384
sg25
g1069
ssg51
g11
(g12
(S'S3'
p4385
I0
I1
tp4386
Rp4387
(I3
S'|'
p4388
NNNI3
I1
I0
tp4389
bS'PCA'
p4390
tp4391
Rp4392
sg60
F0.2
sg61
g11
(g12
(S'S3'
p4393
I0
I1
tp4394
Rp4395
(I3
S'|'
p4396
NNNI3
I1
I0
tp4397
bS'VGG'
p4398
tp4399
Rp4400
sg70
g11
(g15
S'\t/\xa5D\xce\xd9\xd2?'
p4401
tp4402
Rp4403
sg74
g11
(g12
(S'S2'
p4404
I0
I1
tp4405
Rp4406
(I3
S'|'
p4407
NNNI2
I1
I0
tp4408
bS'RF'
p4409
tp4410
Rp4411
sg83
I3
sg38
g4384
sg84
g85
sg86
g11
(g15
S'\xe5bg^pL\xec?'
p4412
tp4413
Rp4414
sg90
g91
sg92
g93
sbag4
(g5
g6
Ntp4415
Rp4416
(dp4417
g10
g11
(g15
S'\x00\x00\x00\x00\x00\x00\xf8\xff'
p4418
tp4419
Rp4420
sg21
g11
(g15
S'\x00\x00\x00\x00\x00\x00 @'
p4421
tp4422
Rp4423
sg34
g35
sg100
g11
(g45
S'\x06\x00\x00\x00\x00\x00\x00\x00'
p4424
tp4425
Rp4426
sg36
(dp4427
g21
g4423
sg100
g4426
sg112
g11
(g45
S'\x02\x00\x00\x00\x00\x00\x00\x00'
p4428
tp4429
Rp4430
sg38
g11
(g15
S'\xb5X4o\xc6\xc3\xd8?'
p4431
tp4432
Rp4433
ssg51
g11
(g12
(S'S6'
p4434
I0
I1
tp4435
Rp4436
(I3
S'|'
p4437
NNNI6
I1
I0
tp4438
bS'ISOMAP'
p4439
tp4440
Rp4441
sg60
F0.2
sg112
g4430
sg61
g11
(g12
(S'S9'
p4442
I0
I1
tp4443
Rp4444
(I3
S'|'
p4445
NNNI9
I1
I0
tp4446
bS'inception'
p4447
tp4448
Rp4449
sg70
g11
(g15
S'\x91\xc4`\x9c\t\xe0\xfc?'
p4450
tp4451
Rp4452
sg74
g11
(g12
(S'S2'
p4453
I0
I1
tp4454
Rp4455
(I3
S'|'
p4456
NNNI2
I1
I0
tp4457
bS'RF'
p4458
tp4459
Rp4460
sg83
I3
sg38
g4433
sg84
g85
sg86
g11
(g15
S'\xcf\x9e\xfe>\xbe\xbf\xe4?'
p4461
tp4462
Rp4463
sg90
g91
sg92
g93
sbag4
(g5
g6
Ntp4464
Rp4465
(dp4466
g10
g11
(g15
S'\x00\x00\x00\x00\x00\x00\xf8\xff'
p4467
tp4468
Rp4469
sg25
g33
sg34
g35
sg36
(dp4470
g25
g33
sg105
g11
(g15
S'l7Gz\x02x0@'
p4471
tp4472
Rp4473
sg116
g11
(g15
S'cw\xd1q\xeb\xec\x0c@'
p4474
tp4475
Rp4476
ssg51
g11
(g12
(S'S3'
p4477
I0
I1
tp4478
Rp4479
(I3
S'|'
p4480
NNNI3
I1
I0
tp4481
bS'PCA'
p4482
tp4483
Rp4484
sg60
F0.2
sg116
g4476
sg61
g11
(g12
(S'S3'
p4485
I0
I1
tp4486
Rp4487
(I3
S'|'
p4488
NNNI3
I1
I0
tp4489
bS'VGG'
p4490
tp4491
Rp4492
sg105
g4473
sg70
g11
(g15
S'\xbf\x1b\xc2\xaa\xed#\xd8?'
p4493
tp4494
Rp4495
sg74
g11
(g12
(S'S3'
p4496
I0
I1
tp4497
Rp4498
(I3
S'|'
p4499
NNNI3
I1
I0
tp4500
bS'SVM'
p4501
tp4502
Rp4503
sg83
I3
sg84
g85
sg86
g11
(g15
S'\xd8|3\xc6\xa0\xeb\xe9?'
p4504
tp4505
Rp4506
sg90
g91
sg92
g93
sbag4
(g5
g6
Ntp4507
Rp4508
(dp4509
g10
g11
(g15
S'\x00\x00\x00\x00\x00\x00\xf8\xff'
p4510
tp4511
Rp4512
sg21
g11
(g15
S'\x00\x00\x00\x00\x00@a@'
p4513
tp4514
Rp4515
sg34
g35
sg100
g11
(g45
S'\x04\x00\x00\x00\x00\x00\x00\x00'
p4516
tp4517
Rp4518
sg36
(dp4519
g21
g4515
sg100
g4518
sg112
g11
(g45
S'\x03\x00\x00\x00\x00\x00\x00\x00'
p4520
tp4521
Rp4522
sg38
g11
(g15
S'\xa8\x1f\xc8\x02T\x99\xea?'
p4523
tp4524
Rp4525
ssg51
g11
(g12
(S'S6'
p4526
I0
I1
tp4527
Rp4528
(I3
S'|'
p4529
NNNI6
I1
I0
tp4530
bS'ISOMAP'
p4531
tp4532
Rp4533
sg60
F0.2
sg112
g4522
sg61
g11
(g12
(S'S3'
p4534
I0
I1
tp4535
Rp4536
(I3
S'|'
p4537
NNNI3
I1
I0
tp4538
bS'VGG'
p4539
tp4540
Rp4541
sg70
g11
(g15
S'\xfb\xdd\x02\xea\x9fY\xe9?'
p4542
tp4543
Rp4544
sg74
g11
(g12
(S'S2'
p4545
I0
I1
tp4546
Rp4547
(I3
S'|'
p4548
NNNI2
I1
I0
tp4549
bS'RF'
p4550
tp4551
Rp4552
sg83
I3
sg38
g4525
sg84
g85
sg86
g11
(g15
S'Q\x8a\x18\xfc4\xc3\xea?'
p4553
tp4554
Rp4555
sg90
g91
sg92
g93
sbag4
(g5
g6
Ntp4556
Rp4557
(dp4558
g10
g11
(g15
S'\x00\x00\x00\x00\x00\x00\xf8\xff'
p4559
tp4560
Rp4561
sg100
g11
(g45
S'\x07\x00\x00\x00\x00\x00\x00\x00'
p4562
tp4563
Rp4564
sg34
g35
sg36
(dp4565
g100
g4564
sg105
g11
(g15
S'\x05\xe6\x9f$\xe2\x1aF@'
p4566
tp4567
Rp4568
sg112
g11
(g45
S'\x02\x00\x00\x00\x00\x00\x00\x00'
p4569
tp4570
Rp4571
sg116
g11
(g15
S'(\x18\xb8\xf3\rT\xfc?'
p4572
tp4573
Rp4574
ssg116
g4574
sg51
g11
(g12
(S'S6'
p4575
I0
I1
tp4576
Rp4577
(I3
S'|'
p4578
NNNI6
I1
I0
tp4579
bS'ISOMAP'
p4580
tp4581
Rp4582
sg60
F0.2
sg112
g4571
sg61
g11
(g12
(S'S3'
p4583
I0
I1
tp4584
Rp4585
(I3
S'|'
p4586
NNNI3
I1
I0
tp4587
bS'VGG'
p4588
tp4589
Rp4590
sg105
g4568
sg70
g11
(g15
S'\x99`\x03\xe2\xfa\x80\xda?'
p4591
tp4592
Rp4593
sg74
g11
(g12
(S'S3'
p4594
I0
I1
tp4595
Rp4596
(I3
S'|'
p4597
NNNI3
I1
I0
tp4598
bS'SVM'
p4599
tp4600
Rp4601
sg83
I3
sg84
g85
sg86
g11
(g15
S')&, 8\x08\xe8?'
p4602
tp4603
Rp4604
sg90
g91
sg92
g93
sbag4
(g5
g6
Ntp4605
Rp4606
(dp4607
g10
g11
(g15
S'\x00\x00\x00\x00\x00\x00\xf8\xff'
p4608
tp4609
Rp4610
sg25
g1069
sg34
g35
sg36
(dp4611
g25
g1069
sg105
g11
(g15
S'\xa0(P\x190SX@'
p4612
tp4613
Rp4614
sg116
g11
(g15
S'\x06~\xd047k\x12@'
p4615
tp4616
Rp4617
ssg51
g11
(g12
(S'S3'
p4618
I0
I1
tp4619
Rp4620
(I3
S'|'
p4621
NNNI3
I1
I0
tp4622
bS'PCA'
p4623
tp4624
Rp4625
sg60
F0.2
sg116
g4617
sg61
g11
(g12
(S'S9'
p4626
I0
I1
tp4627
Rp4628
(I3
S'|'
p4629
NNNI9
I1
I0
tp4630
bS'inception'
p4631
tp4632
Rp4633
sg105
g4614
sg70
g11
(g15
S'\xdfW}r\x11\xa6\xe0?'
p4634
tp4635
Rp4636
sg74
g11
(g12
(S'S3'
p4637
I0
I1
tp4638
Rp4639
(I3
S'|'
p4640
NNNI3
I1
I0
tp4641
bS'SVM'
p4642
tp4643
Rp4644
sg83
I3
sg84
g85
sg86
g11
(g15
S'p\xa78\x16[\xd1\xe4?'
p4645
tp4646
Rp4647
sg90
g91
sg92
g93
sbag4
(g5
g6
Ntp4648
Rp4649
(dp4650
g10
g11
(g15
S'\x00\x00\x00\x00\x00\x00\xf8\xff'
p4651
tp4652
Rp4653
sg25
g33
sg34
g35
sg36
(dp4654
g25
g33
sg105
g11
(g15
S'\xa5\xb8\tf\xe5\xffK@'
p4655
tp4656
Rp4657
sg42
g11
(g45
S'\x02\x00\x00\x00\x00\x00\x00\x00'
p4658
tp4659
Rp4660
sg116
g11
(g15
S'\x96+\xe1Y\xa9\x91\x05@'
p4661
tp4662
Rp4663
ssg51
g11
(g12
(S'S3'
p4664
I0
I1
tp4665
Rp4666
(I3
S'|'
p4667
NNNI3
I1
I0
tp4668
bS'PCA'
p4669
tp4670
Rp4671
sg60
F0.2
sg116
g4663
sg61
g11
(g12
(S'S8'
p4672
I0
I1
tp4673
Rp4674
(I3
S'|'
p4675
NNNI8
I1
I0
tp4676
bS'haralick'
p4677
tp4678
Rp4679
sg105
g4657
sg42
g4660
sg70
g11
(g15
S'7\xb8\xce>\xbb\xb0\xda?'
p4680
tp4681
Rp4682
sg74
g11
(g12
(S'S3'
p4683
I0
I1
tp4684
Rp4685
(I3
S'|'
p4686
NNNI3
I1
I0
tp4687
bS'SVM'
p4688
tp4689
Rp4690
sg83
I3
sg84
g85
sg86
g11
(g15
S'%\xb5\x95\xd4VR\xeb?'
p4691
tp4692
Rp4693
sg90
g91
sg92
g93
sbag4
(g5
g6
Ntp4694
Rp4695
(dp4696
g10
g11
(g15
S'\x00\x00\x00\x00\x00\x00\xf8\xff'
p4697
tp4698
Rp4699
sg21
g11
(g15
S'\x00\x00\x00\x00\x00\xc0p@'
p4700
tp4701
Rp4702
sg25
g1069
sg34
g35
sg36
(dp4703
g21
g4702
sg38
g11
(g15
S'\xa0\xda\xf4~A>\xe3?'
p4704
tp4705
Rp4706
sg25
g1069
sg42
g11
(g45
S'\x01\x00\x00\x00\x00\x00\x00\x00'
p4707
tp4708
Rp4709
ssg51
g11
(g12
(S'S3'
p4710
I0
I1
tp4711
Rp4712
(I3
S'|'
p4713
NNNI3
I1
I0
tp4714
bS'PCA'
p4715
tp4716
Rp4717
sg60
F0.2
sg61
g11
(g12
(S'S8'
p4718
I0
I1
tp4719
Rp4720
(I3
S'|'
p4721
NNNI8
I1
I0
tp4722
bS'haralick'
p4723
tp4724
Rp4725
sg42
g4709
sg70
g11
(g15
S'\xcf\xa3\xfd\x0b\xb6\xc6\xf6?'
p4726
tp4727
Rp4728
sg74
g11
(g12
(S'S2'
p4729
I0
I1
tp4730
Rp4731
(I3
S'|'
p4732
NNNI2
I1
I0
tp4733
bS'RF'
p4734
tp4735
Rp4736
sg83
I3
sg38
g4706
sg84
g85
sg86
g11
(g15
S'\t\x19\xfb6\xbf\xae\xe7?'
p4737
tp4738
Rp4739
sg90
g91
sg92
g93
sbag4
(g5
g6
Ntp4740
Rp4741
(dp4742
g10
g11
(g15
S'\x00\x00\x00\x00\x00\x00\xf8\xff'
p4743
tp4744
Rp4745
sg21
g11
(g15
S'\x00\x00\x00\x00\x00@a@'
p4746
tp4747
Rp4748
sg34
g35
sg100
g11
(g45
S'\x06\x00\x00\x00\x00\x00\x00\x00'
p4749
tp4750
Rp4751
sg36
(dp4752
g21
g4748
sg100
g4751
sg42
g11
(g45
S'\x03\x00\x00\x00\x00\x00\x00\x00'
p4753
tp4754
Rp4755
sg112
g11
(g45
S'\x03\x00\x00\x00\x00\x00\x00\x00'
p4756
tp4757
Rp4758
sg38
g11
(g15
S'%\xe0v\xa0\xbem\xe4?'
p4759
tp4760
Rp4761
ssg51
g11
(g12
(S'S6'
p4762
I0
I1
tp4763
Rp4764
(I3
S'|'
p4765
NNNI6
I1
I0
tp4766
bS'ISOMAP'
p4767
tp4768
Rp4769
sg60
F0.2
sg112
g4758
sg61
g11
(g12
(S'S8'
p4770
I0
I1
tp4771
Rp4772
(I3
S'|'
p4773
NNNI8
I1
I0
tp4774
bS'haralick'
p4775
tp4776
Rp4777
sg42
g4755
sg70
g11
(g15
S'\x95\xa5I\x82\xde#\xec?'
p4778
tp4779
Rp4780
sg74
g11
(g12
(S'S2'
p4781
I0
I1
tp4782
Rp4783
(I3
S'|'
p4784
NNNI2
I1
I0
tp4785
bS'RF'
p4786
tp4787
Rp4788
sg83
I3
sg38
g4761
sg84
g85
sg86
g11
(g15
S'\xf3\xde\x05\xb8S\x1c\xeb?'
p4789
tp4790
Rp4791
sg90
g91
sg92
g93
sbag4
(g5
g6
Ntp4792
Rp4793
(dp4794
g10
g11
(g15
S'\x00\x00\x00\x00\x00\x00\xf8\xff'
p4795
tp4796
Rp4797
sg25
g33
sg34
g35
sg36
(dp4798
g25
g33
sg105
g11
(g15
S'w\xfb=\xa9\n\x99F@'
p4799
tp4800
Rp4801
sg116
g11
(g15
S'\xc7w\x98}\x9b\xe0\xf1?'
p4802
tp4803
Rp4804
ssg51
g11
(g12
(S'S3'
p4805
I0
I1
tp4806
Rp4807
(I3
S'|'
p4808
NNNI3
I1
I0
tp4809
bS'PCA'
p4810
tp4811
Rp4812
sg60
F0.2
sg116
g4804
sg61
g11
(g12
(S'S9'
p4813
I0
I1
tp4814
Rp4815
(I3
S'|'
p4816
NNNI9
I1
I0
tp4817
bS'inception'
p4818
tp4819
Rp4820
sg105
g4801
sg70
g11
(g15
S'\xab\xed\x90z\xdd{\xe0?'
p4821
tp4822
Rp4823
sg74
g11
(g12
(S'S3'
p4824
I0
I1
tp4825
Rp4826
(I3
S'|'
p4827
NNNI3
I1
I0
tp4828
bS'SVM'
p4829
tp4830
Rp4831
sg83
I3
sg84
g85
sg86
g11
(g15
S'\xb1a\x00\xc3=H\xe3?'
p4832
tp4833
Rp4834
sg90
g91
sg92
g93
sbag4
(g5
g6
Ntp4835
Rp4836
(dp4837
g10
g11
(g15
S'\x00\x00\x00\x00\x00\x00\xf8\xff'
p4838
tp4839
Rp4840
sg25
g33
sg34
g35
sg36
(dp4841
g25
g33
sg105
g11
(g15
S'\xf3TLr\x80u@@'
p4842
tp4843
Rp4844
sg116
g11
(g15
S'\xa1k\xbf\x8c\xd9\xe8\x1c@'
p4845
tp4846
Rp4847
ssg51
g11
(g12
(S'S3'
p4848
I0
I1
tp4849
Rp4850
(I3
S'|'
p4851
NNNI3
I1
I0
tp4852
bS'PCA'
p4853
tp4854
Rp4855
sg60
F0.2
sg116
g4847
sg61
g11
(g12
(S'S3'
p4856
I0
I1
tp4857
Rp4858
(I3
S'|'
p4859
NNNI3
I1
I0
tp4860
bS'VGG'
p4861
tp4862
Rp4863
sg105
g4844
sg70
g11
(g15
S'KE\xfe\x06d\xc3\xd9?'
p4864
tp4865
Rp4866
sg74
g11
(g12
(S'S3'
p4867
I0
I1
tp4868
Rp4869
(I3
S'|'
p4870
NNNI3
I1
I0
tp4871
bS'SVM'
p4872
tp4873
Rp4874
sg83
I3
sg84
g85
sg86
g11
(g15
S'\xad\xc3\x96\xf0<\xa4\xe9?'
p4875
tp4876
Rp4877
sg90
g91
sg92
g93
sbag4
(g5
g6
Ntp4878
Rp4879
(dp4880
g10
g11
(g15
S'\x00\x00\x00\x00\x00\x00\xf8\xff'
p4881
tp4882
Rp4883
sg21
g11
(g15
S'\x00\x00\x00\x00\x00\xc0p@'
p4884
tp4885
Rp4886
sg25
g1069
sg34
g35
sg36
(dp4887
g21
g4886
sg38
g11
(g15
S'8S\xc6D\xc3o\xd9?'
p4888
tp4889
Rp4890
sg25
g1069
ssg51
g11
(g12
(S'S3'
p4891
I0
I1
tp4892
Rp4893
(I3
S'|'
p4894
NNNI3
I1
I0
tp4895
bS'PCA'
p4896
tp4897
Rp4898
sg60
F0.2
sg61
g11
(g12
(S'S9'
p4899
I0
I1
tp4900
Rp4901
(I3
S'|'
p4902
NNNI9
I1
I0
tp4903
bS'inception'
p4904
tp4905
Rp4906
sg70
g11
(g15
S'*\xd4\x0f$!\xcf\xe2?'
p4907
tp4908
Rp4909
sg74
g11
(g12
(S'S2'
p4910
I0
I1
tp4911
Rp4912
(I3
S'|'
p4913
NNNI2
I1
I0
tp4914
bS'RF'
p4915
tp4916
Rp4917
sg83
I3
sg38
g4890
sg84
g85
sg86
g11
(g15
S'%\xe3f_nP\xe8?'
p4918
tp4919
Rp4920
sg90
g91
sg92
g93
sbag4
(g5
g6
Ntp4921
Rp4922
(dp4923
g10
g11
(g15
S'\x00\x00\x00\x00\x00\x00\xf8\xff'
p4924
tp4925
Rp4926
sg21
g11
(g15
S'\x00\x00\x00\x00\x00@e@'
p4927
tp4928
Rp4929
sg34
g35
sg100
g11
(g45
S'\x03\x00\x00\x00\x00\x00\x00\x00'
p4930
tp4931
Rp4932
sg36
(dp4933
g21
g4929
sg100
g4932
sg112
g11
(g45
S'\x03\x00\x00\x00\x00\x00\x00\x00'
p4934
tp4935
Rp4936
sg38
g11
(g15
S'o\xed\xb2\xdeY\x1f\xd6?'
p4937
tp4938
Rp4939
ssg51
g11
(g12
(S'S6'
p4940
I0
I1
tp4941
Rp4942
(I3
S'|'
p4943
NNNI6
I1
I0
tp4944
bS'ISOMAP'
p4945
tp4946
Rp4947
sg60
F0.2
sg112
g4936
sg61
g11
(g12
(S'S3'
p4948
I0
I1
tp4949
Rp4950
(I3
S'|'
p4951
NNNI3
I1
I0
tp4952
bS'VGG'
p4953
tp4954
Rp4955
sg70
g11
(g15
S'e\xd7\xe9\x9d\xe4\xbf\xe6?'
p4956
tp4957
Rp4958
sg74
g11
(g12
(S'S2'
p4959
I0
I1
tp4960
Rp4961
(I3
S'|'
p4962
NNNI2
I1
I0
tp4963
bS'RF'
p4964
tp4965
Rp4966
sg83
I3
sg38
g4939
sg84
g85
sg86
g11
(g15
S'\xd7\xf8\xb3=*Q\xeb?'
p4967
tp4968
Rp4969
sg90
g91
sg92
g93
sbag4
(g5
g6
Ntp4970
Rp4971
(dp4972
g10
g11
(g15
S'\x00\x00\x00\x00\x00\x00\xf8\xff'
p4973
tp4974
Rp4975
sg25
g1069
sg34
g35
sg36
(dp4976
g25
g1069
sg105
g11
(g15
S'\x7f9e\x9a\xa6o\x18@'
p4977
tp4978
Rp4979
sg42
g11
(g45
S'\x03\x00\x00\x00\x00\x00\x00\x00'
p4980
tp4981
Rp4982
sg116
g11
(g15
S'\xfd&\x94}KA\xf9?'
p4983
tp4984
Rp4985
ssg51
g11
(g12
(S'S3'
p4986
I0
I1
tp4987
Rp4988
(I3
S'|'
p4989
NNNI3
I1
I0
tp4990
bS'PCA'
p4991
tp4992
Rp4993
sg60
F0.2
sg116
g4985
sg61
g11
(g12
(S'S8'
p4994
I0
I1
tp4995
Rp4996
(I3
S'|'
p4997
NNNI8
I1
I0
tp4998
bS'haralick'
p4999
tp5000
Rp5001
sg105
g4979
sg42
g4982
sg70
g11
(g15
S'\xdc\xf9\xfc\x0f\x86\xeb\xdc?'
p5002
tp5003
Rp5004
sg74
g11
(g12
(S'S3'
p5005
I0
I1
tp5006
Rp5007
(I3
S'|'
p5008
NNNI3
I1
I0
tp5009
bS'SVM'
p5010
tp5011
Rp5012
sg83
I3
sg84
g85
sg86
g11
(g15
S'\x9d\xd4eC\x88\xfe\xe9?'
p5013
tp5014
Rp5015
sg90
g91
sg92
g93
sbag4
(g5
g6
Ntp5016
Rp5017
(dp5018
g10
g11
(g15
S'\x00\x00\x00\x00\x00\x00\xf8\xff'
p5019
tp5020
Rp5021
sg21
g11
(g15
S'\x00\x00\x00\x00\x00@R@'
p5022
tp5023
Rp5024
sg25
g33
sg34
g35
sg36
(dp5025
g21
g5024
sg38
g11
(g15
S'\xfaL\x15\xb4\x18k\xe4?'
p5026
tp5027
Rp5028
sg25
g33
ssg51
g11
(g12
(S'S3'
p5029
I0
I1
tp5030
Rp5031
(I3
S'|'
p5032
NNNI3
I1
I0
tp5033
bS'PCA'
p5034
tp5035
Rp5036
sg60
F0.2
sg61
g11
(g12
(S'S9'
p5037
I0
I1
tp5038
Rp5039
(I3
S'|'
p5040
NNNI9
I1
I0
tp5041
bS'inception'
p5042
tp5043
Rp5044
sg70
g11
(g15
S'e\xc4\n\x91\xa6w\xeb?'
p5045
tp5046
Rp5047
sg74
g11
(g12
(S'S2'
p5048
I0
I1
tp5049
Rp5050
(I3
S'|'
p5051
NNNI2
I1
I0
tp5052
bS'RF'
p5053
tp5054
Rp5055
sg83
I3
sg38
g5028
sg84
g85
sg86
g11
(g15
S"\xf1X\x8a'\xeda\xe8?"
p5056
tp5057
Rp5058
sg90
g91
sg92
g93
sbag4
(g5
g6
Ntp5059
Rp5060
(dp5061
g10
g11
(g15
S'\x00\x00\x00\x00\x00\x00\xf8\xff'
p5062
tp5063
Rp5064
sg21
g11
(g15
S'\x00\x00\x00\x00\x00@a@'
p5065
tp5066
Rp5067
sg25
g1069
sg34
g35
sg36
(dp5068
g21
g5067
sg38
g11
(g15
S'P1\xa5\xb1\xaae\xe2?'
p5069
tp5070
Rp5071
sg25
g1069
ssg51
g11
(g12
(S'S3'
p5072
I0
I1
tp5073
Rp5074
(I3
S'|'
p5075
NNNI3
I1
I0
tp5076
bS'PCA'
p5077
tp5078
Rp5079
sg60
F0.2
sg61
g11
(g12
(S'S3'
p5080
I0
I1
tp5081
Rp5082
(I3
S'|'
p5083
NNNI3
I1
I0
tp5084
bS'VGG'
p5085
tp5086
Rp5087
sg70
g11
(g15
S'Y\xe4\x8c\xb2\xf0\xb7\xd2?'
p5088
tp5089
Rp5090
sg74
g11
(g12
(S'S2'
p5091
I0
I1
tp5092
Rp5093
(I3
S'|'
p5094
NNNI2
I1
I0
tp5095
bS'RF'
p5096
tp5097
Rp5098
sg83
I3
sg38
g5071
sg84
g85
sg86
g11
(g15
S'\xa7\xe0kU\x82(\xec?'
p5099
tp5100
Rp5101
sg90
g91
sg92
g93
sbag4
(g5
g6
Ntp5102
Rp5103
(dp5104
g10
g11
(g15
S'\x00\x00\x00\x00\x00\x00\xf8\xff'
p5105
tp5106
Rp5107
sg21
g11
(g15
S'\x00\x00\x00\x00\x00`i@'
p5108
tp5109
Rp5110
sg34
g35
sg100
g11
(g45
S'\x03\x00\x00\x00\x00\x00\x00\x00'
p5111
tp5112
Rp5113
sg36
(dp5114
g21
g5110
sg100
g5113
sg112
g11
(g45
S'\x02\x00\x00\x00\x00\x00\x00\x00'
p5115
tp5116
Rp5117
sg38
g11
(g15
S'\xf26p"|)\xef?'
p5118
tp5119
Rp5120
ssg51
g11
(g12
(S'S6'
p5121
I0
I1
tp5122
Rp5123
(I3
S'|'
p5124
NNNI6
I1
I0
tp5125
bS'ISOMAP'
p5126
tp5127
Rp5128
sg60
F0.2
sg112
g5117
sg61
g11
(g12
(S'S9'
p5129
I0
I1
tp5130
Rp5131
(I3
S'|'
p5132
NNNI9
I1
I0
tp5133
bS'inception'
p5134
tp5135
Rp5136
sg70
g11
(g15
S'\x80\xaer\x02\xf7g\xef?'
p5137
tp5138
Rp5139
sg74
g11
(g12
(S'S2'
p5140
I0
I1
tp5141
Rp5142
(I3
S'|'
p5143
NNNI2
I1
I0
tp5144
bS'RF'
p5145
tp5146
Rp5147
sg83
I3
sg38
g5120
sg84
g85
sg86
g11
(g15
S'<\x00x\x88g\xa9\xe5?'
p5148
tp5149
Rp5150
sg90
g91
sg92
g93
sbag4
(g5
g6
Ntp5151
Rp5152
(dp5153
g10
g11
(g15
S'\x00\x00\x00\x00\x00\x00\xf8\xff'
p5154
tp5155
Rp5156
sg21
g11
(g15
S'\x00\x00\x00\x00\x00@e@'
p5157
tp5158
Rp5159
sg34
g35
sg100
g11
(g45
S'\x05\x00\x00\x00\x00\x00\x00\x00'
p5160
tp5161
Rp5162
sg36
(dp5163
g21
g5159
sg100
g5162
sg42
g11
(g45
S'\x03\x00\x00\x00\x00\x00\x00\x00'
p5164
tp5165
Rp5166
sg112
g11
(g45
S'\x02\x00\x00\x00\x00\x00\x00\x00'
p5167
tp5168
Rp5169
sg38
g11
(g15
S'\x97\xb8\x08\x93\x8a\x81\xdc?'
p5170
tp5171
Rp5172
ssg51
g11
(g12
(S'S6'
p5173
I0
I1
tp5174
Rp5175
(I3
S'|'
p5176
NNNI6
I1
I0
tp5177
bS'ISOMAP'
p5178
tp5179
Rp5180
sg60
F0.2
sg112
g5169
sg61
g11
(g12
(S'S8'
p5181
I0
I1
tp5182
Rp5183
(I3
S'|'
p5184
NNNI8
I1
I0
tp5185
bS'haralick'
p5186
tp5187
Rp5188
sg42
g5166
sg70
g11
(g15
S'w\xa2\x13\xe2\x97$\xf3?'
p5189
tp5190
Rp5191
sg74
g11
(g12
(S'S2'
p5192
I0
I1
tp5193
Rp5194
(I3
S'|'
p5195
NNNI2
I1
I0
tp5196
bS'RF'
p5197
tp5198
Rp5199
sg83
I3
sg38
g5172
sg84
g85
sg86
g11
(g15
S'A\xb8\xcb\xa4\xf2V\xea?'
p5200
tp5201
Rp5202
sg90
g91
sg92
g93
sbag4
(g5
g6
Ntp5203
Rp5204
(dp5205
g10
g11
(g15
S'\x00\x00\x00\x00\x00\x00\xf8\xff'
p5206
tp5207
Rp5208
sg100
g11
(g45
S'\x07\x00\x00\x00\x00\x00\x00\x00'
p5209
tp5210
Rp5211
sg34
g35
sg36
(dp5212
g100
g5211
sg105
g11
(g15
S'6D\x05\x0c\xcbOV@'
p5213
tp5214
Rp5215
sg112
g11
(g45
S'\x02\x00\x00\x00\x00\x00\x00\x00'
p5216
tp5217
Rp5218
sg116
g11
(g15
S'g\xeb6a\x84E\x10@'
p5219
tp5220
Rp5221
ssg116
g5221
sg51
g11
(g12
(S'S6'
p5222
I0
I1
tp5223
Rp5224
(I3
S'|'
p5225
NNNI6
I1
I0
tp5226
bS'ISOMAP'
p5227
tp5228
Rp5229
sg60
F0.2
sg112
g5218
sg61
g11
(g12
(S'S9'
p5230
I0
I1
tp5231
Rp5232
(I3
S'|'
p5233
NNNI9
I1
I0
tp5234
bS'inception'
p5235
tp5236
Rp5237
sg105
g5215
sg70
g11
(g15
S'\xd8\xcc\xc9\x7f\xd8\xd5\xdf?'
p5238
tp5239
Rp5240
sg74
g11
(g12
(S'S3'
p5241
I0
I1
tp5242
Rp5243
(I3
S'|'
p5244
NNNI3
I1
I0
tp5245
bS'SVM'
p5246
tp5247
Rp5248
sg83
I3
sg84
g85
sg86
g11
(g15
S'h\x03\xcc:]\x18\xe2?'
p5249
tp5250
Rp5251
sg90
g91
sg92
g93
sbag4
(g5
g6
Ntp5252
Rp5253
(dp5254
g10
g11
(g15
S'\x00\x00\x00\x00\x00\x00\xf8\xff'
p5255
tp5256
Rp5257
sg21
g11
(g15
S'\x00\x00\x00\x00\x00@R@'
p5258
tp5259
Rp5260
sg25
g1069
sg34
g35
sg36
(dp5261
g21
g5260
sg38
g11
(g15
S'2\xabJ!\xa0\xa9\xe6?'
p5262
tp5263
Rp5264
sg25
g1069
ssg51
g11
(g12
(S'S3'
p5265
I0
I1
tp5266
Rp5267
(I3
S'|'
p5268
NNNI3
I1
I0
tp5269
bS'PCA'
p5270
tp5271
Rp5272
sg60
F0.2
sg61
g11
(g12
(S'S3'
p5273
I0
I1
tp5274
Rp5275
(I3
S'|'
p5276
NNNI3
I1
I0
tp5277
bS'VGG'
p5278
tp5279
Rp5280
sg70
g11
(g15
S'\x87\xbf\xeeY\x9a\xbb\xdb?'
p5281
tp5282
Rp5283
sg74
g11
(g12
(S'S2'
p5284
I0
I1
tp5285
Rp5286
(I3
S'|'
p5287
NNNI2
I1
I0
tp5288
bS'RF'
p5289
tp5290
Rp5291
sg83
I3
sg38
g5264
sg84
g85
sg86
g11
(g15
S'\x87\x1f\xeeP\x8b\x16\xec?'
p5292
tp5293
Rp5294
sg90
g91
sg92
g93
sbag4
(g5
g6
Ntp5295
Rp5296
(dp5297
g10
g11
(g15
S'\x00\x00\x00\x00\x00\x00\xf8\xff'
p5298
tp5299
Rp5300
sg100
g11
(g45
S'\x05\x00\x00\x00\x00\x00\x00\x00'
p5301
tp5302
Rp5303
sg34
g35
sg36
(dp5304
g100
g5303
sg105
g11
(g15
S'\xed\x8e+\xb5s{4@'
p5305
tp5306
Rp5307
sg42
g11
(g45
S'\x01\x00\x00\x00\x00\x00\x00\x00'
p5308
tp5309
Rp5310
sg112
g11
(g45
S'\x04\x00\x00\x00\x00\x00\x00\x00'
p5311
tp5312
Rp5313
sg116
g11
(g15
S'E>d\x11]\xc7\x16@'
p5314
tp5315
Rp5316
ssg116
g5316
sg51
g11
(g12
(S'S6'
p5317
I0
I1
tp5318
Rp5319
(I3
S'|'
p5320
NNNI6
I1
I0
tp5321
bS'ISOMAP'
p5322
tp5323
Rp5324
sg60
F0.2
sg112
g5313
sg61
g11
(g12
(S'S8'
p5325
I0
I1
tp5326
Rp5327
(I3
S'|'
p5328
NNNI8
I1
I0
tp5329
bS'haralick'
p5330
tp5331
Rp5332
sg105
g5307
sg42
g5310
sg70
g11
(g15
S'\x8d\xe7\xcaWZg\xda?'
p5333
tp5334
Rp5335
sg74
g11
(g12
(S'S3'
p5336
I0
I1
tp5337
Rp5338
(I3
S'|'
p5339
NNNI3
I1
I0
tp5340
bS'SVM'
p5341
tp5342
Rp5343
sg83
I3
sg84
g85
sg86
g11
(g15
S'\xb9#O\xf8\xa5J\xe9?'
p5344
tp5345
Rp5346
sg90
g91
sg92
g93
sbag4
(g5
g6
Ntp5347
Rp5348
(dp5349
g10
g11
(g15
S'\x00\x00\x00\x00\x00\x00\xf8\xff'
p5350
tp5351
Rp5352
sg100
g11
(g45
S'\x03\x00\x00\x00\x00\x00\x00\x00'
p5353
tp5354
Rp5355
sg34
g35
sg36
(dp5356
g100
g5355
sg105
g11
(g15
S'\xd0\x89(\xed.\x9cF@'
p5357
tp5358
Rp5359
sg112
g11
(g45
S'\x04\x00\x00\x00\x00\x00\x00\x00'
p5360
tp5361
Rp5362
sg116
g11
(g15
S'@\xe5+\xb1\x86H\xe8?'
p5363
tp5364
Rp5365
ssg116
g5365
sg51
g11
(g12
(S'S6'
p5366
I0
I1
tp5367
Rp5368
(I3
S'|'
p5369
NNNI6
I1
I0
tp5370
bS'ISOMAP'
p5371
tp5372
Rp5373
sg60
F0.2
sg112
g5362
sg61
g11
(g12
(S'S3'
p5374
I0
I1
tp5375
Rp5376
(I3
S'|'
p5377
NNNI3
I1
I0
tp5378
bS'VGG'
p5379
tp5380
Rp5381
sg105
g5359
sg70
g11
(g15
S'q2A\xc1\xd2%\xd7?'
p5382
tp5383
Rp5384
sg74
g11
(g12
(S'S3'
p5385
I0
I1
tp5386
Rp5387
(I3
S'|'
p5388
NNNI3
I1
I0
tp5389
bS'SVM'
p5390
tp5391
Rp5392
sg83
I3
sg84
g85
sg86
g11
(g15
S'\xa0\xdf^`]c\xeb?'
p5393
tp5394
Rp5395
sg90
g91
sg92
g93
sbag4
(g5
g6
Ntp5396
Rp5397
(dp5398
g10
g11
(g15
S'\x00\x00\x00\x00\x00\x00\xf8\xff'
p5399
tp5400
Rp5401
sg100
g11
(g45
S'\x03\x00\x00\x00\x00\x00\x00\x00'
p5402
tp5403
Rp5404
sg34
g35
sg36
(dp5405
g100
g5404
sg105
g11
(g15
S'\xbe\x8b7\x0b]\xf4G@'
p5406
tp5407
Rp5408
sg42
g11
(g45
S'\x01\x00\x00\x00\x00\x00\x00\x00'
p5409
tp5410
Rp5411
sg112
g11
(g45
S'\x04\x00\x00\x00\x00\x00\x00\x00'
p5412
tp5413
Rp5414
sg116
g11
(g15
S'\xcd\nf\xa6\xd58\x0b@'
p5415
tp5416
Rp5417
ssg116
g5417
sg51
g11
(g12
(S'S6'
p5418
I0
I1
tp5419
Rp5420
(I3
S'|'
p5421
NNNI6
I1
I0
tp5422
bS'ISOMAP'
p5423
tp5424
Rp5425
sg60
F0.2
sg112
g5414
sg61
g11
(g12
(S'S8'
p5426
I0
I1
tp5427
Rp5428
(I3
S'|'
p5429
NNNI8
I1
I0
tp5430
bS'haralick'
p5431
tp5432
Rp5433
sg105
g5408
sg42
g5411
sg70
g11
(g15
S'\xeb\x1e\xb2\x8f\x02\xbc\xdd?'
p5434
tp5435
Rp5436
sg74
g11
(g12
(S'S3'
p5437
I0
I1
tp5438
Rp5439
(I3
S'|'
p5440
NNNI3
I1
I0
tp5441
bS'SVM'
p5442
tp5443
Rp5444
sg83
I3
sg84
g85
sg86
g11
(g15
S'%/\x1aD\xf0\x97\xe8?'
p5445
tp5446
Rp5447
sg90
g91
sg92
g93
sbag4
(g5
g6
Ntp5448
Rp5449
(dp5450
g10
g11
(g15
S'\x00\x00\x00\x00\x00\x00\xf8\xff'
p5451
tp5452
Rp5453
sg21
g11
(g15
S'\x00\x00\x00\x00\x00`m@'
p5454
tp5455
Rp5456
sg25
g33
sg34
g35
sg36
(dp5457
g21
g5456
sg38
g11
(g15
S'\xa2m\xad\xde\x896\xec?'
p5458
tp5459
Rp5460
sg25
g33
ssg51
g11
(g12
(S'S3'
p5461
I0
I1
tp5462
Rp5463
(I3
S'|'
p5464
NNNI3
I1
I0
tp5465
bS'PCA'
p5466
tp5467
Rp5468
sg60
F0.2
sg61
g11
(g12
(S'S3'
p5469
I0
I1
tp5470
Rp5471
(I3
S'|'
p5472
NNNI3
I1
I0
tp5473
bS'VGG'
p5474
tp5475
Rp5476
sg70
g11
(g15
S"O\xb0'=\xf9\x16\xd3?"
p5477
tp5478
Rp5479
sg74
g11
(g12
(S'S2'
p5480
I0
I1
tp5481
Rp5482
(I3
S'|'
p5483
NNNI2
I1
I0
tp5484
bS'RF'
p5485
tp5486
Rp5487
sg83
I3
sg38
g5460
sg84
g85
sg86
g11
(g15
S'\xd1MUFd(\xec?'
p5488
tp5489
Rp5490
sg90
g91
sg92
g93
sbag4
(g5
g6
Ntp5491
Rp5492
(dp5493
g10
g11
(g15
S'\x00\x00\x00\x00\x00\x00\xf8\xff'
p5494
tp5495
Rp5496
sg25
g33
sg34
g35
sg36
(dp5497
g25
g33
sg105
g11
(g15
S'C\xf1\xc7\x8b\x98\xe8A@'
p5498
tp5499
Rp5500
sg42
g11
(g45
S'\x03\x00\x00\x00\x00\x00\x00\x00'
p5501
tp5502
Rp5503
sg116
g11
(g15
S'm\x80Al\x94\x9c\n@'
p5504
tp5505
Rp5506
ssg51
g11
(g12
(S'S3'
p5507
I0
I1
tp5508
Rp5509
(I3
S'|'
p5510
NNNI3
I1
I0
tp5511
bS'PCA'
p5512
tp5513
Rp5514
sg60
F0.2
sg116
g5506
sg61
g11
(g12
(S'S8'
p5515
I0
I1
tp5516
Rp5517
(I3
S'|'
p5518
NNNI8
I1
I0
tp5519
bS'haralick'
p5520
tp5521
Rp5522
sg105
g5500
sg42
g5503
sg70
g11
(g15
S'=\xcaw\xfc\xc6\x0f\xdd?'
p5523
tp5524
Rp5525
sg74
g11
(g12
(S'S3'
p5526
I0
I1
tp5527
Rp5528
(I3
S'|'
p5529
NNNI3
I1
I0
tp5530
bS'SVM'
p5531
tp5532
Rp5533
sg83
I3
sg84
g85
sg86
g11
(g15
S'\xc8\x8d\x02\x19\xecE\xea?'
p5534
tp5535
Rp5536
sg90
g91
sg92
g93
sbag4
(g5
g6
Ntp5537
Rp5538
(dp5539
g10
g11
(g15
S'\x00\x00\x00\x00\x00\x00\xf8\xff'
p5540
tp5541
Rp5542
sg21
g11
(g15
S'\x00\x00\x00\x00\x00`i@'
p5543
tp5544
Rp5545
sg34
g35
sg100
g11
(g45
S'\x07\x00\x00\x00\x00\x00\x00\x00'
p5546
tp5547
Rp5548
sg36
(dp5549
g21
g5545
sg100
g5548
sg42
g11
(g45
S'\x02\x00\x00\x00\x00\x00\x00\x00'
p5550
tp5551
Rp5552
sg112
g11
(g45
S'\x04\x00\x00\x00\x00\x00\x00\x00'
p5553
tp5554
Rp5555
sg38
g11
(g15
S'\xfaon\xfa\xd5\xc5\xd4?'
p5556
tp5557
Rp5558
ssg51
g11
(g12
(S'S6'
p5559
I0
I1
tp5560
Rp5561
(I3
S'|'
p5562
NNNI6
I1
I0
tp5563
bS'ISOMAP'
p5564
tp5565
Rp5566
sg60
F0.2
sg112
g5555
sg61
g11
(g12
(S'S8'
p5567
I0
I1
tp5568
Rp5569
(I3
S'|'
p5570
NNNI8
I1
I0
tp5571
bS'haralick'
p5572
tp5573
Rp5574
sg42
g5552
sg70
g11
(g15
S'\xed\xcf\xa6r\x13\x0c\xe0?'
p5575
tp5576
Rp5577
sg74
g11
(g12
(S'S2'
p5578
I0
I1
tp5579
Rp5580
(I3
S'|'
p5581
NNNI2
I1
I0
tp5582
bS'RF'
p5583
tp5584
Rp5585
sg83
I3
sg38
g5558
sg84
g85
sg86
g11
(g15
S'\xbby\xfd\xf5\x04\xe7\xea?'
p5586
tp5587
Rp5588
sg90
g91
sg92
g93
sbag4
(g5
g6
Ntp5589
Rp5590
(dp5591
g10
g11
(g15
S'\x00\x00\x00\x00\x00\x00\xf8\xff'
p5592
tp5593
Rp5594
sg100
g11
(g45
S'\x04\x00\x00\x00\x00\x00\x00\x00'
p5595
tp5596
Rp5597
sg34
g35
sg36
(dp5598
g100
g5597
sg105
g11
(g15
S'*x\xac\x88VRS@'
p5599
tp5600
Rp5601
sg112
g11
(g45
S'\x02\x00\x00\x00\x00\x00\x00\x00'
p5602
tp5603
Rp5604
sg116
g11
(g15
S'D4L\xdd\xbd`\xf3?'
p5605
tp5606
Rp5607
ssg116
g5607
sg51
g11
(g12
(S'S6'
p5608
I0
I1
tp5609
Rp5610
(I3
S'|'
p5611
NNNI6
I1
I0
tp5612
bS'ISOMAP'
p5613
tp5614
Rp5615
sg60
F0.2
sg112
g5604
sg61
g11
(g12
(S'S3'
p5616
I0
I1
tp5617
Rp5618
(I3
S'|'
p5619
NNNI3
I1
I0
tp5620
bS'VGG'
p5621
tp5622
Rp5623
sg105
g5601
sg70
g11
(g15
S'(S\xff\xf8\xb0\x11\xdb?'
p5624
tp5625
Rp5626
sg74
g11
(g12
(S'S3'
p5627
I0
I1
tp5628
Rp5629
(I3
S'|'
p5630
NNNI3
I1
I0
tp5631
bS'SVM'
p5632
tp5633
Rp5634
sg83
I3
sg84
g85
sg86
g11
(g15
S'\xc4g!\xae\x94\xc7\xe9?'
p5635
tp5636
Rp5637
sg90
g91
sg92
g93
sbag4
(g5
g6
Ntp5638
Rp5639
(dp5640
g10
g11
(g15
S'\x00\x00\x00\x00\x00\x00\xf8\xff'
p5641
tp5642
Rp5643
sg25
g33
sg34
g35
sg36
(dp5644
g25
g33
sg105
g11
(g15
S'4R\x9a\x13\x8f6V@'
p5645
tp5646
Rp5647
sg42
g11
(g45
S'\x02\x00\x00\x00\x00\x00\x00\x00'
p5648
tp5649
Rp5650
sg116
g11
(g15
S'\x81\x15}]i\x94\x19@'
p5651
tp5652
Rp5653
ssg51
g11
(g12
(S'S3'
p5654
I0
I1
tp5655
Rp5656
(I3
S'|'
p5657
NNNI3
I1
I0
tp5658
bS'PCA'
p5659
tp5660
Rp5661
sg60
F0.2
sg116
g5653
sg61
g11
(g12
(S'S8'
p5662
I0
I1
tp5663
Rp5664
(I3
S'|'
p5665
NNNI8
I1
I0
tp5666
bS'haralick'
p5667
tp5668
Rp5669
sg105
g5647
sg42
g5650
sg70
g11
(g15
S'+\x14p\xc2\x940\xdb?'
p5670
tp5671
Rp5672
sg74
g11
(g12
(S'S3'
p5673
I0
I1
tp5674
Rp5675
(I3
S'|'
p5676
NNNI3
I1
I0
tp5677
bS'SVM'
p5678
tp5679
Rp5680
sg83
I3
sg84
g85
sg86
g11
(g15
S'[,\x89\xcfB\\\xe9?'
p5681
tp5682
Rp5683
sg90
g91
sg92
g93
sbag4
(g5
g6
Ntp5684
Rp5685
(dp5686
g10
g11
(g15
S'\x00\x00\x00\x00\x00\x00\xf8\xff'
p5687
tp5688
Rp5689
sg21
g11
(g15
S'\x00\x00\x00\x00\x00`i@'
p5690
tp5691
Rp5692
sg34
g35
sg100
g11
(g45
S'\x03\x00\x00\x00\x00\x00\x00\x00'
p5693
tp5694
Rp5695
sg36
(dp5696
g21
g5692
sg100
g5695
sg112
g11
(g45
S'\x02\x00\x00\x00\x00\x00\x00\x00'
p5697
tp5698
Rp5699
sg38
g11
(g15
S'n*W\xc6\xb8\xf6\xd6?'
p5700
tp5701
Rp5702
ssg51
g11
(g12
(S'S6'
p5703
I0
I1
tp5704
Rp5705
(I3
S'|'
p5706
NNNI6
I1
I0
tp5707
bS'ISOMAP'
p5708
tp5709
Rp5710
sg60
F0.2
sg112
g5699
sg61
g11
(g12
(S'S9'
p5711
I0
I1
tp5712
Rp5713
(I3
S'|'
p5714
NNNI9
I1
I0
tp5715
bS'inception'
p5716
tp5717
Rp5718
sg70
g11
(g15
S'5\xc1\x98\xed\x9c\xac\xf0?'
p5719
tp5720
Rp5721
sg74
g11
(g12
(S'S2'
p5722
I0
I1
tp5723
Rp5724
(I3
S'|'
p5725
NNNI2
I1
I0
tp5726
bS'RF'
p5727
tp5728
Rp5729
sg83
I3
sg38
g5702
sg84
g85
sg86
g11
(g15
S'\xb3O\x15\x8a\xa0s\xe5?'
p5730
tp5731
Rp5732
sg90
g91
sg92
g93
sbag4
(g5
g6
Ntp5733
Rp5734
(dp5735
g10
g11
(g15
S'\x00\x00\x00\x00\x00\x00\xf8\xff'
p5736
tp5737
Rp5738
sg25
g33
sg34
g35
sg36
(dp5739
g25
g33
sg105
g11
(g15
S'\x17\xcc\xef\x1d\xb7\\R@'
p5740
tp5741
Rp5742
sg116
g11
(g15
S'a\x99^\x82\x96:\x0e@'
p5743
tp5744
Rp5745
ssg51
g11
(g12
(S'S3'
p5746
I0
I1
tp5747
Rp5748
(I3
S'|'
p5749
NNNI3
I1
I0
tp5750
bS'PCA'
p5751
tp5752
Rp5753
sg60
F0.2
sg116
g5745
sg61
g11
(g12
(S'S9'
p5754
I0
I1
tp5755
Rp5756
(I3
S'|'
p5757
NNNI9
I1
I0
tp5758
bS'inception'
p5759
tp5760
Rp5761
sg105
g5742
sg70
g11
(g15
S'/\x00\x1cFn\x91\xe0?'
p5762
tp5763
Rp5764
sg74
g11
(g12
(S'S3'
p5765
I0
I1
tp5766
Rp5767
(I3
S'|'
p5768
NNNI3
I1
I0
tp5769
bS'SVM'
p5770
tp5771
Rp5772
sg83
I3
sg84
g85
sg86
g11
(g15
S'\x90\x1c\x036\xd0\x9b\xe4?'
p5773
tp5774
Rp5775
sg90
g91
sg92
g93
sbag4
(g5
g6
Ntp5776
Rp5777
(dp5778
g10
g11
(g15
S'\x00\x00\x00\x00\x00\x00\xf8\xff'
p5779
tp5780
Rp5781
sg21
g11
(g15
S'\x00\x00\x00\x00\x00\x00 @'
p5782
tp5783
Rp5784
sg34
g35
sg100
g11
(g45
S'\x04\x00\x00\x00\x00\x00\x00\x00'
p5785
tp5786
Rp5787
sg36
(dp5788
g21
g5784
sg100
g5787
sg112
g11
(g45
S'\x04\x00\x00\x00\x00\x00\x00\x00'
p5789
tp5790
Rp5791
sg38
g11
(g15
S'Xx\xfaz\x01\x87\xe8?'
p5792
tp5793
Rp5794
ssg51
g11
(g12
(S'S6'
p5795
I0
I1
tp5796
Rp5797
(I3
S'|'
p5798
NNNI6
I1
I0
tp5799
bS'ISOMAP'
p5800
tp5801
Rp5802
sg60
F0.2
sg112
g5791
sg61
g11
(g12
(S'S9'
p5803
I0
I1
tp5804
Rp5805
(I3
S'|'
p5806
NNNI9
I1
I0
tp5807
bS'inception'
p5808
tp5809
Rp5810
sg70
g11
(g15
S'Xbp\x85\x04\xda\x00@'
p5811
tp5812
Rp5813
sg74
g11
(g12
(S'S2'
p5814
I0
I1
tp5815
Rp5816
(I3
S'|'
p5817
NNNI2
I1
I0
tp5818
bS'RF'
p5819
tp5820
Rp5821
sg83
I3
sg38
g5794
sg84
g85
sg86
g11
(g15
S'\xc3\xf2\x92R\xd3\xd1\xe4?'
p5822
tp5823
Rp5824
sg90
g91
sg92
g93
sbag4
(g5
g6
Ntp5825
Rp5826
(dp5827
g10
g11
(g15
S'\x00\x00\x00\x00\x00\x00\xf8\xff'
p5828
tp5829
Rp5830
sg21
g11
(g15
S'\x00\x00\x00\x00\x00`m@'
p5831
tp5832
Rp5833
sg25
g33
sg34
g35
sg36
(dp5834
g21
g5833
sg38
g11
(g15
S'JZ1\xcc\xa8\xa8\xea?'
p5835
tp5836
Rp5837
sg25
g33
sg42
g11
(g45
S'\x03\x00\x00\x00\x00\x00\x00\x00'
p5838
tp5839
Rp5840
ssg51
g11
(g12
(S'S3'
p5841
I0
I1
tp5842
Rp5843
(I3
S'|'
p5844
NNNI3
I1
I0
tp5845
bS'PCA'
p5846
tp5847
Rp5848
sg60
F0.2
sg61
g11
(g12
(S'S8'
p5849
I0
I1
tp5850
Rp5851
(I3
S'|'
p5852
NNNI8
I1
I0
tp5853
bS'haralick'
p5854
tp5855
Rp5856
sg42
g5840
sg70
g11
(g15
S'\x8c\x16\xf8u\x06\x94\xe0?'
p5857
tp5858
Rp5859
sg74
g11
(g12
(S'S2'
p5860
I0
I1
tp5861
Rp5862
(I3
S'|'
p5863
NNNI2
I1
I0
tp5864
bS'RF'
p5865
tp5866
Rp5867
sg83
I3
sg38
g5837
sg84
g85
sg86
g11
(g15
S'\xe7~M\xb0\xeau\xeb?'
p5868
tp5869
Rp5870
sg90
g91
sg92
g93
sbag4
(g5
g6
Ntp5871
Rp5872
(dp5873
g10
g11
(g15
S'\x00\x00\x00\x00\x00\x00\xf8\xff'
p5874
tp5875
Rp5876
sg21
g11
(g15
S'\x00\x00\x00\x00\x00\xc0r@'
p5877
tp5878
Rp5879
sg34
g35
sg100
g11
(g45
S'\x03\x00\x00\x00\x00\x00\x00\x00'
p5880
tp5881
Rp5882
sg36
(dp5883
g21
g5879
sg100
g5882
sg112
g11
(g45
S'\x02\x00\x00\x00\x00\x00\x00\x00'
p5884
tp5885
Rp5886
sg38
g11
(g15
S'z\xbfLb\x95*\xd4?'
p5887
tp5888
Rp5889
ssg51
g11
(g12
(S'S6'
p5890
I0
I1
tp5891
Rp5892
(I3
S'|'
p5893
NNNI6
I1
I0
tp5894
bS'ISOMAP'
p5895
tp5896
Rp5897
sg60
F0.2
sg112
g5886
sg61
g11
(g12
(S'S3'
p5898
I0
I1
tp5899
Rp5900
(I3
S'|'
p5901
NNNI3
I1
I0
tp5902
bS'VGG'
p5903
tp5904
Rp5905
sg70
g11
(g15
S'\xd8\xc3%\xbf`L\xea?'
p5906
tp5907
Rp5908
sg74
g11
(g12
(S'S2'
p5909
I0
I1
tp5910
Rp5911
(I3
S'|'
p5912
NNNI2
I1
I0
tp5913
bS'RF'
p5914
tp5915
Rp5916
sg83
I3
sg38
g5889
sg84
g85
sg86
g11
(g15
S'S\xf3\xaf6)D\xea?'
p5917
tp5918
Rp5919
sg90
g91
sg92
g93
sbag4
(g5
g6
Ntp5920
Rp5921
(dp5922
g10
g11
(g15
S'\x00\x00\x00\x00\x00\x00\xf8\xff'
p5923
tp5924
Rp5925
sg25
g1069
sg34
g35
sg36
(dp5926
g25
g1069
sg105
g11
(g15
S'\x16\x04W1y\x9cC@'
p5927
tp5928
Rp5929
sg116
g11
(g15
S'M\x1d\x9d\xd5\xda\x80\x06@'
p5930
tp5931
Rp5932
ssg51
g11
(g12
(S'S3'
p5933
I0
I1
tp5934
Rp5935
(I3
S'|'
p5936
NNNI3
I1
I0
tp5937
bS'PCA'
p5938
tp5939
Rp5940
sg60
F0.2
sg116
g5932
sg61
g11
(g12
(S'S3'
p5941
I0
I1
tp5942
Rp5943
(I3
S'|'
p5944
NNNI3
I1
I0
tp5945
bS'VGG'
p5946
tp5947
Rp5948
sg105
g5929
sg70
g11
(g15
S'\xc0rz\x08\xd0\x12\xd8?'
p5949
tp5950
Rp5951
sg74
g11
(g12
(S'S3'
p5952
I0
I1
tp5953
Rp5954
(I3
S'|'
p5955
NNNI3
I1
I0
tp5956
bS'SVM'
p5957
tp5958
Rp5959
sg83
I3
sg84
g85
sg86
g11
(g15
S'm\xd9\x01\xb1R\x0f\xea?'
p5960
tp5961
Rp5962
sg90
g91
sg92
g93
sbasS'error_curve'
p5963
(lp5964
g73
ag138
ag138
ag138
ag181
ag181
ag230
ag230
ag230
ag230
ag230
ag230
ag230
ag230
ag230
ag230
ag230
ag230
ag230
ag230
ag230
ag230
ag279
ag279
ag279
ag279
ag279
ag279
ag279
ag279
ag279
ag279
ag279
ag279
ag279
ag279
ag279
ag279
ag279
ag279
ag279
ag279
ag279
ag279
ag322
ag322
ag322
ag322
ag322
ag322
ag322
ag322
ag322
ag322
ag322
ag322
ag322
ag322
ag322
ag322
ag322
ag322
ag322
ag322
ag322
ag322
ag322
ag322
ag322
ag322
ag365
ag365
ag408
ag408
ag408
ag408
ag408
ag408
ag408
ag408
ag408
ag408
ag408
ag408
ag408
ag408
ag408
ag408
ag408
ag408
ag408
ag408
ag408
ag408
ag408
ag408
ag408
ag408
ag408
ag408
ag408
ag408
ag408
ag408
ag408
ag408
ag408
ag408
ag408
ag408
ag408
ag408
ag408
ag408
ag408
ag408
ag408
ag408
ag408
ag408
ag408
ag408
ag408
ag408
ag408
asS'iters'
p5965
I51
sg34
g35
sS'results_loc'
p5966
S'/gpfs/u/home/CGHI/CGHIarch/barn/EP_project/results/'
p5967
sS'times'
p5968
(lp5969
F16.959698915481567
aF33.88660788536072
aF52.21480894088745
aF69.01815295219421
aF69.28048300743103
aF69.54723882675171
aF70.36870098114014
aF87.1981749534607
aF87.46324682235718
aF88.41528797149658
aF89.33289790153503
aF92.56496000289917
aF108.94828391075134
aF127.07543897628784
aF128.04516196250916
aF128.91927289962769
aF149.52010583877563
aF150.38278794288635
aF167.17645001411438
aF167.45640397071838
aF167.73646092414856
aF168.01283884048462
aF168.9379780292511
aF169.231605052948
aF185.91173005104065
aF186.1773920059204
aF202.7597620487213
aF203.01925802230835
aF221.49904203414917
aF239.52514505386353
aF257.03257989883423
aF259.19927883148193
aF259.473513841629
aF260.407105922699
aF263.5713438987732
aF266.49743700027466
aF287.0856659412384
aF287.36860704421997
aF305.5264608860016
aF323.2872269153595
aF324.1617839336395
aF326.8432698249817
aF327.9681398868561
aF328.9307909011841
aF329.84049582481384
aF330.1041798591614
aF348.2811779975891
aF365.20976090431213
aF384.041100025177
aF401.4404239654541
aF420.076956987381
aF421.77467799186707
aF422.7187190055847
aF423.55766701698303
aF425.75367999076843
aF426.68108105659485
aF427.57419991493225
aF428.39138889312744
aF428.67195105552673
aF446.3158538341522
aF464.7563099861145
aF465.6377649307251
aF466.1472189426422
aF483.40495896339417
aF500.66223096847534
aF500.91166400909424
aF517.5711619853973
aF517.8244609832764
aF534.3761608600616
aF535.4110698699951
aF536.9754688739777
aF554.846941947937
aF556.7230429649353
aF557.550087928772
aF560.2821099758148
aF560.5423119068146
aF577.04856300354
aF593.6655850410461
aF610.2335999011993
aF628.9048140048981
aF629.7417030334473
aF632.0638220310211
aF633.0169129371643
aF635.2329108715057
aF635.481262922287
aF637.7087278366089
aF655.1785838603973
aF657.3818619251251
aF673.9429709911346
aF674.534600019455
aF676.5776660442352
aF677.9351320266724
aF678.9098949432373
aF679.1786408424377
aF681.0675599575043
aF682.0134489536285
aF682.275228023529
aF698.8330450057983
aF717.2955949306488
aF735.0166389942169
aF735.2526750564575
aF735.5219118595123
aF738.0874719619751
aF740.1999728679657
aF756.7879419326782
aF757.6619379520416
aF759.1575880050659
aF761.533686876297
aF779.8108608722687
aF780.8144779205322
aF781.7191319465637
aF799.3065629005432
aF800.1410918235779
aF817.4465579986572
aF820.152382850647
aF837.1434998512268
aF855.8616189956665
aF856.7327418327332
aF873.6807539463043
aF876.0651860237122
aF876.3212208747864
aF877.2593350410461
aF895.7211639881134
aF898.8481669425964
aF899.1120970249176
asS'data_loc'
p5970
g93
sS'run'
p5971
I4
sg90
S'random_MCMC'
p5972
sb.