(iprototypes.random_based_mcmc1
random_MCMC
p0
(dp1
S'best_pipelines'
p2
(lp3
ccopy_reg
_reconstructor
p4
(cprototypes.data_analytic_pipeline
image_classification_pipeline
p5
c__builtin__
object
p6
Ntp7
Rp8
(dp9
S'f1_score'
p10
cnumpy.core.multiarray
scalar
p11
(cnumpy
dtype
p12
(S'f8'
p13
I0
I1
tp14
Rp15
(I3
S'<'
p16
NNNI-1
I-1
I0
tp17
bS'\x00\x00\x00\x00\x00\x00\xf8\xff'
p18
tp19
Rp20
sS'pca_whiten'
p21
g11
(g12
(S'b1'
p22
I0
I1
tp23
Rp24
(I3
S'|'
p25
NNNI-1
I-1
I0
tp26
bS'\x01'
p27
tp28
Rp29
sS'data_name'
p30
S'bone'
p31
sS'kwargs'
p32
(dp33
g21
g29
sS'svm_C'
p34
g11
(g15
S'\x06`\xd8\xa1\xab]U@'
p35
tp36
Rp37
sS'svm_gamma'
p38
g11
(g15
S'\x1ecT\xd2\x0fY\x14@'
p39
tp40
Rp41
ssS'dimensionality_reduction'
p42
g11
(g12
(S'S3'
p43
I0
I1
tp44
Rp45
(I3
S'|'
p46
NNNI3
I1
I0
tp47
bS'PCA'
p48
tp49
Rp50
sS'test_size'
p51
F0.2
sg38
g41
sS'feature_extraction'
p52
g11
(g12
(S'S9'
p53
I0
I1
tp54
Rp55
(I3
S'|'
p56
NNNI9
I1
I0
tp57
bS'inception'
p58
tp59
Rp60
sg34
g37
sS'result'
p61
g11
(g15
S'?\x7f\x04\xa1\xc5\xc1\xe0?'
p62
tp63
Rp64
sS'learning_algorithm'
p65
g11
(g12
(S'S3'
p66
I0
I1
tp67
Rp68
(I3
S'|'
p69
NNNI3
I1
I0
tp70
bS'SVM'
p71
tp72
Rp73
sS'val_splits'
p74
I3
sS'ml_type'
p75
S'validation'
p76
sS'accuracy'
p77
g11
(g15
S'\x0b\xc5\xadP\xdc\n\xe5?'
p78
tp79
Rp80
sS'type1'
p81
S'random1'
p82
sS'data_location'
p83
S'/gpfs/u/home/CGHI/CGHIarch/barn/EP_project/data/'
p84
sbag4
(g5
g6
Ntp85
Rp86
(dp87
g10
g11
(g15
S'\x00\x00\x00\x00\x00\x00\xf8\xff'
p88
tp89
Rp90
sg21
g29
sg30
g31
sg32
(dp91
g21
g29
sg34
g11
(g15
S'\xb8\xb9\xf8\xfb\xc4\x94P@'
p92
tp93
Rp94
sS'haralick_distance'
p95
g11
(g12
(S'i8'
p96
I0
I1
tp97
Rp98
(I3
S'<'
p99
NNNI-1
I-1
I0
tp100
bS'\x01\x00\x00\x00\x00\x00\x00\x00'
p101
tp102
Rp103
sg38
g11
(g15
S'\xf3\x05\t\x9d\x9dl\x15@'
p104
tp105
Rp106
ssg42
g11
(g12
(S'S3'
p107
I0
I1
tp108
Rp109
(I3
S'|'
p110
NNNI3
I1
I0
tp111
bS'PCA'
p112
tp113
Rp114
sg51
F0.2
sg38
g106
sg52
g11
(g12
(S'S8'
p115
I0
I1
tp116
Rp117
(I3
S'|'
p118
NNNI8
I1
I0
tp119
bS'haralick'
p120
tp121
Rp122
sg34
g94
sg95
g103
sg61
g11
(g15
S'w\xa87\xb6\\\xb5\xde?'
p123
tp124
Rp125
sg65
g11
(g12
(S'S3'
p126
I0
I1
tp127
Rp128
(I3
S'|'
p129
NNNI3
I1
I0
tp130
bS'SVM'
p131
tp132
Rp133
sg74
I3
sg75
g76
sg77
g11
(g15
S'\x1f|\xf0\xc1\x07\x1f\xe4?'
p134
tp135
Rp136
sg81
g82
sg83
g84
sbag4
(g5
g6
Ntp137
Rp138
(dp139
g10
g11
(g15
S'\x00\x00\x00\x00\x00\x00\xf8\xff'
p140
tp141
Rp142
sg21
g11
(g24
S'\x00'
p143
tp144
Rp145
sg30
g31
sg32
(dp146
g21
g145
sg34
g11
(g15
S'\xcc\x94\xee\xc5o\xc71@'
p147
tp148
Rp149
sg95
g11
(g98
S'\x01\x00\x00\x00\x00\x00\x00\x00'
p150
tp151
Rp152
sg38
g11
(g15
S'\xcb(Rp2\xd1\x0f@'
p153
tp154
Rp155
ssg42
g11
(g12
(S'S3'
p156
I0
I1
tp157
Rp158
(I3
S'|'
p159
NNNI3
I1
I0
tp160
bS'PCA'
p161
tp162
Rp163
sg51
F0.2
sg38
g155
sg52
g11
(g12
(S'S8'
p164
I0
I1
tp165
Rp166
(I3
S'|'
p167
NNNI8
I1
I0
tp168
bS'haralick'
p169
tp170
Rp171
sg34
g149
sg95
g152
sg61
g11
(g15
S'\xd3\x8a\xb1\x99~\x83\xdc?'
p172
tp173
Rp174
sg65
g11
(g12
(S'S3'
p175
I0
I1
tp176
Rp177
(I3
S'|'
p178
NNNI3
I1
I0
tp179
bS'SVM'
p180
tp181
Rp182
sg74
I3
sg75
g76
sg77
g11
(g15
S'\xa4^G\xeau\xa4\xe6?'
p183
tp184
Rp185
sg81
g82
sg83
g84
sbag4
(g5
g6
Ntp186
Rp187
(dp188
g10
g11
(g15
S'\x00\x00\x00\x00\x00\x00\xf8\xff'
p189
tp190
Rp191
sS'n_estimators'
p192
g11
(g15
S'\x00\x00\x00\x00\x00`m@'
p193
tp194
Rp195
sg21
g29
sg30
g31
sg32
(dp196
g192
g195
sS'max_features'
p197
g11
(g15
S'\xcdU\x91P\xa9\xa4\xe2?'
p198
tp199
Rp200
sg21
g29
ssg42
g11
(g12
(S'S3'
p201
I0
I1
tp202
Rp203
(I3
S'|'
p204
NNNI3
I1
I0
tp205
bS'PCA'
p206
tp207
Rp208
sg51
F0.2
sg52
g11
(g12
(S'S3'
p209
I0
I1
tp210
Rp211
(I3
S'|'
p212
NNNI3
I1
I0
tp213
bS'VGG'
p214
tp215
Rp216
sg61
g11
(g15
S'\x8d[!h\x82\x81\xdb?'
p217
tp218
Rp219
sg65
g11
(g12
(S'S2'
p220
I0
I1
tp221
Rp222
(I3
S'|'
p223
NNNI2
I1
I0
tp224
bS'RF'
p225
tp226
Rp227
sg74
I3
sg197
g200
sg75
g76
sg77
g11
(g15
S'\x91z\x1d\xa9\xd7\x91\xea?'
p228
tp229
Rp230
sg81
g82
sg83
g84
sbag4
(g5
g6
Ntp231
Rp232
(dp233
g10
g11
(g15
S'\x00\x00\x00\x00\x00\x00\xf8\xff'
p234
tp235
Rp236
sg192
g11
(g15
S'\x00\x00\x00\x00\x00`m@'
p237
tp238
Rp239
sg21
g145
sg30
g31
sg32
(dp240
g192
g239
sg197
g11
(g15
S'i\xf5\xec\xf9\xdb\x17\xd4?'
p241
tp242
Rp243
sg21
g145
sg95
g11
(g98
S'\x03\x00\x00\x00\x00\x00\x00\x00'
p244
tp245
Rp246
ssg42
g11
(g12
(S'S3'
p247
I0
I1
tp248
Rp249
(I3
S'|'
p250
NNNI3
I1
I0
tp251
bS'PCA'
p252
tp253
Rp254
sg51
F0.2
sg52
g11
(g12
(S'S8'
p255
I0
I1
tp256
Rp257
(I3
S'|'
p258
NNNI8
I1
I0
tp259
bS'haralick'
p260
tp261
Rp262
sg95
g246
sg61
g11
(g15
S'\xffv\xdcgxC\xd7?'
p263
tp264
Rp265
sg65
g11
(g12
(S'S2'
p266
I0
I1
tp267
Rp268
(I3
S'|'
p269
NNNI2
I1
I0
tp270
bS'RF'
p271
tp272
Rp273
sg74
I3
sg197
g243
sg75
g76
sg77
g11
(g15
S'\x9d\x12\xe4)A\x9e\xea?'
p274
tp275
Rp276
sg81
g82
sg83
g84
sbag4
(g5
g6
Ntp277
Rp278
(dp279
g10
g11
(g15
S'\x00\x00\x00\x00\x00\x00\xf8\xff'
p280
tp281
Rp282
sg192
g11
(g15
S'\x00\x00\x00\x00\x00`m@'
p283
tp284
Rp285
sg21
g29
sg30
g31
sg32
(dp286
g192
g285
sg197
g11
(g15
S'\xb3F\x83\xf2\xa9(\xdd?'
p287
tp288
Rp289
sg21
g29
sg95
g11
(g98
S'\x03\x00\x00\x00\x00\x00\x00\x00'
p290
tp291
Rp292
ssg42
g11
(g12
(S'S3'
p293
I0
I1
tp294
Rp295
(I3
S'|'
p296
NNNI3
I1
I0
tp297
bS'PCA'
p298
tp299
Rp300
sg51
F0.2
sg52
g11
(g12
(S'S8'
p301
I0
I1
tp302
Rp303
(I3
S'|'
p304
NNNI8
I1
I0
tp305
bS'haralick'
p306
tp307
Rp308
sg95
g292
sg61
g11
(g15
S'\xa5\x96E\xce\xef\xd1\xd6?'
p309
tp310
Rp311
sg65
g11
(g12
(S'S2'
p312
I0
I1
tp313
Rp314
(I3
S'|'
p315
NNNI2
I1
I0
tp316
bS'RF'
p317
tp318
Rp319
sg74
I3
sg197
g289
sg75
g76
sg77
g11
(g15
S'\x1b\x03\xa61`\x1a\xeb?'
p320
tp321
Rp322
sg81
g82
sg83
g84
sbag4
(g5
g6
Ntp323
Rp324
(dp325
g10
g11
(g15
S'\x00\x00\x00\x00\x00\x00\xf8\xff'
p326
tp327
Rp328
sg192
g11
(g15
S'\x00\x00\x00\x00\x00`m@'
p329
tp330
Rp331
sg21
g29
sg30
g31
sg32
(dp332
g192
g331
sg197
g11
(g15
S'\ts\x12\xbc\xabs\xe0?'
p333
tp334
Rp335
sg21
g29
sg95
g11
(g98
S'\x03\x00\x00\x00\x00\x00\x00\x00'
p336
tp337
Rp338
ssg42
g11
(g12
(S'S3'
p339
I0
I1
tp340
Rp341
(I3
S'|'
p342
NNNI3
I1
I0
tp343
bS'PCA'
p344
tp345
Rp346
sg51
F0.2
sg52
g11
(g12
(S'S8'
p347
I0
I1
tp348
Rp349
(I3
S'|'
p350
NNNI8
I1
I0
tp351
bS'haralick'
p352
tp353
Rp354
sg95
g338
sg61
g11
(g15
S'\x90y\xc0+\x03\xa2\xd6?'
p355
tp356
Rp357
sg65
g11
(g12
(S'S2'
p358
I0
I1
tp359
Rp360
(I3
S'|'
p361
NNNI2
I1
I0
tp362
bS'RF'
p363
tp364
Rp365
sg74
I3
sg197
g335
sg75
g76
sg77
g11
(g15
S'\x1b\x03\xa61`\x1a\xeb?'
p366
tp367
Rp368
sg81
g82
sg83
g84
sbasS'paths'
p369
(lp370
(lp371
S'VGG'
p372
aS'PCA'
p373
aS'SVM'
p374
aa(lp375
g372
ag373
aS'RF'
p376
aa(lp377
g372
aS'ISOMAP'
p378
ag374
aa(lp379
g372
ag378
ag376
aa(lp380
S'haralick'
p381
ag373
ag374
aa(lp382
g381
ag373
ag376
aa(lp383
g381
ag378
ag374
aa(lp384
g381
ag378
ag376
aa(lp385
S'inception'
p386
ag373
ag374
aa(lp387
g386
ag373
ag376
aa(lp388
g386
ag378
ag374
aa(lp389
g386
ag378
ag376
aasS'pipeline'
p390
(dp391
S'n_neighbors'
p392
(lp393
I3
aI4
aI5
aI6
aI7
asg21
(lp394
I01
aI00
asg192
cnumpy.core.multiarray
_reconstruct
p395
(cnumpy
ndarray
p396
(I0
tp397
S'b'
p398
tp399
Rp400
(I1
(I10
tp401
g15
I00
S'\x00\x00\x00\x00\x00\x00 @\x00\x00\x00\x00\x00\x00D@\x00\x00\x00\x00\x00@R@\x00\x00\x00\x00\x00@Z@\x00\x00\x00\x00\x00@a@\x00\x00\x00\x00\x00@e@\x00\x00\x00\x00\x00`i@\x00\x00\x00\x00\x00`m@\x00\x00\x00\x00\x00\xc0p@\x00\x00\x00\x00\x00\xc0r@'
p402
tp403
bsg42
(lp404
g373
ag378
asg38
g395
(g396
(I0
tp405
g398
tp406
Rp407
(I1
(I10
tp408
g15
I00
S"{\x14\xaeG\xe1z\x84?\x102Tv\x98\xba\xec?\xe7\xd5\xc4\xb3\xa2\x91\xfc?b\xc9/\x96\xfcb\x05@\xd2'}\xd2'}\x0c@!Ce\x87\xa9\xcb\x11@X\xf2\x8b%\xbfX\x15@\x90\xa1\xb2\xc3\xd4\xe5\x18@\xc8P\xd9a\xear\x1c@\x00\x00\x00\x00\x00\x00 @"
p409
tp410
bsg52
(lp411
g372
ag381
ag386
asg95
(lp412
I1
aI2
aI3
asS'n_components'
p413
(lp414
I2
aI3
aI4
asg65
(lp415
g374
ag376
asg197
g395
(g396
(I0
tp416
g398
tp417
Rp418
(I1
(I5
tp419
g15
I00
S'333333\xd3?\x9a\x99\x99\x99\x99\x99\xd9?\x00\x00\x00\x00\x00\x00\xe0?433333\xe3?hfffff\xe6?'
p420
tp421
bsg34
g395
(g396
(I0
tp422
g398
tp423
Rp424
(I1
(I10
tp425
g15
I00
S'\x9a\x99\x99\x99\x99\x99\xb9?gfffff&@\xce\xcc\xcc\xcc\xccL6@43333\xb3@@\x01\x00\x00\x00\x00@F@\xce\xcc\xcc\xcc\xcc\xccK@\xcd\xcc\xcc\xcc\xcc\xacP@43333sS@\x9a\x99\x99\x99\x999V@\x00\x00\x00\x00\x00\x00Y@'
p426
tp427
bssS'pipelines'
p428
(lp429
g8
ag4
(g5
g6
Ntp430
Rp431
(dp432
g10
g11
(g15
S'\x00\x00\x00\x00\x00\x00\xf8\xff'
p433
tp434
Rp435
sg192
g11
(g15
S'\x00\x00\x00\x00\x00\xc0p@'
p436
tp437
Rp438
sg30
g31
sg392
g11
(g98
S'\x03\x00\x00\x00\x00\x00\x00\x00'
p439
tp440
Rp441
sg32
(dp442
g192
g438
sg392
g441
sg413
g11
(g98
S'\x04\x00\x00\x00\x00\x00\x00\x00'
p443
tp444
Rp445
sg197
g11
(g15
S'\x0615\xe9\xbe%\xe5?'
p446
tp447
Rp448
ssg42
g11
(g12
(S'S6'
p449
I0
I1
tp450
Rp451
(I3
S'|'
p452
NNNI6
I1
I0
tp453
bS'ISOMAP'
p454
tp455
Rp456
sg51
F0.2
sg413
g445
sg52
g11
(g12
(S'S9'
p457
I0
I1
tp458
Rp459
(I3
S'|'
p460
NNNI9
I1
I0
tp461
bS'inception'
p462
tp463
Rp464
sg61
g11
(g15
S'\x0bzHd\xbb$\xf2?'
p465
tp466
Rp467
sg65
g11
(g12
(S'S2'
p468
I0
I1
tp469
Rp470
(I3
S'|'
p471
NNNI2
I1
I0
tp472
bS'RF'
p473
tp474
Rp475
sg74
I3
sg197
g448
sg75
g76
sg77
g11
(g15
S'\x1c\xd6\xbea\xed\x1b\xe6?'
p476
tp477
Rp478
sg81
g82
sg83
g84
sbag86
ag4
(g5
g6
Ntp479
Rp480
(dp481
g10
g11
(g15
S'\x00\x00\x00\x00\x00\x00\xf8\xff'
p482
tp483
Rp484
sg21
g145
sg30
g31
sg32
(dp485
g21
g145
sg34
g11
(g15
S'\xe1[\xed\xce\xd3\xa4\x11@'
p486
tp487
Rp488
sg38
g11
(g15
S'\x96\xb5 \xcfj\xc0\x12@'
p489
tp490
Rp491
ssg42
g11
(g12
(S'S3'
p492
I0
I1
tp493
Rp494
(I3
S'|'
p495
NNNI3
I1
I0
tp496
bS'PCA'
p497
tp498
Rp499
sg51
F0.2
sg38
g491
sg52
g11
(g12
(S'S9'
p500
I0
I1
tp501
Rp502
(I3
S'|'
p503
NNNI9
I1
I0
tp504
bS'inception'
p505
tp506
Rp507
sg34
g488
sg61
g11
(g15
S'\xf5\xcb\xa46\x1f\t\xe2?'
p508
tp509
Rp510
sg65
g11
(g12
(S'S3'
p511
I0
I1
tp512
Rp513
(I3
S'|'
p514
NNNI3
I1
I0
tp515
bS'SVM'
p516
tp517
Rp518
sg74
I3
sg75
g76
sg77
g11
(g15
S'\x8f\xd4\xebH\xbd\x8e\xe4?'
p519
tp520
Rp521
sg81
g82
sg83
g84
sbag4
(g5
g6
Ntp522
Rp523
(dp524
g10
g11
(g15
S'\x00\x00\x00\x00\x00\x00\xf8\xff'
p525
tp526
Rp527
sg21
g145
sg30
g31
sg32
(dp528
g21
g145
sg34
g11
(g15
S'\t\xf6\xf5\x81\x14\x14A@'
p529
tp530
Rp531
sg95
g11
(g98
S'\x03\x00\x00\x00\x00\x00\x00\x00'
p532
tp533
Rp534
sg38
g11
(g15
S'\xa3\x13\x05\xa3\x92\xbc\xdf?'
p535
tp536
Rp537
ssg42
g11
(g12
(S'S3'
p538
I0
I1
tp539
Rp540
(I3
S'|'
p541
NNNI3
I1
I0
tp542
bS'PCA'
p543
tp544
Rp545
sg51
F0.2
sg38
g537
sg52
g11
(g12
(S'S8'
p546
I0
I1
tp547
Rp548
(I3
S'|'
p549
NNNI8
I1
I0
tp550
bS'haralick'
p551
tp552
Rp553
sg34
g531
sg95
g534
sg61
g11
(g15
S'\xfd\xdd\xec\x92\x08\xcd\xdf?'
p554
tp555
Rp556
sg65
g11
(g12
(S'S3'
p557
I0
I1
tp558
Rp559
(I3
S'|'
p560
NNNI3
I1
I0
tp561
bS'SVM'
p562
tp563
Rp564
sg74
I3
sg75
g76
sg77
g11
(g15
S'\x17]t\xd1E\x17\xe5?'
p565
tp566
Rp567
sg81
g82
sg83
g84
sbag4
(g5
g6
Ntp568
Rp569
(dp570
g10
g11
(g15
S'\x00\x00\x00\x00\x00\x00\xf8\xff'
p571
tp572
Rp573
sg192
g11
(g15
S'\x00\x00\x00\x00\x00\xc0p@'
p574
tp575
Rp576
sg30
g31
sg392
g11
(g98
S'\x05\x00\x00\x00\x00\x00\x00\x00'
p577
tp578
Rp579
sg32
(dp580
g192
g576
sg392
g579
sg413
g11
(g98
S'\x02\x00\x00\x00\x00\x00\x00\x00'
p581
tp582
Rp583
sg197
g11
(g15
S'\xca\x93a\x1c|\x8d\xd9?'
p584
tp585
Rp586
ssg42
g11
(g12
(S'S6'
p587
I0
I1
tp588
Rp589
(I3
S'|'
p590
NNNI6
I1
I0
tp591
bS'ISOMAP'
p592
tp593
Rp594
sg51
F0.2
sg413
g583
sg52
g11
(g12
(S'S9'
p595
I0
I1
tp596
Rp597
(I3
S'|'
p598
NNNI9
I1
I0
tp599
bS'inception'
p600
tp601
Rp602
sg61
g11
(g15
S'\xbe\x9aV\x85\xad\xde\xf0?'
p603
tp604
Rp605
sg65
g11
(g12
(S'S2'
p606
I0
I1
tp607
Rp608
(I3
S'|'
p609
NNNI2
I1
I0
tp610
bS'RF'
p611
tp612
Rp613
sg74
I3
sg197
g586
sg75
g76
sg77
g11
(g15
S'\x15\xb7Bq+\x14\xe7?'
p614
tp615
Rp616
sg81
g82
sg83
g84
sbag138
ag4
(g5
g6
Ntp617
Rp618
(dp619
g10
g11
(g15
S'\x00\x00\x00\x00\x00\x00\xf8\xff'
p620
tp621
Rp622
sg21
g29
sg30
g31
sg32
(dp623
g21
g29
sg34
g11
(g15
S'\xc9\xb8">P3!@'
p624
tp625
Rp626
sg95
g11
(g98
S'\x03\x00\x00\x00\x00\x00\x00\x00'
p627
tp628
Rp629
sg38
g11
(g15
S'\x89R\xe18\xdf\xba\x0f@'
p630
tp631
Rp632
ssg42
g11
(g12
(S'S3'
p633
I0
I1
tp634
Rp635
(I3
S'|'
p636
NNNI3
I1
I0
tp637
bS'PCA'
p638
tp639
Rp640
sg51
F0.2
sg38
g632
sg52
g11
(g12
(S'S8'
p641
I0
I1
tp642
Rp643
(I3
S'|'
p644
NNNI8
I1
I0
tp645
bS'haralick'
p646
tp647
Rp648
sg34
g626
sg95
g629
sg61
g11
(g15
S'\x85lr[K9\xe0?'
p649
tp650
Rp651
sg65
g11
(g12
(S'S3'
p652
I0
I1
tp653
Rp654
(I3
S'|'
p655
NNNI3
I1
I0
tp656
bS'SVM'
p657
tp658
Rp659
sg74
I3
sg75
g76
sg77
g11
(g15
S'\x9bl\xb2\xc9&\x9b\xe4?'
p660
tp661
Rp662
sg81
g82
sg83
g84
sbag4
(g5
g6
Ntp663
Rp664
(dp665
g10
g11
(g15
S'\x00\x00\x00\x00\x00\x00\xf8\xff'
p666
tp667
Rp668
sg21
g29
sg30
g31
sg32
(dp669
g21
g29
sg34
g11
(g15
S'\x0f\xb9IPy\x96K@'
p670
tp671
Rp672
sg38
g11
(g15
S'\xf0\xc9\xf7\x84\xcb\xe0\xf5?'
p673
tp674
Rp675
ssg42
g11
(g12
(S'S3'
p676
I0
I1
tp677
Rp678
(I3
S'|'
p679
NNNI3
I1
I0
tp680
bS'PCA'
p681
tp682
Rp683
sg51
F0.2
sg38
g675
sg52
g11
(g12
(S'S9'
p684
I0
I1
tp685
Rp686
(I3
S'|'
p687
NNNI9
I1
I0
tp688
bS'inception'
p689
tp690
Rp691
sg34
g672
sg61
g11
(g15
S'\x00\xfe\xaaa[@\xe6?'
p692
tp693
Rp694
sg65
g11
(g12
(S'S3'
p695
I0
I1
tp696
Rp697
(I3
S'|'
p698
NNNI3
I1
I0
tp699
bS'SVM'
p700
tp701
Rp702
sg74
I3
sg75
g76
sg77
g11
(g15
S'\x8e\xd4\xebH\xbd\x8e\xe4?'
p703
tp704
Rp705
sg81
g82
sg83
g84
sbag4
(g5
g6
Ntp706
Rp707
(dp708
g10
g11
(g15
S'\x00\x00\x00\x00\x00\x00\xf8\xff'
p709
tp710
Rp711
sg192
g11
(g15
S'\x00\x00\x00\x00\x00`i@'
p712
tp713
Rp714
sg30
g31
sg392
g11
(g98
S'\x03\x00\x00\x00\x00\x00\x00\x00'
p715
tp716
Rp717
sg32
(dp718
g192
g714
sg392
g717
sg413
g11
(g98
S'\x03\x00\x00\x00\x00\x00\x00\x00'
p719
tp720
Rp721
sg197
g11
(g15
S'j\x860V\xb1\x05\xe6?'
p722
tp723
Rp724
ssg42
g11
(g12
(S'S6'
p725
I0
I1
tp726
Rp727
(I3
S'|'
p728
NNNI6
I1
I0
tp729
bS'ISOMAP'
p730
tp731
Rp732
sg51
F0.2
sg413
g721
sg52
g11
(g12
(S'S9'
p733
I0
I1
tp734
Rp735
(I3
S'|'
p736
NNNI9
I1
I0
tp737
bS'inception'
p738
tp739
Rp740
sg61
g11
(g15
S'_\xbb\xce\xf0E!\xe8?'
p741
tp742
Rp743
sg65
g11
(g12
(S'S2'
p744
I0
I1
tp745
Rp746
(I3
S'|'
p747
NNNI2
I1
I0
tp748
bS'RF'
p749
tp750
Rp751
sg74
I3
sg197
g724
sg75
g76
sg77
g11
(g15
S'\x87\xb5oX\xfb\x86\xe5?'
p752
tp753
Rp754
sg81
g82
sg83
g84
sbag4
(g5
g6
Ntp755
Rp756
(dp757
g10
g11
(g15
S'\x00\x00\x00\x00\x00\x00\xf8\xff'
p758
tp759
Rp760
sg392
g11
(g98
S'\x05\x00\x00\x00\x00\x00\x00\x00'
p761
tp762
Rp763
sg30
g31
sg32
(dp764
g392
g763
sg34
g11
(g15
S'\xce:\x7fD\xf7N(@'
p765
tp766
Rp767
sg413
g11
(g98
S'\x03\x00\x00\x00\x00\x00\x00\x00'
p768
tp769
Rp770
sg38
g11
(g15
S'[%T\xae]P\x18@'
p771
tp772
Rp773
ssg38
g773
sg42
g11
(g12
(S'S6'
p774
I0
I1
tp775
Rp776
(I3
S'|'
p777
NNNI6
I1
I0
tp778
bS'ISOMAP'
p779
tp780
Rp781
sg51
F0.2
sg413
g770
sg52
g11
(g12
(S'S9'
p782
I0
I1
tp783
Rp784
(I3
S'|'
p785
NNNI9
I1
I0
tp786
bS'inception'
p787
tp788
Rp789
sg34
g767
sg61
g11
(g15
S'\x07%$\xdb\x19\xe5\xe3?'
p790
tp791
Rp792
sg65
g11
(g12
(S'S3'
p793
I0
I1
tp794
Rp795
(I3
S'|'
p796
NNNI3
I1
I0
tp797
bS'SVM'
p798
tp799
Rp800
sg74
I3
sg75
g76
sg77
g11
(g15
S'\xff,\xe7\xcfr\xfe\xe4?'
p801
tp802
Rp803
sg81
g82
sg83
g84
sbag4
(g5
g6
Ntp804
Rp805
(dp806
g10
g11
(g15
S'\x00\x00\x00\x00\x00\x00\xf8\xff'
p807
tp808
Rp809
sg21
g145
sg30
g31
sg32
(dp810
g21
g145
sg34
g11
(g15
S'\x19^2\x0b\xa6\x8aR@'
p811
tp812
Rp813
sg38
g11
(g15
S'\x052i\xd9\xb1\xc7\x0f@'
p814
tp815
Rp816
ssg42
g11
(g12
(S'S3'
p817
I0
I1
tp818
Rp819
(I3
S'|'
p820
NNNI3
I1
I0
tp821
bS'PCA'
p822
tp823
Rp824
sg51
F0.2
sg38
g816
sg52
g11
(g12
(S'S3'
p825
I0
I1
tp826
Rp827
(I3
S'|'
p828
NNNI3
I1
I0
tp829
bS'VGG'
p830
tp831
Rp832
sg34
g813
sg61
g11
(g15
S'\r5%D\xde\xe6\xe0?'
p833
tp834
Rp835
sg65
g11
(g12
(S'S3'
p836
I0
I1
tp837
Rp838
(I3
S'|'
p839
NNNI3
I1
I0
tp840
bS'SVM'
p841
tp842
Rp843
sg74
I3
sg75
g76
sg77
g11
(g15
S'\x05yJ\x90\xa7\x04\xe9?'
p844
tp845
Rp846
sg81
g82
sg83
g84
sbag4
(g5
g6
Ntp847
Rp848
(dp849
g10
g11
(g15
S'\x00\x00\x00\x00\x00\x00\xf8\xff'
p850
tp851
Rp852
sg21
g29
sg30
g31
sg32
(dp853
g21
g29
sg34
g11
(g15
S'\xb4\x89\x1a\xae\xaa\x10H@'
p854
tp855
Rp856
sg38
g11
(g15
S'\x05F\xc1\x81S\xf1\x1e@'
p857
tp858
Rp859
ssg42
g11
(g12
(S'S3'
p860
I0
I1
tp861
Rp862
(I3
S'|'
p863
NNNI3
I1
I0
tp864
bS'PCA'
p865
tp866
Rp867
sg51
F0.2
sg38
g859
sg52
g11
(g12
(S'S9'
p868
I0
I1
tp869
Rp870
(I3
S'|'
p871
NNNI9
I1
I0
tp872
bS'inception'
p873
tp874
Rp875
sg34
g856
sg61
g11
(g15
S'm\xb9\x81\xcct\xee\xe0?'
p876
tp877
Rp878
sg65
g11
(g12
(S'S3'
p879
I0
I1
tp880
Rp881
(I3
S'|'
p882
NNNI3
I1
I0
tp883
bS'SVM'
p884
tp885
Rp886
sg74
I3
sg75
g76
sg77
g11
(g15
S'{\x1d\xa9\xd7\x91z\xe5?'
p887
tp888
Rp889
sg81
g82
sg83
g84
sbag187
ag4
(g5
g6
Ntp890
Rp891
(dp892
g10
g11
(g15
S'\x00\x00\x00\x00\x00\x00\xf8\xff'
p893
tp894
Rp895
sg392
g11
(g98
S'\x04\x00\x00\x00\x00\x00\x00\x00'
p896
tp897
Rp898
sg30
g31
sg32
(dp899
g392
g898
sg34
g11
(g15
S'\xe7\x01\xc7\xb2{\xd6H@'
p900
tp901
Rp902
sg413
g11
(g98
S'\x04\x00\x00\x00\x00\x00\x00\x00'
p903
tp904
Rp905
sg38
g11
(g15
S'\xff>$0x\x1b\xf9?'
p906
tp907
Rp908
ssg38
g908
sg42
g11
(g12
(S'S6'
p909
I0
I1
tp910
Rp911
(I3
S'|'
p912
NNNI6
I1
I0
tp913
bS'ISOMAP'
p914
tp915
Rp916
sg51
F0.2
sg413
g905
sg52
g11
(g12
(S'S3'
p917
I0
I1
tp918
Rp919
(I3
S'|'
p920
NNNI3
I1
I0
tp921
bS'VGG'
p922
tp923
Rp924
sg34
g902
sg61
g11
(g15
S'3\xdf\xfb\x9c\x9fF\xe1?'
p925
tp926
Rp927
sg65
g11
(g12
(S'S3'
p928
I0
I1
tp929
Rp930
(I3
S'|'
p931
NNNI3
I1
I0
tp932
bS'SVM'
p933
tp934
Rp935
sg74
I3
sg75
g76
sg77
g11
(g15
S'\x99\x99\x99\x99\x99\x99\xe9?'
p936
tp937
Rp938
sg81
g82
sg83
g84
sbag232
ag4
(g5
g6
Ntp939
Rp940
(dp941
g10
g11
(g15
S'\x00\x00\x00\x00\x00\x00\xf8\xff'
p942
tp943
Rp944
sg21
g29
sg30
g31
sg32
(dp945
g21
g29
sg34
g11
(g15
S'U\\\xc1y=\xdbL@'
p946
tp947
Rp948
sg38
g11
(g15
S'\x98\xd8\xc1\x06\r\xac\x12@'
p949
tp950
Rp951
ssg42
g11
(g12
(S'S3'
p952
I0
I1
tp953
Rp954
(I3
S'|'
p955
NNNI3
I1
I0
tp956
bS'PCA'
p957
tp958
Rp959
sg51
F0.2
sg38
g951
sg52
g11
(g12
(S'S9'
p960
I0
I1
tp961
Rp962
(I3
S'|'
p963
NNNI9
I1
I0
tp964
bS'inception'
p965
tp966
Rp967
sg34
g948
sg61
g11
(g15
S'\xfdB\x80\xe3b\xbc\xe0?'
p968
tp969
Rp970
sg65
g11
(g12
(S'S3'
p971
I0
I1
tp972
Rp973
(I3
S'|'
p974
NNNI3
I1
I0
tp975
bS'SVM'
p976
tp977
Rp978
sg74
I3
sg75
g76
sg77
g11
(g15
S'\x0b\xc5\xadP\xdc\n\xe5?'
p979
tp980
Rp981
sg81
g82
sg83
g84
sbag4
(g5
g6
Ntp982
Rp983
(dp984
g10
g11
(g15
S'\x00\x00\x00\x00\x00\x00\xf8\xff'
p985
tp986
Rp987
sg392
g11
(g98
S'\x04\x00\x00\x00\x00\x00\x00\x00'
p988
tp989
Rp990
sg30
g31
sg32
(dp991
g392
g990
sg34
g11
(g15
S'\xf5&n5\xefhI@'
p992
tp993
Rp994
sg413
g11
(g98
S'\x02\x00\x00\x00\x00\x00\x00\x00'
p995
tp996
Rp997
sg38
g11
(g15
S'\x87\n\xf3\xee\x9eD\x0e@'
p998
tp999
Rp1000
ssg38
g1000
sg42
g11
(g12
(S'S6'
p1001
I0
I1
tp1002
Rp1003
(I3
S'|'
p1004
NNNI6
I1
I0
tp1005
bS'ISOMAP'
p1006
tp1007
Rp1008
sg51
F0.2
sg413
g997
sg52
g11
(g12
(S'S3'
p1009
I0
I1
tp1010
Rp1011
(I3
S'|'
p1012
NNNI3
I1
I0
tp1013
bS'VGG'
p1014
tp1015
Rp1016
sg34
g994
sg61
g11
(g15
S'jI\xb6\xed\xd0\xc9\xe1?'
p1017
tp1018
Rp1019
sg65
g11
(g12
(S'S3'
p1020
I0
I1
tp1021
Rp1022
(I3
S'|'
p1023
NNNI3
I1
I0
tp1024
bS'SVM'
p1025
tp1026
Rp1027
sg74
I3
sg75
g76
sg77
g11
(g15
S'\x10>\xf8\xe0\x83\x0f\xe6?'
p1028
tp1029
Rp1030
sg81
g82
sg83
g84
sbag4
(g5
g6
Ntp1031
Rp1032
(dp1033
g10
g11
(g15
S'\x00\x00\x00\x00\x00\x00\xf8\xff'
p1034
tp1035
Rp1036
sg192
g11
(g15
S'\x00\x00\x00\x00\x00@a@'
p1037
tp1038
Rp1039
sg30
g31
sg392
g11
(g98
S'\x04\x00\x00\x00\x00\x00\x00\x00'
p1040
tp1041
Rp1042
sg32
(dp1043
g192
g1039
sg392
g1042
sg413
g11
(g98
S'\x02\x00\x00\x00\x00\x00\x00\x00'
p1044
tp1045
Rp1046
sg197
g11
(g15
S'\xa3\xf0C\xd5o\xba\xd6?'
p1047
tp1048
Rp1049
ssg42
g11
(g12
(S'S6'
p1050
I0
I1
tp1051
Rp1052
(I3
S'|'
p1053
NNNI6
I1
I0
tp1054
bS'ISOMAP'
p1055
tp1056
Rp1057
sg51
F0.2
sg413
g1046
sg52
g11
(g12
(S'S3'
p1058
I0
I1
tp1059
Rp1060
(I3
S'|'
p1061
NNNI3
I1
I0
tp1062
bS'VGG'
p1063
tp1064
Rp1065
sg61
g11
(g15
S'\xcax\xdd&\xdd\xe4\xe3?'
p1066
tp1067
Rp1068
sg65
g11
(g12
(S'S2'
p1069
I0
I1
tp1070
Rp1071
(I3
S'|'
p1072
NNNI2
I1
I0
tp1073
bS'RF'
p1074
tp1075
Rp1076
sg74
I3
sg197
g1049
sg75
g76
sg77
g11
(g15
S'\x15\xb7Bq+\x14\xe7?'
p1077
tp1078
Rp1079
sg81
g82
sg83
g84
sbag4
(g5
g6
Ntp1080
Rp1081
(dp1082
g10
g11
(g15
S'\x00\x00\x00\x00\x00\x00\xf8\xff'
p1083
tp1084
Rp1085
sg392
g11
(g98
S'\x03\x00\x00\x00\x00\x00\x00\x00'
p1086
tp1087
Rp1088
sg30
g31
sg32
(dp1089
g392
g1088
sg34
g11
(g15
S"\xe6\xe9\x92D'\xfaR@"
p1090
tp1091
Rp1092
sg413
g11
(g98
S'\x02\x00\x00\x00\x00\x00\x00\x00'
p1093
tp1094
Rp1095
sg38
g11
(g15
S'\x80\xdb\x88\xeeo>\xfd?'
p1096
tp1097
Rp1098
ssg38
g1098
sg42
g11
(g12
(S'S6'
p1099
I0
I1
tp1100
Rp1101
(I3
S'|'
p1102
NNNI6
I1
I0
tp1103
bS'ISOMAP'
p1104
tp1105
Rp1106
sg51
F0.2
sg413
g1095
sg52
g11
(g12
(S'S9'
p1107
I0
I1
tp1108
Rp1109
(I3
S'|'
p1110
NNNI9
I1
I0
tp1111
bS'inception'
p1112
tp1113
Rp1114
sg34
g1092
sg61
g11
(g15
S'\xb4NW\xd3\xd7\x8d\xdf?'
p1115
tp1116
Rp1117
sg65
g11
(g12
(S'S3'
p1118
I0
I1
tp1119
Rp1120
(I3
S'|'
p1121
NNNI3
I1
I0
tp1122
bS'SVM'
p1123
tp1124
Rp1125
sg74
I3
sg75
g76
sg77
g11
(g15
S'\xdc\n\xc5\xadP\xdc\xe2?'
p1126
tp1127
Rp1128
sg81
g82
sg83
g84
sbag4
(g5
g6
Ntp1129
Rp1130
(dp1131
g10
g11
(g15
S'\x00\x00\x00\x00\x00\x00\xf8\xff'
p1132
tp1133
Rp1134
sg392
g11
(g98
S'\x04\x00\x00\x00\x00\x00\x00\x00'
p1135
tp1136
Rp1137
sg30
g31
sg32
(dp1138
g392
g1137
sg34
g11
(g15
S'\xc8=\x06\x8d\x9c\x8cR@'
p1139
tp1140
Rp1141
sg413
g11
(g98
S'\x04\x00\x00\x00\x00\x00\x00\x00'
p1142
tp1143
Rp1144
sg38
g11
(g15
S'5~\x12\x12=\x9f\x13@'
p1145
tp1146
Rp1147
ssg38
g1147
sg42
g11
(g12
(S'S6'
p1148
I0
I1
tp1149
Rp1150
(I3
S'|'
p1151
NNNI6
I1
I0
tp1152
bS'ISOMAP'
p1153
tp1154
Rp1155
sg51
F0.2
sg413
g1144
sg52
g11
(g12
(S'S3'
p1156
I0
I1
tp1157
Rp1158
(I3
S'|'
p1159
NNNI3
I1
I0
tp1160
bS'VGG'
p1161
tp1162
Rp1163
sg34
g1141
sg61
g11
(g15
S'Y\xe8\xd0H\xf3%\xe1?'
p1164
tp1165
Rp1166
sg65
g11
(g12
(S'S3'
p1167
I0
I1
tp1168
Rp1169
(I3
S'|'
p1170
NNNI3
I1
I0
tp1171
bS'SVM'
p1172
tp1173
Rp1174
sg74
I3
sg75
g76
sg77
g11
(g15
S'\x08\x1f|\xf0\xc1\x07\xe7?'
p1175
tp1176
Rp1177
sg81
g82
sg83
g84
sbag4
(g5
g6
Ntp1178
Rp1179
(dp1180
g10
g11
(g15
S'\x00\x00\x00\x00\x00\x00\xf8\xff'
p1181
tp1182
Rp1183
sg392
g11
(g98
S'\x04\x00\x00\x00\x00\x00\x00\x00'
p1184
tp1185
Rp1186
sg30
g31
sg32
(dp1187
g392
g1186
sg34
g11
(g15
S'\xc6\xbb\xddH\xcd\xe05@'
p1188
tp1189
Rp1190
sg95
g11
(g98
S'\x02\x00\x00\x00\x00\x00\x00\x00'
p1191
tp1192
Rp1193
sg413
g11
(g98
S'\x02\x00\x00\x00\x00\x00\x00\x00'
p1194
tp1195
Rp1196
sg38
g11
(g15
S'\xcc5+\xfa6\x12\t@'
p1197
tp1198
Rp1199
ssg38
g1199
sg42
g11
(g12
(S'S6'
p1200
I0
I1
tp1201
Rp1202
(I3
S'|'
p1203
NNNI6
I1
I0
tp1204
bS'ISOMAP'
p1205
tp1206
Rp1207
sg51
F0.2
sg413
g1196
sg52
g11
(g12
(S'S8'
p1208
I0
I1
tp1209
Rp1210
(I3
S'|'
p1211
NNNI8
I1
I0
tp1212
bS'haralick'
p1213
tp1214
Rp1215
sg34
g1190
sg95
g1193
sg61
g11
(g15
S'C\xbc\x9c\xadS\x1b\xe0?'
p1216
tp1217
Rp1218
sg65
g11
(g12
(S'S3'
p1219
I0
I1
tp1220
Rp1221
(I3
S'|'
p1222
NNNI3
I1
I0
tp1223
bS'SVM'
p1224
tp1225
Rp1226
sg74
I3
sg75
g76
sg77
g11
(g15
S'\x03\xa61`\x1a\x03\xe6?'
p1227
tp1228
Rp1229
sg81
g82
sg83
g84
sbag4
(g5
g6
Ntp1230
Rp1231
(dp1232
g10
g11
(g15
S'\x00\x00\x00\x00\x00\x00\xf8\xff'
p1233
tp1234
Rp1235
sg392
g11
(g98
S'\x05\x00\x00\x00\x00\x00\x00\x00'
p1236
tp1237
Rp1238
sg30
g31
sg32
(dp1239
g392
g1238
sg34
g11
(g15
S'\x0c\xde\\,\x87\xe8F@'
p1240
tp1241
Rp1242
sg95
g11
(g98
S'\x02\x00\x00\x00\x00\x00\x00\x00'
p1243
tp1244
Rp1245
sg413
g11
(g98
S'\x03\x00\x00\x00\x00\x00\x00\x00'
p1246
tp1247
Rp1248
sg38
g11
(g15
S'I\xf9\xa5\xa2\xa1\xc8\x00@'
p1249
tp1250
Rp1251
ssg38
g1251
sg42
g11
(g12
(S'S6'
p1252
I0
I1
tp1253
Rp1254
(I3
S'|'
p1255
NNNI6
I1
I0
tp1256
bS'ISOMAP'
p1257
tp1258
Rp1259
sg51
F0.2
sg413
g1248
sg52
g11
(g12
(S'S8'
p1260
I0
I1
tp1261
Rp1262
(I3
S'|'
p1263
NNNI8
I1
I0
tp1264
bS'haralick'
p1265
tp1266
Rp1267
sg34
g1242
sg95
g1245
sg61
g11
(g15
S'\x91HCX2\xf8\xdd?'
p1268
tp1269
Rp1270
sg65
g11
(g12
(S'S3'
p1271
I0
I1
tp1272
Rp1273
(I3
S'|'
p1274
NNNI3
I1
I0
tp1275
bS'SVM'
p1276
tp1277
Rp1278
sg74
I3
sg75
g76
sg77
g11
(g15
S'\x10>\xf8\xe0\x83\x0f\xe6?'
p1279
tp1280
Rp1281
sg81
g82
sg83
g84
sbag4
(g5
g6
Ntp1282
Rp1283
(dp1284
g10
g11
(g15
S'\x00\x00\x00\x00\x00\x00\xf8\xff'
p1285
tp1286
Rp1287
sg192
g11
(g15
S'\x00\x00\x00\x00\x00\x00D@'
p1288
tp1289
Rp1290
sg30
g31
sg392
g11
(g98
S'\x05\x00\x00\x00\x00\x00\x00\x00'
p1291
tp1292
Rp1293
sg32
(dp1294
g192
g1290
sg392
g1293
sg413
g11
(g98
S'\x03\x00\x00\x00\x00\x00\x00\x00'
p1295
tp1296
Rp1297
sg197
g11
(g15
S'\x02\xe5\xb3%\xcf\x0e\xec?'
p1298
tp1299
Rp1300
ssg42
g11
(g12
(S'S6'
p1301
I0
I1
tp1302
Rp1303
(I3
S'|'
p1304
NNNI6
I1
I0
tp1305
bS'ISOMAP'
p1306
tp1307
Rp1308
sg51
F0.2
sg413
g1297
sg52
g11
(g12
(S'S3'
p1309
I0
I1
tp1310
Rp1311
(I3
S'|'
p1312
NNNI3
I1
I0
tp1313
bS'VGG'
p1314
tp1315
Rp1316
sg61
g11
(g15
S'\x1f;H\xcbN\x1a\xe0?'
p1317
tp1318
Rp1319
sg65
g11
(g12
(S'S2'
p1320
I0
I1
tp1321
Rp1322
(I3
S'|'
p1323
NNNI2
I1
I0
tp1324
bS'RF'
p1325
tp1326
Rp1327
sg74
I3
sg197
g1300
sg75
g76
sg77
g11
(g15
S'#"""""\xea?'
p1328
tp1329
Rp1330
sg81
g82
sg83
g84
sbag4
(g5
g6
Ntp1331
Rp1332
(dp1333
g10
g11
(g15
S'\x00\x00\x00\x00\x00\x00\xf8\xff'
p1334
tp1335
Rp1336
sg192
g11
(g15
S'\x00\x00\x00\x00\x00@e@'
p1337
tp1338
Rp1339
sg30
g31
sg392
g11
(g98
S'\x06\x00\x00\x00\x00\x00\x00\x00'
p1340
tp1341
Rp1342
sg32
(dp1343
g192
g1339
sg392
g1342
sg413
g11
(g98
S'\x04\x00\x00\x00\x00\x00\x00\x00'
p1344
tp1345
Rp1346
sg197
g11
(g15
S'Z\x1cSH\xbd\x03\xe1?'
p1347
tp1348
Rp1349
ssg42
g11
(g12
(S'S6'
p1350
I0
I1
tp1351
Rp1352
(I3
S'|'
p1353
NNNI6
I1
I0
tp1354
bS'ISOMAP'
p1355
tp1356
Rp1357
sg51
F0.2
sg413
g1346
sg52
g11
(g12
(S'S9'
p1358
I0
I1
tp1359
Rp1360
(I3
S'|'
p1361
NNNI9
I1
I0
tp1362
bS'inception'
p1363
tp1364
Rp1365
sg61
g11
(g15
S'x\xf9&8\x07\xc4\xe3?'
p1366
tp1367
Rp1368
sg65
g11
(g12
(S'S2'
p1369
I0
I1
tp1370
Rp1371
(I3
S'|'
p1372
NNNI2
I1
I0
tp1373
bS'RF'
p1374
tp1375
Rp1376
sg74
I3
sg197
g1349
sg75
g76
sg77
g11
(g15
S'\x98\xc6\x80i\x0c\x98\xe6?'
p1377
tp1378
Rp1379
sg81
g82
sg83
g84
sbag4
(g5
g6
Ntp1380
Rp1381
(dp1382
g10
g11
(g15
S'\x00\x00\x00\x00\x00\x00\xf8\xff'
p1383
tp1384
Rp1385
sg192
g11
(g15
S'\x00\x00\x00\x00\x00\x00D@'
p1386
tp1387
Rp1388
sg21
g29
sg30
g31
sg32
(dp1389
g192
g1388
sg197
g11
(g15
S'{~\xbf\xa6\x8ae\xe6?'
p1390
tp1391
Rp1392
sg21
g29
ssg42
g11
(g12
(S'S3'
p1393
I0
I1
tp1394
Rp1395
(I3
S'|'
p1396
NNNI3
I1
I0
tp1397
bS'PCA'
p1398
tp1399
Rp1400
sg51
F0.2
sg52
g11
(g12
(S'S9'
p1401
I0
I1
tp1402
Rp1403
(I3
S'|'
p1404
NNNI9
I1
I0
tp1405
bS'inception'
p1406
tp1407
Rp1408
sg61
g11
(g15
S'-L\xbe\xf6y\xb4\xe0?'
p1409
tp1410
Rp1411
sg65
g11
(g12
(S'S2'
p1412
I0
I1
tp1413
Rp1414
(I3
S'|'
p1415
NNNI2
I1
I0
tp1416
bS'RF'
p1417
tp1418
Rp1419
sg74
I3
sg197
g1392
sg75
g76
sg77
g11
(g15
S'\xa1\xb8\x15\x8a[\xa1\xe8?'
p1420
tp1421
Rp1422
sg81
g82
sg83
g84
sbag4
(g5
g6
Ntp1423
Rp1424
(dp1425
g10
g11
(g15
S'\x00\x00\x00\x00\x00\x00\xf8\xff'
p1426
tp1427
Rp1428
sg21
g29
sg30
g31
sg32
(dp1429
g21
g29
sg34
g11
(g15
S'c\xe5!E\x9d\x07D@'
p1430
tp1431
Rp1432
sg38
g11
(g15
S'\x103!%(\xa2\x1e@'
p1433
tp1434
Rp1435
ssg42
g11
(g12
(S'S3'
p1436
I0
I1
tp1437
Rp1438
(I3
S'|'
p1439
NNNI3
I1
I0
tp1440
bS'PCA'
p1441
tp1442
Rp1443
sg51
F0.2
sg38
g1435
sg52
g11
(g12
(S'S9'
p1444
I0
I1
tp1445
Rp1446
(I3
S'|'
p1447
NNNI9
I1
I0
tp1448
bS'inception'
p1449
tp1450
Rp1451
sg34
g1432
sg61
g11
(g15
S'\xad\xd2\xad.\x0c\xd8\xe4?'
p1452
tp1453
Rp1454
sg65
g11
(g12
(S'S3'
p1455
I0
I1
tp1456
Rp1457
(I3
S'|'
p1458
NNNI3
I1
I0
tp1459
bS'SVM'
p1460
tp1461
Rp1462
sg74
I3
sg75
g76
sg77
g11
(g15
S'{\x1d\xa9\xd7\x91z\xe5?'
p1463
tp1464
Rp1465
sg81
g82
sg83
g84
sbag4
(g5
g6
Ntp1466
Rp1467
(dp1468
g10
g11
(g15
S'\x00\x00\x00\x00\x00\x00\xf8\xff'
p1469
tp1470
Rp1471
sg392
g11
(g98
S'\x03\x00\x00\x00\x00\x00\x00\x00'
p1472
tp1473
Rp1474
sg30
g31
sg32
(dp1475
g392
g1474
sg34
g11
(g15
S'|\xce\x868\xb3\xf5W@'
p1476
tp1477
Rp1478
sg413
g11
(g98
S'\x03\x00\x00\x00\x00\x00\x00\x00'
p1479
tp1480
Rp1481
sg38
g11
(g15
S'\x92\x95\x02F`\xf2\x1a@'
p1482
tp1483
Rp1484
ssg38
g1484
sg42
g11
(g12
(S'S6'
p1485
I0
I1
tp1486
Rp1487
(I3
S'|'
p1488
NNNI6
I1
I0
tp1489
bS'ISOMAP'
p1490
tp1491
Rp1492
sg51
F0.2
sg413
g1481
sg52
g11
(g12
(S'S3'
p1493
I0
I1
tp1494
Rp1495
(I3
S'|'
p1496
NNNI3
I1
I0
tp1497
bS'VGG'
p1498
tp1499
Rp1500
sg34
g1478
sg61
g11
(g15
S'\xe3\x9c\xba\x8dQP\xe0?'
p1501
tp1502
Rp1503
sg65
g11
(g12
(S'S3'
p1504
I0
I1
tp1505
Rp1506
(I3
S'|'
p1507
NNNI3
I1
I0
tp1508
bS'SVM'
p1509
tp1510
Rp1511
sg74
I3
sg75
g76
sg77
g11
(g15
S'\x8b.\xba\xe8\xa2\x8b\xe6?'
p1512
tp1513
Rp1514
sg81
g82
sg83
g84
sbag4
(g5
g6
Ntp1515
Rp1516
(dp1517
g10
g11
(g15
S'\x00\x00\x00\x00\x00\x00\xf8\xff'
p1518
tp1519
Rp1520
sg192
g11
(g15
S'\x00\x00\x00\x00\x00\x00D@'
p1521
tp1522
Rp1523
sg21
g145
sg30
g31
sg32
(dp1524
g192
g1523
sg197
g11
(g15
S'f".\xc0,\x82\xe1?'
p1525
tp1526
Rp1527
sg21
g145
sg95
g11
(g98
S'\x01\x00\x00\x00\x00\x00\x00\x00'
p1528
tp1529
Rp1530
ssg42
g11
(g12
(S'S3'
p1531
I0
I1
tp1532
Rp1533
(I3
S'|'
p1534
NNNI3
I1
I0
tp1535
bS'PCA'
p1536
tp1537
Rp1538
sg51
F0.2
sg52
g11
(g12
(S'S8'
p1539
I0
I1
tp1540
Rp1541
(I3
S'|'
p1542
NNNI8
I1
I0
tp1543
bS'haralick'
p1544
tp1545
Rp1546
sg95
g1530
sg61
g11
(g15
S'r&\x08\xa9!\x1e\x05@'
p1547
tp1548
Rp1549
sg65
g11
(g12
(S'S2'
p1550
I0
I1
tp1551
Rp1552
(I3
S'|'
p1553
NNNI2
I1
I0
tp1554
bS'RF'
p1555
tp1556
Rp1557
sg74
I3
sg197
g1527
sg75
g76
sg77
g11
(g15
S'\x1c\xd6\xbea\xed\x1b\xe6?'
p1558
tp1559
Rp1560
sg81
g82
sg83
g84
sbag4
(g5
g6
Ntp1561
Rp1562
(dp1563
g10
g11
(g15
S'\x00\x00\x00\x00\x00\x00\xf8\xff'
p1564
tp1565
Rp1566
sg21
g145
sg30
g31
sg32
(dp1567
g21
g145
sg34
g11
(g15
S'F\x81\x18\n\x90\xef7@'
p1568
tp1569
Rp1570
sg38
g11
(g15
S'\xf1\xee\xda\x1d\xe2\xce\xa7?'
p1571
tp1572
Rp1573
ssg42
g11
(g12
(S'S3'
p1574
I0
I1
tp1575
Rp1576
(I3
S'|'
p1577
NNNI3
I1
I0
tp1578
bS'PCA'
p1579
tp1580
Rp1581
sg51
F0.2
sg38
g1573
sg52
g11
(g12
(S'S9'
p1582
I0
I1
tp1583
Rp1584
(I3
S'|'
p1585
NNNI9
I1
I0
tp1586
bS'inception'
p1587
tp1588
Rp1589
sg34
g1570
sg61
g11
(g15
S'D\x86\x18o&X\xe2?'
p1590
tp1591
Rp1592
sg65
g11
(g12
(S'S3'
p1593
I0
I1
tp1594
Rp1595
(I3
S'|'
p1596
NNNI3
I1
I0
tp1597
bS'SVM'
p1598
tp1599
Rp1600
sg74
I3
sg75
g76
sg77
g11
(g15
S'\x93M6\xd9d\x93\xe5?'
p1601
tp1602
Rp1603
sg81
g82
sg83
g84
sbag4
(g5
g6
Ntp1604
Rp1605
(dp1606
g10
g11
(g15
S'\x00\x00\x00\x00\x00\x00\xf8\xff'
p1607
tp1608
Rp1609
sg21
g29
sg30
g31
sg32
(dp1610
g21
g29
sg34
g11
(g15
S'\xa8\x86\x8fm\xf8B:@'
p1611
tp1612
Rp1613
sg95
g11
(g98
S'\x02\x00\x00\x00\x00\x00\x00\x00'
p1614
tp1615
Rp1616
sg38
g11
(g15
S'n\xf7\xcd\xe6\xbfO\x14@'
p1617
tp1618
Rp1619
ssg42
g11
(g12
(S'S3'
p1620
I0
I1
tp1621
Rp1622
(I3
S'|'
p1623
NNNI3
I1
I0
tp1624
bS'PCA'
p1625
tp1626
Rp1627
sg51
F0.2
sg38
g1619
sg52
g11
(g12
(S'S8'
p1628
I0
I1
tp1629
Rp1630
(I3
S'|'
p1631
NNNI8
I1
I0
tp1632
bS'haralick'
p1633
tp1634
Rp1635
sg34
g1613
sg95
g1616
sg61
g11
(g15
S'\x1b[\x0eY\xb0r\xdf?'
p1636
tp1637
Rp1638
sg65
g11
(g12
(S'S3'
p1639
I0
I1
tp1640
Rp1641
(I3
S'|'
p1642
NNNI3
I1
I0
tp1643
bS'SVM'
p1644
tp1645
Rp1646
sg74
I3
sg75
g76
sg77
g11
(g15
S'\xab\xaa\xaa\xaa\xaa\xaa\xe2?'
p1647
tp1648
Rp1649
sg81
g82
sg83
g84
sbag4
(g5
g6
Ntp1650
Rp1651
(dp1652
g10
g11
(g15
S'\x00\x00\x00\x00\x00\x00\xf8\xff'
p1653
tp1654
Rp1655
sg21
g145
sg30
g31
sg32
(dp1656
g21
g145
sg34
g11
(g15
S'\x19V\x1a\x0f\xec\x14S@'
p1657
tp1658
Rp1659
sg95
g11
(g98
S'\x03\x00\x00\x00\x00\x00\x00\x00'
p1660
tp1661
Rp1662
sg38
g11
(g15
S'\xbbd\xcdq\x06\xd6\xcd?'
p1663
tp1664
Rp1665
ssg42
g11
(g12
(S'S3'
p1666
I0
I1
tp1667
Rp1668
(I3
S'|'
p1669
NNNI3
I1
I0
tp1670
bS'PCA'
p1671
tp1672
Rp1673
sg51
F0.2
sg38
g1665
sg52
g11
(g12
(S'S8'
p1674
I0
I1
tp1675
Rp1676
(I3
S'|'
p1677
NNNI8
I1
I0
tp1678
bS'haralick'
p1679
tp1680
Rp1681
sg34
g1659
sg95
g1662
sg61
g11
(g15
S'\xa7"\xb23\xc8\x0f\xe0?'
p1682
tp1683
Rp1684
sg65
g11
(g12
(S'S3'
p1685
I0
I1
tp1686
Rp1687
(I3
S'|'
p1688
NNNI3
I1
I0
tp1689
bS'SVM'
p1690
tp1691
Rp1692
sg74
I3
sg75
g76
sg77
g11
(g15
S'\xa3\x8b.\xba\xe8\xa2\xe3?'
p1693
tp1694
Rp1695
sg81
g82
sg83
g84
sbag4
(g5
g6
Ntp1696
Rp1697
(dp1698
g10
g11
(g15
S'\x00\x00\x00\x00\x00\x00\xf8\xff'
p1699
tp1700
Rp1701
sg21
g145
sg30
g31
sg32
(dp1702
g21
g145
sg34
g11
(g15
S'\xe9i\x0f#\x07JB@'
p1703
tp1704
Rp1705
sg95
g11
(g98
S'\x01\x00\x00\x00\x00\x00\x00\x00'
p1706
tp1707
Rp1708
sg38
g11
(g15
S'\x05\x0e\xdcl\xaa\xbe\x10@'
p1709
tp1710
Rp1711
ssg42
g11
(g12
(S'S3'
p1712
I0
I1
tp1713
Rp1714
(I3
S'|'
p1715
NNNI3
I1
I0
tp1716
bS'PCA'
p1717
tp1718
Rp1719
sg51
F0.2
sg38
g1711
sg52
g11
(g12
(S'S8'
p1720
I0
I1
tp1721
Rp1722
(I3
S'|'
p1723
NNNI8
I1
I0
tp1724
bS'haralick'
p1725
tp1726
Rp1727
sg34
g1705
sg95
g1708
sg61
g11
(g15
S'\x04B\x00\xd0\x19+\xdd?'
p1728
tp1729
Rp1730
sg65
g11
(g12
(S'S3'
p1731
I0
I1
tp1732
Rp1733
(I3
S'|'
p1734
NNNI3
I1
I0
tp1735
bS'SVM'
p1736
tp1737
Rp1738
sg74
I3
sg75
g76
sg77
g11
(g15
S'(n\x85\xe2V(\xe6?'
p1739
tp1740
Rp1741
sg81
g82
sg83
g84
sbag4
(g5
g6
Ntp1742
Rp1743
(dp1744
g10
g11
(g15
S'\x00\x00\x00\x00\x00\x00\xf8\xff'
p1745
tp1746
Rp1747
sg192
g11
(g15
S'\x00\x00\x00\x00\x00@e@'
p1748
tp1749
Rp1750
sg30
g31
sg392
g11
(g98
S'\x05\x00\x00\x00\x00\x00\x00\x00'
p1751
tp1752
Rp1753
sg32
(dp1754
g192
g1750
sg392
g1753
sg413
g11
(g98
S'\x02\x00\x00\x00\x00\x00\x00\x00'
p1755
tp1756
Rp1757
sg197
g11
(g15
S'\xfc\x97`H\xdc=\xdc?'
p1758
tp1759
Rp1760
ssg42
g11
(g12
(S'S6'
p1761
I0
I1
tp1762
Rp1763
(I3
S'|'
p1764
NNNI6
I1
I0
tp1765
bS'ISOMAP'
p1766
tp1767
Rp1768
sg51
F0.2
sg413
g1757
sg52
g11
(g12
(S'S3'
p1769
I0
I1
tp1770
Rp1771
(I3
S'|'
p1772
NNNI3
I1
I0
tp1773
bS'VGG'
p1774
tp1775
Rp1776
sg61
g11
(g15
S'\xa3tA\r\xe5\xfc\xdf?'
p1777
tp1778
Rp1779
sg65
g11
(g12
(S'S2'
p1780
I0
I1
tp1781
Rp1782
(I3
S'|'
p1783
NNNI2
I1
I0
tp1784
bS'RF'
p1785
tp1786
Rp1787
sg74
I3
sg197
g1760
sg75
g76
sg77
g11
(g15
S'\x08\x1f|\xf0\xc1\x07\xe7?'
p1788
tp1789
Rp1790
sg81
g82
sg83
g84
sbag4
(g5
g6
Ntp1791
Rp1792
(dp1793
g10
g11
(g15
S'\x00\x00\x00\x00\x00\x00\xf8\xff'
p1794
tp1795
Rp1796
sg192
g11
(g15
S'\x00\x00\x00\x00\x00\x00 @'
p1797
tp1798
Rp1799
sg21
g145
sg30
g31
sg32
(dp1800
g192
g1799
sg197
g11
(g15
S'\xe4\x9f\x10\xb9|\xd3\xea?'
p1801
tp1802
Rp1803
sg21
g145
ssg42
g11
(g12
(S'S3'
p1804
I0
I1
tp1805
Rp1806
(I3
S'|'
p1807
NNNI3
I1
I0
tp1808
bS'PCA'
p1809
tp1810
Rp1811
sg51
F0.2
sg52
g11
(g12
(S'S3'
p1812
I0
I1
tp1813
Rp1814
(I3
S'|'
p1815
NNNI3
I1
I0
tp1816
bS'VGG'
p1817
tp1818
Rp1819
sg61
g11
(g15
S'\x11\x97\x82\xc7\x9fQ\xf7?'
p1820
tp1821
Rp1822
sg65
g11
(g12
(S'S2'
p1823
I0
I1
tp1824
Rp1825
(I3
S'|'
p1826
NNNI2
I1
I0
tp1827
bS'RF'
p1828
tp1829
Rp1830
sg74
I3
sg197
g1803
sg75
g76
sg77
g11
(g15
S'\x8d\x01\xd3\x180\x8d\xe9?'
p1831
tp1832
Rp1833
sg81
g82
sg83
g84
sbag4
(g5
g6
Ntp1834
Rp1835
(dp1836
g10
g11
(g15
S'\x00\x00\x00\x00\x00\x00\xf8\xff'
p1837
tp1838
Rp1839
sg21
g29
sg30
g31
sg32
(dp1840
g21
g29
sg34
g11
(g15
S"\xe6i\x8fv\x8f'J@"
p1841
tp1842
Rp1843
sg95
g11
(g98
S'\x02\x00\x00\x00\x00\x00\x00\x00'
p1844
tp1845
Rp1846
sg38
g11
(g15
S'\x87r\xff\x15$\xbe\x13@'
p1847
tp1848
Rp1849
ssg42
g11
(g12
(S'S3'
p1850
I0
I1
tp1851
Rp1852
(I3
S'|'
p1853
NNNI3
I1
I0
tp1854
bS'PCA'
p1855
tp1856
Rp1857
sg51
F0.2
sg38
g1849
sg52
g11
(g12
(S'S8'
p1858
I0
I1
tp1859
Rp1860
(I3
S'|'
p1861
NNNI8
I1
I0
tp1862
bS'haralick'
p1863
tp1864
Rp1865
sg34
g1843
sg95
g1846
sg61
g11
(g15
S'\x8b\xac\xa3\xdd\x03n\xde?'
p1866
tp1867
Rp1868
sg65
g11
(g12
(S'S3'
p1869
I0
I1
tp1870
Rp1871
(I3
S'|'
p1872
NNNI3
I1
I0
tp1873
bS'SVM'
p1874
tp1875
Rp1876
sg74
I3
sg75
g76
sg77
g11
(g15
S'8\xac}\xc3\xda7\xe4?'
p1877
tp1878
Rp1879
sg81
g82
sg83
g84
sbag4
(g5
g6
Ntp1880
Rp1881
(dp1882
g10
g11
(g15
S'\x00\x00\x00\x00\x00\x00\xf8\xff'
p1883
tp1884
Rp1885
sg192
g11
(g15
S'\x00\x00\x00\x00\x00\xc0r@'
p1886
tp1887
Rp1888
sg21
g29
sg30
g31
sg32
(dp1889
g192
g1888
sg197
g11
(g15
S'b\xfc\xef\x04J_\xd9?'
p1890
tp1891
Rp1892
sg21
g29
ssg42
g11
(g12
(S'S3'
p1893
I0
I1
tp1894
Rp1895
(I3
S'|'
p1896
NNNI3
I1
I0
tp1897
bS'PCA'
p1898
tp1899
Rp1900
sg51
F0.2
sg52
g11
(g12
(S'S9'
p1901
I0
I1
tp1902
Rp1903
(I3
S'|'
p1904
NNNI9
I1
I0
tp1905
bS'inception'
p1906
tp1907
Rp1908
sg61
g11
(g15
S'\x8d`\xad\xb6\t\x1a\xe1?'
p1909
tp1910
Rp1911
sg65
g11
(g12
(S'S2'
p1912
I0
I1
tp1913
Rp1914
(I3
S'|'
p1915
NNNI2
I1
I0
tp1916
bS'RF'
p1917
tp1918
Rp1919
sg74
I3
sg197
g1892
sg75
g76
sg77
g11
(g15
S'\x90\xa7\x04yJ\x90\xe7?'
p1920
tp1921
Rp1922
sg81
g82
sg83
g84
sbag4
(g5
g6
Ntp1923
Rp1924
(dp1925
g10
g11
(g15
S'\x00\x00\x00\x00\x00\x00\xf8\xff'
p1926
tp1927
Rp1928
sg21
g29
sg30
g31
sg32
(dp1929
g21
g29
sg34
g11
(g15
S'\x17{k]\xf1\xb7Q@'
p1930
tp1931
Rp1932
sg38
g11
(g15
S'\xe5H\xb3\xd7\x9a\xee\x1a@'
p1933
tp1934
Rp1935
ssg42
g11
(g12
(S'S3'
p1936
I0
I1
tp1937
Rp1938
(I3
S'|'
p1939
NNNI3
I1
I0
tp1940
bS'PCA'
p1941
tp1942
Rp1943
sg51
F0.2
sg38
g1935
sg52
g11
(g12
(S'S9'
p1944
I0
I1
tp1945
Rp1946
(I3
S'|'
p1947
NNNI9
I1
I0
tp1948
bS'inception'
p1949
tp1950
Rp1951
sg34
g1932
sg61
g11
(g15
S'(\xf2O%\xd3\x96\xe1?'
p1952
tp1953
Rp1954
sg65
g11
(g12
(S'S3'
p1955
I0
I1
tp1956
Rp1957
(I3
S'|'
p1958
NNNI3
I1
I0
tp1959
bS'SVM'
p1960
tp1961
Rp1962
sg74
I3
sg75
g76
sg77
g11
(g15
S'{\x1d\xa9\xd7\x91z\xe5?'
p1963
tp1964
Rp1965
sg81
g82
sg83
g84
sbag4
(g5
g6
Ntp1966
Rp1967
(dp1968
g10
g11
(g15
S'\x00\x00\x00\x00\x00\x00\xf8\xff'
p1969
tp1970
Rp1971
sg392
g11
(g98
S'\x05\x00\x00\x00\x00\x00\x00\x00'
p1972
tp1973
Rp1974
sg30
g31
sg32
(dp1975
g392
g1974
sg34
g11
(g15
S'\xcar\x85\xbc\xda\xf7.@'
p1976
tp1977
Rp1978
sg413
g11
(g98
S'\x04\x00\x00\x00\x00\x00\x00\x00'
p1979
tp1980
Rp1981
sg38
g11
(g15
S"\xba\x15\xea\xb6\x03'\x13@"
p1982
tp1983
Rp1984
ssg38
g1984
sg42
g11
(g12
(S'S6'
p1985
I0
I1
tp1986
Rp1987
(I3
S'|'
p1988
NNNI6
I1
I0
tp1989
bS'ISOMAP'
p1990
tp1991
Rp1992
sg51
F0.2
sg413
g1981
sg52
g11
(g12
(S'S9'
p1993
I0
I1
tp1994
Rp1995
(I3
S'|'
p1996
NNNI9
I1
I0
tp1997
bS'inception'
p1998
tp1999
Rp2000
sg34
g1978
sg61
g11
(g15
S'ta39:\xb2\xe5?'
p2001
tp2002
Rp2003
sg65
g11
(g12
(S'S3'
p2004
I0
I1
tp2005
Rp2006
(I3
S'|'
p2007
NNNI3
I1
I0
tp2008
bS'SVM'
p2009
tp2010
Rp2011
sg74
I3
sg75
g76
sg77
g11
(g15
S'\x13\xe4)A\x9e\x12\xe4?'
p2012
tp2013
Rp2014
sg81
g82
sg83
g84
sbag4
(g5
g6
Ntp2015
Rp2016
(dp2017
g10
g11
(g15
S'\x00\x00\x00\x00\x00\x00\xf8\xff'
p2018
tp2019
Rp2020
sg21
g29
sg30
g31
sg32
(dp2021
g21
g29
sg34
g11
(g15
S'\x03\xa32u\xe7\xf2U@'
p2022
tp2023
Rp2024
sg38
g11
(g15
S'\x1b\xea\xcf\xe1\x0c\xf7\xce?'
p2025
tp2026
Rp2027
ssg42
g11
(g12
(S'S3'
p2028
I0
I1
tp2029
Rp2030
(I3
S'|'
p2031
NNNI3
I1
I0
tp2032
bS'PCA'
p2033
tp2034
Rp2035
sg51
F0.2
sg38
g2027
sg52
g11
(g12
(S'S3'
p2036
I0
I1
tp2037
Rp2038
(I3
S'|'
p2039
NNNI3
I1
I0
tp2040
bS'VGG'
p2041
tp2042
Rp2043
sg34
g2024
sg61
g11
(g15
S'`\x15\\U\xe9\xf4\xdf?'
p2044
tp2045
Rp2046
sg65
g11
(g12
(S'S3'
p2047
I0
I1
tp2048
Rp2049
(I3
S'|'
p2050
NNNI3
I1
I0
tp2051
bS'SVM'
p2052
tp2053
Rp2054
sg74
I3
sg75
g76
sg77
g11
(g15
S'\x88\x88\x88\x88\x88\x88\xe8?'
p2055
tp2056
Rp2057
sg81
g82
sg83
g84
sbag4
(g5
g6
Ntp2058
Rp2059
(dp2060
g10
g11
(g15
S'\x00\x00\x00\x00\x00\x00\xf8\xff'
p2061
tp2062
Rp2063
sg392
g11
(g98
S'\x06\x00\x00\x00\x00\x00\x00\x00'
p2064
tp2065
Rp2066
sg30
g31
sg32
(dp2067
g392
g2066
sg34
g11
(g15
S'\xfc\xbd\xf2\x8a\xa0\xe1*@'
p2068
tp2069
Rp2070
sg413
g11
(g98
S'\x02\x00\x00\x00\x00\x00\x00\x00'
p2071
tp2072
Rp2073
sg38
g11
(g15
S'\x82\xbb\xa9c\x07\x85\x1f@'
p2074
tp2075
Rp2076
ssg38
g2076
sg42
g11
(g12
(S'S6'
p2077
I0
I1
tp2078
Rp2079
(I3
S'|'
p2080
NNNI6
I1
I0
tp2081
bS'ISOMAP'
p2082
tp2083
Rp2084
sg51
F0.2
sg413
g2073
sg52
g11
(g12
(S'S9'
p2085
I0
I1
tp2086
Rp2087
(I3
S'|'
p2088
NNNI9
I1
I0
tp2089
bS'inception'
p2090
tp2091
Rp2092
sg34
g2070
sg61
g11
(g15
S'+o\x14\xc2\x18"\xe2?'
p2093
tp2094
Rp2095
sg65
g11
(g12
(S'S3'
p2096
I0
I1
tp2097
Rp2098
(I3
S'|'
p2099
NNNI3
I1
I0
tp2100
bS'SVM'
p2101
tp2102
Rp2103
sg74
I3
sg75
g76
sg77
g11
(g15
S'\rk\xdf\xb0\xf6\r\xe3?'
p2104
tp2105
Rp2106
sg81
g82
sg83
g84
sbag4
(g5
g6
Ntp2107
Rp2108
(dp2109
g10
g11
(g15
S'\x00\x00\x00\x00\x00\x00\xf8\xff'
p2110
tp2111
Rp2112
sg192
g11
(g15
S'\x00\x00\x00\x00\x00\x00D@'
p2113
tp2114
Rp2115
sg21
g145
sg30
g31
sg32
(dp2116
g192
g2115
sg197
g11
(g15
S'\xec\xb6\xc9\xde!W\xda?'
p2117
tp2118
Rp2119
sg21
g145
ssg42
g11
(g12
(S'S3'
p2120
I0
I1
tp2121
Rp2122
(I3
S'|'
p2123
NNNI3
I1
I0
tp2124
bS'PCA'
p2125
tp2126
Rp2127
sg51
F0.2
sg52
g11
(g12
(S'S3'
p2128
I0
I1
tp2129
Rp2130
(I3
S'|'
p2131
NNNI3
I1
I0
tp2132
bS'VGG'
p2133
tp2134
Rp2135
sg61
g11
(g15
S'C\xc3N\x14\xc5q\xda?'
p2136
tp2137
Rp2138
sg65
g11
(g12
(S'S2'
p2139
I0
I1
tp2140
Rp2141
(I3
S'|'
p2142
NNNI2
I1
I0
tp2143
bS'RF'
p2144
tp2145
Rp2146
sg74
I3
sg197
g2119
sg75
g76
sg77
g11
(g15
S'\x91z\x1d\xa9\xd7\x91\xea?'
p2147
tp2148
Rp2149
sg81
g82
sg83
g84
sbag4
(g5
g6
Ntp2150
Rp2151
(dp2152
g10
g11
(g15
S'\x00\x00\x00\x00\x00\x00\xf8\xff'
p2153
tp2154
Rp2155
sg192
g11
(g15
S'\x00\x00\x00\x00\x00@R@'
p2156
tp2157
Rp2158
sg30
g31
sg392
g11
(g98
S'\x06\x00\x00\x00\x00\x00\x00\x00'
p2159
tp2160
Rp2161
sg32
(dp2162
g192
g2158
sg392
g2161
sg413
g11
(g98
S'\x03\x00\x00\x00\x00\x00\x00\x00'
p2163
tp2164
Rp2165
sg197
g11
(g15
S'\xcf\x98\x11\xc9\xa5\xe2\xd7?'
p2166
tp2167
Rp2168
ssg42
g11
(g12
(S'S6'
p2169
I0
I1
tp2170
Rp2171
(I3
S'|'
p2172
NNNI6
I1
I0
tp2173
bS'ISOMAP'
p2174
tp2175
Rp2176
sg51
F0.2
sg413
g2165
sg52
g11
(g12
(S'S3'
p2177
I0
I1
tp2178
Rp2179
(I3
S'|'
p2180
NNNI3
I1
I0
tp2181
bS'VGG'
p2182
tp2183
Rp2184
sg61
g11
(g15
S'\x17\x80\xb7\xff\xcd\xd3\xdc?'
p2185
tp2186
Rp2187
sg65
g11
(g12
(S'S2'
p2188
I0
I1
tp2189
Rp2190
(I3
S'|'
p2191
NNNI2
I1
I0
tp2192
bS'RF'
p2193
tp2194
Rp2195
sg74
I3
sg197
g2168
sg75
g76
sg77
g11
(g15
S'\x190\x8d\x01\xd3\x18\xe8?'
p2196
tp2197
Rp2198
sg81
g82
sg83
g84
sbag4
(g5
g6
Ntp2199
Rp2200
(dp2201
g10
g11
(g15
S'\x00\x00\x00\x00\x00\x00\xf8\xff'
p2202
tp2203
Rp2204
sg21
g29
sg30
g31
sg32
(dp2205
g21
g29
sg34
g11
(g15
S'\xdcF\xd4?\xb5&>@'
p2206
tp2207
Rp2208
sg95
g11
(g98
S'\x01\x00\x00\x00\x00\x00\x00\x00'
p2209
tp2210
Rp2211
sg38
g11
(g15
S'9\xb01\xc8\n*\x13@'
p2212
tp2213
Rp2214
ssg42
g11
(g12
(S'S3'
p2215
I0
I1
tp2216
Rp2217
(I3
S'|'
p2218
NNNI3
I1
I0
tp2219
bS'PCA'
p2220
tp2221
Rp2222
sg51
F0.2
sg38
g2214
sg52
g11
(g12
(S'S8'
p2223
I0
I1
tp2224
Rp2225
(I3
S'|'
p2226
NNNI8
I1
I0
tp2227
bS'haralick'
p2228
tp2229
Rp2230
sg34
g2208
sg95
g2211
sg61
g11
(g15
S'\xfb\x8f`<~s\xdd?'
p2231
tp2232
Rp2233
sg65
g11
(g12
(S'S3'
p2234
I0
I1
tp2235
Rp2236
(I3
S'|'
p2237
NNNI3
I1
I0
tp2238
bS'SVM'
p2239
tp2240
Rp2241
sg74
I3
sg75
g76
sg77
g11
(g15
S'0\x8d\x01\xd3\x180\xe5?'
p2242
tp2243
Rp2244
sg81
g82
sg83
g84
sbag4
(g5
g6
Ntp2245
Rp2246
(dp2247
g10
g11
(g15
S'\x00\x00\x00\x00\x00\x00\xf8\xff'
p2248
tp2249
Rp2250
sg392
g11
(g98
S'\x07\x00\x00\x00\x00\x00\x00\x00'
p2251
tp2252
Rp2253
sg30
g31
sg32
(dp2254
g392
g2253
sg34
g11
(g15
S'*\xdb\x1cX\xdf\x16O@'
p2255
tp2256
Rp2257
sg95
g11
(g98
S'\x03\x00\x00\x00\x00\x00\x00\x00'
p2258
tp2259
Rp2260
sg413
g11
(g98
S'\x02\x00\x00\x00\x00\x00\x00\x00'
p2261
tp2262
Rp2263
sg38
g11
(g15
S'\xfe\x08\xfeEQ\xa9\xfb?'
p2264
tp2265
Rp2266
ssg38
g2266
sg42
g11
(g12
(S'S6'
p2267
I0
I1
tp2268
Rp2269
(I3
S'|'
p2270
NNNI6
I1
I0
tp2271
bS'ISOMAP'
p2272
tp2273
Rp2274
sg51
F0.2
sg413
g2263
sg52
g11
(g12
(S'S8'
p2275
I0
I1
tp2276
Rp2277
(I3
S'|'
p2278
NNNI8
I1
I0
tp2279
bS'haralick'
p2280
tp2281
Rp2282
sg34
g2257
sg95
g2260
sg61
g11
(g15
S'q\xe5\x8fW\x11\x13\xe0?'
p2283
tp2284
Rp2285
sg65
g11
(g12
(S'S3'
p2286
I0
I1
tp2287
Rp2288
(I3
S'|'
p2289
NNNI3
I1
I0
tp2290
bS'SVM'
p2291
tp2292
Rp2293
sg74
I3
sg75
g76
sg77
g11
(g15
S'\x9bl\xb2\xc9&\x9b\xe4?'
p2294
tp2295
Rp2296
sg81
g82
sg83
g84
sbag4
(g5
g6
Ntp2297
Rp2298
(dp2299
g10
g11
(g15
S'\x00\x00\x00\x00\x00\x00\xf8\xff'
p2300
tp2301
Rp2302
sg21
g145
sg30
g31
sg32
(dp2303
g21
g145
sg34
g11
(g15
S'\xa8\xf2\x88@\xec\xcd>@'
p2304
tp2305
Rp2306
sg38
g11
(g15
S'\x9eY\x03\x8c\x9a\xa4\x18@'
p2307
tp2308
Rp2309
ssg42
g11
(g12
(S'S3'
p2310
I0
I1
tp2311
Rp2312
(I3
S'|'
p2313
NNNI3
I1
I0
tp2314
bS'PCA'
p2315
tp2316
Rp2317
sg51
F0.2
sg38
g2309
sg52
g11
(g12
(S'S3'
p2318
I0
I1
tp2319
Rp2320
(I3
S'|'
p2321
NNNI3
I1
I0
tp2322
bS'VGG'
p2323
tp2324
Rp2325
sg34
g2306
sg61
g11
(g15
S'\xb0\x9f\xd6\x80/\xd6\xe0?'
p2326
tp2327
Rp2328
sg65
g11
(g12
(S'S3'
p2329
I0
I1
tp2330
Rp2331
(I3
S'|'
p2332
NNNI3
I1
I0
tp2333
bS'SVM'
p2334
tp2335
Rp2336
sg74
I3
sg75
g76
sg77
g11
(g15
S'\x05yJ\x90\xa7\x04\xe9?'
p2337
tp2338
Rp2339
sg81
g82
sg83
g84
sbag4
(g5
g6
Ntp2340
Rp2341
(dp2342
g10
g11
(g15
S'\x00\x00\x00\x00\x00\x00\xf8\xff'
p2343
tp2344
Rp2345
sg192
g11
(g15
S'\x00\x00\x00\x00\x00`m@'
p2346
tp2347
Rp2348
sg21
g145
sg30
g31
sg32
(dp2349
g192
g2348
sg197
g11
(g15
S'^\xf4\xc2\xfc\x8f\x02\xed?'
p2350
tp2351
Rp2352
sg21
g145
ssg42
g11
(g12
(S'S3'
p2353
I0
I1
tp2354
Rp2355
(I3
S'|'
p2356
NNNI3
I1
I0
tp2357
bS'PCA'
p2358
tp2359
Rp2360
sg51
F0.2
sg52
g11
(g12
(S'S9'
p2361
I0
I1
tp2362
Rp2363
(I3
S'|'
p2364
NNNI9
I1
I0
tp2365
bS'inception'
p2366
tp2367
Rp2368
sg61
g11
(g15
S']\x15\xe2\xdd\x05\x94\xe1?'
p2369
tp2370
Rp2371
sg65
g11
(g12
(S'S2'
p2372
I0
I1
tp2373
Rp2374
(I3
S'|'
p2375
NNNI2
I1
I0
tp2376
bS'RF'
p2377
tp2378
Rp2379
sg74
I3
sg197
g2352
sg75
g76
sg77
g11
(g15
S'\x190\x8d\x01\xd3\x18\xe8?'
p2380
tp2381
Rp2382
sg81
g82
sg83
g84
sbag4
(g5
g6
Ntp2383
Rp2384
(dp2385
g10
g11
(g15
S'\x00\x00\x00\x00\x00\x00\xf8\xff'
p2386
tp2387
Rp2388
sg21
g29
sg30
g31
sg32
(dp2389
g21
g29
sg34
g11
(g15
S']}j7p\xbdR@'
p2390
tp2391
Rp2392
sg38
g11
(g15
S'=+\xde\xff\x8d\x94\x11@'
p2393
tp2394
Rp2395
ssg42
g11
(g12
(S'S3'
p2396
I0
I1
tp2397
Rp2398
(I3
S'|'
p2399
NNNI3
I1
I0
tp2400
bS'PCA'
p2401
tp2402
Rp2403
sg51
F0.2
sg38
g2395
sg52
g11
(g12
(S'S3'
p2404
I0
I1
tp2405
Rp2406
(I3
S'|'
p2407
NNNI3
I1
I0
tp2408
bS'VGG'
p2409
tp2410
Rp2411
sg34
g2392
sg61
g11
(g15
S'\x84\xcfn\xff\xbe\xcb\xe0?'
p2412
tp2413
Rp2414
sg65
g11
(g12
(S'S3'
p2415
I0
I1
tp2416
Rp2417
(I3
S'|'
p2418
NNNI3
I1
I0
tp2419
bS'SVM'
p2420
tp2421
Rp2422
sg74
I3
sg75
g76
sg77
g11
(g15
S'\x05yJ\x90\xa7\x04\xe9?'
p2423
tp2424
Rp2425
sg81
g82
sg83
g84
sbag4
(g5
g6
Ntp2426
Rp2427
(dp2428
g10
g11
(g15
S'\x00\x00\x00\x00\x00\x00\xf8\xff'
p2429
tp2430
Rp2431
sg21
g29
sg30
g31
sg32
(dp2432
g21
g29
sg34
g11
(g15
S'=\xfa\xaa\x14\xc2\x15@@'
p2433
tp2434
Rp2435
sg38
g11
(g15
S'>\x05\xd7\xc5\xbe\xf4\xed?'
p2436
tp2437
Rp2438
ssg42
g11
(g12
(S'S3'
p2439
I0
I1
tp2440
Rp2441
(I3
S'|'
p2442
NNNI3
I1
I0
tp2443
bS'PCA'
p2444
tp2445
Rp2446
sg51
F0.2
sg38
g2438
sg52
g11
(g12
(S'S3'
p2447
I0
I1
tp2448
Rp2449
(I3
S'|'
p2450
NNNI3
I1
I0
tp2451
bS'VGG'
p2452
tp2453
Rp2454
sg34
g2435
sg61
g11
(g15
S']\x9a\xbds\x93:\xe1?'
p2455
tp2456
Rp2457
sg65
g11
(g12
(S'S3'
p2458
I0
I1
tp2459
Rp2460
(I3
S'|'
p2461
NNNI3
I1
I0
tp2462
bS'SVM'
p2463
tp2464
Rp2465
sg74
I3
sg75
g76
sg77
g11
(g15
S'\x88\x88\x88\x88\x88\x88\xe8?'
p2466
tp2467
Rp2468
sg81
g82
sg83
g84
sbag4
(g5
g6
Ntp2469
Rp2470
(dp2471
g10
g11
(g15
S'\x00\x00\x00\x00\x00\x00\xf8\xff'
p2472
tp2473
Rp2474
sg192
g11
(g15
S'\x00\x00\x00\x00\x00@R@'
p2475
tp2476
Rp2477
sg30
g31
sg392
g11
(g98
S'\x03\x00\x00\x00\x00\x00\x00\x00'
p2478
tp2479
Rp2480
sg32
(dp2481
g192
g2477
sg392
g2480
sg413
g11
(g98
S'\x03\x00\x00\x00\x00\x00\x00\x00'
p2482
tp2483
Rp2484
sg197
g11
(g15
S'T\xf7\xfc\x9f\x05\xf4\xea?'
p2485
tp2486
Rp2487
ssg42
g11
(g12
(S'S6'
p2488
I0
I1
tp2489
Rp2490
(I3
S'|'
p2491
NNNI6
I1
I0
tp2492
bS'ISOMAP'
p2493
tp2494
Rp2495
sg51
F0.2
sg413
g2484
sg52
g11
(g12
(S'S3'
p2496
I0
I1
tp2497
Rp2498
(I3
S'|'
p2499
NNNI3
I1
I0
tp2500
bS'VGG'
p2501
tp2502
Rp2503
sg61
g11
(g15
S'\x95\t\xcc\x95f\xfb\xe1?'
p2504
tp2505
Rp2506
sg65
g11
(g12
(S'S2'
p2507
I0
I1
tp2508
Rp2509
(I3
S'|'
p2510
NNNI2
I1
I0
tp2511
bS'RF'
p2512
tp2513
Rp2514
sg74
I3
sg197
g2487
sg75
g76
sg77
g11
(g15
S'\xa4^G\xeau\xa4\xe6?'
p2515
tp2516
Rp2517
sg81
g82
sg83
g84
sbag4
(g5
g6
Ntp2518
Rp2519
(dp2520
g10
g11
(g15
S'\x00\x00\x00\x00\x00\x00\xf8\xff'
p2521
tp2522
Rp2523
sg192
g11
(g15
S'\x00\x00\x00\x00\x00\xc0r@'
p2524
tp2525
Rp2526
sg21
g29
sg30
g31
sg32
(dp2527
g192
g2526
sg197
g11
(g15
S'"\xe38p\xbb\xfd\xd5?'
p2528
tp2529
Rp2530
sg21
g29
ssg42
g11
(g12
(S'S3'
p2531
I0
I1
tp2532
Rp2533
(I3
S'|'
p2534
NNNI3
I1
I0
tp2535
bS'PCA'
p2536
tp2537
Rp2538
sg51
F0.2
sg52
g11
(g12
(S'S3'
p2539
I0
I1
tp2540
Rp2541
(I3
S'|'
p2542
NNNI3
I1
I0
tp2543
bS'VGG'
p2544
tp2545
Rp2546
sg61
g11
(g15
S'k\xd6\x17\xb7\x886\xdb?'
p2547
tp2548
Rp2549
sg65
g11
(g12
(S'S2'
p2550
I0
I1
tp2551
Rp2552
(I3
S'|'
p2553
NNNI2
I1
I0
tp2554
bS'RF'
p2555
tp2556
Rp2557
sg74
I3
sg197
g2530
sg75
g76
sg77
g11
(g15
S'\xfdY\xce\x9f\xe5\xfc\xe9?'
p2558
tp2559
Rp2560
sg81
g82
sg83
g84
sbag4
(g5
g6
Ntp2561
Rp2562
(dp2563
g10
g11
(g15
S'\x00\x00\x00\x00\x00\x00\xf8\xff'
p2564
tp2565
Rp2566
sg21
g145
sg30
g31
sg32
(dp2567
g21
g145
sg34
g11
(g15
S'\x99\xfd\xd2\x1dv\xe0J@'
p2568
tp2569
Rp2570
sg38
g11
(g15
S'\xea\xd25\xe4\x90\xd7\x07@'
p2571
tp2572
Rp2573
ssg42
g11
(g12
(S'S3'
p2574
I0
I1
tp2575
Rp2576
(I3
S'|'
p2577
NNNI3
I1
I0
tp2578
bS'PCA'
p2579
tp2580
Rp2581
sg51
F0.2
sg38
g2573
sg52
g11
(g12
(S'S9'
p2582
I0
I1
tp2583
Rp2584
(I3
S'|'
p2585
NNNI9
I1
I0
tp2586
bS'inception'
p2587
tp2588
Rp2589
sg34
g2570
sg61
g11
(g15
S'\x8b\xfb\xa9\xeb\x0f\xfd\xe0?'
p2590
tp2591
Rp2592
sg65
g11
(g12
(S'S3'
p2593
I0
I1
tp2594
Rp2595
(I3
S'|'
p2596
NNNI3
I1
I0
tp2597
bS'SVM'
p2598
tp2599
Rp2600
sg74
I3
sg75
g76
sg77
g11
(g15
S'\x8e\xd4\xebH\xbd\x8e\xe4?'
p2601
tp2602
Rp2603
sg81
g82
sg83
g84
sbag4
(g5
g6
Ntp2604
Rp2605
(dp2606
g10
g11
(g15
S'\x00\x00\x00\x00\x00\x00\xf8\xff'
p2607
tp2608
Rp2609
sg192
g11
(g15
S'\x00\x00\x00\x00\x00\xc0r@'
p2610
tp2611
Rp2612
sg30
g31
sg392
g11
(g98
S'\x06\x00\x00\x00\x00\x00\x00\x00'
p2613
tp2614
Rp2615
sg32
(dp2616
g192
g2612
sg392
g2615
sg413
g11
(g98
S'\x04\x00\x00\x00\x00\x00\x00\x00'
p2617
tp2618
Rp2619
sg197
g11
(g15
S'\xb6Gb\xe9/\x06\xe7?'
p2620
tp2621
Rp2622
ssg42
g11
(g12
(S'S6'
p2623
I0
I1
tp2624
Rp2625
(I3
S'|'
p2626
NNNI6
I1
I0
tp2627
bS'ISOMAP'
p2628
tp2629
Rp2630
sg51
F0.2
sg413
g2619
sg52
g11
(g12
(S'S3'
p2631
I0
I1
tp2632
Rp2633
(I3
S'|'
p2634
NNNI3
I1
I0
tp2635
bS'VGG'
p2636
tp2637
Rp2638
sg61
g11
(g15
S'\x9b\xa2\xb7\xd4\xd7\x15\xdc?'
p2639
tp2640
Rp2641
sg65
g11
(g12
(S'S2'
p2642
I0
I1
tp2643
Rp2644
(I3
S'|'
p2645
NNNI2
I1
I0
tp2646
bS'RF'
p2647
tp2648
Rp2649
sg74
I3
sg197
g2622
sg75
g76
sg77
g11
(g15
S'\r\x98\xc6\x80i\x0c\xe8?'
p2650
tp2651
Rp2652
sg81
g82
sg83
g84
sbag4
(g5
g6
Ntp2653
Rp2654
(dp2655
g10
g11
(g15
S'\x00\x00\x00\x00\x00\x00\xf8\xff'
p2656
tp2657
Rp2658
sg21
g145
sg30
g31
sg32
(dp2659
g21
g145
sg34
g11
(g15
S'\xd0\xc5H\xe9M\xd0"@'
p2660
tp2661
Rp2662
sg38
g11
(g15
S'\xea\xf5\x04\x08MR\x1c@'
p2663
tp2664
Rp2665
ssg42
g11
(g12
(S'S3'
p2666
I0
I1
tp2667
Rp2668
(I3
S'|'
p2669
NNNI3
I1
I0
tp2670
bS'PCA'
p2671
tp2672
Rp2673
sg51
F0.2
sg38
g2665
sg52
g11
(g12
(S'S3'
p2674
I0
I1
tp2675
Rp2676
(I3
S'|'
p2677
NNNI3
I1
I0
tp2678
bS'VGG'
p2679
tp2680
Rp2681
sg34
g2662
sg61
g11
(g15
S'u\x8b\xa0s\xd9\xe7\xe0?'
p2682
tp2683
Rp2684
sg65
g11
(g12
(S'S3'
p2685
I0
I1
tp2686
Rp2687
(I3
S'|'
p2688
NNNI3
I1
I0
tp2689
bS'SVM'
p2690
tp2691
Rp2692
sg74
I3
sg75
g76
sg77
g11
(g15
S'\x05yJ\x90\xa7\x04\xe9?'
p2693
tp2694
Rp2695
sg81
g82
sg83
g84
sbag4
(g5
g6
Ntp2696
Rp2697
(dp2698
g10
g11
(g15
S'\x00\x00\x00\x00\x00\x00\xf8\xff'
p2699
tp2700
Rp2701
sg192
g11
(g15
S'\x00\x00\x00\x00\x00\x00D@'
p2702
tp2703
Rp2704
sg21
g145
sg30
g31
sg32
(dp2705
g192
g2704
sg197
g11
(g15
S'\xfb\xd1;3\x05\x16\xe6?'
p2706
tp2707
Rp2708
sg21
g145
sg95
g11
(g98
S'\x01\x00\x00\x00\x00\x00\x00\x00'
p2709
tp2710
Rp2711
ssg42
g11
(g12
(S'S3'
p2712
I0
I1
tp2713
Rp2714
(I3
S'|'
p2715
NNNI3
I1
I0
tp2716
bS'PCA'
p2717
tp2718
Rp2719
sg51
F0.2
sg52
g11
(g12
(S'S8'
p2720
I0
I1
tp2721
Rp2722
(I3
S'|'
p2723
NNNI8
I1
I0
tp2724
bS'haralick'
p2725
tp2726
Rp2727
sg95
g2711
sg61
g11
(g15
S'8\xff$fP{\t@'
p2728
tp2729
Rp2730
sg65
g11
(g12
(S'S2'
p2731
I0
I1
tp2732
Rp2733
(I3
S'|'
p2734
NNNI2
I1
I0
tp2735
bS'RF'
p2736
tp2737
Rp2738
sg74
I3
sg197
g2708
sg75
g76
sg77
g11
(g15
S'\x1c\xd6\xbea\xed\x1b\xe6?'
p2739
tp2740
Rp2741
sg81
g82
sg83
g84
sbag4
(g5
g6
Ntp2742
Rp2743
(dp2744
g10
g11
(g15
S'\x00\x00\x00\x00\x00\x00\xf8\xff'
p2745
tp2746
Rp2747
sg21
g145
sg30
g31
sg32
(dp2748
g21
g145
sg34
g11
(g15
S'n"j ECQ@'
p2749
tp2750
Rp2751
sg38
g11
(g15
S'd\xdd\xf9\xf6\xd9\x1a\x1b@'
p2752
tp2753
Rp2754
ssg42
g11
(g12
(S'S3'
p2755
I0
I1
tp2756
Rp2757
(I3
S'|'
p2758
NNNI3
I1
I0
tp2759
bS'PCA'
p2760
tp2761
Rp2762
sg51
F0.2
sg38
g2754
sg52
g11
(g12
(S'S9'
p2763
I0
I1
tp2764
Rp2765
(I3
S'|'
p2766
NNNI9
I1
I0
tp2767
bS'inception'
p2768
tp2769
Rp2770
sg34
g2751
sg61
g11
(g15
S'i}@\xfeYx\xe1?'
p2771
tp2772
Rp2773
sg65
g11
(g12
(S'S3'
p2774
I0
I1
tp2775
Rp2776
(I3
S'|'
p2777
NNNI3
I1
I0
tp2778
bS'SVM'
p2779
tp2780
Rp2781
sg74
I3
sg75
g76
sg77
g11
(g15
S'{\x1d\xa9\xd7\x91z\xe5?'
p2782
tp2783
Rp2784
sg81
g82
sg83
g84
sbag4
(g5
g6
Ntp2785
Rp2786
(dp2787
g10
g11
(g15
S'\x00\x00\x00\x00\x00\x00\xf8\xff'
p2788
tp2789
Rp2790
sg192
g11
(g15
S'\x00\x00\x00\x00\x00@R@'
p2791
tp2792
Rp2793
sg21
g145
sg30
g31
sg32
(dp2794
g192
g2793
sg197
g11
(g15
S'\xbc\xd0@\xe1f\xfd\xe6?'
p2795
tp2796
Rp2797
sg21
g145
ssg42
g11
(g12
(S'S3'
p2798
I0
I1
tp2799
Rp2800
(I3
S'|'
p2801
NNNI3
I1
I0
tp2802
bS'PCA'
p2803
tp2804
Rp2805
sg51
F0.2
sg52
g11
(g12
(S'S9'
p2806
I0
I1
tp2807
Rp2808
(I3
S'|'
p2809
NNNI9
I1
I0
tp2810
bS'inception'
p2811
tp2812
Rp2813
sg61
g11
(g15
S'\x1f\x9c\x11\xd0\xbe\xc9\xe0?'
p2814
tp2815
Rp2816
sg65
g11
(g12
(S'S2'
p2817
I0
I1
tp2818
Rp2819
(I3
S'|'
p2820
NNNI2
I1
I0
tp2821
bS'RF'
p2822
tp2823
Rp2824
sg74
I3
sg197
g2797
sg75
g76
sg77
g11
(g15
S'|\xf0\xc1\x07\x1f|\xe8?'
p2825
tp2826
Rp2827
sg81
g82
sg83
g84
sbag4
(g5
g6
Ntp2828
Rp2829
(dp2830
g10
g11
(g15
S'\x00\x00\x00\x00\x00\x00\xf8\xff'
p2831
tp2832
Rp2833
sg392
g11
(g98
S'\x03\x00\x00\x00\x00\x00\x00\x00'
p2834
tp2835
Rp2836
sg30
g31
sg32
(dp2837
g392
g2836
sg34
g11
(g15
S'\xd0\x98\xe7\xf2\n\xaaR@'
p2838
tp2839
Rp2840
sg95
g11
(g98
S'\x02\x00\x00\x00\x00\x00\x00\x00'
p2841
tp2842
Rp2843
sg413
g11
(g98
S'\x02\x00\x00\x00\x00\x00\x00\x00'
p2844
tp2845
Rp2846
sg38
g11
(g15
S'\x83\x9d\xac3\xaa\xeb\x17@'
p2847
tp2848
Rp2849
ssg38
g2849
sg42
g11
(g12
(S'S6'
p2850
I0
I1
tp2851
Rp2852
(I3
S'|'
p2853
NNNI6
I1
I0
tp2854
bS'ISOMAP'
p2855
tp2856
Rp2857
sg51
F0.2
sg413
g2846
sg52
g11
(g12
(S'S8'
p2858
I0
I1
tp2859
Rp2860
(I3
S'|'
p2861
NNNI8
I1
I0
tp2862
bS'haralick'
p2863
tp2864
Rp2865
sg34
g2840
sg95
g2843
sg61
g11
(g15
S'M\xf8[\x03\x91j\xe0?'
p2866
tp2867
Rp2868
sg65
g11
(g12
(S'S3'
p2869
I0
I1
tp2870
Rp2871
(I3
S'|'
p2872
NNNI3
I1
I0
tp2873
bS'SVM'
p2874
tp2875
Rp2876
sg74
I3
sg75
g76
sg77
g11
(g15
S'\x90\xa7\x04yJ\x90\xe7?'
p2877
tp2878
Rp2879
sg81
g82
sg83
g84
sbag4
(g5
g6
Ntp2880
Rp2881
(dp2882
g10
g11
(g15
S'\x00\x00\x00\x00\x00\x00\xf8\xff'
p2883
tp2884
Rp2885
sg192
g11
(g15
S'\x00\x00\x00\x00\x00`i@'
p2886
tp2887
Rp2888
sg30
g31
sg392
g11
(g98
S'\x06\x00\x00\x00\x00\x00\x00\x00'
p2889
tp2890
Rp2891
sg32
(dp2892
g192
g2888
sg392
g2891
sg413
g11
(g98
S'\x03\x00\x00\x00\x00\x00\x00\x00'
p2893
tp2894
Rp2895
sg197
g11
(g15
S'8\xe9\xc9\x14p\xa0\xea?'
p2896
tp2897
Rp2898
ssg42
g11
(g12
(S'S6'
p2899
I0
I1
tp2900
Rp2901
(I3
S'|'
p2902
NNNI6
I1
I0
tp2903
bS'ISOMAP'
p2904
tp2905
Rp2906
sg51
F0.2
sg413
g2895
sg52
g11
(g12
(S'S3'
p2907
I0
I1
tp2908
Rp2909
(I3
S'|'
p2910
NNNI3
I1
I0
tp2911
bS'VGG'
p2912
tp2913
Rp2914
sg61
g11
(g15
S'H\xa6UH 5\xdf?'
p2915
tp2916
Rp2917
sg65
g11
(g12
(S'S2'
p2918
I0
I1
tp2919
Rp2920
(I3
S'|'
p2921
NNNI2
I1
I0
tp2922
bS'RF'
p2923
tp2924
Rp2925
sg74
I3
sg197
g2898
sg75
g76
sg77
g11
(g15
S'\x95 O\t\xf2\x94\xe8?'
p2926
tp2927
Rp2928
sg81
g82
sg83
g84
sbag4
(g5
g6
Ntp2929
Rp2930
(dp2931
g10
g11
(g15
S'\x00\x00\x00\x00\x00\x00\xf8\xff'
p2932
tp2933
Rp2934
sg392
g11
(g98
S'\x03\x00\x00\x00\x00\x00\x00\x00'
p2935
tp2936
Rp2937
sg30
g31
sg32
(dp2938
g392
g2937
sg34
g11
(g15
S'\xdeG\x02\xac\xb2\x9bU@'
p2939
tp2940
Rp2941
sg413
g11
(g98
S'\x02\x00\x00\x00\x00\x00\x00\x00'
p2942
tp2943
Rp2944
sg38
g11
(g15
S'\xea\x8a\xa9+\xa3o\x11@'
p2945
tp2946
Rp2947
ssg38
g2947
sg42
g11
(g12
(S'S6'
p2948
I0
I1
tp2949
Rp2950
(I3
S'|'
p2951
NNNI6
I1
I0
tp2952
bS'ISOMAP'
p2953
tp2954
Rp2955
sg51
F0.2
sg413
g2944
sg52
g11
(g12
(S'S3'
p2956
I0
I1
tp2957
Rp2958
(I3
S'|'
p2959
NNNI3
I1
I0
tp2960
bS'VGG'
p2961
tp2962
Rp2963
sg34
g2941
sg61
g11
(g15
S'6\xe8\x1b{\xb1<\xe1?'
p2964
tp2965
Rp2966
sg65
g11
(g12
(S'S3'
p2967
I0
I1
tp2968
Rp2969
(I3
S'|'
p2970
NNNI3
I1
I0
tp2971
bS'SVM'
p2972
tp2973
Rp2974
sg74
I3
sg75
g76
sg77
g11
(g15
S'\x190\x8d\x01\xd3\x18\xe8?'
p2975
tp2976
Rp2977
sg81
g82
sg83
g84
sbag4
(g5
g6
Ntp2978
Rp2979
(dp2980
g10
g11
(g15
S'\x00\x00\x00\x00\x00\x00\xf8\xff'
p2981
tp2982
Rp2983
sg192
g11
(g15
S'\x00\x00\x00\x00\x00\x00D@'
p2984
tp2985
Rp2986
sg21
g29
sg30
g31
sg32
(dp2987
g192
g2986
sg197
g11
(g15
S'L\x89K\rD\xaf\xef?'
p2988
tp2989
Rp2990
sg21
g29
ssg42
g11
(g12
(S'S3'
p2991
I0
I1
tp2992
Rp2993
(I3
S'|'
p2994
NNNI3
I1
I0
tp2995
bS'PCA'
p2996
tp2997
Rp2998
sg51
F0.2
sg52
g11
(g12
(S'S9'
p2999
I0
I1
tp3000
Rp3001
(I3
S'|'
p3002
NNNI9
I1
I0
tp3003
bS'inception'
p3004
tp3005
Rp3006
sg61
g11
(g15
S'\xd8\xdd\xb2\x0e\xe4\x8d\xe2?'
p3007
tp3008
Rp3009
sg65
g11
(g12
(S'S2'
p3010
I0
I1
tp3011
Rp3012
(I3
S'|'
p3013
NNNI2
I1
I0
tp3014
bS'RF'
p3015
tp3016
Rp3017
sg74
I3
sg197
g2990
sg75
g76
sg77
g11
(g15
S'\x15\xb7Bq+\x14\xe7?'
p3018
tp3019
Rp3020
sg81
g82
sg83
g84
sbag4
(g5
g6
Ntp3021
Rp3022
(dp3023
g10
g11
(g15
S'\x00\x00\x00\x00\x00\x00\xf8\xff'
p3024
tp3025
Rp3026
sg21
g145
sg30
g31
sg32
(dp3027
g21
g145
sg34
g11
(g15
S'\xeb\xb0\x01|\x94\xb4L@'
p3028
tp3029
Rp3030
sg38
g11
(g15
S']\xb1\xdd\xe9ax\x12@'
p3031
tp3032
Rp3033
ssg42
g11
(g12
(S'S3'
p3034
I0
I1
tp3035
Rp3036
(I3
S'|'
p3037
NNNI3
I1
I0
tp3038
bS'PCA'
p3039
tp3040
Rp3041
sg51
F0.2
sg38
g3033
sg52
g11
(g12
(S'S3'
p3042
I0
I1
tp3043
Rp3044
(I3
S'|'
p3045
NNNI3
I1
I0
tp3046
bS'VGG'
p3047
tp3048
Rp3049
sg34
g3030
sg61
g11
(g15
S'W\x94\xa2\x17x!\xe1?'
p3050
tp3051
Rp3052
sg65
g11
(g12
(S'S3'
p3053
I0
I1
tp3054
Rp3055
(I3
S'|'
p3056
NNNI3
I1
I0
tp3057
bS'SVM'
p3058
tp3059
Rp3060
sg74
I3
sg75
g76
sg77
g11
(g15
S'\x05yJ\x90\xa7\x04\xe9?'
p3061
tp3062
Rp3063
sg81
g82
sg83
g84
sbag4
(g5
g6
Ntp3064
Rp3065
(dp3066
g10
g11
(g15
S'\x00\x00\x00\x00\x00\x00\xf8\xff'
p3067
tp3068
Rp3069
sg192
g11
(g15
S'\x00\x00\x00\x00\x00\x00 @'
p3070
tp3071
Rp3072
sg21
g29
sg30
g31
sg32
(dp3073
g192
g3072
sg197
g11
(g15
S'l\xa6\xba\xf9z.\xe9?'
p3074
tp3075
Rp3076
sg21
g29
ssg42
g11
(g12
(S'S3'
p3077
I0
I1
tp3078
Rp3079
(I3
S'|'
p3080
NNNI3
I1
I0
tp3081
bS'PCA'
p3082
tp3083
Rp3084
sg51
F0.2
sg52
g11
(g12
(S'S9'
p3085
I0
I1
tp3086
Rp3087
(I3
S'|'
p3088
NNNI9
I1
I0
tp3089
bS'inception'
p3090
tp3091
Rp3092
sg61
g11
(g15
S'\xcdCa\x0e{\x01\x04@'
p3093
tp3094
Rp3095
sg65
g11
(g12
(S'S2'
p3096
I0
I1
tp3097
Rp3098
(I3
S'|'
p3099
NNNI2
I1
I0
tp3100
bS'RF'
p3101
tp3102
Rp3103
sg74
I3
sg197
g3076
sg75
g76
sg77
g11
(g15
S'\x98\xc6\x80i\x0c\x98\xe6?'
p3104
tp3105
Rp3106
sg81
g82
sg83
g84
sbag4
(g5
g6
Ntp3107
Rp3108
(dp3109
g10
g11
(g15
S'\x00\x00\x00\x00\x00\x00\xf8\xff'
p3110
tp3111
Rp3112
sg392
g11
(g98
S'\x03\x00\x00\x00\x00\x00\x00\x00'
p3113
tp3114
Rp3115
sg30
g31
sg32
(dp3116
g392
g3115
sg34
g11
(g15
S'\x0b\x88E\xa6,\xbaS@'
p3117
tp3118
Rp3119
sg413
g11
(g98
S'\x03\x00\x00\x00\x00\x00\x00\x00'
p3120
tp3121
Rp3122
sg38
g11
(g15
S'\x0b\xb5\xab\xd5\xa2\xc1\xd5?'
p3123
tp3124
Rp3125
ssg38
g3125
sg42
g11
(g12
(S'S6'
p3126
I0
I1
tp3127
Rp3128
(I3
S'|'
p3129
NNNI6
I1
I0
tp3130
bS'ISOMAP'
p3131
tp3132
Rp3133
sg51
F0.2
sg413
g3122
sg52
g11
(g12
(S'S3'
p3134
I0
I1
tp3135
Rp3136
(I3
S'|'
p3137
NNNI3
I1
I0
tp3138
bS'VGG'
p3139
tp3140
Rp3141
sg34
g3119
sg61
g11
(g15
S'V\xaf\xb3\x1eb6\xe0?'
p3142
tp3143
Rp3144
sg65
g11
(g12
(S'S3'
p3145
I0
I1
tp3146
Rp3147
(I3
S'|'
p3148
NNNI3
I1
I0
tp3149
bS'SVM'
p3150
tp3151
Rp3152
sg74
I3
sg75
g76
sg77
g11
(g15
S'\xb0\xf6\rk\xdf\xb0\xe6?'
p3153
tp3154
Rp3155
sg81
g82
sg83
g84
sbag4
(g5
g6
Ntp3156
Rp3157
(dp3158
g10
g11
(g15
S'\x00\x00\x00\x00\x00\x00\xf8\xff'
p3159
tp3160
Rp3161
sg392
g11
(g98
S'\x07\x00\x00\x00\x00\x00\x00\x00'
p3162
tp3163
Rp3164
sg30
g31
sg32
(dp3165
g392
g3164
sg34
g11
(g15
S'\xdbG\xc6z[\x90X@'
p3166
tp3167
Rp3168
sg95
g11
(g98
S'\x02\x00\x00\x00\x00\x00\x00\x00'
p3169
tp3170
Rp3171
sg413
g11
(g98
S'\x04\x00\x00\x00\x00\x00\x00\x00'
p3172
tp3173
Rp3174
sg38
g11
(g15
S'd\x1b\xb1v\x0f\x08\x15@'
p3175
tp3176
Rp3177
ssg38
g3177
sg42
g11
(g12
(S'S6'
p3178
I0
I1
tp3179
Rp3180
(I3
S'|'
p3181
NNNI6
I1
I0
tp3182
bS'ISOMAP'
p3183
tp3184
Rp3185
sg51
F0.2
sg413
g3174
sg52
g11
(g12
(S'S8'
p3186
I0
I1
tp3187
Rp3188
(I3
S'|'
p3189
NNNI8
I1
I0
tp3190
bS'haralick'
p3191
tp3192
Rp3193
sg34
g3168
sg95
g3171
sg61
g11
(g15
S'\x84\xd0X\xa64U\xe1?'
p3194
tp3195
Rp3196
sg65
g11
(g12
(S'S3'
p3197
I0
I1
tp3198
Rp3199
(I3
S'|'
p3200
NNNI3
I1
I0
tp3201
bS'SVM'
p3202
tp3203
Rp3204
sg74
I3
sg75
g76
sg77
g11
(g15
S'\x95 O\t\xf2\x94\xe8?'
p3205
tp3206
Rp3207
sg81
g82
sg83
g84
sbag4
(g5
g6
Ntp3208
Rp3209
(dp3210
g10
g11
(g15
S'\x00\x00\x00\x00\x00\x00\xf8\xff'
p3211
tp3212
Rp3213
sg392
g11
(g98
S'\x06\x00\x00\x00\x00\x00\x00\x00'
p3214
tp3215
Rp3216
sg30
g31
sg32
(dp3217
g392
g3216
sg34
g11
(g15
S'\x9c\xc3h\xce\x16\xacU@'
p3218
tp3219
Rp3220
sg413
g11
(g98
S'\x02\x00\x00\x00\x00\x00\x00\x00'
p3221
tp3222
Rp3223
sg38
g11
(g15
S'\xde\xeb\x00\x1d\xe2\x04\xfe?'
p3224
tp3225
Rp3226
ssg38
g3226
sg42
g11
(g12
(S'S6'
p3227
I0
I1
tp3228
Rp3229
(I3
S'|'
p3230
NNNI6
I1
I0
tp3231
bS'ISOMAP'
p3232
tp3233
Rp3234
sg51
F0.2
sg413
g3223
sg52
g11
(g12
(S'S9'
p3235
I0
I1
tp3236
Rp3237
(I3
S'|'
p3238
NNNI9
I1
I0
tp3239
bS'inception'
p3240
tp3241
Rp3242
sg34
g3220
sg61
g11
(g15
S'\xaf\xf3a3\xcfg\xe2?'
p3243
tp3244
Rp3245
sg65
g11
(g12
(S'S3'
p3246
I0
I1
tp3247
Rp3248
(I3
S'|'
p3249
NNNI3
I1
I0
tp3250
bS'SVM'
p3251
tp3252
Rp3253
sg74
I3
sg75
g76
sg77
g11
(g15
S'\rk\xdf\xb0\xf6\r\xe3?'
p3254
tp3255
Rp3256
sg81
g82
sg83
g84
sbag4
(g5
g6
Ntp3257
Rp3258
(dp3259
g10
g11
(g15
S'\x00\x00\x00\x00\x00\x00\xf8\xff'
p3260
tp3261
Rp3262
sg392
g11
(g98
S'\x03\x00\x00\x00\x00\x00\x00\x00'
p3263
tp3264
Rp3265
sg30
g31
sg32
(dp3266
g392
g3265
sg34
g11
(g15
S'\x9b\xd1\x8c\x11\xd0\xc4I@'
p3267
tp3268
Rp3269
sg95
g11
(g98
S'\x01\x00\x00\x00\x00\x00\x00\x00'
p3270
tp3271
Rp3272
sg413
g11
(g98
S'\x04\x00\x00\x00\x00\x00\x00\x00'
p3273
tp3274
Rp3275
sg38
g11
(g15
S'w\xec\xa3/\xa9\xb8\x13@'
p3276
tp3277
Rp3278
ssg38
g3278
sg42
g11
(g12
(S'S6'
p3279
I0
I1
tp3280
Rp3281
(I3
S'|'
p3282
NNNI6
I1
I0
tp3283
bS'ISOMAP'
p3284
tp3285
Rp3286
sg51
F0.2
sg413
g3275
sg52
g11
(g12
(S'S8'
p3287
I0
I1
tp3288
Rp3289
(I3
S'|'
p3290
NNNI8
I1
I0
tp3291
bS'haralick'
p3292
tp3293
Rp3294
sg34
g3269
sg95
g3272
sg61
g11
(g15
S'!\xbeW\xcf\x8f\xfe\xe3?'
p3295
tp3296
Rp3297
sg65
g11
(g12
(S'S3'
p3298
I0
I1
tp3299
Rp3300
(I3
S'|'
p3301
NNNI3
I1
I0
tp3302
bS'SVM'
p3303
tp3304
Rp3305
sg74
I3
sg75
g76
sg77
g11
(g15
S'(n\x85\xe2V(\xe6?'
p3306
tp3307
Rp3308
sg81
g82
sg83
g84
sbag278
ag4
(g5
g6
Ntp3309
Rp3310
(dp3311
g10
g11
(g15
S'\x00\x00\x00\x00\x00\x00\xf8\xff'
p3312
tp3313
Rp3314
sg21
g145
sg30
g31
sg32
(dp3315
g21
g145
sg34
g11
(g15
S'\x15Q\xf5Q\xd5-T@'
p3316
tp3317
Rp3318
sg38
g11
(g15
S'\x03\xb8`6\x94A\x13@'
p3319
tp3320
Rp3321
ssg42
g11
(g12
(S'S3'
p3322
I0
I1
tp3323
Rp3324
(I3
S'|'
p3325
NNNI3
I1
I0
tp3326
bS'PCA'
p3327
tp3328
Rp3329
sg51
F0.2
sg38
g3321
sg52
g11
(g12
(S'S9'
p3330
I0
I1
tp3331
Rp3332
(I3
S'|'
p3333
NNNI9
I1
I0
tp3334
bS'inception'
p3335
tp3336
Rp3337
sg34
g3318
sg61
g11
(g15
S'\xb3\xcaL\xdfn\xad\xe1?'
p3338
tp3339
Rp3340
sg65
g11
(g12
(S'S3'
p3341
I0
I1
tp3342
Rp3343
(I3
S'|'
p3344
NNNI3
I1
I0
tp3345
bS'SVM'
p3346
tp3347
Rp3348
sg74
I3
sg75
g76
sg77
g11
(g15
S'\x0b\xc5\xadP\xdc\n\xe5?'
p3349
tp3350
Rp3351
sg81
g82
sg83
g84
sbag4
(g5
g6
Ntp3352
Rp3353
(dp3354
g10
g11
(g15
S'\x00\x00\x00\x00\x00\x00\xf8\xff'
p3355
tp3356
Rp3357
sg392
g11
(g98
S'\x07\x00\x00\x00\x00\x00\x00\x00'
p3358
tp3359
Rp3360
sg30
g31
sg32
(dp3361
g392
g3360
sg34
g11
(g15
S'g\xf75\xd4H\x0eI@'
p3362
tp3363
Rp3364
sg413
g11
(g98
S'\x04\x00\x00\x00\x00\x00\x00\x00'
p3365
tp3366
Rp3367
sg38
g11
(g15
S"\xf4\xfd\x94\x90'\xdb\x1b@"
p3368
tp3369
Rp3370
ssg38
g3370
sg42
g11
(g12
(S'S6'
p3371
I0
I1
tp3372
Rp3373
(I3
S'|'
p3374
NNNI6
I1
I0
tp3375
bS'ISOMAP'
p3376
tp3377
Rp3378
sg51
F0.2
sg413
g3367
sg52
g11
(g12
(S'S3'
p3379
I0
I1
tp3380
Rp3381
(I3
S'|'
p3382
NNNI3
I1
I0
tp3383
bS'VGG'
p3384
tp3385
Rp3386
sg34
g3364
sg61
g11
(g15
S'\t\xeb\xc4\x1d]\x06\xe2?'
p3387
tp3388
Rp3389
sg65
g11
(g12
(S'S3'
p3390
I0
I1
tp3391
Rp3392
(I3
S'|'
p3393
NNNI3
I1
I0
tp3394
bS'SVM'
p3395
tp3396
Rp3397
sg74
I3
sg75
g76
sg77
g11
(g15
S'\x11\x11\x11\x11\x11\x11\xe9?'
p3398
tp3399
Rp3400
sg81
g82
sg83
g84
sbag4
(g5
g6
Ntp3401
Rp3402
(dp3403
g10
g11
(g15
S'\x00\x00\x00\x00\x00\x00\xf8\xff'
p3404
tp3405
Rp3406
sg192
g11
(g15
S'\x00\x00\x00\x00\x00@Z@'
p3407
tp3408
Rp3409
sg21
g29
sg30
g31
sg32
(dp3410
g192
g3409
sg197
g11
(g15
S'U\xca[\x1e\x7f\xef\xdd?'
p3411
tp3412
Rp3413
sg21
g29
ssg42
g11
(g12
(S'S3'
p3414
I0
I1
tp3415
Rp3416
(I3
S'|'
p3417
NNNI3
I1
I0
tp3418
bS'PCA'
p3419
tp3420
Rp3421
sg51
F0.2
sg52
g11
(g12
(S'S3'
p3422
I0
I1
tp3423
Rp3424
(I3
S'|'
p3425
NNNI3
I1
I0
tp3426
bS'VGG'
p3427
tp3428
Rp3429
sg61
g11
(g15
S'\xabr:\xf8\x04|\xdc?'
p3430
tp3431
Rp3432
sg65
g11
(g12
(S'S2'
p3433
I0
I1
tp3434
Rp3435
(I3
S'|'
p3436
NNNI2
I1
I0
tp3437
bS'RF'
p3438
tp3439
Rp3440
sg74
I3
sg197
g3413
sg75
g76
sg77
g11
(g15
S'\x15\x8a[\xa1\xb8\x15\xea?'
p3441
tp3442
Rp3443
sg81
g82
sg83
g84
sbag4
(g5
g6
Ntp3444
Rp3445
(dp3446
g10
g11
(g15
S'\x00\x00\x00\x00\x00\x00\xf8\xff'
p3447
tp3448
Rp3449
sg192
g11
(g15
S'\x00\x00\x00\x00\x00\xc0p@'
p3450
tp3451
Rp3452
sg30
g31
sg392
g11
(g98
S'\x06\x00\x00\x00\x00\x00\x00\x00'
p3453
tp3454
Rp3455
sg32
(dp3456
g192
g3452
sg392
g3455
sg413
g11
(g98
S'\x04\x00\x00\x00\x00\x00\x00\x00'
p3457
tp3458
Rp3459
sg197
g11
(g15
S' \x84\xf0=\xe3a\xeb?'
p3460
tp3461
Rp3462
ssg42
g11
(g12
(S'S6'
p3463
I0
I1
tp3464
Rp3465
(I3
S'|'
p3466
NNNI6
I1
I0
tp3467
bS'ISOMAP'
p3468
tp3469
Rp3470
sg51
F0.2
sg413
g3459
sg52
g11
(g12
(S'S3'
p3471
I0
I1
tp3472
Rp3473
(I3
S'|'
p3474
NNNI3
I1
I0
tp3475
bS'VGG'
p3476
tp3477
Rp3478
sg61
g11
(g15
S'C~\x17\x81E\xe1\xdc?'
p3479
tp3480
Rp3481
sg65
g11
(g12
(S'S2'
p3482
I0
I1
tp3483
Rp3484
(I3
S'|'
p3485
NNNI2
I1
I0
tp3486
bS'RF'
p3487
tp3488
Rp3489
sg74
I3
sg197
g3462
sg75
g76
sg77
g11
(g15
S'\r\x98\xc6\x80i\x0c\xe8?'
p3490
tp3491
Rp3492
sg81
g82
sg83
g84
sbag4
(g5
g6
Ntp3493
Rp3494
(dp3495
g10
g11
(g15
S'\x00\x00\x00\x00\x00\x00\xf8\xff'
p3496
tp3497
Rp3498
sg192
g11
(g15
S'\x00\x00\x00\x00\x00@Z@'
p3499
tp3500
Rp3501
sg30
g31
sg392
g11
(g98
S'\x04\x00\x00\x00\x00\x00\x00\x00'
p3502
tp3503
Rp3504
sg32
(dp3505
g192
g3501
sg392
g3504
sg95
g11
(g98
S'\x02\x00\x00\x00\x00\x00\x00\x00'
p3506
tp3507
Rp3508
sg413
g11
(g98
S'\x02\x00\x00\x00\x00\x00\x00\x00'
p3509
tp3510
Rp3511
sg197
g11
(g15
S'\xbcc\xfdR2\xb4\xe5?'
p3512
tp3513
Rp3514
ssg42
g11
(g12
(S'S6'
p3515
I0
I1
tp3516
Rp3517
(I3
S'|'
p3518
NNNI6
I1
I0
tp3519
bS'ISOMAP'
p3520
tp3521
Rp3522
sg51
F0.2
sg413
g3511
sg52
g11
(g12
(S'S8'
p3523
I0
I1
tp3524
Rp3525
(I3
S'|'
p3526
NNNI8
I1
I0
tp3527
bS'haralick'
p3528
tp3529
Rp3530
sg95
g3508
sg61
g11
(g15
S']\xd4\xf9k\x9c\xa2\xf7?'
p3531
tp3532
Rp3533
sg65
g11
(g12
(S'S2'
p3534
I0
I1
tp3535
Rp3536
(I3
S'|'
p3537
NNNI2
I1
I0
tp3538
bS'RF'
p3539
tp3540
Rp3541
sg74
I3
sg197
g3514
sg75
g76
sg77
g11
(g15
S'\x99\x99\x99\x99\x99\x99\xe9?'
p3542
tp3543
Rp3544
sg81
g82
sg83
g84
sbag4
(g5
g6
Ntp3545
Rp3546
(dp3547
g10
g11
(g15
S'\x00\x00\x00\x00\x00\x00\xf8\xff'
p3548
tp3549
Rp3550
sg192
g11
(g15
S'\x00\x00\x00\x00\x00`m@'
p3551
tp3552
Rp3553
sg21
g29
sg30
g31
sg32
(dp3554
g192
g3553
sg197
g11
(g15
S'\xfe]\xc4\xdf\xcbe\xd3?'
p3555
tp3556
Rp3557
sg21
g29
sg95
g11
(g98
S'\x01\x00\x00\x00\x00\x00\x00\x00'
p3558
tp3559
Rp3560
ssg42
g11
(g12
(S'S3'
p3561
I0
I1
tp3562
Rp3563
(I3
S'|'
p3564
NNNI3
I1
I0
tp3565
bS'PCA'
p3566
tp3567
Rp3568
sg51
F0.2
sg52
g11
(g12
(S'S8'
p3569
I0
I1
tp3570
Rp3571
(I3
S'|'
p3572
NNNI8
I1
I0
tp3573
bS'haralick'
p3574
tp3575
Rp3576
sg95
g3560
sg61
g11
(g15
S'\xfbE\x81F\xf1\xba\xfa?'
p3577
tp3578
Rp3579
sg65
g11
(g12
(S'S2'
p3580
I0
I1
tp3581
Rp3582
(I3
S'|'
p3583
NNNI2
I1
I0
tp3584
bS'RF'
p3585
tp3586
Rp3587
sg74
I3
sg197
g3557
sg75
g76
sg77
g11
(g15
S'\x1c\xd6\xbea\xed\x1b\xe6?'
p3588
tp3589
Rp3590
sg81
g82
sg83
g84
sbag4
(g5
g6
Ntp3591
Rp3592
(dp3593
g10
g11
(g15
S'\x00\x00\x00\x00\x00\x00\xf8\xff'
p3594
tp3595
Rp3596
sg21
g29
sg30
g31
sg32
(dp3597
g21
g29
sg34
g11
(g15
S'y\x16\xcb\x8b\x9b\rA@'
p3598
tp3599
Rp3600
sg95
g11
(g98
S'\x03\x00\x00\x00\x00\x00\x00\x00'
p3601
tp3602
Rp3603
sg38
g11
(g15
S'?\xcf\t\x86\x15e\xf6?'
p3604
tp3605
Rp3606
ssg42
g11
(g12
(S'S3'
p3607
I0
I1
tp3608
Rp3609
(I3
S'|'
p3610
NNNI3
I1
I0
tp3611
bS'PCA'
p3612
tp3613
Rp3614
sg51
F0.2
sg38
g3606
sg52
g11
(g12
(S'S8'
p3615
I0
I1
tp3616
Rp3617
(I3
S'|'
p3618
NNNI8
I1
I0
tp3619
bS'haralick'
p3620
tp3621
Rp3622
sg34
g3600
sg95
g3603
sg61
g11
(g15
S'\xb5j\xef0\xe2T\xde?'
p3623
tp3624
Rp3625
sg65
g11
(g12
(S'S3'
p3626
I0
I1
tp3627
Rp3628
(I3
S'|'
p3629
NNNI3
I1
I0
tp3630
bS'SVM'
p3631
tp3632
Rp3633
sg74
I3
sg75
g76
sg77
g11
(g15
S'\x17]t\xd1E\x17\xe5?'
p3634
tp3635
Rp3636
sg81
g82
sg83
g84
sbag4
(g5
g6
Ntp3637
Rp3638
(dp3639
g10
g11
(g15
S'\x00\x00\x00\x00\x00\x00\xf8\xff'
p3640
tp3641
Rp3642
sg392
g11
(g98
S'\x04\x00\x00\x00\x00\x00\x00\x00'
p3643
tp3644
Rp3645
sg30
g31
sg32
(dp3646
g392
g3645
sg34
g11
(g15
S'\x02\x15\x02JA\xa0U@'
p3647
tp3648
Rp3649
sg413
g11
(g98
S'\x04\x00\x00\x00\x00\x00\x00\x00'
p3650
tp3651
Rp3652
sg38
g11
(g15
S'B\x83\x9e&O\xd7\x12@'
p3653
tp3654
Rp3655
ssg38
g3655
sg42
g11
(g12
(S'S6'
p3656
I0
I1
tp3657
Rp3658
(I3
S'|'
p3659
NNNI6
I1
I0
tp3660
bS'ISOMAP'
p3661
tp3662
Rp3663
sg51
F0.2
sg413
g3652
sg52
g11
(g12
(S'S9'
p3664
I0
I1
tp3665
Rp3666
(I3
S'|'
p3667
NNNI9
I1
I0
tp3668
bS'inception'
p3669
tp3670
Rp3671
sg34
g3649
sg61
g11
(g15
S'\xdf~\xc5\xb5\x10\x16\xe9?'
p3672
tp3673
Rp3674
sg65
g11
(g12
(S'S3'
p3675
I0
I1
tp3676
Rp3677
(I3
S'|'
p3678
NNNI3
I1
I0
tp3679
bS'SVM'
p3680
tp3681
Rp3682
sg74
I3
sg75
g76
sg77
g11
(g15
S'\x12\xe4)A\x9e\x12\xe4?'
p3683
tp3684
Rp3685
sg81
g82
sg83
g84
sbag4
(g5
g6
Ntp3686
Rp3687
(dp3688
g10
g11
(g15
S'\x00\x00\x00\x00\x00\x00\xf8\xff'
p3689
tp3690
Rp3691
sg21
g29
sg30
g31
sg32
(dp3692
g21
g29
sg34
g11
(g15
S'\x9e]c\xa2\x8e\xf5N@'
p3693
tp3694
Rp3695
sg38
g11
(g15
S's\xdeK\xfe\xa6\x84\x01@'
p3696
tp3697
Rp3698
ssg42
g11
(g12
(S'S3'
p3699
I0
I1
tp3700
Rp3701
(I3
S'|'
p3702
NNNI3
I1
I0
tp3703
bS'PCA'
p3704
tp3705
Rp3706
sg51
F0.2
sg38
g3698
sg52
g11
(g12
(S'S9'
p3707
I0
I1
tp3708
Rp3709
(I3
S'|'
p3710
NNNI9
I1
I0
tp3711
bS'inception'
p3712
tp3713
Rp3714
sg34
g3695
sg61
g11
(g15
S'\xa6\x91\xe0\xa1Q=\xe2?'
p3715
tp3716
Rp3717
sg65
g11
(g12
(S'S3'
p3718
I0
I1
tp3719
Rp3720
(I3
S'|'
p3721
NNNI3
I1
I0
tp3722
bS'SVM'
p3723
tp3724
Rp3725
sg74
I3
sg75
g76
sg77
g11
(g15
S'\x8f\xd4\xebH\xbd\x8e\xe4?'
p3726
tp3727
Rp3728
sg81
g82
sg83
g84
sbag4
(g5
g6
Ntp3729
Rp3730
(dp3731
g10
g11
(g15
S'\x00\x00\x00\x00\x00\x00\xf8\xff'
p3732
tp3733
Rp3734
sg192
g11
(g15
S'\x00\x00\x00\x00\x00@e@'
p3735
tp3736
Rp3737
sg21
g145
sg30
g31
sg32
(dp3738
g192
g3737
sg197
g11
(g15
S'_)\x83@\x9ds\xda?'
p3739
tp3740
Rp3741
sg21
g145
ssg42
g11
(g12
(S'S3'
p3742
I0
I1
tp3743
Rp3744
(I3
S'|'
p3745
NNNI3
I1
I0
tp3746
bS'PCA'
p3747
tp3748
Rp3749
sg51
F0.2
sg52
g11
(g12
(S'S9'
p3750
I0
I1
tp3751
Rp3752
(I3
S'|'
p3753
NNNI9
I1
I0
tp3754
bS'inception'
p3755
tp3756
Rp3757
sg61
g11
(g15
S'\x04"\xd90\x99\xf8\xe0?'
p3758
tp3759
Rp3760
sg65
g11
(g12
(S'S2'
p3761
I0
I1
tp3762
Rp3763
(I3
S'|'
p3764
NNNI2
I1
I0
tp3765
bS'RF'
p3766
tp3767
Rp3768
sg74
I3
sg197
g3741
sg75
g76
sg77
g11
(g15
S'\x90\xa7\x04yJ\x90\xe7?'
p3769
tp3770
Rp3771
sg81
g82
sg83
g84
sbag4
(g5
g6
Ntp3772
Rp3773
(dp3774
g10
g11
(g15
S'\x00\x00\x00\x00\x00\x00\xf8\xff'
p3775
tp3776
Rp3777
sg192
g11
(g15
S'\x00\x00\x00\x00\x00\xc0r@'
p3778
tp3779
Rp3780
sg30
g31
sg392
g11
(g98
S'\x07\x00\x00\x00\x00\x00\x00\x00'
p3781
tp3782
Rp3783
sg32
(dp3784
g192
g3780
sg392
g3783
sg413
g11
(g98
S'\x02\x00\x00\x00\x00\x00\x00\x00'
p3785
tp3786
Rp3787
sg197
g11
(g15
S'j\xe7X\xae\xee\x89\xd5?'
p3788
tp3789
Rp3790
ssg42
g11
(g12
(S'S6'
p3791
I0
I1
tp3792
Rp3793
(I3
S'|'
p3794
NNNI6
I1
I0
tp3795
bS'ISOMAP'
p3796
tp3797
Rp3798
sg51
F0.2
sg413
g3787
sg52
g11
(g12
(S'S3'
p3799
I0
I1
tp3800
Rp3801
(I3
S'|'
p3802
NNNI3
I1
I0
tp3803
bS'VGG'
p3804
tp3805
Rp3806
sg61
g11
(g15
S'\t\xdeU:/g\xee?'
p3807
tp3808
Rp3809
sg65
g11
(g12
(S'S2'
p3810
I0
I1
tp3811
Rp3812
(I3
S'|'
p3813
NNNI2
I1
I0
tp3814
bS'RF'
p3815
tp3816
Rp3817
sg74
I3
sg197
g3790
sg75
g76
sg77
g11
(g15
S'\r\x98\xc6\x80i\x0c\xe8?'
p3818
tp3819
Rp3820
sg81
g82
sg83
g84
sbag4
(g5
g6
Ntp3821
Rp3822
(dp3823
g10
g11
(g15
S'\x00\x00\x00\x00\x00\x00\xf8\xff'
p3824
tp3825
Rp3826
sg192
g11
(g15
S'\x00\x00\x00\x00\x00\xc0p@'
p3827
tp3828
Rp3829
sg21
g145
sg30
g31
sg32
(dp3830
g192
g3829
sg197
g11
(g15
S'<t\x98S\x1c2\xe1?'
p3831
tp3832
Rp3833
sg21
g145
ssg42
g11
(g12
(S'S3'
p3834
I0
I1
tp3835
Rp3836
(I3
S'|'
p3837
NNNI3
I1
I0
tp3838
bS'PCA'
p3839
tp3840
Rp3841
sg51
F0.2
sg52
g11
(g12
(S'S3'
p3842
I0
I1
tp3843
Rp3844
(I3
S'|'
p3845
NNNI3
I1
I0
tp3846
bS'VGG'
p3847
tp3848
Rp3849
sg61
g11
(g15
S'h\x1ep>I{\xda?'
p3850
tp3851
Rp3852
sg65
g11
(g12
(S'S2'
p3853
I0
I1
tp3854
Rp3855
(I3
S'|'
p3856
NNNI2
I1
I0
tp3857
bS'RF'
p3858
tp3859
Rp3860
sg74
I3
sg197
g3833
sg75
g76
sg77
g11
(g15
S'\x15\x8a[\xa1\xb8\x15\xea?'
p3861
tp3862
Rp3863
sg81
g82
sg83
g84
sbag4
(g5
g6
Ntp3864
Rp3865
(dp3866
g10
g11
(g15
S'\x00\x00\x00\x00\x00\x00\xf8\xff'
p3867
tp3868
Rp3869
sg192
g11
(g15
S'\x00\x00\x00\x00\x00`m@'
p3870
tp3871
Rp3872
sg30
g31
sg392
g11
(g98
S'\x07\x00\x00\x00\x00\x00\x00\x00'
p3873
tp3874
Rp3875
sg32
(dp3876
g192
g3872
sg392
g3875
sg95
g11
(g98
S'\x01\x00\x00\x00\x00\x00\x00\x00'
p3877
tp3878
Rp3879
sg413
g11
(g98
S'\x02\x00\x00\x00\x00\x00\x00\x00'
p3880
tp3881
Rp3882
sg197
g11
(g15
S'\x80\n \xb5\x151\xe7?'
p3883
tp3884
Rp3885
ssg42
g11
(g12
(S'S6'
p3886
I0
I1
tp3887
Rp3888
(I3
S'|'
p3889
NNNI6
I1
I0
tp3890
bS'ISOMAP'
p3891
tp3892
Rp3893
sg51
F0.2
sg413
g3882
sg52
g11
(g12
(S'S8'
p3894
I0
I1
tp3895
Rp3896
(I3
S'|'
p3897
NNNI8
I1
I0
tp3898
bS'haralick'
p3899
tp3900
Rp3901
sg95
g3879
sg61
g11
(g15
S'<\xe3\xa8!\xf2o\xf1?'
p3902
tp3903
Rp3904
sg65
g11
(g12
(S'S2'
p3905
I0
I1
tp3906
Rp3907
(I3
S'|'
p3908
NNNI2
I1
I0
tp3909
bS'RF'
p3910
tp3911
Rp3912
sg74
I3
sg197
g3885
sg75
g76
sg77
g11
(g15
S'\xfdY\xce\x9f\xe5\xfc\xe9?'
p3913
tp3914
Rp3915
sg81
g82
sg83
g84
sbag4
(g5
g6
Ntp3916
Rp3917
(dp3918
g10
g11
(g15
S'\x00\x00\x00\x00\x00\x00\xf8\xff'
p3919
tp3920
Rp3921
sg21
g145
sg30
g31
sg32
(dp3922
g21
g145
sg34
g11
(g15
S'o\x9d\x8b\xd0\xcaeU@'
p3923
tp3924
Rp3925
sg38
g11
(g15
S'\xbbn6Ph\xc3\x17@'
p3926
tp3927
Rp3928
ssg42
g11
(g12
(S'S3'
p3929
I0
I1
tp3930
Rp3931
(I3
S'|'
p3932
NNNI3
I1
I0
tp3933
bS'PCA'
p3934
tp3935
Rp3936
sg51
F0.2
sg38
g3928
sg52
g11
(g12
(S'S9'
p3937
I0
I1
tp3938
Rp3939
(I3
S'|'
p3940
NNNI9
I1
I0
tp3941
bS'inception'
p3942
tp3943
Rp3944
sg34
g3925
sg61
g11
(g15
S'\xb3-\x08yW\x89\xe1?'
p3945
tp3946
Rp3947
sg65
g11
(g12
(S'S3'
p3948
I0
I1
tp3949
Rp3950
(I3
S'|'
p3951
NNNI3
I1
I0
tp3952
bS'SVM'
p3953
tp3954
Rp3955
sg74
I3
sg75
g76
sg77
g11
(g15
S'\x03\xa61`\x1a\x03\xe6?'
p3956
tp3957
Rp3958
sg81
g82
sg83
g84
sbag4
(g5
g6
Ntp3959
Rp3960
(dp3961
g10
g11
(g15
S'\x00\x00\x00\x00\x00\x00\xf8\xff'
p3962
tp3963
Rp3964
sg192
g11
(g15
S'\x00\x00\x00\x00\x00\xc0r@'
p3965
tp3966
Rp3967
sg30
g31
sg392
g11
(g98
S'\x04\x00\x00\x00\x00\x00\x00\x00'
p3968
tp3969
Rp3970
sg32
(dp3971
g192
g3967
sg392
g3970
sg413
g11
(g98
S'\x03\x00\x00\x00\x00\x00\x00\x00'
p3972
tp3973
Rp3974
sg197
g11
(g15
S'\x00|8f\xeer\xe7?'
p3975
tp3976
Rp3977
ssg42
g11
(g12
(S'S6'
p3978
I0
I1
tp3979
Rp3980
(I3
S'|'
p3981
NNNI6
I1
I0
tp3982
bS'ISOMAP'
p3983
tp3984
Rp3985
sg51
F0.2
sg413
g3974
sg52
g11
(g12
(S'S9'
p3986
I0
I1
tp3987
Rp3988
(I3
S'|'
p3989
NNNI9
I1
I0
tp3990
bS'inception'
p3991
tp3992
Rp3993
sg61
g11
(g15
S'\x8d\xfa\x0b\xfa\xf9\x91\xf1?'
p3994
tp3995
Rp3996
sg65
g11
(g12
(S'S2'
p3997
I0
I1
tp3998
Rp3999
(I3
S'|'
p4000
NNNI2
I1
I0
tp4001
bS'RF'
p4002
tp4003
Rp4004
sg74
I3
sg197
g3977
sg75
g76
sg77
g11
(g15
S'!O\t\xf2\x94 \xe7?'
p4005
tp4006
Rp4007
sg81
g82
sg83
g84
sbag4
(g5
g6
Ntp4008
Rp4009
(dp4010
g10
g11
(g15
S'\x00\x00\x00\x00\x00\x00\xf8\xff'
p4011
tp4012
Rp4013
sg392
g11
(g98
S'\x04\x00\x00\x00\x00\x00\x00\x00'
p4014
tp4015
Rp4016
sg30
g31
sg32
(dp4017
g392
g4016
sg34
g11
(g15
S'\xcb\xf2\x9a\xa1Gq5@'
p4018
tp4019
Rp4020
sg413
g11
(g98
S'\x02\x00\x00\x00\x00\x00\x00\x00'
p4021
tp4022
Rp4023
sg38
g11
(g15
S'\xa7\xfeM+\xb9\x89\x11@'
p4024
tp4025
Rp4026
ssg38
g4026
sg42
g11
(g12
(S'S6'
p4027
I0
I1
tp4028
Rp4029
(I3
S'|'
p4030
NNNI6
I1
I0
tp4031
bS'ISOMAP'
p4032
tp4033
Rp4034
sg51
F0.2
sg413
g4023
sg52
g11
(g12
(S'S3'
p4035
I0
I1
tp4036
Rp4037
(I3
S'|'
p4038
NNNI3
I1
I0
tp4039
bS'VGG'
p4040
tp4041
Rp4042
sg34
g4020
sg61
g11
(g15
S'X\xf6g_\x89\x1d\xe1?'
p4043
tp4044
Rp4045
sg65
g11
(g12
(S'S3'
p4046
I0
I1
tp4047
Rp4048
(I3
S'|'
p4049
NNNI3
I1
I0
tp4050
bS'SVM'
p4051
tp4052
Rp4053
sg74
I3
sg75
g76
sg77
g11
(g15
S'\x15\xb7Bq+\x14\xe7?'
p4054
tp4055
Rp4056
sg81
g82
sg83
g84
sbag4
(g5
g6
Ntp4057
Rp4058
(dp4059
g10
g11
(g15
S'\x00\x00\x00\x00\x00\x00\xf8\xff'
p4060
tp4061
Rp4062
sg192
g11
(g15
S'\x00\x00\x00\x00\x00\xc0p@'
p4063
tp4064
Rp4065
sg21
g29
sg30
g31
sg32
(dp4066
g192
g4065
sg197
g11
(g15
S'\xc3Q\x7fL\xe6\x9d\xe6?'
p4067
tp4068
Rp4069
sg21
g29
ssg42
g11
(g12
(S'S3'
p4070
I0
I1
tp4071
Rp4072
(I3
S'|'
p4073
NNNI3
I1
I0
tp4074
bS'PCA'
p4075
tp4076
Rp4077
sg51
F0.2
sg52
g11
(g12
(S'S3'
p4078
I0
I1
tp4079
Rp4080
(I3
S'|'
p4081
NNNI3
I1
I0
tp4082
bS'VGG'
p4083
tp4084
Rp4085
sg61
g11
(g15
S'$\x81\x086\x06M\xda?'
p4086
tp4087
Rp4088
sg65
g11
(g12
(S'S2'
p4089
I0
I1
tp4090
Rp4091
(I3
S'|'
p4092
NNNI2
I1
I0
tp4093
bS'RF'
p4094
tp4095
Rp4096
sg74
I3
sg197
g4069
sg75
g76
sg77
g11
(g15
S'\x91z\x1d\xa9\xd7\x91\xea?'
p4097
tp4098
Rp4099
sg81
g82
sg83
g84
sbag4
(g5
g6
Ntp4100
Rp4101
(dp4102
g10
g11
(g15
S'\x00\x00\x00\x00\x00\x00\xf8\xff'
p4103
tp4104
Rp4105
sg392
g11
(g98
S'\x06\x00\x00\x00\x00\x00\x00\x00'
p4106
tp4107
Rp4108
sg30
g31
sg32
(dp4109
g392
g4108
sg34
g11
(g15
S'G9\xc4\xb4y\\6@'
p4110
tp4111
Rp4112
sg413
g11
(g98
S'\x04\x00\x00\x00\x00\x00\x00\x00'
p4113
tp4114
Rp4115
sg38
g11
(g15
S'\xa0,Z\xf5Fb\x1a@'
p4116
tp4117
Rp4118
ssg38
g4118
sg42
g11
(g12
(S'S6'
p4119
I0
I1
tp4120
Rp4121
(I3
S'|'
p4122
NNNI6
I1
I0
tp4123
bS'ISOMAP'
p4124
tp4125
Rp4126
sg51
F0.2
sg413
g4115
sg52
g11
(g12
(S'S9'
p4127
I0
I1
tp4128
Rp4129
(I3
S'|'
p4130
NNNI9
I1
I0
tp4131
bS'inception'
p4132
tp4133
Rp4134
sg34
g4112
sg61
g11
(g15
S'\xbb\xe7\xbd\x97\xce\x8c\xe3?'
p4135
tp4136
Rp4137
sg65
g11
(g12
(S'S3'
p4138
I0
I1
tp4139
Rp4140
(I3
S'|'
p4141
NNNI3
I1
I0
tp4142
bS'SVM'
p4143
tp4144
Rp4145
sg74
I3
sg75
g76
sg77
g11
(g15
S'\x17]t\xd1E\x17\xe5?'
p4146
tp4147
Rp4148
sg81
g82
sg83
g84
sbag4
(g5
g6
Ntp4149
Rp4150
(dp4151
g10
g11
(g15
S'\x00\x00\x00\x00\x00\x00\xf8\xff'
p4152
tp4153
Rp4154
sg192
g11
(g15
S'\x00\x00\x00\x00\x00@e@'
p4155
tp4156
Rp4157
sg21
g29
sg30
g31
sg32
(dp4158
g192
g4157
sg197
g11
(g15
S'\xf9\xc5\x14\xfe8\x11\xd4?'
p4159
tp4160
Rp4161
sg21
g29
ssg42
g11
(g12
(S'S3'
p4162
I0
I1
tp4163
Rp4164
(I3
S'|'
p4165
NNNI3
I1
I0
tp4166
bS'PCA'
p4167
tp4168
Rp4169
sg51
F0.2
sg52
g11
(g12
(S'S3'
p4170
I0
I1
tp4171
Rp4172
(I3
S'|'
p4173
NNNI3
I1
I0
tp4174
bS'VGG'
p4175
tp4176
Rp4177
sg61
g11
(g15
S'\x1b\xa1\x91I\x8c\xf4\xdb?'
p4178
tp4179
Rp4180
sg65
g11
(g12
(S'S2'
p4181
I0
I1
tp4182
Rp4183
(I3
S'|'
p4184
NNNI2
I1
I0
tp4185
bS'RF'
p4186
tp4187
Rp4188
sg74
I3
sg197
g4161
sg75
g76
sg77
g11
(g15
S'\xfdY\xce\x9f\xe5\xfc\xe9?'
p4189
tp4190
Rp4191
sg81
g82
sg83
g84
sbag4
(g5
g6
Ntp4192
Rp4193
(dp4194
g10
g11
(g15
S'\x00\x00\x00\x00\x00\x00\xf8\xff'
p4195
tp4196
Rp4197
sg392
g11
(g98
S'\x06\x00\x00\x00\x00\x00\x00\x00'
p4198
tp4199
Rp4200
sg30
g31
sg32
(dp4201
g392
g4200
sg34
g11
(g15
S'\xc7W\x15&\x03)Q@'
p4202
tp4203
Rp4204
sg95
g11
(g98
S'\x01\x00\x00\x00\x00\x00\x00\x00'
p4205
tp4206
Rp4207
sg413
g11
(g98
S'\x03\x00\x00\x00\x00\x00\x00\x00'
p4208
tp4209
Rp4210
sg38
g11
(g15
S'\x9d\x88\x8f\xa6\x06\xa3\x1c@'
p4211
tp4212
Rp4213
ssg38
g4213
sg42
g11
(g12
(S'S6'
p4214
I0
I1
tp4215
Rp4216
(I3
S'|'
p4217
NNNI6
I1
I0
tp4218
bS'ISOMAP'
p4219
tp4220
Rp4221
sg51
F0.2
sg413
g4210
sg52
g11
(g12
(S'S8'
p4222
I0
I1
tp4223
Rp4224
(I3
S'|'
p4225
NNNI8
I1
I0
tp4226
bS'haralick'
p4227
tp4228
Rp4229
sg34
g4204
sg95
g4207
sg61
g11
(g15
S'f[E\xe5h`\xe1?'
p4230
tp4231
Rp4232
sg65
g11
(g12
(S'S3'
p4233
I0
I1
tp4234
Rp4235
(I3
S'|'
p4236
NNNI3
I1
I0
tp4237
bS'SVM'
p4238
tp4239
Rp4240
sg74
I3
sg75
g76
sg77
g11
(g15
S'\x10>\xf8\xe0\x83\x0f\xe6?'
p4241
tp4242
Rp4243
sg81
g82
sg83
g84
sbag4
(g5
g6
Ntp4244
Rp4245
(dp4246
g10
g11
(g15
S'\x00\x00\x00\x00\x00\x00\xf8\xff'
p4247
tp4248
Rp4249
sg192
g11
(g15
S'\x00\x00\x00\x00\x00@e@'
p4250
tp4251
Rp4252
sg21
g29
sg30
g31
sg32
(dp4253
g192
g4252
sg197
g11
(g15
S'\xf9\xd5\x86tE\x1f\xde?'
p4254
tp4255
Rp4256
sg21
g29
sg95
g11
(g98
S'\x01\x00\x00\x00\x00\x00\x00\x00'
p4257
tp4258
Rp4259
ssg42
g11
(g12
(S'S3'
p4260
I0
I1
tp4261
Rp4262
(I3
S'|'
p4263
NNNI3
I1
I0
tp4264
bS'PCA'
p4265
tp4266
Rp4267
sg51
F0.2
sg52
g11
(g12
(S'S8'
p4268
I0
I1
tp4269
Rp4270
(I3
S'|'
p4271
NNNI8
I1
I0
tp4272
bS'haralick'
p4273
tp4274
Rp4275
sg95
g4259
sg61
g11
(g15
S'\xfbk\x82j\xb3\xfb\xfa?'
p4276
tp4277
Rp4278
sg65
g11
(g12
(S'S2'
p4279
I0
I1
tp4280
Rp4281
(I3
S'|'
p4282
NNNI2
I1
I0
tp4283
bS'RF'
p4284
tp4285
Rp4286
sg74
I3
sg197
g4256
sg75
g76
sg77
g11
(g15
S'\x1c\xd6\xbea\xed\x1b\xe6?'
p4287
tp4288
Rp4289
sg81
g82
sg83
g84
sbag324
ag4
(g5
g6
Ntp4290
Rp4291
(dp4292
g10
g11
(g15
S'\x00\x00\x00\x00\x00\x00\xf8\xff'
p4293
tp4294
Rp4295
sg192
g11
(g15
S'\x00\x00\x00\x00\x00\xc0r@'
p4296
tp4297
Rp4298
sg21
g29
sg30
g31
sg32
(dp4299
g192
g4298
sg197
g11
(g15
S'\x91G\x1c:\xb3\xc1\xde?'
p4300
tp4301
Rp4302
sg21
g29
sg95
g11
(g98
S'\x02\x00\x00\x00\x00\x00\x00\x00'
p4303
tp4304
Rp4305
ssg42
g11
(g12
(S'S3'
p4306
I0
I1
tp4307
Rp4308
(I3
S'|'
p4309
NNNI3
I1
I0
tp4310
bS'PCA'
p4311
tp4312
Rp4313
sg51
F0.2
sg52
g11
(g12
(S'S8'
p4314
I0
I1
tp4315
Rp4316
(I3
S'|'
p4317
NNNI8
I1
I0
tp4318
bS'haralick'
p4319
tp4320
Rp4321
sg95
g4305
sg61
g11
(g15
S'3Y\x96\x9aC\x97\xf3?'
p4322
tp4323
Rp4324
sg65
g11
(g12
(S'S2'
p4325
I0
I1
tp4326
Rp4327
(I3
S'|'
p4328
NNNI2
I1
I0
tp4329
bS'RF'
p4330
tp4331
Rp4332
sg74
I3
sg197
g4302
sg75
g76
sg77
g11
(g15
S'\xac}\xc3\xda7\xac\xe5?'
p4333
tp4334
Rp4335
sg81
g82
sg83
g84
sbag4
(g5
g6
Ntp4336
Rp4337
(dp4338
g10
g11
(g15
S'\x00\x00\x00\x00\x00\x00\xf8\xff'
p4339
tp4340
Rp4341
sg21
g29
sg30
g31
sg32
(dp4342
g21
g29
sg34
g11
(g15
S'\x0c\x0bq\xb5\xa2>R@'
p4343
tp4344
Rp4345
sg38
g11
(g15
S'xz\nIl$\x19@'
p4346
tp4347
Rp4348
ssg42
g11
(g12
(S'S3'
p4349
I0
I1
tp4350
Rp4351
(I3
S'|'
p4352
NNNI3
I1
I0
tp4353
bS'PCA'
p4354
tp4355
Rp4356
sg51
F0.2
sg38
g4348
sg52
g11
(g12
(S'S3'
p4357
I0
I1
tp4358
Rp4359
(I3
S'|'
p4360
NNNI3
I1
I0
tp4361
bS'VGG'
p4362
tp4363
Rp4364
sg34
g4345
sg61
g11
(g15
S'\xb7\xd3\x95\x85\x89\xd2\xe0?'
p4365
tp4366
Rp4367
sg65
g11
(g12
(S'S3'
p4368
I0
I1
tp4369
Rp4370
(I3
S'|'
p4371
NNNI3
I1
I0
tp4372
bS'SVM'
p4373
tp4374
Rp4375
sg74
I3
sg75
g76
sg77
g11
(g15
S'\x05yJ\x90\xa7\x04\xe9?'
p4376
tp4377
Rp4378
sg81
g82
sg83
g84
sbag4
(g5
g6
Ntp4379
Rp4380
(dp4381
g10
g11
(g15
S'\x00\x00\x00\x00\x00\x00\xf8\xff'
p4382
tp4383
Rp4384
sg21
g145
sg30
g31
sg32
(dp4385
g21
g145
sg34
g11
(g15
S'-\x94\x8f\xb7\x81\xadW@'
p4386
tp4387
Rp4388
sg38
g11
(g15
S'\xdd\xa08c\xa3\x8b\x1a@'
p4389
tp4390
Rp4391
ssg42
g11
(g12
(S'S3'
p4392
I0
I1
tp4393
Rp4394
(I3
S'|'
p4395
NNNI3
I1
I0
tp4396
bS'PCA'
p4397
tp4398
Rp4399
sg51
F0.2
sg38
g4391
sg52
g11
(g12
(S'S3'
p4400
I0
I1
tp4401
Rp4402
(I3
S'|'
p4403
NNNI3
I1
I0
tp4404
bS'VGG'
p4405
tp4406
Rp4407
sg34
g4388
sg61
g11
(g15
S'g3Sa\xfd\xed\xe0?'
p4408
tp4409
Rp4410
sg65
g11
(g12
(S'S3'
p4411
I0
I1
tp4412
Rp4413
(I3
S'|'
p4414
NNNI3
I1
I0
tp4415
bS'SVM'
p4416
tp4417
Rp4418
sg74
I3
sg75
g76
sg77
g11
(g15
S'\x05yJ\x90\xa7\x04\xe9?'
p4419
tp4420
Rp4421
sg81
g82
sg83
g84
sbag4
(g5
g6
Ntp4422
Rp4423
(dp4424
g10
g11
(g15
S'\x00\x00\x00\x00\x00\x00\xf8\xff'
p4425
tp4426
Rp4427
sg21
g29
sg30
g31
sg32
(dp4428
g21
g29
sg34
g11
(g15
S'\xb2\xb5\x7f\x1f\x87%Q@'
p4429
tp4430
Rp4431
sg95
g11
(g98
S'\x02\x00\x00\x00\x00\x00\x00\x00'
p4432
tp4433
Rp4434
sg38
g11
(g15
S'\xfe\xd7\x97l\xaf\xd8\x19@'
p4435
tp4436
Rp4437
ssg42
g11
(g12
(S'S3'
p4438
I0
I1
tp4439
Rp4440
(I3
S'|'
p4441
NNNI3
I1
I0
tp4442
bS'PCA'
p4443
tp4444
Rp4445
sg51
F0.2
sg38
g4437
sg52
g11
(g12
(S'S8'
p4446
I0
I1
tp4447
Rp4448
(I3
S'|'
p4449
NNNI8
I1
I0
tp4450
bS'haralick'
p4451
tp4452
Rp4453
sg34
g4431
sg95
g4434
sg61
g11
(g15
S'\xf8 -S#\x85\xdd?'
p4454
tp4455
Rp4456
sg65
g11
(g12
(S'S3'
p4457
I0
I1
tp4458
Rp4459
(I3
S'|'
p4460
NNNI3
I1
I0
tp4461
bS'SVM'
p4462
tp4463
Rp4464
sg74
I3
sg75
g76
sg77
g11
(g15
S'\xa3\x8b.\xba\xe8\xa2\xe3?'
p4465
tp4466
Rp4467
sg81
g82
sg83
g84
sbag4
(g5
g6
Ntp4468
Rp4469
(dp4470
g10
g11
(g15
S'\x00\x00\x00\x00\x00\x00\xf8\xff'
p4471
tp4472
Rp4473
sg192
g11
(g15
S'\x00\x00\x00\x00\x00\xc0r@'
p4474
tp4475
Rp4476
sg21
g29
sg30
g31
sg32
(dp4477
g192
g4476
sg197
g11
(g15
S'$tH\x13\x06@\xe5?'
p4478
tp4479
Rp4480
sg21
g29
ssg42
g11
(g12
(S'S3'
p4481
I0
I1
tp4482
Rp4483
(I3
S'|'
p4484
NNNI3
I1
I0
tp4485
bS'PCA'
p4486
tp4487
Rp4488
sg51
F0.2
sg52
g11
(g12
(S'S3'
p4489
I0
I1
tp4490
Rp4491
(I3
S'|'
p4492
NNNI3
I1
I0
tp4493
bS'VGG'
p4494
tp4495
Rp4496
sg61
g11
(g15
S'\x85GG\x1a\xec\x8d\xda?'
p4497
tp4498
Rp4499
sg65
g11
(g12
(S'S2'
p4500
I0
I1
tp4501
Rp4502
(I3
S'|'
p4503
NNNI2
I1
I0
tp4504
bS'RF'
p4505
tp4506
Rp4507
sg74
I3
sg197
g4480
sg75
g76
sg77
g11
(g15
S'\x91z\x1d\xa9\xd7\x91\xea?'
p4508
tp4509
Rp4510
sg81
g82
sg83
g84
sbag4
(g5
g6
Ntp4511
Rp4512
(dp4513
g10
g11
(g15
S'\x00\x00\x00\x00\x00\x00\xf8\xff'
p4514
tp4515
Rp4516
sg192
g11
(g15
S'\x00\x00\x00\x00\x00\xc0p@'
p4517
tp4518
Rp4519
sg21
g29
sg30
g31
sg32
(dp4520
g192
g4519
sg197
g11
(g15
S'B^\x9a\xd5XY\xdf?'
p4521
tp4522
Rp4523
sg21
g29
ssg42
g11
(g12
(S'S3'
p4524
I0
I1
tp4525
Rp4526
(I3
S'|'
p4527
NNNI3
I1
I0
tp4528
bS'PCA'
p4529
tp4530
Rp4531
sg51
F0.2
sg52
g11
(g12
(S'S3'
p4532
I0
I1
tp4533
Rp4534
(I3
S'|'
p4535
NNNI3
I1
I0
tp4536
bS'VGG'
p4537
tp4538
Rp4539
sg61
g11
(g15
S'%\x98\xcd\xcfr\xe2\xda?'
p4540
tp4541
Rp4542
sg65
g11
(g12
(S'S2'
p4543
I0
I1
tp4544
Rp4545
(I3
S'|'
p4546
NNNI2
I1
I0
tp4547
bS'RF'
p4548
tp4549
Rp4550
sg74
I3
sg197
g4523
sg75
g76
sg77
g11
(g15
S'\x91z\x1d\xa9\xd7\x91\xea?'
p4551
tp4552
Rp4553
sg81
g82
sg83
g84
sbag4
(g5
g6
Ntp4554
Rp4555
(dp4556
g10
g11
(g15
S'\x00\x00\x00\x00\x00\x00\xf8\xff'
p4557
tp4558
Rp4559
sg192
g11
(g15
S'\x00\x00\x00\x00\x00\xc0p@'
p4560
tp4561
Rp4562
sg30
g31
sg392
g11
(g98
S'\x06\x00\x00\x00\x00\x00\x00\x00'
p4563
tp4564
Rp4565
sg32
(dp4566
g192
g4562
sg392
g4565
sg413
g11
(g98
S'\x02\x00\x00\x00\x00\x00\x00\x00'
p4567
tp4568
Rp4569
sg197
g11
(g15
S'n\xe1C\x15\xcd\x94\xed?'
p4570
tp4571
Rp4572
ssg42
g11
(g12
(S'S6'
p4573
I0
I1
tp4574
Rp4575
(I3
S'|'
p4576
NNNI6
I1
I0
tp4577
bS'ISOMAP'
p4578
tp4579
Rp4580
sg51
F0.2
sg413
g4569
sg52
g11
(g12
(S'S3'
p4581
I0
I1
tp4582
Rp4583
(I3
S'|'
p4584
NNNI3
I1
I0
tp4585
bS'VGG'
p4586
tp4587
Rp4588
sg61
g11
(g15
S'2\x01NXE\x9d\xe2?'
p4589
tp4590
Rp4591
sg65
g11
(g12
(S'S2'
p4592
I0
I1
tp4593
Rp4594
(I3
S'|'
p4595
NNNI2
I1
I0
tp4596
bS'RF'
p4597
tp4598
Rp4599
sg74
I3
sg197
g4572
sg75
g76
sg77
g11
(g15
S'\x88\x88\x88\x88\x88\x88\xe8?'
p4600
tp4601
Rp4602
sg81
g82
sg83
g84
sbag4
(g5
g6
Ntp4603
Rp4604
(dp4605
g10
g11
(g15
S'\x00\x00\x00\x00\x00\x00\xf8\xff'
p4606
tp4607
Rp4608
sg192
g11
(g15
S'\x00\x00\x00\x00\x00\x00 @'
p4609
tp4610
Rp4611
sg30
g31
sg392
g11
(g98
S'\x03\x00\x00\x00\x00\x00\x00\x00'
p4612
tp4613
Rp4614
sg32
(dp4615
g192
g4611
sg392
g4614
sg413
g11
(g98
S'\x02\x00\x00\x00\x00\x00\x00\x00'
p4616
tp4617
Rp4618
sg197
g11
(g15
S'\x98"\xc6R0\xb2\xe4?'
p4619
tp4620
Rp4621
ssg42
g11
(g12
(S'S6'
p4622
I0
I1
tp4623
Rp4624
(I3
S'|'
p4625
NNNI6
I1
I0
tp4626
bS'ISOMAP'
p4627
tp4628
Rp4629
sg51
F0.2
sg413
g4618
sg52
g11
(g12
(S'S9'
p4630
I0
I1
tp4631
Rp4632
(I3
S'|'
p4633
NNNI9
I1
I0
tp4634
bS'inception'
p4635
tp4636
Rp4637
sg61
g11
(g15
S'\xf97\xf7o\x94+\x11@'
p4638
tp4639
Rp4640
sg65
g11
(g12
(S'S2'
p4641
I0
I1
tp4642
Rp4643
(I3
S'|'
p4644
NNNI2
I1
I0
tp4645
bS'RF'
p4646
tp4647
Rp4648
sg74
I3
sg197
g4621
sg75
g76
sg77
g11
(g15
S'Y\xfb\x86\xb5oX\xe3?'
p4649
tp4650
Rp4651
sg81
g82
sg83
g84
sbag4
(g5
g6
Ntp4652
Rp4653
(dp4654
g10
g11
(g15
S'\x00\x00\x00\x00\x00\x00\xf8\xff'
p4655
tp4656
Rp4657
sg392
g11
(g98
S'\x05\x00\x00\x00\x00\x00\x00\x00'
p4658
tp4659
Rp4660
sg30
g31
sg32
(dp4661
g392
g4660
sg34
g11
(g15
S'\x87\xef\x02@\t\xd1W@'
p4662
tp4663
Rp4664
sg413
g11
(g98
S'\x02\x00\x00\x00\x00\x00\x00\x00'
p4665
tp4666
Rp4667
sg38
g11
(g15
S'\x95\xc2\x85\x8es\xc9\xf3?'
p4668
tp4669
Rp4670
ssg38
g4670
sg42
g11
(g12
(S'S6'
p4671
I0
I1
tp4672
Rp4673
(I3
S'|'
p4674
NNNI6
I1
I0
tp4675
bS'ISOMAP'
p4676
tp4677
Rp4678
sg51
F0.2
sg413
g4667
sg52
g11
(g12
(S'S9'
p4679
I0
I1
tp4680
Rp4681
(I3
S'|'
p4682
NNNI9
I1
I0
tp4683
bS'inception'
p4684
tp4685
Rp4686
sg34
g4664
sg61
g11
(g15
S'\x88.\xa8k!*\xe2?'
p4687
tp4688
Rp4689
sg65
g11
(g12
(S'S3'
p4690
I0
I1
tp4691
Rp4692
(I3
S'|'
p4693
NNNI3
I1
I0
tp4694
bS'SVM'
p4695
tp4696
Rp4697
sg74
I3
sg75
g76
sg77
g11
(g15
S'\x9bl\xb2\xc9&\x9b\xe4?'
p4698
tp4699
Rp4700
sg81
g82
sg83
g84
sbag4
(g5
g6
Ntp4701
Rp4702
(dp4703
g10
g11
(g15
S'\x00\x00\x00\x00\x00\x00\xf8\xff'
p4704
tp4705
Rp4706
sg192
g11
(g15
S'\x00\x00\x00\x00\x00\xc0p@'
p4707
tp4708
Rp4709
sg21
g145
sg30
g31
sg32
(dp4710
g192
g4709
sg197
g11
(g15
S'\xfbkkR\xad\xd3\xdf?'
p4711
tp4712
Rp4713
sg21
g145
ssg42
g11
(g12
(S'S3'
p4714
I0
I1
tp4715
Rp4716
(I3
S'|'
p4717
NNNI3
I1
I0
tp4718
bS'PCA'
p4719
tp4720
Rp4721
sg51
F0.2
sg52
g11
(g12
(S'S3'
p4722
I0
I1
tp4723
Rp4724
(I3
S'|'
p4725
NNNI3
I1
I0
tp4726
bS'VGG'
p4727
tp4728
Rp4729
sg61
g11
(g15
S'}\xf4tj\x9c\x9c\xda?'
p4730
tp4731
Rp4732
sg65
g11
(g12
(S'S2'
p4733
I0
I1
tp4734
Rp4735
(I3
S'|'
p4736
NNNI2
I1
I0
tp4737
bS'RF'
p4738
tp4739
Rp4740
sg74
I3
sg197
g4713
sg75
g76
sg77
g11
(g15
S'\x91z\x1d\xa9\xd7\x91\xea?'
p4741
tp4742
Rp4743
sg81
g82
sg83
g84
sbag4
(g5
g6
Ntp4744
Rp4745
(dp4746
g10
g11
(g15
S'\x00\x00\x00\x00\x00\x00\xf8\xff'
p4747
tp4748
Rp4749
sg21
g145
sg30
g31
sg32
(dp4750
g21
g145
sg34
g11
(g15
S'\x0eR\x81`\xf1\x02I@'
p4751
tp4752
Rp4753
sg38
g11
(g15
S'\x0c;\xea\x00IO\x04@'
p4754
tp4755
Rp4756
ssg42
g11
(g12
(S'S3'
p4757
I0
I1
tp4758
Rp4759
(I3
S'|'
p4760
NNNI3
I1
I0
tp4761
bS'PCA'
p4762
tp4763
Rp4764
sg51
F0.2
sg38
g4756
sg52
g11
(g12
(S'S9'
p4765
I0
I1
tp4766
Rp4767
(I3
S'|'
p4768
NNNI9
I1
I0
tp4769
bS'inception'
p4770
tp4771
Rp4772
sg34
g4753
sg61
g11
(g15
S'\x8c\xb1\xdb\xe1>u\xe1?'
p4773
tp4774
Rp4775
sg65
g11
(g12
(S'S3'
p4776
I0
I1
tp4777
Rp4778
(I3
S'|'
p4779
NNNI3
I1
I0
tp4780
bS'SVM'
p4781
tp4782
Rp4783
sg74
I3
sg75
g76
sg77
g11
(g15
S'\x12\xe4)A\x9e\x12\xe4?'
p4784
tp4785
Rp4786
sg81
g82
sg83
g84
sbag4
(g5
g6
Ntp4787
Rp4788
(dp4789
g10
g11
(g15
S'\x00\x00\x00\x00\x00\x00\xf8\xff'
p4790
tp4791
Rp4792
sg192
g11
(g15
S'\x00\x00\x00\x00\x00`m@'
p4793
tp4794
Rp4795
sg21
g145
sg30
g31
sg32
(dp4796
g192
g4795
sg197
g11
(g15
S'\xd6w?K}\x82\xef?'
p4797
tp4798
Rp4799
sg21
g145
sg95
g11
(g98
S'\x02\x00\x00\x00\x00\x00\x00\x00'
p4800
tp4801
Rp4802
ssg42
g11
(g12
(S'S3'
p4803
I0
I1
tp4804
Rp4805
(I3
S'|'
p4806
NNNI3
I1
I0
tp4807
bS'PCA'
p4808
tp4809
Rp4810
sg51
F0.2
sg52
g11
(g12
(S'S8'
p4811
I0
I1
tp4812
Rp4813
(I3
S'|'
p4814
NNNI8
I1
I0
tp4815
bS'haralick'
p4816
tp4817
Rp4818
sg95
g4802
sg61
g11
(g15
S'\xd2\xf7\xef\xc3%?\xf3?'
p4819
tp4820
Rp4821
sg65
g11
(g12
(S'S2'
p4822
I0
I1
tp4823
Rp4824
(I3
S'|'
p4825
NNNI2
I1
I0
tp4826
bS'RF'
p4827
tp4828
Rp4829
sg74
I3
sg197
g4799
sg75
g76
sg77
g11
(g15
S'\xac}\xc3\xda7\xac\xe5?'
p4830
tp4831
Rp4832
sg81
g82
sg83
g84
sbag4
(g5
g6
Ntp4833
Rp4834
(dp4835
g10
g11
(g15
S'\x00\x00\x00\x00\x00\x00\xf8\xff'
p4836
tp4837
Rp4838
sg392
g11
(g98
S'\x06\x00\x00\x00\x00\x00\x00\x00'
p4839
tp4840
Rp4841
sg30
g31
sg32
(dp4842
g392
g4841
sg34
g11
(g15
S'W\x1a\x05\x98\xbd\x83S@'
p4843
tp4844
Rp4845
sg95
g11
(g98
S'\x03\x00\x00\x00\x00\x00\x00\x00'
p4846
tp4847
Rp4848
sg413
g11
(g98
S'\x02\x00\x00\x00\x00\x00\x00\x00'
p4849
tp4850
Rp4851
sg38
g11
(g15
S'\x90\xb7\xa9\xb1#\xae\x1d@'
p4852
tp4853
Rp4854
ssg38
g4854
sg42
g11
(g12
(S'S6'
p4855
I0
I1
tp4856
Rp4857
(I3
S'|'
p4858
NNNI6
I1
I0
tp4859
bS'ISOMAP'
p4860
tp4861
Rp4862
sg51
F0.2
sg413
g4851
sg52
g11
(g12
(S'S8'
p4863
I0
I1
tp4864
Rp4865
(I3
S'|'
p4866
NNNI8
I1
I0
tp4867
bS'haralick'
p4868
tp4869
Rp4870
sg34
g4845
sg95
g4848
sg61
g11
(g15
S'\xcf\x8e+\xd8\xef\xa2\xe1?'
p4871
tp4872
Rp4873
sg65
g11
(g12
(S'S3'
p4874
I0
I1
tp4875
Rp4876
(I3
S'|'
p4877
NNNI3
I1
I0
tp4878
bS'SVM'
p4879
tp4880
Rp4881
sg74
I3
sg75
g76
sg77
g11
(g15
S'\x1c\xd6\xbea\xed\x1b\xe6?'
p4882
tp4883
Rp4884
sg81
g82
sg83
g84
sbag4
(g5
g6
Ntp4885
Rp4886
(dp4887
g10
g11
(g15
S'\x00\x00\x00\x00\x00\x00\xf8\xff'
p4888
tp4889
Rp4890
sg192
g11
(g15
S'\x00\x00\x00\x00\x00\x00D@'
p4891
tp4892
Rp4893
sg30
g31
sg392
g11
(g98
S'\x07\x00\x00\x00\x00\x00\x00\x00'
p4894
tp4895
Rp4896
sg32
(dp4897
g192
g4893
sg392
g4896
sg413
g11
(g98
S'\x04\x00\x00\x00\x00\x00\x00\x00'
p4898
tp4899
Rp4900
sg197
g11
(g15
S'\x88>\xb7\x03\xa2\xa0\xe8?'
p4901
tp4902
Rp4903
ssg42
g11
(g12
(S'S6'
p4904
I0
I1
tp4905
Rp4906
(I3
S'|'
p4907
NNNI6
I1
I0
tp4908
bS'ISOMAP'
p4909
tp4910
Rp4911
sg51
F0.2
sg413
g4900
sg52
g11
(g12
(S'S9'
p4912
I0
I1
tp4913
Rp4914
(I3
S'|'
p4915
NNNI9
I1
I0
tp4916
bS'inception'
p4917
tp4918
Rp4919
sg61
g11
(g15
S'Uy6\x98\xd8\x02\x00@'
p4920
tp4921
Rp4922
sg65
g11
(g12
(S'S2'
p4923
I0
I1
tp4924
Rp4925
(I3
S'|'
p4926
NNNI2
I1
I0
tp4927
bS'RF'
p4928
tp4929
Rp4930
sg74
I3
sg197
g4903
sg75
g76
sg77
g11
(g15
S'\x1d\xa9\xd7\x91z\x1d\xe9?'
p4931
tp4932
Rp4933
sg81
g82
sg83
g84
sbag4
(g5
g6
Ntp4934
Rp4935
(dp4936
g10
g11
(g15
S'\x00\x00\x00\x00\x00\x00\xf8\xff'
p4937
tp4938
Rp4939
sg21
g29
sg30
g31
sg32
(dp4940
g21
g29
sg34
g11
(g15
S'\x99\x195\xbd\xeeAS@'
p4941
tp4942
Rp4943
sg38
g11
(g15
S'\x1e\xa8o\xdb\xfc\n\x19@'
p4944
tp4945
Rp4946
ssg42
g11
(g12
(S'S3'
p4947
I0
I1
tp4948
Rp4949
(I3
S'|'
p4950
NNNI3
I1
I0
tp4951
bS'PCA'
p4952
tp4953
Rp4954
sg51
F0.2
sg38
g4946
sg52
g11
(g12
(S'S3'
p4955
I0
I1
tp4956
Rp4957
(I3
S'|'
p4958
NNNI3
I1
I0
tp4959
bS'VGG'
p4960
tp4961
Rp4962
sg34
g4943
sg61
g11
(g15
S'W\x18v#\x1c\xd4\xe0?'
p4963
tp4964
Rp4965
sg65
g11
(g12
(S'S3'
p4966
I0
I1
tp4967
Rp4968
(I3
S'|'
p4969
NNNI3
I1
I0
tp4970
bS'SVM'
p4971
tp4972
Rp4973
sg74
I3
sg75
g76
sg77
g11
(g15
S'\x05yJ\x90\xa7\x04\xe9?'
p4974
tp4975
Rp4976
sg81
g82
sg83
g84
sbag4
(g5
g6
Ntp4977
Rp4978
(dp4979
g10
g11
(g15
S'\x00\x00\x00\x00\x00\x00\xf8\xff'
p4980
tp4981
Rp4982
sg392
g11
(g98
S'\x03\x00\x00\x00\x00\x00\x00\x00'
p4983
tp4984
Rp4985
sg30
g31
sg32
(dp4986
g392
g4985
sg34
g11
(g15
S'\xbep5.\x0eo5@'
p4987
tp4988
Rp4989
sg95
g11
(g98
S'\x01\x00\x00\x00\x00\x00\x00\x00'
p4990
tp4991
Rp4992
sg413
g11
(g98
S'\x04\x00\x00\x00\x00\x00\x00\x00'
p4993
tp4994
Rp4995
sg38
g11
(g15
S' \x91\xc5\xd7\xbf\x0c\x1f@'
p4996
tp4997
Rp4998
ssg38
g4998
sg42
g11
(g12
(S'S6'
p4999
I0
I1
tp5000
Rp5001
(I3
S'|'
p5002
NNNI6
I1
I0
tp5003
bS'ISOMAP'
p5004
tp5005
Rp5006
sg51
F0.2
sg413
g4995
sg52
g11
(g12
(S'S8'
p5007
I0
I1
tp5008
Rp5009
(I3
S'|'
p5010
NNNI8
I1
I0
tp5011
bS'haralick'
p5012
tp5013
Rp5014
sg34
g4989
sg95
g4992
sg61
g11
(g15
S'W\x1a4\x9b\xb8\xe2\xe4?'
p5015
tp5016
Rp5017
sg65
g11
(g12
(S'S3'
p5018
I0
I1
tp5019
Rp5020
(I3
S'|'
p5021
NNNI3
I1
I0
tp5022
bS'SVM'
p5023
tp5024
Rp5025
sg74
I3
sg75
g76
sg77
g11
(g15
S'\xac}\xc3\xda7\xac\xe5?'
p5026
tp5027
Rp5028
sg81
g82
sg83
g84
sbag4
(g5
g6
Ntp5029
Rp5030
(dp5031
g10
g11
(g15
S'\x00\x00\x00\x00\x00\x00\xf8\xff'
p5032
tp5033
Rp5034
sg192
g11
(g15
S'\x00\x00\x00\x00\x00`i@'
p5035
tp5036
Rp5037
sg21
g145
sg30
g31
sg32
(dp5038
g192
g5037
sg197
g11
(g15
S'0\xf6\x95#\xdcO\xe8?'
p5039
tp5040
Rp5041
sg21
g145
ssg42
g11
(g12
(S'S3'
p5042
I0
I1
tp5043
Rp5044
(I3
S'|'
p5045
NNNI3
I1
I0
tp5046
bS'PCA'
p5047
tp5048
Rp5049
sg51
F0.2
sg52
g11
(g12
(S'S9'
p5050
I0
I1
tp5051
Rp5052
(I3
S'|'
p5053
NNNI9
I1
I0
tp5054
bS'inception'
p5055
tp5056
Rp5057
sg61
g11
(g15
S'\x9a\xde\x8aqU\xfe\xe0?'
p5058
tp5059
Rp5060
sg65
g11
(g12
(S'S2'
p5061
I0
I1
tp5062
Rp5063
(I3
S'|'
p5064
NNNI2
I1
I0
tp5065
bS'RF'
p5066
tp5067
Rp5068
sg74
I3
sg197
g5041
sg75
g76
sg77
g11
(g15
S'\x9d?\xcb\xf9\xb3\x9c\xe7?'
p5069
tp5070
Rp5071
sg81
g82
sg83
g84
sbag4
(g5
g6
Ntp5072
Rp5073
(dp5074
g10
g11
(g15
S'\x00\x00\x00\x00\x00\x00\xf8\xff'
p5075
tp5076
Rp5077
sg21
g29
sg30
g31
sg32
(dp5078
g21
g29
sg34
g11
(g15
S'LJ\xc6\xea\x03ZM@'
p5079
tp5080
Rp5081
sg38
g11
(g15
S'\x8cD\x0c\xd1\x1b\x95\t@'
p5082
tp5083
Rp5084
ssg42
g11
(g12
(S'S3'
p5085
I0
I1
tp5086
Rp5087
(I3
S'|'
p5088
NNNI3
I1
I0
tp5089
bS'PCA'
p5090
tp5091
Rp5092
sg51
F0.2
sg38
g5084
sg52
g11
(g12
(S'S3'
p5093
I0
I1
tp5094
Rp5095
(I3
S'|'
p5096
NNNI3
I1
I0
tp5097
bS'VGG'
p5098
tp5099
Rp5100
sg34
g5081
sg61
g11
(g15
S'uk\x1d\xba\xcd\x03\xe1?'
p5101
tp5102
Rp5103
sg65
g11
(g12
(S'S3'
p5104
I0
I1
tp5105
Rp5106
(I3
S'|'
p5107
NNNI3
I1
I0
tp5108
bS'SVM'
p5109
tp5110
Rp5111
sg74
I3
sg75
g76
sg77
g11
(g15
S'\x05yJ\x90\xa7\x04\xe9?'
p5112
tp5113
Rp5114
sg81
g82
sg83
g84
sbag4
(g5
g6
Ntp5115
Rp5116
(dp5117
g10
g11
(g15
S'\x00\x00\x00\x00\x00\x00\xf8\xff'
p5118
tp5119
Rp5120
sg21
g145
sg30
g31
sg32
(dp5121
g21
g145
sg34
g11
(g15
S"0t#\xc6\x85q'@"
p5122
tp5123
Rp5124
sg38
g11
(g15
S'\xb3j\xb3(\x9f\xb2\x1e@'
p5125
tp5126
Rp5127
ssg42
g11
(g12
(S'S3'
p5128
I0
I1
tp5129
Rp5130
(I3
S'|'
p5131
NNNI3
I1
I0
tp5132
bS'PCA'
p5133
tp5134
Rp5135
sg51
F0.2
sg38
g5127
sg52
g11
(g12
(S'S9'
p5136
I0
I1
tp5137
Rp5138
(I3
S'|'
p5139
NNNI9
I1
I0
tp5140
bS'inception'
p5141
tp5142
Rp5143
sg34
g5124
sg61
g11
(g15
S'YU\x10p\x87\xce\xe1?'
p5144
tp5145
Rp5146
sg65
g11
(g12
(S'S3'
p5147
I0
I1
tp5148
Rp5149
(I3
S'|'
p5150
NNNI3
I1
I0
tp5151
bS'SVM'
p5152
tp5153
Rp5154
sg74
I3
sg75
g76
sg77
g11
(g15
S'\xff,\xe7\xcfr\xfe\xe4?'
p5155
tp5156
Rp5157
sg81
g82
sg83
g84
sbag4
(g5
g6
Ntp5158
Rp5159
(dp5160
g10
g11
(g15
S'\x00\x00\x00\x00\x00\x00\xf8\xff'
p5161
tp5162
Rp5163
sg392
g11
(g98
S'\x07\x00\x00\x00\x00\x00\x00\x00'
p5164
tp5165
Rp5166
sg30
g31
sg32
(dp5167
g392
g5166
sg34
g11
(g15
S'\xa9\x14\xba\xcf\x88\x854@'
p5168
tp5169
Rp5170
sg413
g11
(g98
S'\x04\x00\x00\x00\x00\x00\x00\x00'
p5171
tp5172
Rp5173
sg38
g11
(g15
S'\xb9 ! \x05L\xf1?'
p5174
tp5175
Rp5176
ssg38
g5176
sg42
g11
(g12
(S'S6'
p5177
I0
I1
tp5178
Rp5179
(I3
S'|'
p5180
NNNI6
I1
I0
tp5181
bS'ISOMAP'
p5182
tp5183
Rp5184
sg51
F0.2
sg413
g5173
sg52
g11
(g12
(S'S9'
p5185
I0
I1
tp5186
Rp5187
(I3
S'|'
p5188
NNNI9
I1
I0
tp5189
bS'inception'
p5190
tp5191
Rp5192
sg34
g5170
sg61
g11
(g15
S"\x14\x90'\xbcl\xb7\xe4?"
p5193
tp5194
Rp5195
sg65
g11
(g12
(S'S3'
p5196
I0
I1
tp5197
Rp5198
(I3
S'|'
p5199
NNNI3
I1
I0
tp5200
bS'SVM'
p5201
tp5202
Rp5203
sg74
I3
sg75
g76
sg77
g11
(g15
S'\x85\xe2V(n\x85\xe2?'
p5204
tp5205
Rp5206
sg81
g82
sg83
g84
sbag4
(g5
g6
Ntp5207
Rp5208
(dp5209
g10
g11
(g15
S'\x00\x00\x00\x00\x00\x00\xf8\xff'
p5210
tp5211
Rp5212
sg21
g145
sg30
g31
sg32
(dp5213
g21
g145
sg34
g11
(g15
S'b\xcd\xacf\xe5\x8dI@'
p5214
tp5215
Rp5216
sg38
g11
(g15
S'\xd8\xd8\xe1,4.\x04@'
p5217
tp5218
Rp5219
ssg42
g11
(g12
(S'S3'
p5220
I0
I1
tp5221
Rp5222
(I3
S'|'
p5223
NNNI3
I1
I0
tp5224
bS'PCA'
p5225
tp5226
Rp5227
sg51
F0.2
sg38
g5219
sg52
g11
(g12
(S'S3'
p5228
I0
I1
tp5229
Rp5230
(I3
S'|'
p5231
NNNI3
I1
I0
tp5232
bS'VGG'
p5233
tp5234
Rp5235
sg34
g5216
sg61
g11
(g15
S'R\xec\xaa\xd9\x08K\xe1?'
p5236
tp5237
Rp5238
sg65
g11
(g12
(S'S3'
p5239
I0
I1
tp5240
Rp5241
(I3
S'|'
p5242
NNNI3
I1
I0
tp5243
bS'SVM'
p5244
tp5245
Rp5246
sg74
I3
sg75
g76
sg77
g11
(g15
S'\x05yJ\x90\xa7\x04\xe9?'
p5247
tp5248
Rp5249
sg81
g82
sg83
g84
sbag4
(g5
g6
Ntp5250
Rp5251
(dp5252
g10
g11
(g15
S'\x00\x00\x00\x00\x00\x00\xf8\xff'
p5253
tp5254
Rp5255
sg192
g11
(g15
S'\x00\x00\x00\x00\x00@a@'
p5256
tp5257
Rp5258
sg30
g31
sg392
g11
(g98
S'\x06\x00\x00\x00\x00\x00\x00\x00'
p5259
tp5260
Rp5261
sg32
(dp5262
g192
g5258
sg392
g5261
sg413
g11
(g98
S'\x04\x00\x00\x00\x00\x00\x00\x00'
p5263
tp5264
Rp5265
sg197
g11
(g15
S'\x88\x81d\x1e\xae$\xe4?'
p5266
tp5267
Rp5268
ssg42
g11
(g12
(S'S6'
p5269
I0
I1
tp5270
Rp5271
(I3
S'|'
p5272
NNNI6
I1
I0
tp5273
bS'ISOMAP'
p5274
tp5275
Rp5276
sg51
F0.2
sg413
g5265
sg52
g11
(g12
(S'S3'
p5277
I0
I1
tp5278
Rp5279
(I3
S'|'
p5280
NNNI3
I1
I0
tp5281
bS'VGG'
p5282
tp5283
Rp5284
sg61
g11
(g15
S'q\x89\xf4]\xab\xc1\xdc?'
p5285
tp5286
Rp5287
sg65
g11
(g12
(S'S2'
p5288
I0
I1
tp5289
Rp5290
(I3
S'|'
p5291
NNNI2
I1
I0
tp5292
bS'RF'
p5293
tp5294
Rp5295
sg74
I3
sg197
g5268
sg75
g76
sg77
g11
(g15
S'\r\x98\xc6\x80i\x0c\xe8?'
p5296
tp5297
Rp5298
sg81
g82
sg83
g84
sbag4
(g5
g6
Ntp5299
Rp5300
(dp5301
g10
g11
(g15
S'\x00\x00\x00\x00\x00\x00\xf8\xff'
p5302
tp5303
Rp5304
sg192
g11
(g15
S'\x00\x00\x00\x00\x00@Z@'
p5305
tp5306
Rp5307
sg21
g145
sg30
g31
sg32
(dp5308
g192
g5307
sg197
g11
(g15
S'\x14\xba\xa0S\xf2\x89\xe0?'
p5309
tp5310
Rp5311
sg21
g145
sg95
g11
(g98
S'\x01\x00\x00\x00\x00\x00\x00\x00'
p5312
tp5313
Rp5314
ssg42
g11
(g12
(S'S3'
p5315
I0
I1
tp5316
Rp5317
(I3
S'|'
p5318
NNNI3
I1
I0
tp5319
bS'PCA'
p5320
tp5321
Rp5322
sg51
F0.2
sg52
g11
(g12
(S'S8'
p5323
I0
I1
tp5324
Rp5325
(I3
S'|'
p5326
NNNI8
I1
I0
tp5327
bS'haralick'
p5328
tp5329
Rp5330
sg95
g5314
sg61
g11
(g15
S'\x1fe\n\xf6\xfe<\x01@'
p5331
tp5332
Rp5333
sg65
g11
(g12
(S'S2'
p5334
I0
I1
tp5335
Rp5336
(I3
S'|'
p5337
NNNI2
I1
I0
tp5338
bS'RF'
p5339
tp5340
Rp5341
sg74
I3
sg197
g5311
sg75
g76
sg77
g11
(g15
S'\x1c\xd6\xbea\xed\x1b\xe6?'
p5342
tp5343
Rp5344
sg81
g82
sg83
g84
sbag4
(g5
g6
Ntp5345
Rp5346
(dp5347
g10
g11
(g15
S'\x00\x00\x00\x00\x00\x00\xf8\xff'
p5348
tp5349
Rp5350
sg21
g145
sg30
g31
sg32
(dp5351
g21
g145
sg34
g11
(g15
S'\x0f\xd4\xc9\xa1\x1aLU@'
p5352
tp5353
Rp5354
sg95
g11
(g98
S'\x03\x00\x00\x00\x00\x00\x00\x00'
p5355
tp5356
Rp5357
sg38
g11
(g15
S'\xbdv\xa1v\t8\x14@'
p5358
tp5359
Rp5360
ssg42
g11
(g12
(S'S3'
p5361
I0
I1
tp5362
Rp5363
(I3
S'|'
p5364
NNNI3
I1
I0
tp5365
bS'PCA'
p5366
tp5367
Rp5368
sg51
F0.2
sg38
g5360
sg52
g11
(g12
(S'S8'
p5369
I0
I1
tp5370
Rp5371
(I3
S'|'
p5372
NNNI8
I1
I0
tp5373
bS'haralick'
p5374
tp5375
Rp5376
sg34
g5354
sg95
g5357
sg61
g11
(g15
S'I\xe5\xd4\xacY\x90\xe0?'
p5377
tp5378
Rp5379
sg65
g11
(g12
(S'S3'
p5380
I0
I1
tp5381
Rp5382
(I3
S'|'
p5383
NNNI3
I1
I0
tp5384
bS'SVM'
p5385
tp5386
Rp5387
sg74
I3
sg75
g76
sg77
g11
(g15
S'\x1f|\xf0\xc1\x07\x1f\xe4?'
p5388
tp5389
Rp5390
sg81
g82
sg83
g84
sbag4
(g5
g6
Ntp5391
Rp5392
(dp5393
g10
g11
(g15
S'\x00\x00\x00\x00\x00\x00\xf8\xff'
p5394
tp5395
Rp5396
sg192
g11
(g15
S'\x00\x00\x00\x00\x00@a@'
p5397
tp5398
Rp5399
sg30
g31
sg392
g11
(g98
S'\x07\x00\x00\x00\x00\x00\x00\x00'
p5400
tp5401
Rp5402
sg32
(dp5403
g192
g5399
sg392
g5402
sg413
g11
(g98
S'\x04\x00\x00\x00\x00\x00\x00\x00'
p5404
tp5405
Rp5406
sg197
g11
(g15
S'I\xca\x81m,\xcf\xe6?'
p5407
tp5408
Rp5409
ssg42
g11
(g12
(S'S6'
p5410
I0
I1
tp5411
Rp5412
(I3
S'|'
p5413
NNNI6
I1
I0
tp5414
bS'ISOMAP'
p5415
tp5416
Rp5417
sg51
F0.2
sg413
g5406
sg52
g11
(g12
(S'S9'
p5418
I0
I1
tp5419
Rp5420
(I3
S'|'
p5421
NNNI9
I1
I0
tp5422
bS'inception'
p5423
tp5424
Rp5425
sg61
g11
(g15
S'\x8b\x95j!\x1f\xab\xf8?'
p5426
tp5427
Rp5428
sg65
g11
(g12
(S'S2'
p5429
I0
I1
tp5430
Rp5431
(I3
S'|'
p5432
NNNI2
I1
I0
tp5433
bS'RF'
p5434
tp5435
Rp5436
sg74
I3
sg197
g5409
sg75
g76
sg77
g11
(g15
S'\x15\xb7Bq+\x14\xe7?'
p5437
tp5438
Rp5439
sg81
g82
sg83
g84
sbag4
(g5
g6
Ntp5440
Rp5441
(dp5442
g10
g11
(g15
S'\x00\x00\x00\x00\x00\x00\xf8\xff'
p5443
tp5444
Rp5445
sg192
g11
(g15
S'\x00\x00\x00\x00\x00\x00 @'
p5446
tp5447
Rp5448
sg30
g31
sg392
g11
(g98
S'\x03\x00\x00\x00\x00\x00\x00\x00'
p5449
tp5450
Rp5451
sg32
(dp5452
g192
g5448
sg392
g5451
sg413
g11
(g98
S'\x03\x00\x00\x00\x00\x00\x00\x00'
p5453
tp5454
Rp5455
sg197
g11
(g15
S'\x94\x7f\xec\xc4\xa8\x15\xe8?'
p5456
tp5457
Rp5458
ssg42
g11
(g12
(S'S6'
p5459
I0
I1
tp5460
Rp5461
(I3
S'|'
p5462
NNNI6
I1
I0
tp5463
bS'ISOMAP'
p5464
tp5465
Rp5466
sg51
F0.2
sg413
g5455
sg52
g11
(g12
(S'S3'
p5467
I0
I1
tp5468
Rp5469
(I3
S'|'
p5470
NNNI3
I1
I0
tp5471
bS'VGG'
p5472
tp5473
Rp5474
sg61
g11
(g15
S'u"\xa9\x8d\x89\x17\x08@'
p5475
tp5476
Rp5477
sg65
g11
(g12
(S'S2'
p5478
I0
I1
tp5479
Rp5480
(I3
S'|'
p5481
NNNI2
I1
I0
tp5482
bS'RF'
p5483
tp5484
Rp5485
sg74
I3
sg197
g5458
sg75
g76
sg77
g11
(g15
S'\r\x98\xc6\x80i\x0c\xe8?'
p5486
tp5487
Rp5488
sg81
g82
sg83
g84
sbag4
(g5
g6
Ntp5489
Rp5490
(dp5491
g10
g11
(g15
S'\x00\x00\x00\x00\x00\x00\xf8\xff'
p5492
tp5493
Rp5494
sg392
g11
(g98
S'\x05\x00\x00\x00\x00\x00\x00\x00'
p5495
tp5496
Rp5497
sg30
g31
sg32
(dp5498
g392
g5497
sg34
g11
(g15
S'\n.T\x8f\xd9=N@'
p5499
tp5500
Rp5501
sg95
g11
(g98
S'\x03\x00\x00\x00\x00\x00\x00\x00'
p5502
tp5503
Rp5504
sg413
g11
(g98
S'\x04\x00\x00\x00\x00\x00\x00\x00'
p5505
tp5506
Rp5507
sg38
g11
(g15
S'u\xff\xf4\xcf\x8d\xbc\x1c@'
p5508
tp5509
Rp5510
ssg38
g5510
sg42
g11
(g12
(S'S6'
p5511
I0
I1
tp5512
Rp5513
(I3
S'|'
p5514
NNNI6
I1
I0
tp5515
bS'ISOMAP'
p5516
tp5517
Rp5518
sg51
F0.2
sg413
g5507
sg52
g11
(g12
(S'S8'
p5519
I0
I1
tp5520
Rp5521
(I3
S'|'
p5522
NNNI8
I1
I0
tp5523
bS'haralick'
p5524
tp5525
Rp5526
sg34
g5501
sg95
g5504
sg61
g11
(g15
S'\xed#\x92\x8b!?\xe0?'
p5527
tp5528
Rp5529
sg65
g11
(g12
(S'S3'
p5530
I0
I1
tp5531
Rp5532
(I3
S'|'
p5533
NNNI3
I1
I0
tp5534
bS'SVM'
p5535
tp5536
Rp5537
sg74
I3
sg75
g76
sg77
g11
(g15
S'\x190\x8d\x01\xd3\x18\xe8?'
p5538
tp5539
Rp5540
sg81
g82
sg83
g84
sbag4
(g5
g6
Ntp5541
Rp5542
(dp5543
g10
g11
(g15
S'\x00\x00\x00\x00\x00\x00\xf8\xff'
p5544
tp5545
Rp5546
sg192
g11
(g15
S'\x00\x00\x00\x00\x00\xc0r@'
p5547
tp5548
Rp5549
sg30
g31
sg392
g11
(g98
S'\x03\x00\x00\x00\x00\x00\x00\x00'
p5550
tp5551
Rp5552
sg32
(dp5553
g192
g5549
sg392
g5552
sg95
g11
(g98
S'\x02\x00\x00\x00\x00\x00\x00\x00'
p5554
tp5555
Rp5556
sg413
g11
(g98
S'\x03\x00\x00\x00\x00\x00\x00\x00'
p5557
tp5558
Rp5559
sg197
g11
(g15
S'HUc\xd7_@\xe9?'
p5560
tp5561
Rp5562
ssg42
g11
(g12
(S'S6'
p5563
I0
I1
tp5564
Rp5565
(I3
S'|'
p5566
NNNI6
I1
I0
tp5567
bS'ISOMAP'
p5568
tp5569
Rp5570
sg51
F0.2
sg413
g5559
sg52
g11
(g12
(S'S8'
p5571
I0
I1
tp5572
Rp5573
(I3
S'|'
p5574
NNNI8
I1
I0
tp5575
bS'haralick'
p5576
tp5577
Rp5578
sg95
g5556
sg61
g11
(g15
S'\x98\xa9\xa8\xfcA\x9c\xe1?'
p5579
tp5580
Rp5581
sg65
g11
(g12
(S'S2'
p5582
I0
I1
tp5583
Rp5584
(I3
S'|'
p5585
NNNI2
I1
I0
tp5586
bS'RF'
p5587
tp5588
Rp5589
sg74
I3
sg197
g5562
sg75
g76
sg77
g11
(g15
S'\x91z\x1d\xa9\xd7\x91\xea?'
p5590
tp5591
Rp5592
sg81
g82
sg83
g84
sbag4
(g5
g6
Ntp5593
Rp5594
(dp5595
g10
g11
(g15
S'\x00\x00\x00\x00\x00\x00\xf8\xff'
p5596
tp5597
Rp5598
sg192
g11
(g15
S'\x00\x00\x00\x00\x00\x00D@'
p5599
tp5600
Rp5601
sg30
g31
sg392
g11
(g98
S'\x06\x00\x00\x00\x00\x00\x00\x00'
p5602
tp5603
Rp5604
sg32
(dp5605
g192
g5601
sg392
g5604
sg413
g11
(g98
S'\x04\x00\x00\x00\x00\x00\x00\x00'
p5606
tp5607
Rp5608
sg197
g11
(g15
S'y\xe1T\xb1\xd7\xc7\xd5?'
p5609
tp5610
Rp5611
ssg42
g11
(g12
(S'S6'
p5612
I0
I1
tp5613
Rp5614
(I3
S'|'
p5615
NNNI6
I1
I0
tp5616
bS'ISOMAP'
p5617
tp5618
Rp5619
sg51
F0.2
sg413
g5608
sg52
g11
(g12
(S'S9'
p5620
I0
I1
tp5621
Rp5622
(I3
S'|'
p5623
NNNI9
I1
I0
tp5624
bS'inception'
p5625
tp5626
Rp5627
sg61
g11
(g15
S'\xa3m\xf0\xa1\xf5\xf2\xf0?'
p5628
tp5629
Rp5630
sg65
g11
(g12
(S'S2'
p5631
I0
I1
tp5632
Rp5633
(I3
S'|'
p5634
NNNI2
I1
I0
tp5635
bS'RF'
p5636
tp5637
Rp5638
sg74
I3
sg197
g5611
sg75
g76
sg77
g11
(g15
S'\x15\xb7Bq+\x14\xe7?'
p5639
tp5640
Rp5641
sg81
g82
sg83
g84
sbag4
(g5
g6
Ntp5642
Rp5643
(dp5644
g10
g11
(g15
S'\x00\x00\x00\x00\x00\x00\xf8\xff'
p5645
tp5646
Rp5647
sg392
g11
(g98
S'\x04\x00\x00\x00\x00\x00\x00\x00'
p5648
tp5649
Rp5650
sg30
g31
sg32
(dp5651
g392
g5650
sg34
g11
(g15
S'\x05Za\xaf\x01C=@'
p5652
tp5653
Rp5654
sg413
g11
(g98
S'\x02\x00\x00\x00\x00\x00\x00\x00'
p5655
tp5656
Rp5657
sg38
g11
(g15
S'Q\xd6\xecI\x1d\xe4\x03@'
p5658
tp5659
Rp5660
ssg38
g5660
sg42
g11
(g12
(S'S6'
p5661
I0
I1
tp5662
Rp5663
(I3
S'|'
p5664
NNNI6
I1
I0
tp5665
bS'ISOMAP'
p5666
tp5667
Rp5668
sg51
F0.2
sg413
g5657
sg52
g11
(g12
(S'S9'
p5669
I0
I1
tp5670
Rp5671
(I3
S'|'
p5672
NNNI9
I1
I0
tp5673
bS'inception'
p5674
tp5675
Rp5676
sg34
g5654
sg61
g11
(g15
S"\xfd\xf1S\x8b'3\xe4?"
p5677
tp5678
Rp5679
sg65
g11
(g12
(S'S3'
p5680
I0
I1
tp5681
Rp5682
(I3
S'|'
p5683
NNNI3
I1
I0
tp5684
bS'SVM'
p5685
tp5686
Rp5687
sg74
I3
sg75
g76
sg77
g11
(g15
S'\xac}\xc3\xda7\xac\xe5?'
p5688
tp5689
Rp5690
sg81
g82
sg83
g84
sbag4
(g5
g6
Ntp5691
Rp5692
(dp5693
g10
g11
(g15
S'\x00\x00\x00\x00\x00\x00\xf8\xff'
p5694
tp5695
Rp5696
sg192
g11
(g15
S'\x00\x00\x00\x00\x00`i@'
p5697
tp5698
Rp5699
sg21
g29
sg30
g31
sg32
(dp5700
g192
g5699
sg197
g11
(g15
S'\xa0\x94\xde7r\x8a\xe0?'
p5701
tp5702
Rp5703
sg21
g29
sg95
g11
(g98
S'\x01\x00\x00\x00\x00\x00\x00\x00'
p5704
tp5705
Rp5706
ssg42
g11
(g12
(S'S3'
p5707
I0
I1
tp5708
Rp5709
(I3
S'|'
p5710
NNNI3
I1
I0
tp5711
bS'PCA'
p5712
tp5713
Rp5714
sg51
F0.2
sg52
g11
(g12
(S'S8'
p5715
I0
I1
tp5716
Rp5717
(I3
S'|'
p5718
NNNI8
I1
I0
tp5719
bS'haralick'
p5720
tp5721
Rp5722
sg95
g5706
sg61
g11
(g15
S'\xa1\xae\x04\x11~\xdd\xfa?'
p5723
tp5724
Rp5725
sg65
g11
(g12
(S'S2'
p5726
I0
I1
tp5727
Rp5728
(I3
S'|'
p5729
NNNI2
I1
I0
tp5730
bS'RF'
p5731
tp5732
Rp5733
sg74
I3
sg197
g5703
sg75
g76
sg77
g11
(g15
S'\x1c\xd6\xbea\xed\x1b\xe6?'
p5734
tp5735
Rp5736
sg81
g82
sg83
g84
sbag4
(g5
g6
Ntp5737
Rp5738
(dp5739
g10
g11
(g15
S'\x00\x00\x00\x00\x00\x00\xf8\xff'
p5740
tp5741
Rp5742
sg192
g11
(g15
S'\x00\x00\x00\x00\x00@R@'
p5743
tp5744
Rp5745
sg30
g31
sg392
g11
(g98
S'\x03\x00\x00\x00\x00\x00\x00\x00'
p5746
tp5747
Rp5748
sg32
(dp5749
g192
g5745
sg392
g5748
sg413
g11
(g98
S'\x02\x00\x00\x00\x00\x00\x00\x00'
p5750
tp5751
Rp5752
sg197
g11
(g15
S'\xf9\xce\x1f\xc0\xaf\x8f\xd4?'
p5753
tp5754
Rp5755
ssg42
g11
(g12
(S'S6'
p5756
I0
I1
tp5757
Rp5758
(I3
S'|'
p5759
NNNI6
I1
I0
tp5760
bS'ISOMAP'
p5761
tp5762
Rp5763
sg51
F0.2
sg413
g5752
sg52
g11
(g12
(S'S9'
p5764
I0
I1
tp5765
Rp5766
(I3
S'|'
p5767
NNNI9
I1
I0
tp5768
bS'inception'
p5769
tp5770
Rp5771
sg61
g11
(g15
S'A\x02Ij\xc8D\x01@'
p5772
tp5773
Rp5774
sg65
g11
(g12
(S'S2'
p5775
I0
I1
tp5776
Rp5777
(I3
S'|'
p5778
NNNI2
I1
I0
tp5779
bS'RF'
p5780
tp5781
Rp5782
sg74
I3
sg197
g5755
sg75
g76
sg77
g11
(g15
S'\xff,\xe7\xcfr\xfe\xe4?'
p5783
tp5784
Rp5785
sg81
g82
sg83
g84
sbag4
(g5
g6
Ntp5786
Rp5787
(dp5788
g10
g11
(g15
S'\x00\x00\x00\x00\x00\x00\xf8\xff'
p5789
tp5790
Rp5791
sg392
g11
(g98
S'\x03\x00\x00\x00\x00\x00\x00\x00'
p5792
tp5793
Rp5794
sg30
g31
sg32
(dp5795
g392
g5794
sg34
g11
(g15
S'6\xf0\x06OV)S@'
p5796
tp5797
Rp5798
sg413
g11
(g98
S'\x04\x00\x00\x00\x00\x00\x00\x00'
p5799
tp5800
Rp5801
sg38
g11
(g15
S'\xca\x949\xf8\x179\x16@'
p5802
tp5803
Rp5804
ssg38
g5804
sg42
g11
(g12
(S'S6'
p5805
I0
I1
tp5806
Rp5807
(I3
S'|'
p5808
NNNI6
I1
I0
tp5809
bS'ISOMAP'
p5810
tp5811
Rp5812
sg51
F0.2
sg413
g5801
sg52
g11
(g12
(S'S3'
p5813
I0
I1
tp5814
Rp5815
(I3
S'|'
p5816
NNNI3
I1
I0
tp5817
bS'VGG'
p5818
tp5819
Rp5820
sg34
g5798
sg61
g11
(g15
S"/\x93\xbe\xe2'\xb0\xe1?"
p5821
tp5822
Rp5823
sg65
g11
(g12
(S'S3'
p5824
I0
I1
tp5825
Rp5826
(I3
S'|'
p5827
NNNI3
I1
I0
tp5828
bS'SVM'
p5829
tp5830
Rp5831
sg74
I3
sg75
g76
sg77
g11
(g15
S'\x90\xa7\x04yJ\x90\xe7?'
p5832
tp5833
Rp5834
sg81
g82
sg83
g84
sbag4
(g5
g6
Ntp5835
Rp5836
(dp5837
g10
g11
(g15
S'\x00\x00\x00\x00\x00\x00\xf8\xff'
p5838
tp5839
Rp5840
sg392
g11
(g98
S'\x06\x00\x00\x00\x00\x00\x00\x00'
p5841
tp5842
Rp5843
sg30
g31
sg32
(dp5844
g392
g5843
sg34
g11
(g15
S'\xf1\xdd"\xbd\xe9\xa6G@'
p5845
tp5846
Rp5847
sg413
g11
(g98
S'\x04\x00\x00\x00\x00\x00\x00\x00'
p5848
tp5849
Rp5850
sg38
g11
(g15
S'\x86\xe6!\xb0 \xb2\xf4?'
p5851
tp5852
Rp5853
ssg38
g5853
sg42
g11
(g12
(S'S6'
p5854
I0
I1
tp5855
Rp5856
(I3
S'|'
p5857
NNNI6
I1
I0
tp5858
bS'ISOMAP'
p5859
tp5860
Rp5861
sg51
F0.2
sg413
g5850
sg52
g11
(g12
(S'S9'
p5862
I0
I1
tp5863
Rp5864
(I3
S'|'
p5865
NNNI9
I1
I0
tp5866
bS'inception'
p5867
tp5868
Rp5869
sg34
g5847
sg61
g11
(g15
S'$9#T\x85=\xe2?'
p5870
tp5871
Rp5872
sg65
g11
(g12
(S'S3'
p5873
I0
I1
tp5874
Rp5875
(I3
S'|'
p5876
NNNI3
I1
I0
tp5877
bS'SVM'
p5878
tp5879
Rp5880
sg74
I3
sg75
g76
sg77
g11
(g15
S'\x17]t\xd1E\x17\xe5?'
p5881
tp5882
Rp5883
sg81
g82
sg83
g84
sbag4
(g5
g6
Ntp5884
Rp5885
(dp5886
g10
g11
(g15
S'\x00\x00\x00\x00\x00\x00\xf8\xff'
p5887
tp5888
Rp5889
sg21
g145
sg30
g31
sg32
(dp5890
g21
g145
sg34
g11
(g15
S'\xdb@\xc9WG\nX@'
p5891
tp5892
Rp5893
sg38
g11
(g15
S'I\tZ\x81\xa5\x9f\xfd?'
p5894
tp5895
Rp5896
ssg42
g11
(g12
(S'S3'
p5897
I0
I1
tp5898
Rp5899
(I3
S'|'
p5900
NNNI3
I1
I0
tp5901
bS'PCA'
p5902
tp5903
Rp5904
sg51
F0.2
sg38
g5896
sg52
g11
(g12
(S'S3'
p5905
I0
I1
tp5906
Rp5907
(I3
S'|'
p5908
NNNI3
I1
I0
tp5909
bS'VGG'
p5910
tp5911
Rp5912
sg34
g5893
sg61
g11
(g15
S'\xc9\xcf\xe3B\xb5\x1d\xe1?'
p5913
tp5914
Rp5915
sg65
g11
(g12
(S'S3'
p5916
I0
I1
tp5917
Rp5918
(I3
S'|'
p5919
NNNI3
I1
I0
tp5920
bS'SVM'
p5921
tp5922
Rp5923
sg74
I3
sg75
g76
sg77
g11
(g15
S'\x88\x88\x88\x88\x88\x88\xe8?'
p5924
tp5925
Rp5926
sg81
g82
sg83
g84
sbag4
(g5
g6
Ntp5927
Rp5928
(dp5929
g10
g11
(g15
S'\x00\x00\x00\x00\x00\x00\xf8\xff'
p5930
tp5931
Rp5932
sg21
g29
sg30
g31
sg32
(dp5933
g21
g29
sg34
g11
(g15
S'\xcb\xb5\xb7\xd6\x9c\x19$@'
p5934
tp5935
Rp5936
sg38
g11
(g15
S'\x8b\x93\x16\x8a\xb5\xf3\xfc?'
p5937
tp5938
Rp5939
ssg42
g11
(g12
(S'S3'
p5940
I0
I1
tp5941
Rp5942
(I3
S'|'
p5943
NNNI3
I1
I0
tp5944
bS'PCA'
p5945
tp5946
Rp5947
sg51
F0.2
sg38
g5939
sg52
g11
(g12
(S'S3'
p5948
I0
I1
tp5949
Rp5950
(I3
S'|'
p5951
NNNI3
I1
I0
tp5952
bS'VGG'
p5953
tp5954
Rp5955
sg34
g5936
sg61
g11
(g15
S'\x93\xe6\xda\xb2\xc1:\xe1?'
p5956
tp5957
Rp5958
sg65
g11
(g12
(S'S3'
p5959
I0
I1
tp5960
Rp5961
(I3
S'|'
p5962
NNNI3
I1
I0
tp5963
bS'SVM'
p5964
tp5965
Rp5966
sg74
I3
sg75
g76
sg77
g11
(g15
S'\x88\x88\x88\x88\x88\x88\xe8?'
p5967
tp5968
Rp5969
sg81
g82
sg83
g84
sbag4
(g5
g6
Ntp5970
Rp5971
(dp5972
g10
g11
(g15
S'\x00\x00\x00\x00\x00\x00\xf8\xff'
p5973
tp5974
Rp5975
sg192
g11
(g15
S'\x00\x00\x00\x00\x00@e@'
p5976
tp5977
Rp5978
sg30
g31
sg392
g11
(g98
S'\x05\x00\x00\x00\x00\x00\x00\x00'
p5979
tp5980
Rp5981
sg32
(dp5982
g192
g5978
sg392
g5981
sg95
g11
(g98
S'\x02\x00\x00\x00\x00\x00\x00\x00'
p5983
tp5984
Rp5985
sg413
g11
(g98
S'\x02\x00\x00\x00\x00\x00\x00\x00'
p5986
tp5987
Rp5988
sg197
g11
(g15
S'\x8c\xe5\x9c_,\xb4\xde?'
p5989
tp5990
Rp5991
ssg42
g11
(g12
(S'S6'
p5992
I0
I1
tp5993
Rp5994
(I3
S'|'
p5995
NNNI6
I1
I0
tp5996
bS'ISOMAP'
p5997
tp5998
Rp5999
sg51
F0.2
sg413
g5988
sg52
g11
(g12
(S'S8'
p6000
I0
I1
tp6001
Rp6002
(I3
S'|'
p6003
NNNI8
I1
I0
tp6004
bS'haralick'
p6005
tp6006
Rp6007
sg95
g5985
sg61
g11
(g15
S'\x83]\xc2V\xa0!\xf8?'
p6008
tp6009
Rp6010
sg65
g11
(g12
(S'S2'
p6011
I0
I1
tp6012
Rp6013
(I3
S'|'
p6014
NNNI2
I1
I0
tp6015
bS'RF'
p6016
tp6017
Rp6018
sg74
I3
sg197
g5991
sg75
g76
sg77
g11
(g15
S'\x05yJ\x90\xa7\x04\xe9?'
p6019
tp6020
Rp6021
sg81
g82
sg83
g84
sbag4
(g5
g6
Ntp6022
Rp6023
(dp6024
g10
g11
(g15
S'\x00\x00\x00\x00\x00\x00\xf8\xff'
p6025
tp6026
Rp6027
sg392
g11
(g98
S'\x04\x00\x00\x00\x00\x00\x00\x00'
p6028
tp6029
Rp6030
sg30
g31
sg32
(dp6031
g392
g6030
sg34
g11
(g15
S'\x05P;v\xda\x82P@'
p6032
tp6033
Rp6034
sg413
g11
(g98
S'\x04\x00\x00\x00\x00\x00\x00\x00'
p6035
tp6036
Rp6037
sg38
g11
(g15
S'\xd6\x92\xb6\xa5|Q\x19@'
p6038
tp6039
Rp6040
ssg38
g6040
sg42
g11
(g12
(S'S6'
p6041
I0
I1
tp6042
Rp6043
(I3
S'|'
p6044
NNNI6
I1
I0
tp6045
bS'ISOMAP'
p6046
tp6047
Rp6048
sg51
F0.2
sg413
g6037
sg52
g11
(g12
(S'S9'
p6049
I0
I1
tp6050
Rp6051
(I3
S'|'
p6052
NNNI9
I1
I0
tp6053
bS'inception'
p6054
tp6055
Rp6056
sg34
g6034
sg61
g11
(g15
S'`Dx\x7f(\xdd\xe7?'
p6057
tp6058
Rp6059
sg65
g11
(g12
(S'S3'
p6060
I0
I1
tp6061
Rp6062
(I3
S'|'
p6063
NNNI3
I1
I0
tp6064
bS'SVM'
p6065
tp6066
Rp6067
sg74
I3
sg75
g76
sg77
g11
(g15
S'\x12\xe4)A\x9e\x12\xe4?'
p6068
tp6069
Rp6070
sg81
g82
sg83
g84
sbag4
(g5
g6
Ntp6071
Rp6072
(dp6073
g10
g11
(g15
S'\x00\x00\x00\x00\x00\x00\xf8\xff'
p6074
tp6075
Rp6076
sg21
g29
sg30
g31
sg32
(dp6077
g21
g29
sg34
g11
(g15
S"Vi'\xb3;IO@"
p6078
tp6079
Rp6080
sg38
g11
(g15
S'$\x16\xa7\x7f=\xbd\x12@'
p6081
tp6082
Rp6083
ssg42
g11
(g12
(S'S3'
p6084
I0
I1
tp6085
Rp6086
(I3
S'|'
p6087
NNNI3
I1
I0
tp6088
bS'PCA'
p6089
tp6090
Rp6091
sg51
F0.2
sg38
g6083
sg52
g11
(g12
(S'S3'
p6092
I0
I1
tp6093
Rp6094
(I3
S'|'
p6095
NNNI3
I1
I0
tp6096
bS'VGG'
p6097
tp6098
Rp6099
sg34
g6080
sg61
g11
(g15
S'\xca\xdek\xdc%\xdd\xe0?'
p6100
tp6101
Rp6102
sg65
g11
(g12
(S'S3'
p6103
I0
I1
tp6104
Rp6105
(I3
S'|'
p6106
NNNI3
I1
I0
tp6107
bS'SVM'
p6108
tp6109
Rp6110
sg74
I3
sg75
g76
sg77
g11
(g15
S'\x05yJ\x90\xa7\x04\xe9?'
p6111
tp6112
Rp6113
sg81
g82
sg83
g84
sbag4
(g5
g6
Ntp6114
Rp6115
(dp6116
g10
g11
(g15
S'\x00\x00\x00\x00\x00\x00\xf8\xff'
p6117
tp6118
Rp6119
sg392
g11
(g98
S'\x05\x00\x00\x00\x00\x00\x00\x00'
p6120
tp6121
Rp6122
sg30
g31
sg32
(dp6123
g392
g6122
sg34
g11
(g15
S'\xaf\xd2\x8a\x82\x17\xd6\x0b@'
p6124
tp6125
Rp6126
sg95
g11
(g98
S'\x03\x00\x00\x00\x00\x00\x00\x00'
p6127
tp6128
Rp6129
sg413
g11
(g98
S'\x02\x00\x00\x00\x00\x00\x00\x00'
p6130
tp6131
Rp6132
sg38
g11
(g15
S'O\xe1mD\x8d\xfb\x08@'
p6133
tp6134
Rp6135
ssg38
g6135
sg42
g11
(g12
(S'S6'
p6136
I0
I1
tp6137
Rp6138
(I3
S'|'
p6139
NNNI6
I1
I0
tp6140
bS'ISOMAP'
p6141
tp6142
Rp6143
sg51
F0.2
sg413
g6132
sg52
g11
(g12
(S'S8'
p6144
I0
I1
tp6145
Rp6146
(I3
S'|'
p6147
NNNI8
I1
I0
tp6148
bS'haralick'
p6149
tp6150
Rp6151
sg34
g6126
sg95
g6129
sg61
g11
(g15
S'o\x97jz\x97\xdf\xde?'
p6152
tp6153
Rp6154
sg65
g11
(g12
(S'S3'
p6155
I0
I1
tp6156
Rp6157
(I3
S'|'
p6158
NNNI3
I1
I0
tp6159
bS'SVM'
p6160
tp6161
Rp6162
sg74
I3
sg75
g76
sg77
g11
(g15
S'\x8f\xd4\xebH\xbd\x8e\xe4?'
p6163
tp6164
Rp6165
sg81
g82
sg83
g84
sbag4
(g5
g6
Ntp6166
Rp6167
(dp6168
g10
g11
(g15
S'\x00\x00\x00\x00\x00\x00\xf8\xff'
p6169
tp6170
Rp6171
sg21
g145
sg30
g31
sg32
(dp6172
g21
g145
sg34
g11
(g15
S'\xf6U\x12\xd3\xa9rV@'
p6173
tp6174
Rp6175
sg95
g11
(g98
S'\x01\x00\x00\x00\x00\x00\x00\x00'
p6176
tp6177
Rp6178
sg38
g11
(g15
S'\xaay\x12\xb6\r\x14\x13@'
p6179
tp6180
Rp6181
ssg42
g11
(g12
(S'S3'
p6182
I0
I1
tp6183
Rp6184
(I3
S'|'
p6185
NNNI3
I1
I0
tp6186
bS'PCA'
p6187
tp6188
Rp6189
sg51
F0.2
sg38
g6181
sg52
g11
(g12
(S'S8'
p6190
I0
I1
tp6191
Rp6192
(I3
S'|'
p6193
NNNI8
I1
I0
tp6194
bS'haralick'
p6195
tp6196
Rp6197
sg34
g6175
sg95
g6178
sg61
g11
(g15
S'\xcd\x1aIk\xf2\x1d\xde?'
p6198
tp6199
Rp6200
sg65
g11
(g12
(S'S3'
p6201
I0
I1
tp6202
Rp6203
(I3
S'|'
p6204
NNNI3
I1
I0
tp6205
bS'SVM'
p6206
tp6207
Rp6208
sg74
I3
sg75
g76
sg77
g11
(g15
S'\x9bl\xb2\xc9&\x9b\xe4?'
p6209
tp6210
Rp6211
sg81
g82
sg83
g84
sbag4
(g5
g6
Ntp6212
Rp6213
(dp6214
g10
g11
(g15
S'\x00\x00\x00\x00\x00\x00\xf8\xff'
p6215
tp6216
Rp6217
sg21
g145
sg30
g31
sg32
(dp6218
g21
g145
sg34
g11
(g15
S'D\xcb\xa2j\xfa\xb9J@'
p6219
tp6220
Rp6221
sg38
g11
(g15
S'\x8eK\x84\x05\x1f\xe5\x0f@'
p6222
tp6223
Rp6224
ssg42
g11
(g12
(S'S3'
p6225
I0
I1
tp6226
Rp6227
(I3
S'|'
p6228
NNNI3
I1
I0
tp6229
bS'PCA'
p6230
tp6231
Rp6232
sg51
F0.2
sg38
g6224
sg52
g11
(g12
(S'S3'
p6233
I0
I1
tp6234
Rp6235
(I3
S'|'
p6236
NNNI3
I1
I0
tp6237
bS'VGG'
p6238
tp6239
Rp6240
sg34
g6221
sg61
g11
(g15
S'\xe4\xee\x9294\xc6\xe0?'
p6241
tp6242
Rp6243
sg65
g11
(g12
(S'S3'
p6244
I0
I1
tp6245
Rp6246
(I3
S'|'
p6247
NNNI3
I1
I0
tp6248
bS'SVM'
p6249
tp6250
Rp6251
sg74
I3
sg75
g76
sg77
g11
(g15
S'\x05yJ\x90\xa7\x04\xe9?'
p6252
tp6253
Rp6254
sg81
g82
sg83
g84
sbag4
(g5
g6
Ntp6255
Rp6256
(dp6257
g10
g11
(g15
S'\x00\x00\x00\x00\x00\x00\xf8\xff'
p6258
tp6259
Rp6260
sg21
g29
sg30
g31
sg32
(dp6261
g21
g29
sg34
g11
(g15
S'X\xd0\xa1)\x8aYP@'
p6262
tp6263
Rp6264
sg38
g11
(g15
S'\xf87\xd4\xc9m\xa7\x17@'
p6265
tp6266
Rp6267
ssg42
g11
(g12
(S'S3'
p6268
I0
I1
tp6269
Rp6270
(I3
S'|'
p6271
NNNI3
I1
I0
tp6272
bS'PCA'
p6273
tp6274
Rp6275
sg51
F0.2
sg38
g6267
sg52
g11
(g12
(S'S3'
p6276
I0
I1
tp6277
Rp6278
(I3
S'|'
p6279
NNNI3
I1
I0
tp6280
bS'VGG'
p6281
tp6282
Rp6283
sg34
g6264
sg61
g11
(g15
S'5s\x0e\x1f\xf7\xf4\xe0?'
p6284
tp6285
Rp6286
sg65
g11
(g12
(S'S3'
p6287
I0
I1
tp6288
Rp6289
(I3
S'|'
p6290
NNNI3
I1
I0
tp6291
bS'SVM'
p6292
tp6293
Rp6294
sg74
I3
sg75
g76
sg77
g11
(g15
S'\x05yJ\x90\xa7\x04\xe9?'
p6295
tp6296
Rp6297
sg81
g82
sg83
g84
sbag4
(g5
g6
Ntp6298
Rp6299
(dp6300
g10
g11
(g15
S'\x00\x00\x00\x00\x00\x00\xf8\xff'
p6301
tp6302
Rp6303
sg192
g11
(g15
S'\x00\x00\x00\x00\x00@a@'
p6304
tp6305
Rp6306
sg30
g31
sg392
g11
(g98
S'\x03\x00\x00\x00\x00\x00\x00\x00'
p6307
tp6308
Rp6309
sg32
(dp6310
g192
g6306
sg392
g6309
sg413
g11
(g98
S'\x02\x00\x00\x00\x00\x00\x00\x00'
p6311
tp6312
Rp6313
sg197
g11
(g15
S'K\x8d\xbc\x98\xc9F\xe6?'
p6314
tp6315
Rp6316
ssg42
g11
(g12
(S'S6'
p6317
I0
I1
tp6318
Rp6319
(I3
S'|'
p6320
NNNI6
I1
I0
tp6321
bS'ISOMAP'
p6322
tp6323
Rp6324
sg51
F0.2
sg413
g6313
sg52
g11
(g12
(S'S9'
p6325
I0
I1
tp6326
Rp6327
(I3
S'|'
p6328
NNNI9
I1
I0
tp6329
bS'inception'
p6330
tp6331
Rp6332
sg61
g11
(g15
S'\xf8o13(\xeb\xfa?'
p6333
tp6334
Rp6335
sg65
g11
(g12
(S'S2'
p6336
I0
I1
tp6337
Rp6338
(I3
S'|'
p6339
NNNI2
I1
I0
tp6340
bS'RF'
p6341
tp6342
Rp6343
sg74
I3
sg197
g6316
sg75
g76
sg77
g11
(g15
S'\xff,\xe7\xcfr\xfe\xe4?'
p6344
tp6345
Rp6346
sg81
g82
sg83
g84
sbag4
(g5
g6
Ntp6347
Rp6348
(dp6349
g10
g11
(g15
S'\x00\x00\x00\x00\x00\x00\xf8\xff'
p6350
tp6351
Rp6352
sg192
g11
(g15
S'\x00\x00\x00\x00\x00\x00D@'
p6353
tp6354
Rp6355
sg30
g31
sg392
g11
(g98
S'\x04\x00\x00\x00\x00\x00\x00\x00'
p6356
tp6357
Rp6358
sg32
(dp6359
g192
g6355
sg392
g6358
sg95
g11
(g98
S'\x02\x00\x00\x00\x00\x00\x00\x00'
p6360
tp6361
Rp6362
sg413
g11
(g98
S'\x02\x00\x00\x00\x00\x00\x00\x00'
p6363
tp6364
Rp6365
sg197
g11
(g15
S'(X5\r#\xfa\xef?'
p6366
tp6367
Rp6368
ssg42
g11
(g12
(S'S6'
p6369
I0
I1
tp6370
Rp6371
(I3
S'|'
p6372
NNNI6
I1
I0
tp6373
bS'ISOMAP'
p6374
tp6375
Rp6376
sg51
F0.2
sg413
g6365
sg52
g11
(g12
(S'S8'
p6377
I0
I1
tp6378
Rp6379
(I3
S'|'
p6380
NNNI8
I1
I0
tp6381
bS'haralick'
p6382
tp6383
Rp6384
sg95
g6362
sg61
g11
(g15
S'{u\xa8\xf3\x13\xb6\xf7?'
p6385
tp6386
Rp6387
sg65
g11
(g12
(S'S2'
p6388
I0
I1
tp6389
Rp6390
(I3
S'|'
p6391
NNNI2
I1
I0
tp6392
bS'RF'
p6393
tp6394
Rp6395
sg74
I3
sg197
g6368
sg75
g76
sg77
g11
(g15
S'\x1d\xa9\xd7\x91z\x1d\xe9?'
p6396
tp6397
Rp6398
sg81
g82
sg83
g84
sbag4
(g5
g6
Ntp6399
Rp6400
(dp6401
g10
g11
(g15
S'\x00\x00\x00\x00\x00\x00\xf8\xff'
p6402
tp6403
Rp6404
sg192
g11
(g15
S'\x00\x00\x00\x00\x00@a@'
p6405
tp6406
Rp6407
sg30
g31
sg392
g11
(g98
S'\x03\x00\x00\x00\x00\x00\x00\x00'
p6408
tp6409
Rp6410
sg32
(dp6411
g192
g6407
sg392
g6410
sg413
g11
(g98
S'\x02\x00\x00\x00\x00\x00\x00\x00'
p6412
tp6413
Rp6414
sg197
g11
(g15
S'\x06a_\x00\xe3.\xd9?'
p6415
tp6416
Rp6417
ssg42
g11
(g12
(S'S6'
p6418
I0
I1
tp6419
Rp6420
(I3
S'|'
p6421
NNNI6
I1
I0
tp6422
bS'ISOMAP'
p6423
tp6424
Rp6425
sg51
F0.2
sg413
g6414
sg52
g11
(g12
(S'S3'
p6426
I0
I1
tp6427
Rp6428
(I3
S'|'
p6429
NNNI3
I1
I0
tp6430
bS'VGG'
p6431
tp6432
Rp6433
sg61
g11
(g15
S'\xec;\x0fq\xa3\xf7\xe1?'
p6434
tp6435
Rp6436
sg65
g11
(g12
(S'S2'
p6437
I0
I1
tp6438
Rp6439
(I3
S'|'
p6440
NNNI2
I1
I0
tp6441
bS'RF'
p6442
tp6443
Rp6444
sg74
I3
sg197
g6417
sg75
g76
sg77
g11
(g15
S'\r\x98\xc6\x80i\x0c\xe8?'
p6445
tp6446
Rp6447
sg81
g82
sg83
g84
sbag4
(g5
g6
Ntp6448
Rp6449
(dp6450
g10
g11
(g15
S'\x00\x00\x00\x00\x00\x00\xf8\xff'
p6451
tp6452
Rp6453
sg192
g11
(g15
S'\x00\x00\x00\x00\x00@Z@'
p6454
tp6455
Rp6456
sg21
g145
sg30
g31
sg32
(dp6457
g192
g6456
sg197
g11
(g15
S'~\xf3"\xf8\x0cL\xd6?'
p6458
tp6459
Rp6460
sg21
g145
ssg42
g11
(g12
(S'S3'
p6461
I0
I1
tp6462
Rp6463
(I3
S'|'
p6464
NNNI3
I1
I0
tp6465
bS'PCA'
p6466
tp6467
Rp6468
sg51
F0.2
sg52
g11
(g12
(S'S9'
p6469
I0
I1
tp6470
Rp6471
(I3
S'|'
p6472
NNNI9
I1
I0
tp6473
bS'inception'
p6474
tp6475
Rp6476
sg61
g11
(g15
S'\xf4~@\xbc*;\xe0?'
p6477
tp6478
Rp6479
sg65
g11
(g12
(S'S2'
p6480
I0
I1
tp6481
Rp6482
(I3
S'|'
p6483
NNNI2
I1
I0
tp6484
bS'RF'
p6485
tp6486
Rp6487
sg74
I3
sg197
g6460
sg75
g76
sg77
g11
(g15
S'\x190\x8d\x01\xd3\x18\xe8?'
p6488
tp6489
Rp6490
sg81
g82
sg83
g84
sbag4
(g5
g6
Ntp6491
Rp6492
(dp6493
g10
g11
(g15
S'\x00\x00\x00\x00\x00\x00\xf8\xff'
p6494
tp6495
Rp6496
sg21
g145
sg30
g31
sg32
(dp6497
g21
g145
sg34
g11
(g15
S'\xfb}3\xe8}l1@'
p6498
tp6499
Rp6500
sg38
g11
(g15
S'\xc4\xa7\xd6\xcbk9\x11@'
p6501
tp6502
Rp6503
ssg42
g11
(g12
(S'S3'
p6504
I0
I1
tp6505
Rp6506
(I3
S'|'
p6507
NNNI3
I1
I0
tp6508
bS'PCA'
p6509
tp6510
Rp6511
sg51
F0.2
sg38
g6503
sg52
g11
(g12
(S'S3'
p6512
I0
I1
tp6513
Rp6514
(I3
S'|'
p6515
NNNI3
I1
I0
tp6516
bS'VGG'
p6517
tp6518
Rp6519
sg34
g6500
sg61
g11
(g15
S'\x11v\x99\xa6\x9b\xd4\xe0?'
p6520
tp6521
Rp6522
sg65
g11
(g12
(S'S3'
p6523
I0
I1
tp6524
Rp6525
(I3
S'|'
p6526
NNNI3
I1
I0
tp6527
bS'SVM'
p6528
tp6529
Rp6530
sg74
I3
sg75
g76
sg77
g11
(g15
S'\x05yJ\x90\xa7\x04\xe9?'
p6531
tp6532
Rp6533
sg81
g82
sg83
g84
sbag4
(g5
g6
Ntp6534
Rp6535
(dp6536
g10
g11
(g15
S'\x00\x00\x00\x00\x00\x00\xf8\xff'
p6537
tp6538
Rp6539
sg392
g11
(g98
S'\x06\x00\x00\x00\x00\x00\x00\x00'
p6540
tp6541
Rp6542
sg30
g31
sg32
(dp6543
g392
g6542
sg34
g11
(g15
S'W\x01\xd2\x9co\x9dV@'
p6544
tp6545
Rp6546
sg413
g11
(g98
S'\x03\x00\x00\x00\x00\x00\x00\x00'
p6547
tp6548
Rp6549
sg38
g11
(g15
S'$\xcb\x9a\x05R\xf2\x19@'
p6550
tp6551
Rp6552
ssg38
g6552
sg42
g11
(g12
(S'S6'
p6553
I0
I1
tp6554
Rp6555
(I3
S'|'
p6556
NNNI6
I1
I0
tp6557
bS'ISOMAP'
p6558
tp6559
Rp6560
sg51
F0.2
sg413
g6549
sg52
g11
(g12
(S'S9'
p6561
I0
I1
tp6562
Rp6563
(I3
S'|'
p6564
NNNI9
I1
I0
tp6565
bS'inception'
p6566
tp6567
Rp6568
sg34
g6546
sg61
g11
(g15
S'\x04s8+\x8c\x81\xe2?'
p6569
tp6570
Rp6571
sg65
g11
(g12
(S'S3'
p6572
I0
I1
tp6573
Rp6574
(I3
S'|'
p6575
NNNI3
I1
I0
tp6576
bS'SVM'
p6577
tp6578
Rp6579
sg74
I3
sg75
g76
sg77
g11
(g15
S'\x1c\xd6\xbea\xed\x1b\xe6?'
p6580
tp6581
Rp6582
sg81
g82
sg83
g84
sbag4
(g5
g6
Ntp6583
Rp6584
(dp6585
g10
g11
(g15
S'\x00\x00\x00\x00\x00\x00\xf8\xff'
p6586
tp6587
Rp6588
sg392
g11
(g98
S'\x06\x00\x00\x00\x00\x00\x00\x00'
p6589
tp6590
Rp6591
sg30
g31
sg32
(dp6592
g392
g6591
sg34
g11
(g15
S'\xa1bDX\xdcHJ@'
p6593
tp6594
Rp6595
sg413
g11
(g98
S'\x03\x00\x00\x00\x00\x00\x00\x00'
p6596
tp6597
Rp6598
sg38
g11
(g15
S'e\xbd\x87\x90\x14W\xfa?'
p6599
tp6600
Rp6601
ssg38
g6601
sg42
g11
(g12
(S'S6'
p6602
I0
I1
tp6603
Rp6604
(I3
S'|'
p6605
NNNI6
I1
I0
tp6606
bS'ISOMAP'
p6607
tp6608
Rp6609
sg51
F0.2
sg413
g6598
sg52
g11
(g12
(S'S3'
p6610
I0
I1
tp6611
Rp6612
(I3
S'|'
p6613
NNNI3
I1
I0
tp6614
bS'VGG'
p6615
tp6616
Rp6617
sg34
g6595
sg61
g11
(g15
S',>l\xf91\xf4\xe7?'
p6618
tp6619
Rp6620
sg65
g11
(g12
(S'S3'
p6621
I0
I1
tp6622
Rp6623
(I3
S'|'
p6624
NNNI3
I1
I0
tp6625
bS'SVM'
p6626
tp6627
Rp6628
sg74
I3
sg75
g76
sg77
g11
(g15
S'\x15\xb7Bq+\x14\xe7?'
p6629
tp6630
Rp6631
sg81
g82
sg83
g84
sbag4
(g5
g6
Ntp6632
Rp6633
(dp6634
g10
g11
(g15
S'\x00\x00\x00\x00\x00\x00\xf8\xff'
p6635
tp6636
Rp6637
sg392
g11
(g98
S'\x05\x00\x00\x00\x00\x00\x00\x00'
p6638
tp6639
Rp6640
sg30
g31
sg32
(dp6641
g392
g6640
sg34
g11
(g15
S'\xc2\xc91:\xc3\xbb&@'
p6642
tp6643
Rp6644
sg413
g11
(g98
S'\x02\x00\x00\x00\x00\x00\x00\x00'
p6645
tp6646
Rp6647
sg38
g11
(g15
S'yK@\xa9\xb3\x1b\x13@'
p6648
tp6649
Rp6650
ssg38
g6650
sg42
g11
(g12
(S'S6'
p6651
I0
I1
tp6652
Rp6653
(I3
S'|'
p6654
NNNI6
I1
I0
tp6655
bS'ISOMAP'
p6656
tp6657
Rp6658
sg51
F0.2
sg413
g6647
sg52
g11
(g12
(S'S9'
p6659
I0
I1
tp6660
Rp6661
(I3
S'|'
p6662
NNNI9
I1
I0
tp6663
bS'inception'
p6664
tp6665
Rp6666
sg34
g6644
sg61
g11
(g15
S'|N\x04\xa5@\xe1\xe2?'
p6667
tp6668
Rp6669
sg65
g11
(g12
(S'S3'
p6670
I0
I1
tp6671
Rp6672
(I3
S'|'
p6673
NNNI3
I1
I0
tp6674
bS'SVM'
p6675
tp6676
Rp6677
sg74
I3
sg75
g76
sg77
g11
(g15
S'\xaf#\xf5:R\xaf\xe3?'
p6678
tp6679
Rp6680
sg81
g82
sg83
g84
sbag4
(g5
g6
Ntp6681
Rp6682
(dp6683
g10
g11
(g15
S'\x00\x00\x00\x00\x00\x00\xf8\xff'
p6684
tp6685
Rp6686
sg192
g11
(g15
S'\x00\x00\x00\x00\x00\x00 @'
p6687
tp6688
Rp6689
sg30
g31
sg392
g11
(g98
S'\x06\x00\x00\x00\x00\x00\x00\x00'
p6690
tp6691
Rp6692
sg32
(dp6693
g192
g6689
sg392
g6692
sg413
g11
(g98
S'\x04\x00\x00\x00\x00\x00\x00\x00'
p6694
tp6695
Rp6696
sg197
g11
(g15
S'\x1a-g\x07\x19_\xef?'
p6697
tp6698
Rp6699
ssg42
g11
(g12
(S'S6'
p6700
I0
I1
tp6701
Rp6702
(I3
S'|'
p6703
NNNI6
I1
I0
tp6704
bS'ISOMAP'
p6705
tp6706
Rp6707
sg51
F0.2
sg413
g6696
sg52
g11
(g12
(S'S9'
p6708
I0
I1
tp6709
Rp6710
(I3
S'|'
p6711
NNNI9
I1
I0
tp6712
bS'inception'
p6713
tp6714
Rp6715
sg61
g11
(g15
S'A\xfd\x01\xf4P\x89\x04@'
p6716
tp6717
Rp6718
sg65
g11
(g12
(S'S2'
p6719
I0
I1
tp6720
Rp6721
(I3
S'|'
p6722
NNNI2
I1
I0
tp6723
bS'RF'
p6724
tp6725
Rp6726
sg74
I3
sg197
g6699
sg75
g76
sg77
g11
(g15
S'\x10>\xf8\xe0\x83\x0f\xe6?'
p6727
tp6728
Rp6729
sg81
g82
sg83
g84
sbasS'error_curve'
p6730
(lp6731
g64
ag64
ag125
ag125
ag125
ag125
ag174
ag174
ag174
ag174
ag174
ag174
ag174
ag219
ag219
ag265
ag265
ag265
ag265
ag265
ag265
ag265
ag265
ag265
ag265
ag265
ag265
ag265
ag265
ag265
ag265
ag265
ag265
ag265
ag265
ag265
ag265
ag265
ag265
ag265
ag265
ag265
ag265
ag265
ag265
ag265
ag265
ag265
ag265
ag265
ag265
ag265
ag265
ag265
ag265
ag265
ag265
ag265
ag265
ag265
ag265
ag265
ag265
ag265
ag265
ag265
ag265
ag311
ag311
ag311
ag311
ag311
ag311
ag311
ag311
ag311
ag311
ag311
ag311
ag311
ag311
ag311
ag311
ag311
ag311
ag311
ag311
ag311
ag311
ag357
ag357
ag357
ag357
ag357
ag357
ag357
ag357
ag357
ag357
ag357
ag357
ag357
ag357
ag357
ag357
ag357
ag357
ag357
ag357
ag357
ag357
ag357
ag357
ag357
ag357
ag357
ag357
ag357
ag357
ag357
ag357
ag357
ag357
ag357
ag357
ag357
ag357
ag357
ag357
ag357
ag357
ag357
ag357
ag357
ag357
ag357
ag357
ag357
ag357
ag357
ag357
ag357
asS'iters'
p6732
I51
sg30
g31
sS'results_loc'
p6733
S'/gpfs/u/home/CGHI/CGHIarch/barn/EP_project/results/'
p6734
sS'times'
p6735
(lp6736
F104.89210200309753
aF106.86146283149719
aF111.7834689617157
aF111.81551384925842
aF116.71968078613281
aF118.68270492553711
aF123.42745399475098
aF128.3537299633026
aF128.3853738307953
aF129.88785099983215
aF129.9332389831543
aF185.56057500839233
aF185.5931589603424
aF187.3419268131256
aF187.3892629146576
aF194.05762100219727
aF194.0909538269043
aF194.13710379600525
aF195.18264985084534
aF195.22898292541504
aF195.2755789756775
aF200.10415983200073
aF204.94490098953247
aF205.28475284576416
aF206.56854581832886
aF206.89508700370789
aF206.93108677864075
aF206.9791078567505
aF212.3015968799591
aF212.3337438106537
aF217.3263499736786
aF223.00345277786255
aF228.54385781288147
aF229.82232093811035
aF229.9206748008728
aF235.49715781211853
aF237.71729183197021
aF237.75411796569824
aF237.80231094360352
aF237.84032893180847
aF237.88841080665588
aF238.22158980369568
aF238.80187582969666
aF244.32359290122986
aF249.97740197181702
aF250.01671981811523
aF251.78040599822998
aF251.81983590126038
aF251.85772490501404
aF252.43996596336365
aF254.6699459552765
aF254.70646977424622
aF256.94023084640503
aF256.9797098636627
aF262.7867169380188
aF262.8234119415283
aF263.3956558704376
aF268.7538139820099
aF270.2797429561615
aF270.3274049758911
aF270.659108877182
aF270.6980679035187
aF270.7933988571167
aF270.8414738178253
aF276.45243287086487
aF276.50134897232056
aF282.04409098625183
aF289.38393783569336
aF289.420795917511
aF289.4697759151459
aF290.27902388572693
aF292.2787959575653
aF298.5469009876251
aF305.66118597984314
aF311.00867199897766
aF311.05763387680054
aF311.09340500831604
aF312.3635928630829
aF314.58056688308716
aF316.57325983047485
aF323.59802293777466
aF323.63133478164673
aF325.86896300315857
aF325.9164559841156
aF327.91905999183655
aF327.96649384498596
aF329.2384808063507
aF334.2072207927704
aF340.9753489494324
aF348.1708219051361
aF355.75130677223206
aF355.79094886779785
aF355.8289179801941
aF361.2414548397064
aF363.49178099632263
aF365.484317779541
aF367.4756889343262
aF367.58054280281067
aF367.6289818286896
aF369.62987995147705
aF369.6657419204712
aF376.98066997528076
aF382.1629958152771
aF382.5017058849335
aF382.5363268852234
aF387.9345049858093
aF389.45077681541443
aF389.4894609451294
aF389.52476978302
aF389.57255578041077
aF389.61076378822327
aF390.6553030014038
aF396.95503997802734
aF402.58230686187744
aF403.6351008415222
aF403.7404007911682
aF409.0289340019226
aF416.00062084198
aF416.3373990058899
aF416.3831968307495
aF422.5933139324188
aF423.16810488700867
aF423.21470189094543
aF423.2605788707733
aF423.2950699329376
aF423.32879185676575
aF429.64807391166687
aF429.6965448856354
aF429.7354738712311
aF435.3461718559265
aF440.86535382270813
aF440.90426778793335
aF440.9425539970398
aF441.98759484291077
aF447.75662088394165
aF448.79925179481506
aF450.78544092178345
aF450.8257598876953
aF450.87536883354187
aF450.9241509437561
aF450.97272300720215
aF451.08015394210815
asS'data_loc'
p6737
g84
sS'run'
p6738
I1
sg81
S'random_MCMC'
p6739
sb.