(iprototypes.random_based_mcmc1
random_MCMC
p0
(dp1
S'best_pipelines'
p2
(lp3
ccopy_reg
_reconstructor
p4
(cprototypes.data_analytic_pipeline
image_classification_pipeline
p5
c__builtin__
object
p6
Ntp7
Rp8
(dp9
S'f1_score'
p10
cnumpy.core.multiarray
scalar
p11
(cnumpy
dtype
p12
(S'f8'
p13
I0
I1
tp14
Rp15
(I3
S'<'
p16
NNNI-1
I-1
I0
tp17
bS'\x00\x00\x00\x00\x00\x00\xf8\xff'
p18
tp19
Rp20
sS'n_estimators'
p21
g11
(g15
S'\x00\x00\x00\x00\x00@e@'
p22
tp23
Rp24
sS'pca_whiten'
p25
g11
(g12
(S'b1'
p26
I0
I1
tp27
Rp28
(I3
S'|'
p29
NNNI-1
I-1
I0
tp30
bS'\x00'
p31
tp32
Rp33
sS'data_name'
p34
S'matsc_dataset2'
p35
sS'kwargs'
p36
(dp37
g21
g24
sS'max_features'
p38
g11
(g15
S'^\xb5$\xa6c\x07\xd4?'
p39
tp40
Rp41
sg25
g33
ssS'dimensionality_reduction'
p42
g11
(g12
(S'S3'
p43
I0
I1
tp44
Rp45
(I3
S'|'
p46
NNNI3
I1
I0
tp47
bS'PCA'
p48
tp49
Rp50
sS'test_size'
p51
F0.2
sS'feature_extraction'
p52
g11
(g12
(S'S3'
p53
I0
I1
tp54
Rp55
(I3
S'|'
p56
NNNI3
I1
I0
tp57
bS'VGG'
p58
tp59
Rp60
sS'result'
p61
g11
(g15
S'3\x9eC\xf7Z\x7f\xcf?'
p62
tp63
Rp64
sS'learning_algorithm'
p65
g11
(g12
(S'S2'
p66
I0
I1
tp67
Rp68
(I3
S'|'
p69
NNNI2
I1
I0
tp70
bS'RF'
p71
tp72
Rp73
sS'val_splits'
p74
I3
sg38
g41
sS'ml_type'
p75
S'validation'
p76
sS'accuracy'
p77
g11
(g15
S'\xed\xcc\xff\x13k\xd1\xed?'
p78
tp79
Rp80
sS'type1'
p81
S'random1'
p82
sS'data_location'
p83
S'/gpfs/u/home/CGHI/CGHIarch/barn/EP_project/data/'
p84
sbag4
(g5
g6
Ntp85
Rp86
(dp87
g10
g11
(g15
S'\x00\x00\x00\x00\x00\x00\xf8\xff'
p88
tp89
Rp90
sg25
g33
sg34
g35
sg36
(dp91
g25
g33
sS'svm_C'
p92
g11
(g15
S'\xd2-\xac\x00`/C@'
p93
tp94
Rp95
sS'svm_gamma'
p96
g11
(g15
S'R\xfe\x04\xdc\xb8S\x05@'
p97
tp98
Rp99
ssg42
g11
(g12
(S'S3'
p100
I0
I1
tp101
Rp102
(I3
S'|'
p103
NNNI3
I1
I0
tp104
bS'PCA'
p105
tp106
Rp107
sg51
F0.2
sg96
g99
sg52
g11
(g12
(S'S3'
p108
I0
I1
tp109
Rp110
(I3
S'|'
p111
NNNI3
I1
I0
tp112
bS'VGG'
p113
tp114
Rp115
sg92
g95
sg61
g11
(g15
S'DbX\xb4`\xa9\xce?'
p116
tp117
Rp118
sg65
g11
(g12
(S'S3'
p119
I0
I1
tp120
Rp121
(I3
S'|'
p122
NNNI3
I1
I0
tp123
bS'SVM'
p124
tp125
Rp126
sg74
I3
sg75
g76
sg77
g11
(g15
S'\x0b,\x81\xea\xaa\xd1\xec?'
p127
tp128
Rp129
sg81
g82
sg83
g84
sbag4
(g5
g6
Ntp130
Rp131
(dp132
g10
g11
(g15
S'\x00\x00\x00\x00\x00\x00\xf8\xff'
p133
tp134
Rp135
sg21
g11
(g15
S'\x00\x00\x00\x00\x00@e@'
p136
tp137
Rp138
sg34
g35
sS'n_neighbors'
p139
g11
(g12
(S'i8'
p140
I0
I1
tp141
Rp142
(I3
S'<'
p143
NNNI-1
I-1
I0
tp144
bS'\x04\x00\x00\x00\x00\x00\x00\x00'
p145
tp146
Rp147
sg36
(dp148
g21
g138
sg139
g147
sS'n_components'
p149
g11
(g142
S'\x04\x00\x00\x00\x00\x00\x00\x00'
p150
tp151
Rp152
sg38
g11
(g15
S'N~\xbf1\x05\xeb\xe6?'
p153
tp154
Rp155
ssg42
g11
(g12
(S'S6'
p156
I0
I1
tp157
Rp158
(I3
S'|'
p159
NNNI6
I1
I0
tp160
bS'ISOMAP'
p161
tp162
Rp163
sg51
F0.2
sg149
g152
sg52
g11
(g12
(S'S3'
p164
I0
I1
tp165
Rp166
(I3
S'|'
p167
NNNI3
I1
I0
tp168
bS'VGG'
p169
tp170
Rp171
sg61
g11
(g15
S';_9\x07\x8a\x90\xc4?'
p172
tp173
Rp174
sg65
g11
(g12
(S'S2'
p175
I0
I1
tp176
Rp177
(I3
S'|'
p178
NNNI2
I1
I0
tp179
bS'RF'
p180
tp181
Rp182
sg74
I3
sg38
g155
sg75
g76
sg77
g11
(g15
S'\x0f\x86\x80\xebF\xba\xed?'
p183
tp184
Rp185
sg81
g82
sg83
g84
sbasS'paths'
p186
(lp187
(lp188
S'VGG'
p189
aS'PCA'
p190
aS'SVM'
p191
aa(lp192
g189
ag190
aS'RF'
p193
aa(lp194
g189
aS'ISOMAP'
p195
ag191
aa(lp196
g189
ag195
ag193
aa(lp197
S'haralick'
p198
ag190
ag191
aa(lp199
g198
ag190
ag193
aa(lp200
g198
ag195
ag191
aa(lp201
g198
ag195
ag193
aa(lp202
S'inception'
p203
ag190
ag191
aa(lp204
g203
ag190
ag193
aa(lp205
g203
ag195
ag191
aa(lp206
g203
ag195
ag193
aasS'pipeline'
p207
(dp208
g139
(lp209
I3
aI4
aI5
aI6
aI7
asg25
(lp210
I01
aI00
asg21
cnumpy.core.multiarray
_reconstruct
p211
(cnumpy
ndarray
p212
(I0
tp213
S'b'
p214
tp215
Rp216
(I1
(I10
tp217
g15
I00
S'\x00\x00\x00\x00\x00\x00 @\x00\x00\x00\x00\x00\x00D@\x00\x00\x00\x00\x00@R@\x00\x00\x00\x00\x00@Z@\x00\x00\x00\x00\x00@a@\x00\x00\x00\x00\x00@e@\x00\x00\x00\x00\x00`i@\x00\x00\x00\x00\x00`m@\x00\x00\x00\x00\x00\xc0p@\x00\x00\x00\x00\x00\xc0r@'
p218
tp219
bsg42
(lp220
g190
ag195
asg96
g211
(g212
(I0
tp221
g214
tp222
Rp223
(I1
(I10
tp224
g15
I00
S"{\x14\xaeG\xe1z\x84?\x102Tv\x98\xba\xec?\xe7\xd5\xc4\xb3\xa2\x91\xfc?b\xc9/\x96\xfcb\x05@\xd2'}\xd2'}\x0c@!Ce\x87\xa9\xcb\x11@X\xf2\x8b%\xbfX\x15@\x90\xa1\xb2\xc3\xd4\xe5\x18@\xc8P\xd9a\xear\x1c@\x00\x00\x00\x00\x00\x00 @"
p225
tp226
bsg52
(lp227
g189
ag198
ag203
asS'haralick_distance'
p228
(lp229
I1
aI2
aI3
asg149
(lp230
I2
aI3
aI4
asg65
(lp231
g191
ag193
asg38
g211
(g212
(I0
tp232
g214
tp233
Rp234
(I1
(I5
tp235
g15
I00
S'333333\xd3?\x9a\x99\x99\x99\x99\x99\xd9?\x00\x00\x00\x00\x00\x00\xe0?433333\xe3?hfffff\xe6?'
p236
tp237
bsg92
g211
(g212
(I0
tp238
g214
tp239
Rp240
(I1
(I10
tp241
g15
I00
S'\x9a\x99\x99\x99\x99\x99\xb9?gfffff&@\xce\xcc\xcc\xcc\xccL6@43333\xb3@@\x01\x00\x00\x00\x00@F@\xce\xcc\xcc\xcc\xcc\xccK@\xcd\xcc\xcc\xcc\xcc\xacP@43333sS@\x9a\x99\x99\x99\x999V@\x00\x00\x00\x00\x00\x00Y@'
p242
tp243
bssS'pipelines'
p244
(lp245
g8
ag4
(g5
g6
Ntp246
Rp247
(dp248
g10
g11
(g15
S'\x00\x00\x00\x00\x00\x00\xf8\xff'
p249
tp250
Rp251
sg25
g11
(g28
S'\x01'
p252
tp253
Rp254
sg34
g35
sg36
(dp255
g25
g254
sg92
g11
(g15
S'\xf8@\x8a#l\x06T@'
p256
tp257
Rp258
sg96
g11
(g15
S'\x9e\x90\x8a\xf8\xeb\xf0\x1c@'
p259
tp260
Rp261
ssg42
g11
(g12
(S'S3'
p262
I0
I1
tp263
Rp264
(I3
S'|'
p265
NNNI3
I1
I0
tp266
bS'PCA'
p267
tp268
Rp269
sg51
F0.2
sg96
g261
sg52
g11
(g12
(S'S3'
p270
I0
I1
tp271
Rp272
(I3
S'|'
p273
NNNI3
I1
I0
tp274
bS'VGG'
p275
tp276
Rp277
sg92
g258
sg61
g11
(g15
S'\xf3j\xdb\xdc\xe3[\xd1?'
p278
tp279
Rp280
sg65
g11
(g12
(S'S3'
p281
I0
I1
tp282
Rp283
(I3
S'|'
p284
NNNI3
I1
I0
tp285
bS'SVM'
p286
tp287
Rp288
sg74
I3
sg75
g76
sg77
g11
(g15
S'\x0b,\x81\xea\xaa\xd1\xec?'
p289
tp290
Rp291
sg81
g82
sg83
g84
sbag4
(g5
g6
Ntp292
Rp293
(dp294
g10
g11
(g15
S'\x00\x00\x00\x00\x00\x00\xf8\xff'
p295
tp296
Rp297
sg25
g254
sg34
g35
sg36
(dp298
g25
g254
sg92
g11
(g15
S'\xb9\xab\xaa\xeb\x1f}E@'
p299
tp300
Rp301
sg96
g11
(g15
S'\xc7\x89\xf2\x97\xecN\x18@'
p302
tp303
Rp304
ssg42
g11
(g12
(S'S3'
p305
I0
I1
tp306
Rp307
(I3
S'|'
p308
NNNI3
I1
I0
tp309
bS'PCA'
p310
tp311
Rp312
sg51
F0.2
sg96
g304
sg52
g11
(g12
(S'S3'
p313
I0
I1
tp314
Rp315
(I3
S'|'
p316
NNNI3
I1
I0
tp317
bS'VGG'
p318
tp319
Rp320
sg92
g301
sg61
g11
(g15
S'->\xd3\xbd?g\xd0?'
p321
tp322
Rp323
sg65
g11
(g12
(S'S3'
p324
I0
I1
tp325
Rp326
(I3
S'|'
p327
NNNI3
I1
I0
tp328
bS'SVM'
p329
tp330
Rp331
sg74
I3
sg75
g76
sg77
g11
(g15
S'\x0b,\x81\xea\xaa\xd1\xec?'
p332
tp333
Rp334
sg81
g82
sg83
g84
sbag4
(g5
g6
Ntp335
Rp336
(dp337
g10
g11
(g15
S'\x00\x00\x00\x00\x00\x00\xf8\xff'
p338
tp339
Rp340
sg25
g254
sg34
g35
sg36
(dp341
g25
g254
sg92
g11
(g15
S'F^-\xf3\xac\xcfQ@'
p342
tp343
Rp344
sg228
g11
(g142
S'\x02\x00\x00\x00\x00\x00\x00\x00'
p345
tp346
Rp347
sg96
g11
(g15
S'\xbb\xa6w\x0f\xac\x17\x12@'
p348
tp349
Rp350
ssg42
g11
(g12
(S'S3'
p351
I0
I1
tp352
Rp353
(I3
S'|'
p354
NNNI3
I1
I0
tp355
bS'PCA'
p356
tp357
Rp358
sg51
F0.2
sg96
g350
sg52
g11
(g12
(S'S8'
p359
I0
I1
tp360
Rp361
(I3
S'|'
p362
NNNI8
I1
I0
tp363
bS'haralick'
p364
tp365
Rp366
sg92
g344
sg228
g347
sg61
g11
(g15
S'\xec?k\x85\xbbU\xd1?'
p367
tp368
Rp369
sg65
g11
(g12
(S'S3'
p370
I0
I1
tp371
Rp372
(I3
S'|'
p373
NNNI3
I1
I0
tp374
bS'SVM'
p375
tp376
Rp377
sg74
I3
sg75
g76
sg77
g11
(g15
S'\xd1\x82\x85\xf7\xd1F\xec?'
p378
tp379
Rp380
sg81
g82
sg83
g84
sbag4
(g5
g6
Ntp381
Rp382
(dp383
g10
g11
(g15
S'\x00\x00\x00\x00\x00\x00\xf8\xff'
p384
tp385
Rp386
sg21
g11
(g15
S'\x00\x00\x00\x00\x00\xc0p@'
p387
tp388
Rp389
sg25
g254
sg34
g35
sg36
(dp390
g21
g389
sg38
g11
(g15
S'\n>\xe1G\x8e^\xef?'
p391
tp392
Rp393
sg25
g254
ssg42
g11
(g12
(S'S3'
p394
I0
I1
tp395
Rp396
(I3
S'|'
p397
NNNI3
I1
I0
tp398
bS'PCA'
p399
tp400
Rp401
sg51
F0.2
sg52
g11
(g12
(S'S3'
p402
I0
I1
tp403
Rp404
(I3
S'|'
p405
NNNI3
I1
I0
tp406
bS'VGG'
p407
tp408
Rp409
sg61
g11
(g15
S'\t\x12\xfe\x19|\xb0\xd0?'
p410
tp411
Rp412
sg65
g11
(g12
(S'S2'
p413
I0
I1
tp414
Rp415
(I3
S'|'
p416
NNNI2
I1
I0
tp417
bS'RF'
p418
tp419
Rp420
sg74
I3
sg38
g393
sg75
g76
sg77
g11
(g15
S'\x93E\x81`\xf5\xe8\xed?'
p421
tp422
Rp423
sg81
g82
sg83
g84
sbag4
(g5
g6
Ntp424
Rp425
(dp426
g10
g11
(g15
S'\x00\x00\x00\x00\x00\x00\xf8\xff'
p427
tp428
Rp429
sg25
g254
sg34
g35
sg36
(dp430
g25
g254
sg92
g11
(g15
S'\xe6\xd6\xfb\xbcG\x836@'
p431
tp432
Rp433
sg96
g11
(g15
S'\xff\x9e\x1d\x9dV*\x17@'
p434
tp435
Rp436
ssg42
g11
(g12
(S'S3'
p437
I0
I1
tp438
Rp439
(I3
S'|'
p440
NNNI3
I1
I0
tp441
bS'PCA'
p442
tp443
Rp444
sg51
F0.2
sg96
g436
sg52
g11
(g12
(S'S3'
p445
I0
I1
tp446
Rp447
(I3
S'|'
p448
NNNI3
I1
I0
tp449
bS'VGG'
p450
tp451
Rp452
sg92
g433
sg61
g11
(g15
S'Q\xfeRG\xc4>\xd0?'
p453
tp454
Rp455
sg65
g11
(g12
(S'S3'
p456
I0
I1
tp457
Rp458
(I3
S'|'
p459
NNNI3
I1
I0
tp460
bS'SVM'
p461
tp462
Rp463
sg74
I3
sg75
g76
sg77
g11
(g15
S'\x0b,\x81\xea\xaa\xd1\xec?'
p464
tp465
Rp466
sg81
g82
sg83
g84
sbag4
(g5
g6
Ntp467
Rp468
(dp469
g10
g11
(g15
S'\x00\x00\x00\x00\x00\x00\xf8\xff'
p470
tp471
Rp472
sg21
g11
(g15
S'\x00\x00\x00\x00\x00@Z@'
p473
tp474
Rp475
sg34
g35
sg139
g11
(g142
S'\x07\x00\x00\x00\x00\x00\x00\x00'
p476
tp477
Rp478
sg36
(dp479
g21
g475
sg139
g478
sg149
g11
(g142
S'\x03\x00\x00\x00\x00\x00\x00\x00'
p480
tp481
Rp482
sg38
g11
(g15
S'\xb2\x88\xf2\x15\x1f\xf8\xed?'
p483
tp484
Rp485
ssg42
g11
(g12
(S'S6'
p486
I0
I1
tp487
Rp488
(I3
S'|'
p489
NNNI6
I1
I0
tp490
bS'ISOMAP'
p491
tp492
Rp493
sg51
F0.2
sg149
g482
sg52
g11
(g12
(S'S3'
p494
I0
I1
tp495
Rp496
(I3
S'|'
p497
NNNI3
I1
I0
tp498
bS'VGG'
p499
tp500
Rp501
sg61
g11
(g15
S'h\x00\xdd\xe3\xc2\xe8\xd1?'
p502
tp503
Rp504
sg65
g11
(g12
(S'S2'
p505
I0
I1
tp506
Rp507
(I3
S'|'
p508
NNNI2
I1
I0
tp509
bS'RF'
p510
tp511
Rp512
sg74
I3
sg38
g485
sg75
g76
sg77
g11
(g15
S'\xb5#\x04!\x92F\xed?'
p513
tp514
Rp515
sg81
g82
sg83
g84
sbag4
(g5
g6
Ntp516
Rp517
(dp518
g10
g11
(g15
S'\x00\x00\x00\x00\x00\x00\xf8\xff'
p519
tp520
Rp521
sg25
g254
sg34
g35
sg36
(dp522
g25
g254
sg92
g11
(g15
S'\xf5\x18\x9by>FH@'
p523
tp524
Rp525
sg228
g11
(g142
S'\x02\x00\x00\x00\x00\x00\x00\x00'
p526
tp527
Rp528
sg96
g11
(g15
S'\x91|\xd6\xdd\xfb\x10\xf7?'
p529
tp530
Rp531
ssg42
g11
(g12
(S'S3'
p532
I0
I1
tp533
Rp534
(I3
S'|'
p535
NNNI3
I1
I0
tp536
bS'PCA'
p537
tp538
Rp539
sg51
F0.2
sg96
g531
sg52
g11
(g12
(S'S8'
p540
I0
I1
tp541
Rp542
(I3
S'|'
p543
NNNI8
I1
I0
tp544
bS'haralick'
p545
tp546
Rp547
sg92
g525
sg228
g528
sg61
g11
(g15
S'4V\xa5\xf7\xe3\xe1\xd0?'
p548
tp549
Rp550
sg65
g11
(g12
(S'S3'
p551
I0
I1
tp552
Rp553
(I3
S'|'
p554
NNNI3
I1
I0
tp555
bS'SVM'
p556
tp557
Rp558
sg74
I3
sg75
g76
sg77
g11
(g15
S'GD\x83\x98\xc6\xba\xeb?'
p559
tp560
Rp561
sg81
g82
sg83
g84
sbag4
(g5
g6
Ntp562
Rp563
(dp564
g10
g11
(g15
S'\x00\x00\x00\x00\x00\x00\xf8\xff'
p565
tp566
Rp567
sg21
g11
(g15
S'\x00\x00\x00\x00\x00`i@'
p568
tp569
Rp570
sg34
g35
sg139
g11
(g142
S'\x03\x00\x00\x00\x00\x00\x00\x00'
p571
tp572
Rp573
sg36
(dp574
g21
g570
sg139
g573
sg149
g11
(g142
S'\x02\x00\x00\x00\x00\x00\x00\x00'
p575
tp576
Rp577
sg38
g11
(g15
S'\x02W\t\xf7\xbaf\xee?'
p578
tp579
Rp580
ssg42
g11
(g12
(S'S6'
p581
I0
I1
tp582
Rp583
(I3
S'|'
p584
NNNI6
I1
I0
tp585
bS'ISOMAP'
p586
tp587
Rp588
sg51
F0.2
sg149
g577
sg52
g11
(g12
(S'S9'
p589
I0
I1
tp590
Rp591
(I3
S'|'
p592
NNNI9
I1
I0
tp593
bS'inception'
p594
tp595
Rp596
sg61
g11
(g15
S'\xab\xf0\x18Ih\xf6\xf1?'
p597
tp598
Rp599
sg65
g11
(g12
(S'S2'
p600
I0
I1
tp601
Rp602
(I3
S'|'
p603
NNNI2
I1
I0
tp604
bS'RF'
p605
tp606
Rp607
sg74
I3
sg38
g580
sg75
g76
sg77
g11
(g15
S'PK\x02\x9a\xb0\x17\xe9?'
p608
tp609
Rp610
sg81
g82
sg83
g84
sbag4
(g5
g6
Ntp611
Rp612
(dp613
g10
g11
(g15
S'\x00\x00\x00\x00\x00\x00\xf8\xff'
p614
tp615
Rp616
sg139
g11
(g142
S'\x03\x00\x00\x00\x00\x00\x00\x00'
p617
tp618
Rp619
sg34
g35
sg36
(dp620
g139
g619
sg92
g11
(g15
S'\xe6\xfc\xda\xf6\x91\x1bD@'
p621
tp622
Rp623
sg228
g11
(g142
S'\x03\x00\x00\x00\x00\x00\x00\x00'
p624
tp625
Rp626
sg149
g11
(g142
S'\x02\x00\x00\x00\x00\x00\x00\x00'
p627
tp628
Rp629
sg96
g11
(g15
S'(EDkyE\x06@'
p630
tp631
Rp632
ssg96
g632
sg42
g11
(g12
(S'S6'
p633
I0
I1
tp634
Rp635
(I3
S'|'
p636
NNNI6
I1
I0
tp637
bS'ISOMAP'
p638
tp639
Rp640
sg51
F0.2
sg149
g629
sg52
g11
(g12
(S'S8'
p641
I0
I1
tp642
Rp643
(I3
S'|'
p644
NNNI8
I1
I0
tp645
bS'haralick'
p646
tp647
Rp648
sg92
g623
sg228
g626
sg61
g11
(g15
S'\x9d\xb5\xc3\xb8\x973\xd2?'
p649
tp650
Rp651
sg65
g11
(g12
(S'S3'
p652
I0
I1
tp653
Rp654
(I3
S'|'
p655
NNNI3
I1
I0
tp656
bS'SVM'
p657
tp658
Rp659
sg74
I3
sg75
g76
sg77
g11
(g15
S'kpz\xcd\x88-\xeb?'
p660
tp661
Rp662
sg81
g82
sg83
g84
sbag4
(g5
g6
Ntp663
Rp664
(dp665
g10
g11
(g15
S'\x00\x00\x00\x00\x00\x00\xf8\xff'
p666
tp667
Rp668
sg21
g11
(g15
S'\x00\x00\x00\x00\x00\x00 @'
p669
tp670
Rp671
sg25
g254
sg34
g35
sg36
(dp672
g21
g671
sg38
g11
(g15
S'\xa8\\\xd82\xde@\xe0?'
p673
tp674
Rp675
sg25
g254
ssg42
g11
(g12
(S'S3'
p676
I0
I1
tp677
Rp678
(I3
S'|'
p679
NNNI3
I1
I0
tp680
bS'PCA'
p681
tp682
Rp683
sg51
F0.2
sg52
g11
(g12
(S'S9'
p684
I0
I1
tp685
Rp686
(I3
S'|'
p687
NNNI9
I1
I0
tp688
bS'inception'
p689
tp690
Rp691
sg61
g11
(g15
S'\x04&\xb5\xd7)\x03\xf8?'
p692
tp693
Rp694
sg65
g11
(g12
(S'S2'
p695
I0
I1
tp696
Rp697
(I3
S'|'
p698
NNNI2
I1
I0
tp699
bS'RF'
p700
tp701
Rp702
sg74
I3
sg38
g675
sg75
g76
sg77
g11
(g15
S'\x9bL\x00b\xdfE\xeb?'
p703
tp704
Rp705
sg81
g82
sg83
g84
sbag4
(g5
g6
Ntp706
Rp707
(dp708
g10
g11
(g15
S'\x00\x00\x00\x00\x00\x00\xf8\xff'
p709
tp710
Rp711
sg25
g33
sg34
g35
sg36
(dp712
g25
g33
sg92
g11
(g15
S']\xb6"\xc7\x98\xcaO@'
p713
tp714
Rp715
sg96
g11
(g15
S'\xd8\x0e#U\x8d\xa2\x19@'
p716
tp717
Rp718
ssg42
g11
(g12
(S'S3'
p719
I0
I1
tp720
Rp721
(I3
S'|'
p722
NNNI3
I1
I0
tp723
bS'PCA'
p724
tp725
Rp726
sg51
F0.2
sg96
g718
sg52
g11
(g12
(S'S9'
p727
I0
I1
tp728
Rp729
(I3
S'|'
p730
NNNI9
I1
I0
tp731
bS'inception'
p732
tp733
Rp734
sg92
g715
sg61
g11
(g15
S'\x10\xbb\x9c\x07\xc7\x95\xd4?'
p735
tp736
Rp737
sg65
g11
(g12
(S'S3'
p738
I0
I1
tp739
Rp740
(I3
S'|'
p741
NNNI3
I1
I0
tp742
bS'SVM'
p743
tp744
Rp745
sg74
I3
sg75
g76
sg77
g11
(g15
S'\xb4\x9b\x86\t\x05G\xe8?'
p746
tp747
Rp748
sg81
g82
sg83
g84
sbag4
(g5
g6
Ntp749
Rp750
(dp751
g10
g11
(g15
S'\x00\x00\x00\x00\x00\x00\xf8\xff'
p752
tp753
Rp754
sg139
g11
(g142
S'\x04\x00\x00\x00\x00\x00\x00\x00'
p755
tp756
Rp757
sg34
g35
sg36
(dp758
g139
g757
sg92
g11
(g15
S'\x0b\xe4\n\x8e~\xe9:@'
p759
tp760
Rp761
sg149
g11
(g142
S'\x03\x00\x00\x00\x00\x00\x00\x00'
p762
tp763
Rp764
sg96
g11
(g15
S't\xffl\x1e\x1f\x9b\x15@'
p765
tp766
Rp767
ssg96
g767
sg42
g11
(g12
(S'S6'
p768
I0
I1
tp769
Rp770
(I3
S'|'
p771
NNNI6
I1
I0
tp772
bS'ISOMAP'
p773
tp774
Rp775
sg51
F0.2
sg149
g764
sg52
g11
(g12
(S'S9'
p776
I0
I1
tp777
Rp778
(I3
S'|'
p779
NNNI9
I1
I0
tp780
bS'inception'
p781
tp782
Rp783
sg92
g761
sg61
g11
(g15
S'_#\t}\x94\xcd\xd3?'
p784
tp785
Rp786
sg65
g11
(g12
(S'S3'
p787
I0
I1
tp788
Rp789
(I3
S'|'
p790
NNNI3
I1
I0
tp791
bS'SVM'
p792
tp793
Rp794
sg74
I3
sg75
g76
sg77
g11
(g15
S'\x84\xbed\x8c\xc5\xe3\xe5?'
p795
tp796
Rp797
sg81
g82
sg83
g84
sbag4
(g5
g6
Ntp798
Rp799
(dp800
g10
g11
(g15
S'\x00\x00\x00\x00\x00\x00\xf8\xff'
p801
tp802
Rp803
sg21
g11
(g15
S'\x00\x00\x00\x00\x00@a@'
p804
tp805
Rp806
sg34
g35
sg139
g11
(g142
S'\x04\x00\x00\x00\x00\x00\x00\x00'
p807
tp808
Rp809
sg36
(dp810
g21
g806
sg139
g809
sg228
g11
(g142
S'\x01\x00\x00\x00\x00\x00\x00\x00'
p811
tp812
Rp813
sg149
g11
(g142
S'\x03\x00\x00\x00\x00\x00\x00\x00'
p814
tp815
Rp816
sg38
g11
(g15
S'\r\x13\x9c;\xa2\xdb\xe5?'
p817
tp818
Rp819
ssg42
g11
(g12
(S'S6'
p820
I0
I1
tp821
Rp822
(I3
S'|'
p823
NNNI6
I1
I0
tp824
bS'ISOMAP'
p825
tp826
Rp827
sg51
F0.2
sg149
g816
sg52
g11
(g12
(S'S8'
p828
I0
I1
tp829
Rp830
(I3
S'|'
p831
NNNI8
I1
I0
tp832
bS'haralick'
p833
tp834
Rp835
sg228
g813
sg61
g11
(g15
S'\x95\xa2\x8dDd\x02\xd8?'
p836
tp837
Rp838
sg65
g11
(g12
(S'S2'
p839
I0
I1
tp840
Rp841
(I3
S'|'
p842
NNNI2
I1
I0
tp843
bS'RF'
p844
tp845
Rp846
sg74
I3
sg38
g819
sg75
g76
sg77
g11
(g15
S'Ky\x80\xb0\xa1.\xed?'
p847
tp848
Rp849
sg81
g82
sg83
g84
sbag4
(g5
g6
Ntp850
Rp851
(dp852
g10
g11
(g15
S'\x00\x00\x00\x00\x00\x00\xf8\xff'
p853
tp854
Rp855
sg139
g11
(g142
S'\x03\x00\x00\x00\x00\x00\x00\x00'
p856
tp857
Rp858
sg34
g35
sg36
(dp859
g139
g858
sg92
g11
(g15
S'\xeb\xb7(\xd9\xc5r<@'
p860
tp861
Rp862
sg149
g11
(g142
S'\x02\x00\x00\x00\x00\x00\x00\x00'
p863
tp864
Rp865
sg96
g11
(g15
S'\x0f\xf4%?\xde\t\x1c@'
p866
tp867
Rp868
ssg96
g868
sg42
g11
(g12
(S'S6'
p869
I0
I1
tp870
Rp871
(I3
S'|'
p872
NNNI6
I1
I0
tp873
bS'ISOMAP'
p874
tp875
Rp876
sg51
F0.2
sg149
g865
sg52
g11
(g12
(S'S9'
p877
I0
I1
tp878
Rp879
(I3
S'|'
p880
NNNI9
I1
I0
tp881
bS'inception'
p882
tp883
Rp884
sg92
g862
sg61
g11
(g15
S'\x90\x1b#)\x19\xfb\xd3?'
p885
tp886
Rp887
sg65
g11
(g12
(S'S3'
p888
I0
I1
tp889
Rp890
(I3
S'|'
p891
NNNI3
I1
I0
tp892
bS'SVM'
p893
tp894
Rp895
sg74
I3
sg75
g76
sg77
g11
(g15
S'\xa3\xb5^\xa9\xac\xe2\xe3?'
p896
tp897
Rp898
sg81
g82
sg83
g84
sbag4
(g5
g6
Ntp899
Rp900
(dp901
g10
g11
(g15
S'\x00\x00\x00\x00\x00\x00\xf8\xff'
p902
tp903
Rp904
sg21
g11
(g15
S'\x00\x00\x00\x00\x00@Z@'
p905
tp906
Rp907
sg25
g33
sg34
g35
sg36
(dp908
g21
g907
sg38
g11
(g15
S'\x80/\x8b\x86\xae?\xec?'
p909
tp910
Rp911
sg25
g33
ssg42
g11
(g12
(S'S3'
p912
I0
I1
tp913
Rp914
(I3
S'|'
p915
NNNI3
I1
I0
tp916
bS'PCA'
p917
tp918
Rp919
sg51
F0.2
sg52
g11
(g12
(S'S9'
p920
I0
I1
tp921
Rp922
(I3
S'|'
p923
NNNI9
I1
I0
tp924
bS'inception'
p925
tp926
Rp927
sg61
g11
(g15
S'\xb8f\x129\xf2E\xe3?'
p928
tp929
Rp930
sg65
g11
(g12
(S'S2'
p931
I0
I1
tp932
Rp933
(I3
S'|'
p934
NNNI2
I1
I0
tp935
bS'RF'
p936
tp937
Rp938
sg74
I3
sg38
g911
sg75
g76
sg77
g11
(g15
S'%\x8b\x02\xc1\xea\xd1\xeb?'
p939
tp940
Rp941
sg81
g82
sg83
g84
sbag4
(g5
g6
Ntp942
Rp943
(dp944
g10
g11
(g15
S'\x00\x00\x00\x00\x00\x00\xf8\xff'
p945
tp946
Rp947
sg139
g11
(g142
S'\x03\x00\x00\x00\x00\x00\x00\x00'
p948
tp949
Rp950
sg34
g35
sg36
(dp951
g139
g950
sg92
g11
(g15
S'\xc7/ \xd7\xac\x90K@'
p952
tp953
Rp954
sg149
g11
(g142
S'\x03\x00\x00\x00\x00\x00\x00\x00'
p955
tp956
Rp957
sg96
g11
(g15
S';1\x8e[\xe4j\x1d@'
p958
tp959
Rp960
ssg96
g960
sg42
g11
(g12
(S'S6'
p961
I0
I1
tp962
Rp963
(I3
S'|'
p964
NNNI6
I1
I0
tp965
bS'ISOMAP'
p966
tp967
Rp968
sg51
F0.2
sg149
g957
sg52
g11
(g12
(S'S3'
p969
I0
I1
tp970
Rp971
(I3
S'|'
p972
NNNI3
I1
I0
tp973
bS'VGG'
p974
tp975
Rp976
sg92
g954
sg61
g11
(g15
S'\x18\x16\xa3\xa2\xc9\xb1\xd0?'
p977
tp978
Rp979
sg65
g11
(g12
(S'S3'
p980
I0
I1
tp981
Rp982
(I3
S'|'
p983
NNNI3
I1
I0
tp984
bS'SVM'
p985
tp986
Rp987
sg74
I3
sg75
g76
sg77
g11
(g15
S'\xe7M\xfe)\x0et\xed?'
p988
tp989
Rp990
sg81
g82
sg83
g84
sbag4
(g5
g6
Ntp991
Rp992
(dp993
g10
g11
(g15
S'\x00\x00\x00\x00\x00\x00\xf8\xff'
p994
tp995
Rp996
sg21
g11
(g15
S'\x00\x00\x00\x00\x00\x00 @'
p997
tp998
Rp999
sg25
g33
sg34
g35
sg36
(dp1000
g21
g999
sg38
g11
(g15
S'D\x0e\x81\xc9}\r\xe2?'
p1001
tp1002
Rp1003
sg25
g33
sg228
g11
(g142
S'\x02\x00\x00\x00\x00\x00\x00\x00'
p1004
tp1005
Rp1006
ssg42
g11
(g12
(S'S3'
p1007
I0
I1
tp1008
Rp1009
(I3
S'|'
p1010
NNNI3
I1
I0
tp1011
bS'PCA'
p1012
tp1013
Rp1014
sg51
F0.2
sg52
g11
(g12
(S'S8'
p1015
I0
I1
tp1016
Rp1017
(I3
S'|'
p1018
NNNI8
I1
I0
tp1019
bS'haralick'
p1020
tp1021
Rp1022
sg228
g1006
sg61
g11
(g15
S'\xbd\xc2X^\xa3K\xf3?'
p1023
tp1024
Rp1025
sg65
g11
(g12
(S'S2'
p1026
I0
I1
tp1027
Rp1028
(I3
S'|'
p1029
NNNI2
I1
I0
tp1030
bS'RF'
p1031
tp1032
Rp1033
sg74
I3
sg38
g1003
sg75
g76
sg77
g11
(g15
S'\xc8\xb9\x7f;\xf3\xff\xec?'
p1034
tp1035
Rp1036
sg81
g82
sg83
g84
sbag4
(g5
g6
Ntp1037
Rp1038
(dp1039
g10
g11
(g15
S'\x00\x00\x00\x00\x00\x00\xf8\xff'
p1040
tp1041
Rp1042
sg21
g11
(g15
S'\x00\x00\x00\x00\x00@a@'
p1043
tp1044
Rp1045
sg34
g35
sg139
g11
(g142
S'\x03\x00\x00\x00\x00\x00\x00\x00'
p1046
tp1047
Rp1048
sg36
(dp1049
g21
g1045
sg139
g1048
sg149
g11
(g142
S'\x03\x00\x00\x00\x00\x00\x00\x00'
p1050
tp1051
Rp1052
sg38
g11
(g15
S'\xe0\x191D\x01\xc7\xee?'
p1053
tp1054
Rp1055
ssg42
g11
(g12
(S'S6'
p1056
I0
I1
tp1057
Rp1058
(I3
S'|'
p1059
NNNI6
I1
I0
tp1060
bS'ISOMAP'
p1061
tp1062
Rp1063
sg51
F0.2
sg149
g1052
sg52
g11
(g12
(S'S3'
p1064
I0
I1
tp1065
Rp1066
(I3
S'|'
p1067
NNNI3
I1
I0
tp1068
bS'VGG'
p1069
tp1070
Rp1071
sg61
g11
(g15
S"T\x92?'\x91\x19\xd6?"
p1072
tp1073
Rp1074
sg65
g11
(g12
(S'S2'
p1075
I0
I1
tp1076
Rp1077
(I3
S'|'
p1078
NNNI2
I1
I0
tp1079
bS'RF'
p1080
tp1081
Rp1082
sg74
I3
sg38
g1055
sg75
g76
sg77
g11
(g15
S'\x83"|\xa3z\xb9\xed?'
p1083
tp1084
Rp1085
sg81
g82
sg83
g84
sbag4
(g5
g6
Ntp1086
Rp1087
(dp1088
g10
g11
(g15
S'\x00\x00\x00\x00\x00\x00\xf8\xff'
p1089
tp1090
Rp1091
sg21
g11
(g15
S'\x00\x00\x00\x00\x00@e@'
p1092
tp1093
Rp1094
sg25
g254
sg34
g35
sg36
(dp1095
g21
g1094
sg38
g11
(g15
S'\xack^\x8c\xca\xd0\xe0?'
p1096
tp1097
Rp1098
sg25
g254
ssg42
g11
(g12
(S'S3'
p1099
I0
I1
tp1100
Rp1101
(I3
S'|'
p1102
NNNI3
I1
I0
tp1103
bS'PCA'
p1104
tp1105
Rp1106
sg51
F0.2
sg52
g11
(g12
(S'S9'
p1107
I0
I1
tp1108
Rp1109
(I3
S'|'
p1110
NNNI9
I1
I0
tp1111
bS'inception'
p1112
tp1113
Rp1114
sg61
g11
(g15
S'X;\xd3\x96\xf8\xe7\xe2?'
p1115
tp1116
Rp1117
sg65
g11
(g12
(S'S2'
p1118
I0
I1
tp1119
Rp1120
(I3
S'|'
p1121
NNNI2
I1
I0
tp1122
bS'RF'
p1123
tp1124
Rp1125
sg74
I3
sg38
g1098
sg75
g76
sg77
g11
(g15
S'@\xc5\x81\xaei]\xeb?'
p1126
tp1127
Rp1128
sg81
g82
sg83
g84
sbag4
(g5
g6
Ntp1129
Rp1130
(dp1131
g10
g11
(g15
S'\x00\x00\x00\x00\x00\x00\xf8\xff'
p1132
tp1133
Rp1134
sg21
g11
(g15
S'\x00\x00\x00\x00\x00\x00 @'
p1135
tp1136
Rp1137
sg25
g33
sg34
g35
sg36
(dp1138
g21
g1137
sg38
g11
(g15
S'\x18\xb6\x1e{\xad\xfa\xe7?'
p1139
tp1140
Rp1141
sg25
g33
ssg42
g11
(g12
(S'S3'
p1142
I0
I1
tp1143
Rp1144
(I3
S'|'
p1145
NNNI3
I1
I0
tp1146
bS'PCA'
p1147
tp1148
Rp1149
sg51
F0.2
sg52
g11
(g12
(S'S3'
p1150
I0
I1
tp1151
Rp1152
(I3
S'|'
p1153
NNNI3
I1
I0
tp1154
bS'VGG'
p1155
tp1156
Rp1157
sg61
g11
(g15
S'\x0cj\x88t\xd6)\xec?'
p1158
tp1159
Rp1160
sg65
g11
(g12
(S'S2'
p1161
I0
I1
tp1162
Rp1163
(I3
S'|'
p1164
NNNI2
I1
I0
tp1165
bS'RF'
p1166
tp1167
Rp1168
sg74
I3
sg38
g1141
sg75
g76
sg77
g11
(g15
S'{0\x04\\7\xd2\xed?'
p1169
tp1170
Rp1171
sg81
g82
sg83
g84
sbag4
(g5
g6
Ntp1172
Rp1173
(dp1174
g10
g11
(g15
S'\x00\x00\x00\x00\x00\x00\xf8\xff'
p1175
tp1176
Rp1177
sg21
g11
(g15
S'\x00\x00\x00\x00\x00\x00 @'
p1178
tp1179
Rp1180
sg34
g35
sg139
g11
(g142
S'\x04\x00\x00\x00\x00\x00\x00\x00'
p1181
tp1182
Rp1183
sg36
(dp1184
g21
g1180
sg139
g1183
sg149
g11
(g142
S'\x04\x00\x00\x00\x00\x00\x00\x00'
p1185
tp1186
Rp1187
sg38
g11
(g15
S'\xac8,v&\xb1\xed?'
p1188
tp1189
Rp1190
ssg42
g11
(g12
(S'S6'
p1191
I0
I1
tp1192
Rp1193
(I3
S'|'
p1194
NNNI6
I1
I0
tp1195
bS'ISOMAP'
p1196
tp1197
Rp1198
sg51
F0.2
sg149
g1187
sg52
g11
(g12
(S'S3'
p1199
I0
I1
tp1200
Rp1201
(I3
S'|'
p1202
NNNI3
I1
I0
tp1203
bS'VGG'
p1204
tp1205
Rp1206
sg61
g11
(g15
S'\x88(\x8dn\xf2\x18\xe6?'
p1207
tp1208
Rp1209
sg65
g11
(g12
(S'S2'
p1210
I0
I1
tp1211
Rp1212
(I3
S'|'
p1213
NNNI2
I1
I0
tp1214
bS'RF'
p1215
tp1216
Rp1217
sg74
I3
sg38
g1190
sg75
g76
sg77
g11
(g15
S'\x18*\x84\xbed\x8c\xed?'
p1218
tp1219
Rp1220
sg81
g82
sg83
g84
sbag4
(g5
g6
Ntp1221
Rp1222
(dp1223
g10
g11
(g15
S'\x00\x00\x00\x00\x00\x00\xf8\xff'
p1224
tp1225
Rp1226
sg21
g11
(g15
S'\x00\x00\x00\x00\x00\x00D@'
p1227
tp1228
Rp1229
sg34
g35
sg139
g11
(g142
S'\x05\x00\x00\x00\x00\x00\x00\x00'
p1230
tp1231
Rp1232
sg36
(dp1233
g21
g1229
sg139
g1232
sg228
g11
(g142
S'\x01\x00\x00\x00\x00\x00\x00\x00'
p1234
tp1235
Rp1236
sg149
g11
(g142
S'\x03\x00\x00\x00\x00\x00\x00\x00'
p1237
tp1238
Rp1239
sg38
g11
(g15
S'\xb6\xe1T\x98\xfe\xb9\xe9?'
p1240
tp1241
Rp1242
ssg42
g11
(g12
(S'S6'
p1243
I0
I1
tp1244
Rp1245
(I3
S'|'
p1246
NNNI6
I1
I0
tp1247
bS'ISOMAP'
p1248
tp1249
Rp1250
sg51
F0.2
sg149
g1239
sg52
g11
(g12
(S'S8'
p1251
I0
I1
tp1252
Rp1253
(I3
S'|'
p1254
NNNI8
I1
I0
tp1255
bS'haralick'
p1256
tp1257
Rp1258
sg228
g1236
sg61
g11
(g15
S'\xc1\xf37\x9f\x06E\xe1?'
p1259
tp1260
Rp1261
sg65
g11
(g12
(S'S2'
p1262
I0
I1
tp1263
Rp1264
(I3
S'|'
p1265
NNNI2
I1
I0
tp1266
bS'RF'
p1267
tp1268
Rp1269
sg74
I3
sg38
g1242
sg75
g76
sg77
g11
(g15
S']\x0f\xfc\xca\x02\xe8\xec?'
p1270
tp1271
Rp1272
sg81
g82
sg83
g84
sbag86
ag4
(g5
g6
Ntp1273
Rp1274
(dp1275
g10
g11
(g15
S'\x00\x00\x00\x00\x00\x00\xf8\xff'
p1276
tp1277
Rp1278
sg21
g11
(g15
S'\x00\x00\x00\x00\x00\xc0p@'
p1279
tp1280
Rp1281
sg34
g35
sg139
g11
(g142
S'\x05\x00\x00\x00\x00\x00\x00\x00'
p1282
tp1283
Rp1284
sg36
(dp1285
g21
g1281
sg139
g1284
sg228
g11
(g142
S'\x01\x00\x00\x00\x00\x00\x00\x00'
p1286
tp1287
Rp1288
sg149
g11
(g142
S'\x04\x00\x00\x00\x00\x00\x00\x00'
p1289
tp1290
Rp1291
sg38
g11
(g15
S'\xae\x14]\xe0\xc7%\xee?'
p1292
tp1293
Rp1294
ssg42
g11
(g12
(S'S6'
p1295
I0
I1
tp1296
Rp1297
(I3
S'|'
p1298
NNNI6
I1
I0
tp1299
bS'ISOMAP'
p1300
tp1301
Rp1302
sg51
F0.2
sg149
g1291
sg52
g11
(g12
(S'S8'
p1303
I0
I1
tp1304
Rp1305
(I3
S'|'
p1306
NNNI8
I1
I0
tp1307
bS'haralick'
p1308
tp1309
Rp1310
sg228
g1288
sg61
g11
(g15
S'@]{bG\xb3\xd7?'
p1311
tp1312
Rp1313
sg65
g11
(g12
(S'S2'
p1314
I0
I1
tp1315
Rp1316
(I3
S'|'
p1317
NNNI2
I1
I0
tp1318
bS'RF'
p1319
tp1320
Rp1321
sg74
I3
sg38
g1294
sg75
g76
sg77
g11
(g15
S'\xad\x7f\x00Ntt\xed?'
p1322
tp1323
Rp1324
sg81
g82
sg83
g84
sbag4
(g5
g6
Ntp1325
Rp1326
(dp1327
g10
g11
(g15
S'\x00\x00\x00\x00\x00\x00\xf8\xff'
p1328
tp1329
Rp1330
sg21
g11
(g15
S'\x00\x00\x00\x00\x00\x00 @'
p1331
tp1332
Rp1333
sg25
g254
sg34
g35
sg36
(dp1334
g21
g1333
sg38
g11
(g15
S'*\xcd\xb2\xb6!Z\xe2?'
p1335
tp1336
Rp1337
sg25
g254
sg228
g11
(g142
S'\x03\x00\x00\x00\x00\x00\x00\x00'
p1338
tp1339
Rp1340
ssg42
g11
(g12
(S'S3'
p1341
I0
I1
tp1342
Rp1343
(I3
S'|'
p1344
NNNI3
I1
I0
tp1345
bS'PCA'
p1346
tp1347
Rp1348
sg51
F0.2
sg52
g11
(g12
(S'S8'
p1349
I0
I1
tp1350
Rp1351
(I3
S'|'
p1352
NNNI8
I1
I0
tp1353
bS'haralick'
p1354
tp1355
Rp1356
sg228
g1340
sg61
g11
(g15
S'\x13%^-u\xe7\xf7?'
p1357
tp1358
Rp1359
sg65
g11
(g12
(S'S2'
p1360
I0
I1
tp1361
Rp1362
(I3
S'|'
p1363
NNNI2
I1
I0
tp1364
bS'RF'
p1365
tp1366
Rp1367
sg74
I3
sg38
g1337
sg75
g76
sg77
g11
(g15
S'l2\x01\x88}\x17\xed?'
p1368
tp1369
Rp1370
sg81
g82
sg83
g84
sbag4
(g5
g6
Ntp1371
Rp1372
(dp1373
g10
g11
(g15
S'\x00\x00\x00\x00\x00\x00\xf8\xff'
p1374
tp1375
Rp1376
sg21
g11
(g15
S'\x00\x00\x00\x00\x00\x00D@'
p1377
tp1378
Rp1379
sg34
g35
sg139
g11
(g142
S'\x03\x00\x00\x00\x00\x00\x00\x00'
p1380
tp1381
Rp1382
sg36
(dp1383
g21
g1379
sg139
g1382
sg149
g11
(g142
S'\x04\x00\x00\x00\x00\x00\x00\x00'
p1384
tp1385
Rp1386
sg38
g11
(g15
S'\xca\xf3TY\xaf\xed\xe4?'
p1387
tp1388
Rp1389
ssg42
g11
(g12
(S'S6'
p1390
I0
I1
tp1391
Rp1392
(I3
S'|'
p1393
NNNI6
I1
I0
tp1394
bS'ISOMAP'
p1395
tp1396
Rp1397
sg51
F0.2
sg149
g1386
sg52
g11
(g12
(S'S9'
p1398
I0
I1
tp1399
Rp1400
(I3
S'|'
p1401
NNNI9
I1
I0
tp1402
bS'inception'
p1403
tp1404
Rp1405
sg61
g11
(g15
S'\xdd\x1e\xea\xef*\x07\xf3?'
p1406
tp1407
Rp1408
sg65
g11
(g12
(S'S2'
p1409
I0
I1
tp1410
Rp1411
(I3
S'|'
p1412
NNNI2
I1
I0
tp1413
bS'RF'
p1414
tp1415
Rp1416
sg74
I3
sg38
g1389
sg75
g76
sg77
g11
(g15
S'\xfcg\x87\xb9X\x01\xe9?'
p1417
tp1418
Rp1419
sg81
g82
sg83
g84
sbag4
(g5
g6
Ntp1420
Rp1421
(dp1422
g10
g11
(g15
S'\x00\x00\x00\x00\x00\x00\xf8\xff'
p1423
tp1424
Rp1425
sg139
g11
(g142
S'\x06\x00\x00\x00\x00\x00\x00\x00'
p1426
tp1427
Rp1428
sg34
g35
sg36
(dp1429
g139
g1428
sg92
g11
(g15
S'\xe8\xd9\x83h\xe32J@'
p1430
tp1431
Rp1432
sg149
g11
(g142
S'\x02\x00\x00\x00\x00\x00\x00\x00'
p1433
tp1434
Rp1435
sg96
g11
(g15
S'_%\x01\x89\xfa\xae\x17@'
p1436
tp1437
Rp1438
ssg96
g1438
sg42
g11
(g12
(S'S6'
p1439
I0
I1
tp1440
Rp1441
(I3
S'|'
p1442
NNNI6
I1
I0
tp1443
bS'ISOMAP'
p1444
tp1445
Rp1446
sg51
F0.2
sg149
g1435
sg52
g11
(g12
(S'S3'
p1447
I0
I1
tp1448
Rp1449
(I3
S'|'
p1450
NNNI3
I1
I0
tp1451
bS'VGG'
p1452
tp1453
Rp1454
sg92
g1432
sg61
g11
(g15
S'\xfd\xba\x8b\xc3\x85\xd5\xcf?'
p1455
tp1456
Rp1457
sg65
g11
(g12
(S'S3'
p1458
I0
I1
tp1459
Rp1460
(I3
S'|'
p1461
NNNI3
I1
I0
tp1462
bS'SVM'
p1463
tp1464
Rp1465
sg74
I3
sg75
g76
sg77
g11
(g15
S'\rv\x85\xbc,\xbb\xeb?'
p1466
tp1467
Rp1468
sg81
g82
sg83
g84
sbag4
(g5
g6
Ntp1469
Rp1470
(dp1471
g10
g11
(g15
S'\x00\x00\x00\x00\x00\x00\xf8\xff'
p1472
tp1473
Rp1474
sg21
g11
(g15
S'\x00\x00\x00\x00\x00@a@'
p1475
tp1476
Rp1477
sg34
g35
sg139
g11
(g142
S'\x03\x00\x00\x00\x00\x00\x00\x00'
p1478
tp1479
Rp1480
sg36
(dp1481
g21
g1477
sg139
g1480
sg149
g11
(g142
S'\x03\x00\x00\x00\x00\x00\x00\x00'
p1482
tp1483
Rp1484
sg38
g11
(g15
S'2\xf9\x06&x\xeb\xe3?'
p1485
tp1486
Rp1487
ssg42
g11
(g12
(S'S6'
p1488
I0
I1
tp1489
Rp1490
(I3
S'|'
p1491
NNNI6
I1
I0
tp1492
bS'ISOMAP'
p1493
tp1494
Rp1495
sg51
F0.2
sg149
g1484
sg52
g11
(g12
(S'S9'
p1496
I0
I1
tp1497
Rp1498
(I3
S'|'
p1499
NNNI9
I1
I0
tp1500
bS'inception'
p1501
tp1502
Rp1503
sg61
g11
(g15
S'Z\xe2\x98\xae\x8dU\xf0?'
p1504
tp1505
Rp1506
sg65
g11
(g12
(S'S2'
p1507
I0
I1
tp1508
Rp1509
(I3
S'|'
p1510
NNNI2
I1
I0
tp1511
bS'RF'
p1512
tp1513
Rp1514
sg74
I3
sg38
g1487
sg75
g76
sg77
g11
(g15
S'56\x85\x95\xf2\x00\xe9?'
p1515
tp1516
Rp1517
sg81
g82
sg83
g84
sbag4
(g5
g6
Ntp1518
Rp1519
(dp1520
g10
g11
(g15
S'\x00\x00\x00\x00\x00\x00\xf8\xff'
p1521
tp1522
Rp1523
sg21
g11
(g15
S'\x00\x00\x00\x00\x00@a@'
p1524
tp1525
Rp1526
sg34
g35
sg139
g11
(g142
S'\x06\x00\x00\x00\x00\x00\x00\x00'
p1527
tp1528
Rp1529
sg36
(dp1530
g21
g1526
sg139
g1529
sg228
g11
(g142
S'\x02\x00\x00\x00\x00\x00\x00\x00'
p1531
tp1532
Rp1533
sg149
g11
(g142
S'\x03\x00\x00\x00\x00\x00\x00\x00'
p1534
tp1535
Rp1536
sg38
g11
(g15
S'\x88\x01I\x1d\xfeX\xee?'
p1537
tp1538
Rp1539
ssg42
g11
(g12
(S'S6'
p1540
I0
I1
tp1541
Rp1542
(I3
S'|'
p1543
NNNI6
I1
I0
tp1544
bS'ISOMAP'
p1545
tp1546
Rp1547
sg51
F0.2
sg149
g1536
sg52
g11
(g12
(S'S8'
p1548
I0
I1
tp1549
Rp1550
(I3
S'|'
p1551
NNNI8
I1
I0
tp1552
bS'haralick'
p1553
tp1554
Rp1555
sg228
g1533
sg61
g11
(g15
S'\x04\xa4\xab\x85\x96\xe6\xe1?'
p1556
tp1557
Rp1558
sg65
g11
(g12
(S'S2'
p1559
I0
I1
tp1560
Rp1561
(I3
S'|'
p1562
NNNI2
I1
I0
tp1563
bS'RF'
p1564
tp1565
Rp1566
sg74
I3
sg38
g1539
sg75
g76
sg77
g11
(g15
S'T\x1d\x84\x83\xbf\x00\xed?'
p1567
tp1568
Rp1569
sg81
g82
sg83
g84
sbag4
(g5
g6
Ntp1570
Rp1571
(dp1572
g10
g11
(g15
S'\x00\x00\x00\x00\x00\x00\xf8\xff'
p1573
tp1574
Rp1575
sg21
g11
(g15
S'\x00\x00\x00\x00\x00@a@'
p1576
tp1577
Rp1578
sg34
g35
sg139
g11
(g142
S'\x05\x00\x00\x00\x00\x00\x00\x00'
p1579
tp1580
Rp1581
sg36
(dp1582
g21
g1578
sg139
g1581
sg149
g11
(g142
S'\x02\x00\x00\x00\x00\x00\x00\x00'
p1583
tp1584
Rp1585
sg38
g11
(g15
S't\x8c{\xcb\x0b\xd7\xe9?'
p1586
tp1587
Rp1588
ssg42
g11
(g12
(S'S6'
p1589
I0
I1
tp1590
Rp1591
(I3
S'|'
p1592
NNNI6
I1
I0
tp1593
bS'ISOMAP'
p1594
tp1595
Rp1596
sg51
F0.2
sg149
g1585
sg52
g11
(g12
(S'S9'
p1597
I0
I1
tp1598
Rp1599
(I3
S'|'
p1600
NNNI9
I1
I0
tp1601
bS'inception'
p1602
tp1603
Rp1604
sg61
g11
(g15
S'\xe97\xb1S27\xf1?'
p1605
tp1606
Rp1607
sg65
g11
(g12
(S'S2'
p1608
I0
I1
tp1609
Rp1610
(I3
S'|'
p1611
NNNI2
I1
I0
tp1612
bS'RF'
p1613
tp1614
Rp1615
sg74
I3
sg38
g1588
sg75
g76
sg77
g11
(g15
S'\xb7\xab\x818\x1fF\xea?'
p1616
tp1617
Rp1618
sg81
g82
sg83
g84
sbag4
(g5
g6
Ntp1619
Rp1620
(dp1621
g10
g11
(g15
S'\x00\x00\x00\x00\x00\x00\xf8\xff'
p1622
tp1623
Rp1624
sg25
g33
sg34
g35
sg36
(dp1625
g25
g33
sg92
g11
(g15
S'n\xff\xba\x9c$\x86M@'
p1626
tp1627
Rp1628
sg228
g11
(g142
S'\x03\x00\x00\x00\x00\x00\x00\x00'
p1629
tp1630
Rp1631
sg96
g11
(g15
S'\xf4\xad}\x1dcl\xea?'
p1632
tp1633
Rp1634
ssg42
g11
(g12
(S'S3'
p1635
I0
I1
tp1636
Rp1637
(I3
S'|'
p1638
NNNI3
I1
I0
tp1639
bS'PCA'
p1640
tp1641
Rp1642
sg51
F0.2
sg96
g1634
sg52
g11
(g12
(S'S8'
p1643
I0
I1
tp1644
Rp1645
(I3
S'|'
p1646
NNNI8
I1
I0
tp1647
bS'haralick'
p1648
tp1649
Rp1650
sg92
g1628
sg228
g1631
sg61
g11
(g15
S'\xddm\x85\x17\xc7\x0c\xd1?'
p1651
tp1652
Rp1653
sg65
g11
(g12
(S'S3'
p1654
I0
I1
tp1655
Rp1656
(I3
S'|'
p1657
NNNI3
I1
I0
tp1658
bS'SVM'
p1659
tp1660
Rp1661
sg74
I3
sg75
g76
sg77
g11
(g15
S'#V\x05\xa9\x0f^\xea?'
p1662
tp1663
Rp1664
sg81
g82
sg83
g84
sbag4
(g5
g6
Ntp1665
Rp1666
(dp1667
g10
g11
(g15
S'\x00\x00\x00\x00\x00\x00\xf8\xff'
p1668
tp1669
Rp1670
sg21
g11
(g15
S'\x00\x00\x00\x00\x00`i@'
p1671
tp1672
Rp1673
sg25
g33
sg34
g35
sg36
(dp1674
g21
g1673
sg38
g11
(g15
S'\x9e]}\xdcs\xe5\xed?'
p1675
tp1676
Rp1677
sg25
g33
sg228
g11
(g142
S'\x02\x00\x00\x00\x00\x00\x00\x00'
p1678
tp1679
Rp1680
ssg42
g11
(g12
(S'S3'
p1681
I0
I1
tp1682
Rp1683
(I3
S'|'
p1684
NNNI3
I1
I0
tp1685
bS'PCA'
p1686
tp1687
Rp1688
sg51
F0.2
sg52
g11
(g12
(S'S8'
p1689
I0
I1
tp1690
Rp1691
(I3
S'|'
p1692
NNNI8
I1
I0
tp1693
bS'haralick'
p1694
tp1695
Rp1696
sg228
g1680
sg61
g11
(g15
S'\x8b\xe4D2\xe7\xd3\xd7?'
p1697
tp1698
Rp1699
sg65
g11
(g12
(S'S2'
p1700
I0
I1
tp1701
Rp1702
(I3
S'|'
p1703
NNNI2
I1
I0
tp1704
bS'RF'
p1705
tp1706
Rp1707
sg74
I3
sg38
g1677
sg75
g76
sg77
g11
(g15
S'\xad\x7f\x00Ntt\xed?'
p1708
tp1709
Rp1710
sg81
g82
sg83
g84
sbag4
(g5
g6
Ntp1711
Rp1712
(dp1713
g10
g11
(g15
S'\x00\x00\x00\x00\x00\x00\xf8\xff'
p1714
tp1715
Rp1716
sg21
g11
(g15
S'\x00\x00\x00\x00\x00\x00D@'
p1717
tp1718
Rp1719
sg34
g35
sg139
g11
(g142
S'\x07\x00\x00\x00\x00\x00\x00\x00'
p1720
tp1721
Rp1722
sg36
(dp1723
g21
g1719
sg139
g1722
sg149
g11
(g142
S'\x03\x00\x00\x00\x00\x00\x00\x00'
p1724
tp1725
Rp1726
sg38
g11
(g15
S';\xed\x8b\xb9`5\xe5?'
p1727
tp1728
Rp1729
ssg42
g11
(g12
(S'S6'
p1730
I0
I1
tp1731
Rp1732
(I3
S'|'
p1733
NNNI6
I1
I0
tp1734
bS'ISOMAP'
p1735
tp1736
Rp1737
sg51
F0.2
sg149
g1726
sg52
g11
(g12
(S'S9'
p1738
I0
I1
tp1739
Rp1740
(I3
S'|'
p1741
NNNI9
I1
I0
tp1742
bS'inception'
p1743
tp1744
Rp1745
sg61
g11
(g15
S'\xf3#?\xce\xb5\x7f\xec?'
p1746
tp1747
Rp1748
sg65
g11
(g12
(S'S2'
p1749
I0
I1
tp1750
Rp1751
(I3
S'|'
p1752
NNNI2
I1
I0
tp1753
bS'RF'
p1754
tp1755
Rp1756
sg74
I3
sg38
g1729
sg75
g76
sg77
g11
(g15
S'D4\x88i\xac\xbb\xe9?'
p1757
tp1758
Rp1759
sg81
g82
sg83
g84
sbag4
(g5
g6
Ntp1760
Rp1761
(dp1762
g10
g11
(g15
S'\x00\x00\x00\x00\x00\x00\xf8\xff'
p1763
tp1764
Rp1765
sg139
g11
(g142
S'\x04\x00\x00\x00\x00\x00\x00\x00'
p1766
tp1767
Rp1768
sg34
g35
sg36
(dp1769
g139
g1768
sg92
g11
(g15
S'\xae\x95Z_I-<@'
p1770
tp1771
Rp1772
sg149
g11
(g142
S'\x04\x00\x00\x00\x00\x00\x00\x00'
p1773
tp1774
Rp1775
sg96
g11
(g15
S'\xb3\xfc\x0ea\x1d\x8a\x1d@'
p1776
tp1777
Rp1778
ssg96
g1778
sg42
g11
(g12
(S'S6'
p1779
I0
I1
tp1780
Rp1781
(I3
S'|'
p1782
NNNI6
I1
I0
tp1783
bS'ISOMAP'
p1784
tp1785
Rp1786
sg51
F0.2
sg149
g1775
sg52
g11
(g12
(S'S9'
p1787
I0
I1
tp1788
Rp1789
(I3
S'|'
p1790
NNNI9
I1
I0
tp1791
bS'inception'
p1792
tp1793
Rp1794
sg92
g1772
sg61
g11
(g15
S'\xa1\xdeSWTd\xd4?'
p1795
tp1796
Rp1797
sg65
g11
(g12
(S'S3'
p1798
I0
I1
tp1799
Rp1800
(I3
S'|'
p1801
NNNI3
I1
I0
tp1802
bS'SVM'
p1803
tp1804
Rp1805
sg74
I3
sg75
g76
sg77
g11
(g15
S'\xbcg`\x7f\x9en\xe6?'
p1806
tp1807
Rp1808
sg81
g82
sg83
g84
sbag131
ag4
(g5
g6
Ntp1809
Rp1810
(dp1811
g10
g11
(g15
S'\x00\x00\x00\x00\x00\x00\xf8\xff'
p1812
tp1813
Rp1814
sg21
g11
(g15
S'\x00\x00\x00\x00\x00\xc0r@'
p1815
tp1816
Rp1817
sg25
g33
sg34
g35
sg36
(dp1818
g21
g1817
sg38
g11
(g15
S'\xf4\xe3kIw\xda\xec?'
p1819
tp1820
Rp1821
sg25
g33
ssg42
g11
(g12
(S'S3'
p1822
I0
I1
tp1823
Rp1824
(I3
S'|'
p1825
NNNI3
I1
I0
tp1826
bS'PCA'
p1827
tp1828
Rp1829
sg51
F0.2
sg52
g11
(g12
(S'S3'
p1830
I0
I1
tp1831
Rp1832
(I3
S'|'
p1833
NNNI3
I1
I0
tp1834
bS'VGG'
p1835
tp1836
Rp1837
sg61
g11
(g15
S'l\xfd\x0e\x18+q\xd0?'
p1838
tp1839
Rp1840
sg65
g11
(g12
(S'S2'
p1841
I0
I1
tp1842
Rp1843
(I3
S'|'
p1844
NNNI2
I1
I0
tp1845
bS'RF'
p1846
tp1847
Rp1848
sg74
I3
sg38
g1821
sg75
g76
sg77
g11
(g15
S'\xb4\xfe\x018\xd1\xd1\xed?'
p1849
tp1850
Rp1851
sg81
g82
sg83
g84
sbag4
(g5
g6
Ntp1852
Rp1853
(dp1854
g10
g11
(g15
S'\x00\x00\x00\x00\x00\x00\xf8\xff'
p1855
tp1856
Rp1857
sg21
g11
(g15
S'\x00\x00\x00\x00\x00\xc0r@'
p1858
tp1859
Rp1860
sg25
g33
sg34
g35
sg36
(dp1861
g21
g1860
sg38
g11
(g15
S'A\xa4\x9b\xd7\xb2\xa9\xe6?'
p1862
tp1863
Rp1864
sg25
g33
ssg42
g11
(g12
(S'S3'
p1865
I0
I1
tp1866
Rp1867
(I3
S'|'
p1868
NNNI3
I1
I0
tp1869
bS'PCA'
p1870
tp1871
Rp1872
sg51
F0.2
sg52
g11
(g12
(S'S3'
p1873
I0
I1
tp1874
Rp1875
(I3
S'|'
p1876
NNNI3
I1
I0
tp1877
bS'VGG'
p1878
tp1879
Rp1880
sg61
g11
(g15
S'I>\xa9S\x07I\xd0?'
p1881
tp1882
Rp1883
sg65
g11
(g12
(S'S2'
p1884
I0
I1
tp1885
Rp1886
(I3
S'|'
p1887
NNNI2
I1
I0
tp1888
bS'RF'
p1889
tp1890
Rp1891
sg74
I3
sg38
g1864
sg75
g76
sg77
g11
(g15
S'\xb4\xfe\x018\xd1\xd1\xed?'
p1892
tp1893
Rp1894
sg81
g82
sg83
g84
sbag4
(g5
g6
Ntp1895
Rp1896
(dp1897
g10
g11
(g15
S'\x00\x00\x00\x00\x00\x00\xf8\xff'
p1898
tp1899
Rp1900
sg25
g33
sg34
g35
sg36
(dp1901
g25
g33
sg92
g11
(g15
S'j\xb7\xa4\x8e\x91\xb2P@'
p1902
tp1903
Rp1904
sg96
g11
(g15
S'=p \x94\x82\xd8\x15@'
p1905
tp1906
Rp1907
ssg42
g11
(g12
(S'S3'
p1908
I0
I1
tp1909
Rp1910
(I3
S'|'
p1911
NNNI3
I1
I0
tp1912
bS'PCA'
p1913
tp1914
Rp1915
sg51
F0.2
sg96
g1907
sg52
g11
(g12
(S'S9'
p1916
I0
I1
tp1917
Rp1918
(I3
S'|'
p1919
NNNI9
I1
I0
tp1920
bS'inception'
p1921
tp1922
Rp1923
sg92
g1904
sg61
g11
(g15
S'\x0fw+MC\x8d\xd4?'
p1924
tp1925
Rp1926
sg65
g11
(g12
(S'S3'
p1927
I0
I1
tp1928
Rp1929
(I3
S'|'
p1930
NNNI3
I1
I0
tp1931
bS'SVM'
p1932
tp1933
Rp1934
sg74
I3
sg75
g76
sg77
g11
(g15
S'\x93\xe2\x052)^\xe8?'
p1935
tp1936
Rp1937
sg81
g82
sg83
g84
sbag4
(g5
g6
Ntp1938
Rp1939
(dp1940
g10
g11
(g15
S'\x00\x00\x00\x00\x00\x00\xf8\xff'
p1941
tp1942
Rp1943
sg21
g11
(g15
S'\x00\x00\x00\x00\x00@Z@'
p1944
tp1945
Rp1946
sg34
g35
sg139
g11
(g142
S'\x04\x00\x00\x00\x00\x00\x00\x00'
p1947
tp1948
Rp1949
sg36
(dp1950
g21
g1946
sg139
g1949
sg228
g11
(g142
S'\x02\x00\x00\x00\x00\x00\x00\x00'
p1951
tp1952
Rp1953
sg149
g11
(g142
S'\x02\x00\x00\x00\x00\x00\x00\x00'
p1954
tp1955
Rp1956
sg38
g11
(g15
S'\xb9Z\x9a,\x7f\xe3\xd9?'
p1957
tp1958
Rp1959
ssg42
g11
(g12
(S'S6'
p1960
I0
I1
tp1961
Rp1962
(I3
S'|'
p1963
NNNI6
I1
I0
tp1964
bS'ISOMAP'
p1965
tp1966
Rp1967
sg51
F0.2
sg149
g1956
sg52
g11
(g12
(S'S8'
p1968
I0
I1
tp1969
Rp1970
(I3
S'|'
p1971
NNNI8
I1
I0
tp1972
bS'haralick'
p1973
tp1974
Rp1975
sg228
g1953
sg61
g11
(g15
S'\x8dG:\xb8\xc4\xab\xd8?'
p1976
tp1977
Rp1978
sg65
g11
(g12
(S'S2'
p1979
I0
I1
tp1980
Rp1981
(I3
S'|'
p1982
NNNI2
I1
I0
tp1983
bS'RF'
p1984
tp1985
Rp1986
sg74
I3
sg38
g1959
sg75
g76
sg77
g11
(g15
S'M\x9e\x82\x99b\xa3\xec?'
p1987
tp1988
Rp1989
sg81
g82
sg83
g84
sbag4
(g5
g6
Ntp1990
Rp1991
(dp1992
g10
g11
(g15
S'\x00\x00\x00\x00\x00\x00\xf8\xff'
p1993
tp1994
Rp1995
sg21
g11
(g15
S'\x00\x00\x00\x00\x00`i@'
p1996
tp1997
Rp1998
sg34
g35
sg139
g11
(g142
S'\x04\x00\x00\x00\x00\x00\x00\x00'
p1999
tp2000
Rp2001
sg36
(dp2002
g21
g1998
sg139
g2001
sg228
g11
(g142
S'\x03\x00\x00\x00\x00\x00\x00\x00'
p2003
tp2004
Rp2005
sg149
g11
(g142
S'\x03\x00\x00\x00\x00\x00\x00\x00'
p2006
tp2007
Rp2008
sg38
g11
(g15
S'\xc8\xa8\xb0\xcb\xf5\x90\xee?'
p2009
tp2010
Rp2011
ssg42
g11
(g12
(S'S6'
p2012
I0
I1
tp2013
Rp2014
(I3
S'|'
p2015
NNNI6
I1
I0
tp2016
bS'ISOMAP'
p2017
tp2018
Rp2019
sg51
F0.2
sg149
g2008
sg52
g11
(g12
(S'S8'
p2020
I0
I1
tp2021
Rp2022
(I3
S'|'
p2023
NNNI8
I1
I0
tp2024
bS'haralick'
p2025
tp2026
Rp2027
sg228
g2005
sg61
g11
(g15
S'\xc2\xe7\xfd\x06 &\xe2?'
p2028
tp2029
Rp2030
sg65
g11
(g12
(S'S2'
p2031
I0
I1
tp2032
Rp2033
(I3
S'|'
p2034
NNNI2
I1
I0
tp2035
bS'RF'
p2036
tp2037
Rp2038
sg74
I3
sg38
g2011
sg75
g76
sg77
g11
(g15
S'\xb5#\x04!\x92F\xed?'
p2039
tp2040
Rp2041
sg81
g82
sg83
g84
sbag4
(g5
g6
Ntp2042
Rp2043
(dp2044
g10
g11
(g15
S'\x00\x00\x00\x00\x00\x00\xf8\xff'
p2045
tp2046
Rp2047
sg21
g11
(g15
S'\x00\x00\x00\x00\x00`i@'
p2048
tp2049
Rp2050
sg34
g35
sg139
g11
(g142
S'\x07\x00\x00\x00\x00\x00\x00\x00'
p2051
tp2052
Rp2053
sg36
(dp2054
g21
g2050
sg139
g2053
sg149
g11
(g142
S'\x02\x00\x00\x00\x00\x00\x00\x00'
p2055
tp2056
Rp2057
sg38
g11
(g15
S'\x0c<\xa6\x01\x9dV\xea?'
p2058
tp2059
Rp2060
ssg42
g11
(g12
(S'S6'
p2061
I0
I1
tp2062
Rp2063
(I3
S'|'
p2064
NNNI6
I1
I0
tp2065
bS'ISOMAP'
p2066
tp2067
Rp2068
sg51
F0.2
sg149
g2057
sg52
g11
(g12
(S'S9'
p2069
I0
I1
tp2070
Rp2071
(I3
S'|'
p2072
NNNI9
I1
I0
tp2073
bS'inception'
p2074
tp2075
Rp2076
sg61
g11
(g15
S'!\xfe/\x16\xd5N\xed?'
p2077
tp2078
Rp2079
sg65
g11
(g12
(S'S2'
p2080
I0
I1
tp2081
Rp2082
(I3
S'|'
p2083
NNNI2
I1
I0
tp2084
bS'RF'
p2085
tp2086
Rp2087
sg74
I3
sg38
g2060
sg75
g76
sg77
g11
(g15
S'\xc1\xc2\xfbh#\xa2\xe9?'
p2088
tp2089
Rp2090
sg81
g82
sg83
g84
sbag4
(g5
g6
Ntp2091
Rp2092
(dp2093
g10
g11
(g15
S'\x00\x00\x00\x00\x00\x00\xf8\xff'
p2094
tp2095
Rp2096
sg21
g11
(g15
S'\x00\x00\x00\x00\x00`m@'
p2097
tp2098
Rp2099
sg34
g35
sg139
g11
(g142
S'\x07\x00\x00\x00\x00\x00\x00\x00'
p2100
tp2101
Rp2102
sg36
(dp2103
g21
g2099
sg139
g2102
sg149
g11
(g142
S'\x03\x00\x00\x00\x00\x00\x00\x00'
p2104
tp2105
Rp2106
sg38
g11
(g15
S'3\xc4F?\x84\xf5\xe8?'
p2107
tp2108
Rp2109
ssg42
g11
(g12
(S'S6'
p2110
I0
I1
tp2111
Rp2112
(I3
S'|'
p2113
NNNI6
I1
I0
tp2114
bS'ISOMAP'
p2115
tp2116
Rp2117
sg51
F0.2
sg149
g2106
sg52
g11
(g12
(S'S9'
p2118
I0
I1
tp2119
Rp2120
(I3
S'|'
p2121
NNNI9
I1
I0
tp2122
bS'inception'
p2123
tp2124
Rp2125
sg61
g11
(g15
S'\xe4^\x0b\xe1w\x0f\xe7?'
p2126
tp2127
Rp2128
sg65
g11
(g12
(S'S2'
p2129
I0
I1
tp2130
Rp2131
(I3
S'|'
p2132
NNNI2
I1
I0
tp2133
bS'RF'
p2134
tp2135
Rp2136
sg74
I3
sg38
g2109
sg75
g76
sg77
g11
(g15
S'M\xd8\x8b<\xca\x8d\xe9?'
p2137
tp2138
Rp2139
sg81
g82
sg83
g84
sbag4
(g5
g6
Ntp2140
Rp2141
(dp2142
g10
g11
(g15
S'\x00\x00\x00\x00\x00\x00\xf8\xff'
p2143
tp2144
Rp2145
sg25
g254
sg34
g35
sg36
(dp2146
g25
g254
sg92
g11
(g15
S'L\x97\xa42RVX@'
p2147
tp2148
Rp2149
sg96
g11
(g15
S'\x89\xc9\xe8Y"\x03\x1e@'
p2150
tp2151
Rp2152
ssg42
g11
(g12
(S'S3'
p2153
I0
I1
tp2154
Rp2155
(I3
S'|'
p2156
NNNI3
I1
I0
tp2157
bS'PCA'
p2158
tp2159
Rp2160
sg51
F0.2
sg96
g2152
sg52
g11
(g12
(S'S3'
p2161
I0
I1
tp2162
Rp2163
(I3
S'|'
p2164
NNNI3
I1
I0
tp2165
bS'VGG'
p2166
tp2167
Rp2168
sg92
g2149
sg61
g11
(g15
S'\xf1\xfc\xaf\x96\x8e\xde\xd0?'
p2169
tp2170
Rp2171
sg65
g11
(g12
(S'S3'
p2172
I0
I1
tp2173
Rp2174
(I3
S'|'
p2175
NNNI3
I1
I0
tp2176
bS'SVM'
p2177
tp2178
Rp2179
sg74
I3
sg75
g76
sg77
g11
(g15
S'\x0b,\x81\xea\xaa\xd1\xec?'
p2180
tp2181
Rp2182
sg81
g82
sg83
g84
sbag4
(g5
g6
Ntp2183
Rp2184
(dp2185
g10
g11
(g15
S'\x00\x00\x00\x00\x00\x00\xf8\xff'
p2186
tp2187
Rp2188
sg21
g11
(g15
S'\x00\x00\x00\x00\x00@e@'
p2189
tp2190
Rp2191
sg34
g35
sg139
g11
(g142
S'\x03\x00\x00\x00\x00\x00\x00\x00'
p2192
tp2193
Rp2194
sg36
(dp2195
g21
g2191
sg139
g2194
sg149
g11
(g142
S'\x04\x00\x00\x00\x00\x00\x00\x00'
p2196
tp2197
Rp2198
sg38
g11
(g15
S'"\x86\xef\xa6\x9e{\xe7?'
p2199
tp2200
Rp2201
ssg42
g11
(g12
(S'S6'
p2202
I0
I1
tp2203
Rp2204
(I3
S'|'
p2205
NNNI6
I1
I0
tp2206
bS'ISOMAP'
p2207
tp2208
Rp2209
sg51
F0.2
sg149
g2198
sg52
g11
(g12
(S'S3'
p2210
I0
I1
tp2211
Rp2212
(I3
S'|'
p2213
NNNI3
I1
I0
tp2214
bS'VGG'
p2215
tp2216
Rp2217
sg61
g11
(g15
S'5\xbe\xb9\xb8\xb4v\xd0?'
p2218
tp2219
Rp2220
sg65
g11
(g12
(S'S2'
p2221
I0
I1
tp2222
Rp2223
(I3
S'|'
p2224
NNNI2
I1
I0
tp2225
bS'RF'
p2226
tp2227
Rp2228
sg74
I3
sg38
g2201
sg75
g76
sg77
g11
(g15
S'\x8c\xc6\x7fv\x98\x8b\xed?'
p2229
tp2230
Rp2231
sg81
g82
sg83
g84
sbag4
(g5
g6
Ntp2232
Rp2233
(dp2234
g10
g11
(g15
S'\x00\x00\x00\x00\x00\x00\xf8\xff'
p2235
tp2236
Rp2237
sg25
g254
sg34
g35
sg36
(dp2238
g25
g254
sg92
g11
(g15
S'\x05\x0cxL\xff\xe3R@'
p2239
tp2240
Rp2241
sg228
g11
(g142
S'\x02\x00\x00\x00\x00\x00\x00\x00'
p2242
tp2243
Rp2244
sg96
g11
(g15
S'x\x94\xe7-W\xbd\x17@'
p2245
tp2246
Rp2247
ssg42
g11
(g12
(S'S3'
p2248
I0
I1
tp2249
Rp2250
(I3
S'|'
p2251
NNNI3
I1
I0
tp2252
bS'PCA'
p2253
tp2254
Rp2255
sg51
F0.2
sg96
g2247
sg52
g11
(g12
(S'S8'
p2256
I0
I1
tp2257
Rp2258
(I3
S'|'
p2259
NNNI8
I1
I0
tp2260
bS'haralick'
p2261
tp2262
Rp2263
sg92
g2241
sg228
g2244
sg61
g11
(g15
S'\x94$.\x07\xdd\xfc\xd0?'
p2264
tp2265
Rp2266
sg65
g11
(g12
(S'S3'
p2267
I0
I1
tp2268
Rp2269
(I3
S'|'
p2270
NNNI3
I1
I0
tp2271
bS'SVM'
p2272
tp2273
Rp2274
sg74
I3
sg75
g76
sg77
g11
(g15
S'mW\x03q>\x8c\xec?'
p2275
tp2276
Rp2277
sg81
g82
sg83
g84
sbag4
(g5
g6
Ntp2278
Rp2279
(dp2280
g10
g11
(g15
S'\x00\x00\x00\x00\x00\x00\xf8\xff'
p2281
tp2282
Rp2283
sg139
g11
(g142
S'\x05\x00\x00\x00\x00\x00\x00\x00'
p2284
tp2285
Rp2286
sg34
g35
sg36
(dp2287
g139
g2286
sg92
g11
(g15
S'\xe3r\xc8_B\xb4<@'
p2288
tp2289
Rp2290
sg228
g11
(g142
S'\x01\x00\x00\x00\x00\x00\x00\x00'
p2291
tp2292
Rp2293
sg149
g11
(g142
S'\x03\x00\x00\x00\x00\x00\x00\x00'
p2294
tp2295
Rp2296
sg96
g11
(g15
S'\x19\xc6\x1c\xd0Z<\x1f@'
p2297
tp2298
Rp2299
ssg96
g2299
sg42
g11
(g12
(S'S6'
p2300
I0
I1
tp2301
Rp2302
(I3
S'|'
p2303
NNNI6
I1
I0
tp2304
bS'ISOMAP'
p2305
tp2306
Rp2307
sg51
F0.2
sg149
g2296
sg52
g11
(g12
(S'S8'
p2308
I0
I1
tp2309
Rp2310
(I3
S'|'
p2311
NNNI8
I1
I0
tp2312
bS'haralick'
p2313
tp2314
Rp2315
sg92
g2290
sg228
g2293
sg61
g11
(g15
S'\x7f\xcd\x93i\xb9_\xd0?'
p2316
tp2317
Rp2318
sg65
g11
(g12
(S'S3'
p2319
I0
I1
tp2320
Rp2321
(I3
S'|'
p2322
NNNI3
I1
I0
tp2323
bS'SVM'
p2324
tp2325
Rp2326
sg74
I3
sg75
g76
sg77
g11
(g15
S'={}\xdc\xe7s\xec?'
p2327
tp2328
Rp2329
sg81
g82
sg83
g84
sbag4
(g5
g6
Ntp2330
Rp2331
(dp2332
g10
g11
(g15
S'\x00\x00\x00\x00\x00\x00\xf8\xff'
p2333
tp2334
Rp2335
sg139
g11
(g142
S'\x07\x00\x00\x00\x00\x00\x00\x00'
p2336
tp2337
Rp2338
sg34
g35
sg36
(dp2339
g139
g2338
sg92
g11
(g15
S'\xd6x\xde9*\x19\xe0?'
p2340
tp2341
Rp2342
sg149
g11
(g142
S'\x03\x00\x00\x00\x00\x00\x00\x00'
p2343
tp2344
Rp2345
sg96
g11
(g15
S'|{9\xb1\xbb&\x10@'
p2346
tp2347
Rp2348
ssg96
g2348
sg42
g11
(g12
(S'S6'
p2349
I0
I1
tp2350
Rp2351
(I3
S'|'
p2352
NNNI6
I1
I0
tp2353
bS'ISOMAP'
p2354
tp2355
Rp2356
sg51
F0.2
sg149
g2345
sg52
g11
(g12
(S'S9'
p2357
I0
I1
tp2358
Rp2359
(I3
S'|'
p2360
NNNI9
I1
I0
tp2361
bS'inception'
p2362
tp2363
Rp2364
sg92
g2342
sg61
g11
(g15
S'{\\\xe7e\xb3Z\xd3?'
p2365
tp2366
Rp2367
sg65
g11
(g12
(S'S3'
p2368
I0
I1
tp2369
Rp2370
(I3
S'|'
p2371
NNNI3
I1
I0
tp2372
bS'SVM'
p2373
tp2374
Rp2375
sg74
I3
sg75
g76
sg77
g11
(g15
S'\x8cbh_\xe3\xb5\xe5?'
p2376
tp2377
Rp2378
sg81
g82
sg83
g84
sbag4
(g5
g6
Ntp2379
Rp2380
(dp2381
g10
g11
(g15
S'\x00\x00\x00\x00\x00\x00\xf8\xff'
p2382
tp2383
Rp2384
sg21
g11
(g15
S'\x00\x00\x00\x00\x00`i@'
p2385
tp2386
Rp2387
sg34
g35
sg139
g11
(g142
S'\x03\x00\x00\x00\x00\x00\x00\x00'
p2388
tp2389
Rp2390
sg36
(dp2391
g21
g2387
sg139
g2390
sg149
g11
(g142
S'\x04\x00\x00\x00\x00\x00\x00\x00'
p2392
tp2393
Rp2394
sg38
g11
(g15
S'\x12\xc8*4\x81\xbf\xea?'
p2395
tp2396
Rp2397
ssg42
g11
(g12
(S'S6'
p2398
I0
I1
tp2399
Rp2400
(I3
S'|'
p2401
NNNI6
I1
I0
tp2402
bS'ISOMAP'
p2403
tp2404
Rp2405
sg51
F0.2
sg149
g2394
sg52
g11
(g12
(S'S3'
p2406
I0
I1
tp2407
Rp2408
(I3
S'|'
p2409
NNNI3
I1
I0
tp2410
bS'VGG'
p2411
tp2412
Rp2413
sg61
g11
(g15
S'_\xdf@s\xa4\t\xd6?'
p2414
tp2415
Rp2416
sg65
g11
(g12
(S'S2'
p2417
I0
I1
tp2418
Rp2419
(I3
S'|'
p2420
NNNI2
I1
I0
tp2421
bS'RF'
p2422
tp2423
Rp2424
sg74
I3
sg38
g2397
sg75
g76
sg77
g11
(g15
S'\xa4\xdb\xfczV\xa2\xed?'
p2425
tp2426
Rp2427
sg81
g82
sg83
g84
sbag4
(g5
g6
Ntp2428
Rp2429
(dp2430
g10
g11
(g15
S'\x00\x00\x00\x00\x00\x00\xf8\xff'
p2431
tp2432
Rp2433
sg21
g11
(g15
S'\x00\x00\x00\x00\x00\xc0p@'
p2434
tp2435
Rp2436
sg25
g33
sg34
g35
sg36
(dp2437
g21
g2436
sg38
g11
(g15
S'l\xaf\xcae\xefg\xed?'
p2438
tp2439
Rp2440
sg25
g33
ssg42
g11
(g12
(S'S3'
p2441
I0
I1
tp2442
Rp2443
(I3
S'|'
p2444
NNNI3
I1
I0
tp2445
bS'PCA'
p2446
tp2447
Rp2448
sg51
F0.2
sg52
g11
(g12
(S'S3'
p2449
I0
I1
tp2450
Rp2451
(I3
S'|'
p2452
NNNI3
I1
I0
tp2453
bS'VGG'
p2454
tp2455
Rp2456
sg61
g11
(g15
S'w\x93 /\x9fs\xd0?'
p2457
tp2458
Rp2459
sg65
g11
(g12
(S'S2'
p2460
I0
I1
tp2461
Rp2462
(I3
S'|'
p2463
NNNI2
I1
I0
tp2464
bS'RF'
p2465
tp2466
Rp2467
sg74
I3
sg38
g2440
sg75
g76
sg77
g11
(g15
S'\xb4\xfe\x018\xd1\xd1\xed?'
p2468
tp2469
Rp2470
sg81
g82
sg83
g84
sbag4
(g5
g6
Ntp2471
Rp2472
(dp2473
g10
g11
(g15
S'\x00\x00\x00\x00\x00\x00\xf8\xff'
p2474
tp2475
Rp2476
sg139
g11
(g142
S'\x03\x00\x00\x00\x00\x00\x00\x00'
p2477
tp2478
Rp2479
sg34
g35
sg36
(dp2480
g139
g2479
sg92
g11
(g15
S'\xb2\x8a\x97\xed\x84\nD@'
p2481
tp2482
Rp2483
sg228
g11
(g142
S'\x01\x00\x00\x00\x00\x00\x00\x00'
p2484
tp2485
Rp2486
sg149
g11
(g142
S'\x04\x00\x00\x00\x00\x00\x00\x00'
p2487
tp2488
Rp2489
sg96
g11
(g15
S'8\x14C\xdc\x08<\n@'
p2490
tp2491
Rp2492
ssg96
g2492
sg42
g11
(g12
(S'S6'
p2493
I0
I1
tp2494
Rp2495
(I3
S'|'
p2496
NNNI6
I1
I0
tp2497
bS'ISOMAP'
p2498
tp2499
Rp2500
sg51
F0.2
sg149
g2489
sg52
g11
(g12
(S'S8'
p2501
I0
I1
tp2502
Rp2503
(I3
S'|'
p2504
NNNI8
I1
I0
tp2505
bS'haralick'
p2506
tp2507
Rp2508
sg92
g2483
sg228
g2486
sg61
g11
(g15
S'\x8c\xf5\xa8H\x87\xa2\xd1?'
p2509
tp2510
Rp2511
sg65
g11
(g12
(S'S3'
p2512
I0
I1
tp2513
Rp2514
(I3
S'|'
p2515
NNNI3
I1
I0
tp2516
bS'SVM'
p2517
tp2518
Rp2519
sg74
I3
sg75
g76
sg77
g11
(g15
S'h&v\xfb\x06D\xec?'
p2520
tp2521
Rp2522
sg81
g82
sg83
g84
sbag4
(g5
g6
Ntp2523
Rp2524
(dp2525
g10
g11
(g15
S'\x00\x00\x00\x00\x00\x00\xf8\xff'
p2526
tp2527
Rp2528
sg21
g11
(g15
S'\x00\x00\x00\x00\x00\x00D@'
p2529
tp2530
Rp2531
sg25
g254
sg34
g35
sg36
(dp2532
g21
g2531
sg38
g11
(g15
S'\xc1\xff\x85\x05\xfdH\xe4?'
p2533
tp2534
Rp2535
sg25
g254
ssg42
g11
(g12
(S'S3'
p2536
I0
I1
tp2537
Rp2538
(I3
S'|'
p2539
NNNI3
I1
I0
tp2540
bS'PCA'
p2541
tp2542
Rp2543
sg51
F0.2
sg52
g11
(g12
(S'S9'
p2544
I0
I1
tp2545
Rp2546
(I3
S'|'
p2547
NNNI9
I1
I0
tp2548
bS'inception'
p2549
tp2550
Rp2551
sg61
g11
(g15
S'o\xf84\xf7\x95\xdd\xe5?'
p2552
tp2553
Rp2554
sg65
g11
(g12
(S'S2'
p2555
I0
I1
tp2556
Rp2557
(I3
S'|'
p2558
NNNI2
I1
I0
tp2559
bS'RF'
p2560
tp2561
Rp2562
sg74
I3
sg38
g2535
sg75
g76
sg77
g11
(g15
S'\x1d\x0c\x01\xd7\x8dt\xeb?'
p2563
tp2564
Rp2565
sg81
g82
sg83
g84
sbag4
(g5
g6
Ntp2566
Rp2567
(dp2568
g10
g11
(g15
S'\x00\x00\x00\x00\x00\x00\xf8\xff'
p2569
tp2570
Rp2571
sg21
g11
(g15
S'\x00\x00\x00\x00\x00\x00 @'
p2572
tp2573
Rp2574
sg34
g35
sg139
g11
(g142
S'\x06\x00\x00\x00\x00\x00\x00\x00'
p2575
tp2576
Rp2577
sg36
(dp2578
g21
g2574
sg139
g2577
sg228
g11
(g142
S'\x03\x00\x00\x00\x00\x00\x00\x00'
p2579
tp2580
Rp2581
sg149
g11
(g142
S'\x03\x00\x00\x00\x00\x00\x00\x00'
p2582
tp2583
Rp2584
sg38
g11
(g15
S'\x9a\xf3n\x87y\x98\xee?'
p2585
tp2586
Rp2587
ssg42
g11
(g12
(S'S6'
p2588
I0
I1
tp2589
Rp2590
(I3
S'|'
p2591
NNNI6
I1
I0
tp2592
bS'ISOMAP'
p2593
tp2594
Rp2595
sg51
F0.2
sg149
g2584
sg52
g11
(g12
(S'S8'
p2596
I0
I1
tp2597
Rp2598
(I3
S'|'
p2599
NNNI8
I1
I0
tp2600
bS'haralick'
p2601
tp2602
Rp2603
sg228
g2581
sg61
g11
(g15
S'C.@\xaa\x0e\xda\xed?'
p2604
tp2605
Rp2606
sg65
g11
(g12
(S'S2'
p2607
I0
I1
tp2608
Rp2609
(I3
S'|'
p2610
NNNI2
I1
I0
tp2611
bS'RF'
p2612
tp2613
Rp2614
sg74
I3
sg38
g2587
sg75
g76
sg77
g11
(g15
S'\xe0\xce\xfc?\xb1\x16\xed?'
p2615
tp2616
Rp2617
sg81
g82
sg83
g84
sbag4
(g5
g6
Ntp2618
Rp2619
(dp2620
g10
g11
(g15
S'\x00\x00\x00\x00\x00\x00\xf8\xff'
p2621
tp2622
Rp2623
sg21
g11
(g15
S'\x00\x00\x00\x00\x00@a@'
p2624
tp2625
Rp2626
sg34
g35
sg139
g11
(g142
S'\x07\x00\x00\x00\x00\x00\x00\x00'
p2627
tp2628
Rp2629
sg36
(dp2630
g21
g2626
sg139
g2629
sg149
g11
(g142
S'\x03\x00\x00\x00\x00\x00\x00\x00'
p2631
tp2632
Rp2633
sg38
g11
(g15
S'\xba\xa0[\xa7\r\xd0\xea?'
p2634
tp2635
Rp2636
ssg42
g11
(g12
(S'S6'
p2637
I0
I1
tp2638
Rp2639
(I3
S'|'
p2640
NNNI6
I1
I0
tp2641
bS'ISOMAP'
p2642
tp2643
Rp2644
sg51
F0.2
sg149
g2633
sg52
g11
(g12
(S'S9'
p2645
I0
I1
tp2646
Rp2647
(I3
S'|'
p2648
NNNI9
I1
I0
tp2649
bS'inception'
p2650
tp2651
Rp2652
sg61
g11
(g15
S'\x18\x13\xafr(\x8a\xe9?'
p2653
tp2654
Rp2655
sg65
g11
(g12
(S'S2'
p2656
I0
I1
tp2657
Rp2658
(I3
S'|'
p2659
NNNI2
I1
I0
tp2660
bS'RF'
p2661
tp2662
Rp2663
sg74
I3
sg38
g2636
sg75
g76
sg77
g11
(g15
S';B\x10"i\xd4\xe9?'
p2664
tp2665
Rp2666
sg81
g82
sg83
g84
sbag4
(g5
g6
Ntp2667
Rp2668
(dp2669
g10
g11
(g15
S'\x00\x00\x00\x00\x00\x00\xf8\xff'
p2670
tp2671
Rp2672
sg21
g11
(g15
S'\x00\x00\x00\x00\x00@R@'
p2673
tp2674
Rp2675
sg34
g35
sg139
g11
(g142
S'\x05\x00\x00\x00\x00\x00\x00\x00'
p2676
tp2677
Rp2678
sg36
(dp2679
g21
g2675
sg139
g2678
sg228
g11
(g142
S'\x01\x00\x00\x00\x00\x00\x00\x00'
p2680
tp2681
Rp2682
sg149
g11
(g142
S'\x02\x00\x00\x00\x00\x00\x00\x00'
p2683
tp2684
Rp2685
sg38
g11
(g15
S'\xde\x8f\xb0C4T\xe0?'
p2686
tp2687
Rp2688
ssg42
g11
(g12
(S'S6'
p2689
I0
I1
tp2690
Rp2691
(I3
S'|'
p2692
NNNI6
I1
I0
tp2693
bS'ISOMAP'
p2694
tp2695
Rp2696
sg51
F0.2
sg149
g2685
sg52
g11
(g12
(S'S8'
p2697
I0
I1
tp2698
Rp2699
(I3
S'|'
p2700
NNNI8
I1
I0
tp2701
bS'haralick'
p2702
tp2703
Rp2704
sg228
g2682
sg61
g11
(g15
S'\xdf\xc7\xff\xe2\xe7j\xe5?'
p2705
tp2706
Rp2707
sg65
g11
(g12
(S'S2'
p2708
I0
I1
tp2709
Rp2710
(I3
S'|'
p2711
NNNI2
I1
I0
tp2712
bS'RF'
p2713
tp2714
Rp2715
sg74
I3
sg38
g2688
sg75
g76
sg77
g11
(g15
S'\xf1\x16\x04\xe6\xec\xba\xec?'
p2716
tp2717
Rp2718
sg81
g82
sg83
g84
sbag4
(g5
g6
Ntp2719
Rp2720
(dp2721
g10
g11
(g15
S'\x00\x00\x00\x00\x00\x00\xf8\xff'
p2722
tp2723
Rp2724
sg21
g11
(g15
S'\x00\x00\x00\x00\x00@Z@'
p2725
tp2726
Rp2727
sg34
g35
sg139
g11
(g142
S'\x06\x00\x00\x00\x00\x00\x00\x00'
p2728
tp2729
Rp2730
sg36
(dp2731
g21
g2727
sg139
g2730
sg149
g11
(g142
S'\x03\x00\x00\x00\x00\x00\x00\x00'
p2732
tp2733
Rp2734
sg38
g11
(g15
S'b\x18o\x83qe\xdb?'
p2735
tp2736
Rp2737
ssg42
g11
(g12
(S'S6'
p2738
I0
I1
tp2739
Rp2740
(I3
S'|'
p2741
NNNI6
I1
I0
tp2742
bS'ISOMAP'
p2743
tp2744
Rp2745
sg51
F0.2
sg149
g2734
sg52
g11
(g12
(S'S9'
p2746
I0
I1
tp2747
Rp2748
(I3
S'|'
p2749
NNNI9
I1
I0
tp2750
bS'inception'
p2751
tp2752
Rp2753
sg61
g11
(g15
S'=\xb11\xcb\xfb\xce\xe9?'
p2754
tp2755
Rp2756
sg65
g11
(g12
(S'S2'
p2757
I0
I1
tp2758
Rp2759
(I3
S'|'
p2760
NNNI2
I1
I0
tp2761
bS'RF'
p2762
tp2763
Rp2764
sg74
I3
sg38
g2737
sg75
g76
sg77
g11
(g15
S'e\xed\x08A\x88\xa4\xe9?'
p2765
tp2766
Rp2767
sg81
g82
sg83
g84
sbag4
(g5
g6
Ntp2768
Rp2769
(dp2770
g10
g11
(g15
S'\x00\x00\x00\x00\x00\x00\xf8\xff'
p2771
tp2772
Rp2773
sg21
g11
(g15
S'\x00\x00\x00\x00\x00\x00 @'
p2774
tp2775
Rp2776
sg25
g33
sg34
g35
sg36
(dp2777
g21
g2776
sg38
g11
(g15
S'\xe6\x103\xa7o\xec\xec?'
p2778
tp2779
Rp2780
sg25
g33
sg228
g11
(g142
S'\x02\x00\x00\x00\x00\x00\x00\x00'
p2781
tp2782
Rp2783
ssg42
g11
(g12
(S'S3'
p2784
I0
I1
tp2785
Rp2786
(I3
S'|'
p2787
NNNI3
I1
I0
tp2788
bS'PCA'
p2789
tp2790
Rp2791
sg51
F0.2
sg52
g11
(g12
(S'S8'
p2792
I0
I1
tp2793
Rp2794
(I3
S'|'
p2795
NNNI8
I1
I0
tp2796
bS'haralick'
p2797
tp2798
Rp2799
sg228
g2783
sg61
g11
(g15
S'\xa9\xe4\x9b\x86\x88N\xe4?'
p2800
tp2801
Rp2802
sg65
g11
(g12
(S'S2'
p2803
I0
I1
tp2804
Rp2805
(I3
S'|'
p2806
NNNI2
I1
I0
tp2807
bS'RF'
p2808
tp2809
Rp2810
sg74
I3
sg38
g2780
sg75
g76
sg77
g11
(g15
S'\xad\x7f\x00Ntt\xed?'
p2811
tp2812
Rp2813
sg81
g82
sg83
g84
sbag4
(g5
g6
Ntp2814
Rp2815
(dp2816
g10
g11
(g15
S'\x00\x00\x00\x00\x00\x00\xf8\xff'
p2817
tp2818
Rp2819
sg25
g33
sg34
g35
sg36
(dp2820
g25
g33
sg92
g11
(g15
S'K[\x11\x04\x1bE#@'
p2821
tp2822
Rp2823
sg96
g11
(g15
S')E\xa9Eo\xca\xf0?'
p2824
tp2825
Rp2826
ssg42
g11
(g12
(S'S3'
p2827
I0
I1
tp2828
Rp2829
(I3
S'|'
p2830
NNNI3
I1
I0
tp2831
bS'PCA'
p2832
tp2833
Rp2834
sg51
F0.2
sg96
g2826
sg52
g11
(g12
(S'S3'
p2835
I0
I1
tp2836
Rp2837
(I3
S'|'
p2838
NNNI3
I1
I0
tp2839
bS'VGG'
p2840
tp2841
Rp2842
sg92
g2823
sg61
g11
(g15
S's\xac\xae\xdc\xa8,\xcf?'
p2843
tp2844
Rp2845
sg65
g11
(g12
(S'S3'
p2846
I0
I1
tp2847
Rp2848
(I3
S'|'
p2849
NNNI3
I1
I0
tp2850
bS'SVM'
p2851
tp2852
Rp2853
sg74
I3
sg75
g76
sg77
g11
(g15
S'\xa5\x00\xffc\x17\x17\xed?'
p2854
tp2855
Rp2856
sg81
g82
sg83
g84
sbag4
(g5
g6
Ntp2857
Rp2858
(dp2859
g10
g11
(g15
S'\x00\x00\x00\x00\x00\x00\xf8\xff'
p2860
tp2861
Rp2862
sg139
g11
(g142
S'\x07\x00\x00\x00\x00\x00\x00\x00'
p2863
tp2864
Rp2865
sg34
g35
sg36
(dp2866
g139
g2865
sg92
g11
(g15
S'\xed\xb2\xcc\x8bY\xb92@'
p2867
tp2868
Rp2869
sg149
g11
(g142
S'\x03\x00\x00\x00\x00\x00\x00\x00'
p2870
tp2871
Rp2872
sg96
g11
(g15
S'\xb2W Q3\xca\x15@'
p2873
tp2874
Rp2875
ssg96
g2875
sg42
g11
(g12
(S'S6'
p2876
I0
I1
tp2877
Rp2878
(I3
S'|'
p2879
NNNI6
I1
I0
tp2880
bS'ISOMAP'
p2881
tp2882
Rp2883
sg51
F0.2
sg149
g2872
sg52
g11
(g12
(S'S9'
p2884
I0
I1
tp2885
Rp2886
(I3
S'|'
p2887
NNNI9
I1
I0
tp2888
bS'inception'
p2889
tp2890
Rp2891
sg92
g2869
sg61
g11
(g15
S'\x15YXF\x97\xd5\xd4?'
p2892
tp2893
Rp2894
sg65
g11
(g12
(S'S3'
p2895
I0
I1
tp2896
Rp2897
(I3
S'|'
p2898
NNNI3
I1
I0
tp2899
bS'SVM'
p2900
tp2901
Rp2902
sg74
I3
sg75
g76
sg77
g11
(g15
S'\xfb\x08|-0\xa2\xe4?'
p2903
tp2904
Rp2905
sg81
g82
sg83
g84
sbag4
(g5
g6
Ntp2906
Rp2907
(dp2908
g10
g11
(g15
S'\x00\x00\x00\x00\x00\x00\xf8\xff'
p2909
tp2910
Rp2911
sg25
g254
sg34
g35
sg36
(dp2912
g25
g254
sg92
g11
(g15
S'2#\x17\xbc\xa6\tR@'
p2913
tp2914
Rp2915
sg96
g11
(g15
S'\xc3\xba\xcb\x16\x02\x13\x14@'
p2916
tp2917
Rp2918
ssg42
g11
(g12
(S'S3'
p2919
I0
I1
tp2920
Rp2921
(I3
S'|'
p2922
NNNI3
I1
I0
tp2923
bS'PCA'
p2924
tp2925
Rp2926
sg51
F0.2
sg96
g2918
sg52
g11
(g12
(S'S3'
p2927
I0
I1
tp2928
Rp2929
(I3
S'|'
p2930
NNNI3
I1
I0
tp2931
bS'VGG'
p2932
tp2933
Rp2934
sg92
g2915
sg61
g11
(g15
S'\x02[\x03;\xa9"\xd0?'
p2935
tp2936
Rp2937
sg65
g11
(g12
(S'S3'
p2938
I0
I1
tp2939
Rp2940
(I3
S'|'
p2941
NNNI3
I1
I0
tp2942
bS'SVM'
p2943
tp2944
Rp2945
sg74
I3
sg75
g76
sg77
g11
(g15
S'\x0b,\x81\xea\xaa\xd1\xec?'
p2946
tp2947
Rp2948
sg81
g82
sg83
g84
sbag4
(g5
g6
Ntp2949
Rp2950
(dp2951
g10
g11
(g15
S'\x00\x00\x00\x00\x00\x00\xf8\xff'
p2952
tp2953
Rp2954
sg139
g11
(g142
S'\x03\x00\x00\x00\x00\x00\x00\x00'
p2955
tp2956
Rp2957
sg34
g35
sg36
(dp2958
g139
g2957
sg92
g11
(g15
S'\xc9\xc7%8\x8a\xd0!@'
p2959
tp2960
Rp2961
sg149
g11
(g142
S'\x02\x00\x00\x00\x00\x00\x00\x00'
p2962
tp2963
Rp2964
sg96
g11
(g15
S'\xc5\x95F\xa1\xea\x15\xf6?'
p2965
tp2966
Rp2967
ssg96
g2967
sg42
g11
(g12
(S'S6'
p2968
I0
I1
tp2969
Rp2970
(I3
S'|'
p2971
NNNI6
I1
I0
tp2972
bS'ISOMAP'
p2973
tp2974
Rp2975
sg51
F0.2
sg149
g2964
sg52
g11
(g12
(S'S3'
p2976
I0
I1
tp2977
Rp2978
(I3
S'|'
p2979
NNNI3
I1
I0
tp2980
bS'VGG'
p2981
tp2982
Rp2983
sg92
g2961
sg61
g11
(g15
S'{\xb5\x806\xc2G\xcd?'
p2984
tp2985
Rp2986
sg65
g11
(g12
(S'S3'
p2987
I0
I1
tp2988
Rp2989
(I3
S'|'
p2990
NNNI3
I1
I0
tp2991
bS'SVM'
p2992
tp2993
Rp2994
sg74
I3
sg75
g76
sg77
g11
(g15
S'\xc5\xf7\xf8\x80\xfe\x15\xeb?'
p2995
tp2996
Rp2997
sg81
g82
sg83
g84
sbag4
(g5
g6
Ntp2998
Rp2999
(dp3000
g10
g11
(g15
S'\x00\x00\x00\x00\x00\x00\xf8\xff'
p3001
tp3002
Rp3003
sg25
g33
sg34
g35
sg36
(dp3004
g25
g33
sg92
g11
(g15
S'\xea"\x9e9_\xddD@'
p3005
tp3006
Rp3007
sg96
g11
(g15
S'\x1f|\x90y=\xd3\x12@'
p3008
tp3009
Rp3010
ssg42
g11
(g12
(S'S3'
p3011
I0
I1
tp3012
Rp3013
(I3
S'|'
p3014
NNNI3
I1
I0
tp3015
bS'PCA'
p3016
tp3017
Rp3018
sg51
F0.2
sg96
g3010
sg52
g11
(g12
(S'S9'
p3019
I0
I1
tp3020
Rp3021
(I3
S'|'
p3022
NNNI9
I1
I0
tp3023
bS'inception'
p3024
tp3025
Rp3026
sg92
g3007
sg61
g11
(g15
S'\xe4:\xe0\xb3U{\xd4?'
p3027
tp3028
Rp3029
sg65
g11
(g12
(S'S3'
p3030
I0
I1
tp3031
Rp3032
(I3
S'|'
p3033
NNNI3
I1
I0
tp3034
bS'SVM'
p3035
tp3036
Rp3037
sg74
I3
sg75
g76
sg77
g11
(g15
S'OK\x02\x9a\xb0\x17\xe9?'
p3038
tp3039
Rp3040
sg81
g82
sg83
g84
sbag4
(g5
g6
Ntp3041
Rp3042
(dp3043
g10
g11
(g15
S'\x00\x00\x00\x00\x00\x00\xf8\xff'
p3044
tp3045
Rp3046
sg21
g11
(g15
S'\x00\x00\x00\x00\x00@a@'
p3047
tp3048
Rp3049
sg34
g35
sg139
g11
(g142
S'\x07\x00\x00\x00\x00\x00\x00\x00'
p3050
tp3051
Rp3052
sg36
(dp3053
g21
g3049
sg139
g3052
sg149
g11
(g142
S'\x02\x00\x00\x00\x00\x00\x00\x00'
p3054
tp3055
Rp3056
sg38
g11
(g15
S'~s\\,\xa2\x0e\xe2?'
p3057
tp3058
Rp3059
ssg42
g11
(g12
(S'S6'
p3060
I0
I1
tp3061
Rp3062
(I3
S'|'
p3063
NNNI6
I1
I0
tp3064
bS'ISOMAP'
p3065
tp3066
Rp3067
sg51
F0.2
sg149
g3056
sg52
g11
(g12
(S'S9'
p3068
I0
I1
tp3069
Rp3070
(I3
S'|'
p3071
NNNI9
I1
I0
tp3072
bS'inception'
p3073
tp3074
Rp3075
sg61
g11
(g15
S'9U\xfe{?^\xed?'
p3076
tp3077
Rp3078
sg65
g11
(g12
(S'S2'
p3079
I0
I1
tp3080
Rp3081
(I3
S'|'
p3082
NNNI2
I1
I0
tp3083
bS'RF'
p3084
tp3085
Rp3086
sg74
I3
sg38
g3059
sg75
g76
sg77
g11
(g15
S'g;}\xb5\xad\xb9\xe9?'
p3087
tp3088
Rp3089
sg81
g82
sg83
g84
sbag4
(g5
g6
Ntp3090
Rp3091
(dp3092
g10
g11
(g15
S'\x00\x00\x00\x00\x00\x00\xf8\xff'
p3093
tp3094
Rp3095
sg139
g11
(g142
S'\x06\x00\x00\x00\x00\x00\x00\x00'
p3096
tp3097
Rp3098
sg34
g35
sg36
(dp3099
g139
g3098
sg92
g11
(g15
S'M\xa7O\xc3\xf9MW@'
p3100
tp3101
Rp3102
sg149
g11
(g142
S'\x02\x00\x00\x00\x00\x00\x00\x00'
p3103
tp3104
Rp3105
sg96
g11
(g15
S'a\xc8@\xf8\x08\x8b\x05@'
p3106
tp3107
Rp3108
ssg96
g3108
sg42
g11
(g12
(S'S6'
p3109
I0
I1
tp3110
Rp3111
(I3
S'|'
p3112
NNNI6
I1
I0
tp3113
bS'ISOMAP'
p3114
tp3115
Rp3116
sg51
F0.2
sg149
g3105
sg52
g11
(g12
(S'S9'
p3117
I0
I1
tp3118
Rp3119
(I3
S'|'
p3120
NNNI9
I1
I0
tp3121
bS'inception'
p3122
tp3123
Rp3124
sg92
g3102
sg61
g11
(g15
S'\x8biq0Ky\xd4?'
p3125
tp3126
Rp3127
sg65
g11
(g12
(S'S3'
p3128
I0
I1
tp3129
Rp3130
(I3
S'|'
p3131
NNNI3
I1
I0
tp3132
bS'SVM'
p3133
tp3134
Rp3135
sg74
I3
sg75
g76
sg77
g11
(g15
S'\xb3;\xdf\x94\xf3\x9c\xe1?'
p3136
tp3137
Rp3138
sg81
g82
sg83
g84
sbag4
(g5
g6
Ntp3139
Rp3140
(dp3141
g10
g11
(g15
S'\x00\x00\x00\x00\x00\x00\xf8\xff'
p3142
tp3143
Rp3144
sg25
g254
sg34
g35
sg36
(dp3145
g25
g254
sg92
g11
(g15
S'n\x13\xea\xd9\x88\xf4)@'
p3146
tp3147
Rp3148
sg96
g11
(g15
S'Z\x1er\x97\x9a<\x15@'
p3149
tp3150
Rp3151
ssg42
g11
(g12
(S'S3'
p3152
I0
I1
tp3153
Rp3154
(I3
S'|'
p3155
NNNI3
I1
I0
tp3156
bS'PCA'
p3157
tp3158
Rp3159
sg51
F0.2
sg96
g3151
sg52
g11
(g12
(S'S9'
p3160
I0
I1
tp3161
Rp3162
(I3
S'|'
p3163
NNNI9
I1
I0
tp3164
bS'inception'
p3165
tp3166
Rp3167
sg92
g3148
sg61
g11
(g15
S'\x9dv\xd6~\xffH\xd4?'
p3168
tp3169
Rp3170
sg65
g11
(g12
(S'S3'
p3171
I0
I1
tp3172
Rp3173
(I3
S'|'
p3174
NNNI3
I1
I0
tp3175
bS'SVM'
p3176
tp3177
Rp3178
sg74
I3
sg75
g76
sg77
g11
(g15
S'y\xf6\xfa\xb8\xcf\xe7\xe8?'
p3179
tp3180
Rp3181
sg81
g82
sg83
g84
sbag4
(g5
g6
Ntp3182
Rp3183
(dp3184
g10
g11
(g15
S'\x00\x00\x00\x00\x00\x00\xf8\xff'
p3185
tp3186
Rp3187
sg21
g11
(g15
S'\x00\x00\x00\x00\x00`i@'
p3188
tp3189
Rp3190
sg34
g35
sg139
g11
(g142
S'\x05\x00\x00\x00\x00\x00\x00\x00'
p3191
tp3192
Rp3193
sg36
(dp3194
g21
g3190
sg139
g3193
sg228
g11
(g142
S'\x03\x00\x00\x00\x00\x00\x00\x00'
p3195
tp3196
Rp3197
sg149
g11
(g142
S'\x02\x00\x00\x00\x00\x00\x00\x00'
p3198
tp3199
Rp3200
sg38
g11
(g15
S'p\x01\x0f\x03d\xc6\xe2?'
p3201
tp3202
Rp3203
ssg42
g11
(g12
(S'S6'
p3204
I0
I1
tp3205
Rp3206
(I3
S'|'
p3207
NNNI6
I1
I0
tp3208
bS'ISOMAP'
p3209
tp3210
Rp3211
sg51
F0.2
sg149
g3200
sg52
g11
(g12
(S'S8'
p3212
I0
I1
tp3213
Rp3214
(I3
S'|'
p3215
NNNI8
I1
I0
tp3216
bS'haralick'
p3217
tp3218
Rp3219
sg228
g3197
sg61
g11
(g15
S'\xc9(3w\xd7\x9f\xe5?'
p3220
tp3221
Rp3222
sg65
g11
(g12
(S'S2'
p3223
I0
I1
tp3224
Rp3225
(I3
S'|'
p3226
NNNI2
I1
I0
tp3227
bS'RF'
p3228
tp3229
Rp3230
sg74
I3
sg38
g3203
sg75
g76
sg77
g11
(g15
S'l2\x01\x88}\x17\xed?'
p3231
tp3232
Rp3233
sg81
g82
sg83
g84
sbag4
(g5
g6
Ntp3234
Rp3235
(dp3236
g10
g11
(g15
S'\x00\x00\x00\x00\x00\x00\xf8\xff'
p3237
tp3238
Rp3239
sg139
g11
(g142
S'\x07\x00\x00\x00\x00\x00\x00\x00'
p3240
tp3241
Rp3242
sg34
g35
sg36
(dp3243
g139
g3242
sg92
g11
(g15
S'\x86v\xcd&\xcb\xb8B@'
p3244
tp3245
Rp3246
sg149
g11
(g142
S'\x02\x00\x00\x00\x00\x00\x00\x00'
p3247
tp3248
Rp3249
sg96
g11
(g15
S'\xa4"\xf8\x95\xe5\x92\x07@'
p3250
tp3251
Rp3252
ssg96
g3252
sg42
g11
(g12
(S'S6'
p3253
I0
I1
tp3254
Rp3255
(I3
S'|'
p3256
NNNI6
I1
I0
tp3257
bS'ISOMAP'
p3258
tp3259
Rp3260
sg51
F0.2
sg149
g3249
sg52
g11
(g12
(S'S3'
p3261
I0
I1
tp3262
Rp3263
(I3
S'|'
p3264
NNNI3
I1
I0
tp3265
bS'VGG'
p3266
tp3267
Rp3268
sg92
g3246
sg61
g11
(g15
S'\xa2$R\x7f0z\xd2?'
p3269
tp3270
Rp3271
sg65
g11
(g12
(S'S3'
p3272
I0
I1
tp3273
Rp3274
(I3
S'|'
p3275
NNNI3
I1
I0
tp3276
bS'SVM'
p3277
tp3278
Rp3279
sg74
I3
sg75
g76
sg77
g11
(g15
S'`Y\x00\x9d\x84\xd1\xeb?'
p3280
tp3281
Rp3282
sg81
g82
sg83
g84
sbag4
(g5
g6
Ntp3283
Rp3284
(dp3285
g10
g11
(g15
S'\x00\x00\x00\x00\x00\x00\xf8\xff'
p3286
tp3287
Rp3288
sg25
g254
sg34
g35
sg36
(dp3289
g25
g254
sg92
g11
(g15
S'Y\xa2\xce\xf3\x92\x9fP@'
p3290
tp3291
Rp3292
sg96
g11
(g15
S'B\xbeIf\xfb\xe0\x14@'
p3293
tp3294
Rp3295
ssg42
g11
(g12
(S'S3'
p3296
I0
I1
tp3297
Rp3298
(I3
S'|'
p3299
NNNI3
I1
I0
tp3300
bS'PCA'
p3301
tp3302
Rp3303
sg51
F0.2
sg96
g3295
sg52
g11
(g12
(S'S9'
p3304
I0
I1
tp3305
Rp3306
(I3
S'|'
p3307
NNNI9
I1
I0
tp3308
bS'inception'
p3309
tp3310
Rp3311
sg92
g3292
sg61
g11
(g15
S'\xd5\xf8\xc0\x169\xab\xd4?'
p3312
tp3313
Rp3314
sg65
g11
(g12
(S'S3'
p3315
I0
I1
tp3316
Rp3317
(I3
S'|'
p3318
NNNI3
I1
I0
tp3319
bS'SVM'
p3320
tp3321
Rp3322
sg74
I3
sg75
g76
sg77
g11
(g15
S'\x93\xe2\x052)^\xe8?'
p3323
tp3324
Rp3325
sg81
g82
sg83
g84
sbag4
(g5
g6
Ntp3326
Rp3327
(dp3328
g10
g11
(g15
S'\x00\x00\x00\x00\x00\x00\xf8\xff'
p3329
tp3330
Rp3331
sg21
g11
(g15
S'\x00\x00\x00\x00\x00\xc0p@'
p3332
tp3333
Rp3334
sg25
g33
sg34
g35
sg36
(dp3335
g21
g3334
sg38
g11
(g15
S'\xb4\xb2\xa2q=\x02\xeb?'
p3336
tp3337
Rp3338
sg25
g33
ssg42
g11
(g12
(S'S3'
p3339
I0
I1
tp3340
Rp3341
(I3
S'|'
p3342
NNNI3
I1
I0
tp3343
bS'PCA'
p3344
tp3345
Rp3346
sg51
F0.2
sg52
g11
(g12
(S'S9'
p3347
I0
I1
tp3348
Rp3349
(I3
S'|'
p3350
NNNI9
I1
I0
tp3351
bS'inception'
p3352
tp3353
Rp3354
sg61
g11
(g15
S'hTR\x9e\xabd\xe0?'
p3355
tp3356
Rp3357
sg65
g11
(g12
(S'S2'
p3358
I0
I1
tp3359
Rp3360
(I3
S'|'
p3361
NNNI2
I1
I0
tp3362
bS'RF'
p3363
tp3364
Rp3365
sg74
I3
sg38
g3338
sg75
g76
sg77
g11
(g15
S'\xc3\x84\x82#\x18\x8c\xeb?'
p3366
tp3367
Rp3368
sg81
g82
sg83
g84
sbag4
(g5
g6
Ntp3369
Rp3370
(dp3371
g10
g11
(g15
S'\x00\x00\x00\x00\x00\x00\xf8\xff'
p3372
tp3373
Rp3374
sg139
g11
(g142
S'\x07\x00\x00\x00\x00\x00\x00\x00'
p3375
tp3376
Rp3377
sg34
g35
sg36
(dp3378
g139
g3377
sg92
g11
(g15
S'B\x98\x0f\xefR|V@'
p3379
tp3380
Rp3381
sg149
g11
(g142
S'\x03\x00\x00\x00\x00\x00\x00\x00'
p3382
tp3383
Rp3384
sg96
g11
(g15
S'\x82\xd3\xec\xc5\\|\x0f@'
p3385
tp3386
Rp3387
ssg96
g3387
sg42
g11
(g12
(S'S6'
p3388
I0
I1
tp3389
Rp3390
(I3
S'|'
p3391
NNNI6
I1
I0
tp3392
bS'ISOMAP'
p3393
tp3394
Rp3395
sg51
F0.2
sg149
g3384
sg52
g11
(g12
(S'S3'
p3396
I0
I1
tp3397
Rp3398
(I3
S'|'
p3399
NNNI3
I1
I0
tp3400
bS'VGG'
p3401
tp3402
Rp3403
sg92
g3381
sg61
g11
(g15
S'_+\xbfns\x1c\xd1?'
p3404
tp3405
Rp3406
sg65
g11
(g12
(S'S3'
p3407
I0
I1
tp3408
Rp3409
(I3
S'|'
p3410
NNNI3
I1
I0
tp3411
bS'SVM'
p3412
tp3413
Rp3414
sg74
I3
sg75
g76
sg77
g11
(g15
S'\x19O\x86\xa7%\x01\xed?'
p3415
tp3416
Rp3417
sg81
g82
sg83
g84
sbag4
(g5
g6
Ntp3418
Rp3419
(dp3420
g10
g11
(g15
S'\x00\x00\x00\x00\x00\x00\xf8\xff'
p3421
tp3422
Rp3423
sg21
g11
(g15
S'\x00\x00\x00\x00\x00@Z@'
p3424
tp3425
Rp3426
sg25
g33
sg34
g35
sg36
(dp3427
g21
g3426
sg38
g11
(g15
S'\xb4\x8b\xee\x89\xac\xa9\xe5?'
p3428
tp3429
Rp3430
sg25
g33
ssg42
g11
(g12
(S'S3'
p3431
I0
I1
tp3432
Rp3433
(I3
S'|'
p3434
NNNI3
I1
I0
tp3435
bS'PCA'
p3436
tp3437
Rp3438
sg51
F0.2
sg52
g11
(g12
(S'S9'
p3439
I0
I1
tp3440
Rp3441
(I3
S'|'
p3442
NNNI9
I1
I0
tp3443
bS'inception'
p3444
tp3445
Rp3446
sg61
g11
(g15
S'\xd2S\xbc\x991>\xe0?'
p3447
tp3448
Rp3449
sg65
g11
(g12
(S'S2'
p3450
I0
I1
tp3451
Rp3452
(I3
S'|'
p3453
NNNI2
I1
I0
tp3454
bS'RF'
p3455
tp3456
Rp3457
sg74
I3
sg38
g3430
sg75
g76
sg77
g11
(g15
S'h\xfd\x03p\xa2\xa3\xeb?'
p3458
tp3459
Rp3460
sg81
g82
sg83
g84
sbag4
(g5
g6
Ntp3461
Rp3462
(dp3463
g10
g11
(g15
S'\x00\x00\x00\x00\x00\x00\xf8\xff'
p3464
tp3465
Rp3466
sg21
g11
(g15
S'\x00\x00\x00\x00\x00\x00D@'
p3467
tp3468
Rp3469
sg25
g254
sg34
g35
sg36
(dp3470
g21
g3469
sg38
g11
(g15
S'C\xac\x93\x17xS\xdb?'
p3471
tp3472
Rp3473
sg25
g254
sg228
g11
(g142
S'\x02\x00\x00\x00\x00\x00\x00\x00'
p3474
tp3475
Rp3476
ssg42
g11
(g12
(S'S3'
p3477
I0
I1
tp3478
Rp3479
(I3
S'|'
p3480
NNNI3
I1
I0
tp3481
bS'PCA'
p3482
tp3483
Rp3484
sg51
F0.2
sg52
g11
(g12
(S'S8'
p3485
I0
I1
tp3486
Rp3487
(I3
S'|'
p3488
NNNI8
I1
I0
tp3489
bS'haralick'
p3490
tp3491
Rp3492
sg228
g3476
sg61
g11
(g15
S'\x80\xcf\x8aRm\xc9\xe1?'
p3493
tp3494
Rp3495
sg65
g11
(g12
(S'S2'
p3496
I0
I1
tp3497
Rp3498
(I3
S'|'
p3499
NNNI2
I1
I0
tp3500
bS'RF'
p3501
tp3502
Rp3503
sg74
I3
sg38
g3473
sg75
g76
sg77
g11
(g15
S'\xcf8\x81%P]\xed?'
p3504
tp3505
Rp3506
sg81
g82
sg83
g84
sbag4
(g5
g6
Ntp3507
Rp3508
(dp3509
g10
g11
(g15
S'\x00\x00\x00\x00\x00\x00\xf8\xff'
p3510
tp3511
Rp3512
sg21
g11
(g15
S'\x00\x00\x00\x00\x00@e@'
p3513
tp3514
Rp3515
sg25
g33
sg34
g35
sg36
(dp3516
g21
g3515
sg38
g11
(g15
S't\xf3\xb0nh\xdb\xee?'
p3517
tp3518
Rp3519
sg25
g33
sg228
g11
(g142
S'\x01\x00\x00\x00\x00\x00\x00\x00'
p3520
tp3521
Rp3522
ssg42
g11
(g12
(S'S3'
p3523
I0
I1
tp3524
Rp3525
(I3
S'|'
p3526
NNNI3
I1
I0
tp3527
bS'PCA'
p3528
tp3529
Rp3530
sg51
F0.2
sg52
g11
(g12
(S'S8'
p3531
I0
I1
tp3532
Rp3533
(I3
S'|'
p3534
NNNI8
I1
I0
tp3535
bS'haralick'
p3536
tp3537
Rp3538
sg228
g3522
sg61
g11
(g15
S'\x0b@|\x12\xe7\xf1\xe3?'
p3539
tp3540
Rp3541
sg65
g11
(g12
(S'S2'
p3542
I0
I1
tp3543
Rp3544
(I3
S'|'
p3545
NNNI2
I1
I0
tp3546
bS'RF'
p3547
tp3548
Rp3549
sg74
I3
sg38
g3519
sg75
g76
sg77
g11
(g15
S'\xdbt\xfd>\x15.\xec?'
p3550
tp3551
Rp3552
sg81
g82
sg83
g84
sbag4
(g5
g6
Ntp3553
Rp3554
(dp3555
g10
g11
(g15
S'\x00\x00\x00\x00\x00\x00\xf8\xff'
p3556
tp3557
Rp3558
sg21
g11
(g15
S'\x00\x00\x00\x00\x00`m@'
p3559
tp3560
Rp3561
sg25
g33
sg34
g35
sg36
(dp3562
g21
g3561
sg38
g11
(g15
S'\x82\xca\x7f\x00\x13\xd7\xe2?'
p3563
tp3564
Rp3565
sg25
g33
ssg42
g11
(g12
(S'S3'
p3566
I0
I1
tp3567
Rp3568
(I3
S'|'
p3569
NNNI3
I1
I0
tp3570
bS'PCA'
p3571
tp3572
Rp3573
sg51
F0.2
sg52
g11
(g12
(S'S3'
p3574
I0
I1
tp3575
Rp3576
(I3
S'|'
p3577
NNNI3
I1
I0
tp3578
bS'VGG'
p3579
tp3580
Rp3581
sg61
g11
(g15
S'l\xcf\x1c\xf8\x12!\xd0?'
p3582
tp3583
Rp3584
sg65
g11
(g12
(S'S2'
p3585
I0
I1
tp3586
Rp3587
(I3
S'|'
p3588
NNNI2
I1
I0
tp3589
bS'RF'
p3590
tp3591
Rp3592
sg74
I3
sg38
g3565
sg75
g76
sg77
g11
(g15
S'8\xbe\x02\xad\x7f\x00\xee?'
p3593
tp3594
Rp3595
sg81
g82
sg83
g84
sbag4
(g5
g6
Ntp3596
Rp3597
(dp3598
g10
g11
(g15
S'\x00\x00\x00\x00\x00\x00\xf8\xff'
p3599
tp3600
Rp3601
sg21
g11
(g15
S'\x00\x00\x00\x00\x00`m@'
p3602
tp3603
Rp3604
sg25
g254
sg34
g35
sg36
(dp3605
g21
g3604
sg38
g11
(g15
S'\x92\xbd\xbfA\xab\xb0\xe0?'
p3606
tp3607
Rp3608
sg25
g254
ssg42
g11
(g12
(S'S3'
p3609
I0
I1
tp3610
Rp3611
(I3
S'|'
p3612
NNNI3
I1
I0
tp3613
bS'PCA'
p3614
tp3615
Rp3616
sg51
F0.2
sg52
g11
(g12
(S'S3'
p3617
I0
I1
tp3618
Rp3619
(I3
S'|'
p3620
NNNI3
I1
I0
tp3621
bS'VGG'
p3622
tp3623
Rp3624
sg61
g11
(g15
S'\xf80\xa1\x7f\x8aw\xcf?'
p3625
tp3626
Rp3627
sg65
g11
(g12
(S'S2'
p3628
I0
I1
tp3629
Rp3630
(I3
S'|'
p3631
NNNI2
I1
I0
tp3632
bS'RF'
p3633
tp3634
Rp3635
sg74
I3
sg38
g3608
sg75
g76
sg77
g11
(g15
S'\xb4\xfe\x018\xd1\xd1\xed?'
p3636
tp3637
Rp3638
sg81
g82
sg83
g84
sbag4
(g5
g6
Ntp3639
Rp3640
(dp3641
g10
g11
(g15
S'\x00\x00\x00\x00\x00\x00\xf8\xff'
p3642
tp3643
Rp3644
sg21
g11
(g15
S'\x00\x00\x00\x00\x00@e@'
p3645
tp3646
Rp3647
sg34
g35
sg139
g11
(g142
S'\x06\x00\x00\x00\x00\x00\x00\x00'
p3648
tp3649
Rp3650
sg36
(dp3651
g21
g3647
sg139
g3650
sg228
g11
(g142
S'\x01\x00\x00\x00\x00\x00\x00\x00'
p3652
tp3653
Rp3654
sg149
g11
(g142
S'\x02\x00\x00\x00\x00\x00\x00\x00'
p3655
tp3656
Rp3657
sg38
g11
(g15
S']6L\xb5\xeb\x9a\xe4?'
p3658
tp3659
Rp3660
ssg42
g11
(g12
(S'S6'
p3661
I0
I1
tp3662
Rp3663
(I3
S'|'
p3664
NNNI6
I1
I0
tp3665
bS'ISOMAP'
p3666
tp3667
Rp3668
sg51
F0.2
sg149
g3657
sg52
g11
(g12
(S'S8'
p3669
I0
I1
tp3670
Rp3671
(I3
S'|'
p3672
NNNI8
I1
I0
tp3673
bS'haralick'
p3674
tp3675
Rp3676
sg228
g3654
sg61
g11
(g15
S'c\x18\x90\xcfNj\xd7?'
p3677
tp3678
Rp3679
sg65
g11
(g12
(S'S2'
p3680
I0
I1
tp3681
Rp3682
(I3
S'|'
p3683
NNNI2
I1
I0
tp3684
bS'RF'
p3685
tp3686
Rp3687
sg74
I3
sg38
g3660
sg75
g76
sg77
g11
(g15
S'\xe7M\xfe)\x0et\xed?'
p3688
tp3689
Rp3690
sg81
g82
sg83
g84
sbag4
(g5
g6
Ntp3691
Rp3692
(dp3693
g10
g11
(g15
S'\x00\x00\x00\x00\x00\x00\xf8\xff'
p3694
tp3695
Rp3696
sg21
g11
(g15
S'\x00\x00\x00\x00\x00\x00 @'
p3697
tp3698
Rp3699
sg25
g33
sg34
g35
sg36
(dp3700
g21
g3699
sg38
g11
(g15
S'2U\x81\xc5\x8e\xea\xe0?'
p3701
tp3702
Rp3703
sg25
g33
ssg42
g11
(g12
(S'S3'
p3704
I0
I1
tp3705
Rp3706
(I3
S'|'
p3707
NNNI3
I1
I0
tp3708
bS'PCA'
p3709
tp3710
Rp3711
sg51
F0.2
sg52
g11
(g12
(S'S3'
p3712
I0
I1
tp3713
Rp3714
(I3
S'|'
p3715
NNNI3
I1
I0
tp3716
bS'VGG'
p3717
tp3718
Rp3719
sg61
g11
(g15
S'\xe1AU5aX\xe9?'
p3720
tp3721
Rp3722
sg65
g11
(g12
(S'S2'
p3723
I0
I1
tp3724
Rp3725
(I3
S'|'
p3726
NNNI2
I1
I0
tp3727
bS'RF'
p3728
tp3729
Rp3730
sg74
I3
sg38
g3703
sg75
g76
sg77
g11
(g15
S'Xw\x83\x84[\xe9\xed?'
p3731
tp3732
Rp3733
sg81
g82
sg83
g84
sbag4
(g5
g6
Ntp3734
Rp3735
(dp3736
g10
g11
(g15
S'\x00\x00\x00\x00\x00\x00\xf8\xff'
p3737
tp3738
Rp3739
sg25
g33
sg34
g35
sg36
(dp3740
g25
g33
sg92
g11
(g15
S'E\xcc\r]+\x07Q@'
p3741
tp3742
Rp3743
sg228
g11
(g142
S'\x01\x00\x00\x00\x00\x00\x00\x00'
p3744
tp3745
Rp3746
sg96
g11
(g15
S'\xb1V\xb2\xd9\xc1\x01\xee?'
p3747
tp3748
Rp3749
ssg42
g11
(g12
(S'S3'
p3750
I0
I1
tp3751
Rp3752
(I3
S'|'
p3753
NNNI3
I1
I0
tp3754
bS'PCA'
p3755
tp3756
Rp3757
sg51
F0.2
sg96
g3749
sg52
g11
(g12
(S'S8'
p3758
I0
I1
tp3759
Rp3760
(I3
S'|'
p3761
NNNI8
I1
I0
tp3762
bS'haralick'
p3763
tp3764
Rp3765
sg92
g3743
sg228
g3746
sg61
g11
(g15
S'\xf0S_\xdf\x9f\xbb\xcd?'
p3766
tp3767
Rp3768
sg65
g11
(g12
(S'S3'
p3769
I0
I1
tp3770
Rp3771
(I3
S'|'
p3772
NNNI3
I1
I0
tp3773
bS'SVM'
p3774
tp3775
Rp3776
sg74
I3
sg75
g76
sg77
g11
(g15
S'{\xb8\x81s\xc4\xd1\xea?'
p3777
tp3778
Rp3779
sg81
g82
sg83
g84
sbag4
(g5
g6
Ntp3780
Rp3781
(dp3782
g10
g11
(g15
S'\x00\x00\x00\x00\x00\x00\xf8\xff'
p3783
tp3784
Rp3785
sg21
g11
(g15
S'\x00\x00\x00\x00\x00`m@'
p3786
tp3787
Rp3788
sg25
g33
sg34
g35
sg36
(dp3789
g21
g3788
sg38
g11
(g15
S'\x9cI\xcb\x96\xb6\x8c\xec?'
p3790
tp3791
Rp3792
sg25
g33
sg228
g11
(g142
S'\x03\x00\x00\x00\x00\x00\x00\x00'
p3793
tp3794
Rp3795
ssg42
g11
(g12
(S'S3'
p3796
I0
I1
tp3797
Rp3798
(I3
S'|'
p3799
NNNI3
I1
I0
tp3800
bS'PCA'
p3801
tp3802
Rp3803
sg51
F0.2
sg52
g11
(g12
(S'S8'
p3804
I0
I1
tp3805
Rp3806
(I3
S'|'
p3807
NNNI8
I1
I0
tp3808
bS'haralick'
p3809
tp3810
Rp3811
sg228
g3795
sg61
g11
(g15
S"\xc8['1Fe\xe6?"
p3812
tp3813
Rp3814
sg65
g11
(g12
(S'S2'
p3815
I0
I1
tp3816
Rp3817
(I3
S'|'
p3818
NNNI2
I1
I0
tp3819
bS'RF'
p3820
tp3821
Rp3822
sg74
I3
sg38
g3792
sg75
g76
sg77
g11
(g15
S'\xb8\x96z~x\xd0\xec?'
p3823
tp3824
Rp3825
sg81
g82
sg83
g84
sbag4
(g5
g6
Ntp3826
Rp3827
(dp3828
g10
g11
(g15
S'\x00\x00\x00\x00\x00\x00\xf8\xff'
p3829
tp3830
Rp3831
sg21
g11
(g15
S'\x00\x00\x00\x00\x00@e@'
p3832
tp3833
Rp3834
sg34
g35
sg139
g11
(g142
S'\x03\x00\x00\x00\x00\x00\x00\x00'
p3835
tp3836
Rp3837
sg36
(dp3838
g21
g3834
sg139
g3837
sg149
g11
(g142
S'\x03\x00\x00\x00\x00\x00\x00\x00'
p3839
tp3840
Rp3841
sg38
g11
(g15
S'j]\x1cv"\x86\xe9?'
p3842
tp3843
Rp3844
ssg42
g11
(g12
(S'S6'
p3845
I0
I1
tp3846
Rp3847
(I3
S'|'
p3848
NNNI6
I1
I0
tp3849
bS'ISOMAP'
p3850
tp3851
Rp3852
sg51
F0.2
sg149
g3841
sg52
g11
(g12
(S'S9'
p3853
I0
I1
tp3854
Rp3855
(I3
S'|'
p3856
NNNI9
I1
I0
tp3857
bS'inception'
p3858
tp3859
Rp3860
sg61
g11
(g15
S"e\xd6#' 0\xee?"
p3861
tp3862
Rp3863
sg65
g11
(g12
(S'S2'
p3864
I0
I1
tp3865
Rp3866
(I3
S'|'
p3867
NNNI2
I1
I0
tp3868
bS'RF'
p3869
tp3870
Rp3871
sg74
I3
sg38
g3844
sg75
g76
sg77
g11
(g15
S'p\x04\x83q\x8c\x00\xe9?'
p3872
tp3873
Rp3874
sg81
g82
sg83
g84
sbag4
(g5
g6
Ntp3875
Rp3876
(dp3877
g10
g11
(g15
S'\x00\x00\x00\x00\x00\x00\xf8\xff'
p3878
tp3879
Rp3880
sg139
g11
(g142
S'\x06\x00\x00\x00\x00\x00\x00\x00'
p3881
tp3882
Rp3883
sg34
g35
sg36
(dp3884
g139
g3883
sg92
g11
(g15
S'\xb0\x97\\\xe0\xed\x97K@'
p3885
tp3886
Rp3887
sg149
g11
(g142
S'\x02\x00\x00\x00\x00\x00\x00\x00'
p3888
tp3889
Rp3890
sg96
g11
(g15
S'\xf7\xcc1r>\x98\x12@'
p3891
tp3892
Rp3893
ssg96
g3893
sg42
g11
(g12
(S'S6'
p3894
I0
I1
tp3895
Rp3896
(I3
S'|'
p3897
NNNI6
I1
I0
tp3898
bS'ISOMAP'
p3899
tp3900
Rp3901
sg51
F0.2
sg149
g3890
sg52
g11
(g12
(S'S9'
p3902
I0
I1
tp3903
Rp3904
(I3
S'|'
p3905
NNNI9
I1
I0
tp3906
bS'inception'
p3907
tp3908
Rp3909
sg92
g3887
sg61
g11
(g15
S'\xa5\xfa\x18\xe1\xb8\x12\xd4?'
p3910
tp3911
Rp3912
sg65
g11
(g12
(S'S3'
p3913
I0
I1
tp3914
Rp3915
(I3
S'|'
p3916
NNNI3
I1
I0
tp3917
bS'SVM'
p3918
tp3919
Rp3920
sg74
I3
sg75
g76
sg77
g11
(g15
S'UA\xea\x83\x97*\xe2?'
p3921
tp3922
Rp3923
sg81
g82
sg83
g84
sbag4
(g5
g6
Ntp3924
Rp3925
(dp3926
g10
g11
(g15
S'\x00\x00\x00\x00\x00\x00\xf8\xff'
p3927
tp3928
Rp3929
sg21
g11
(g15
S'\x00\x00\x00\x00\x00\x00 @'
p3930
tp3931
Rp3932
sg34
g35
sg139
g11
(g142
S'\x06\x00\x00\x00\x00\x00\x00\x00'
p3933
tp3934
Rp3935
sg36
(dp3936
g21
g3932
sg139
g3935
sg228
g11
(g142
S'\x01\x00\x00\x00\x00\x00\x00\x00'
p3937
tp3938
Rp3939
sg149
g11
(g142
S'\x04\x00\x00\x00\x00\x00\x00\x00'
p3940
tp3941
Rp3942
sg38
g11
(g15
S'\x10D\x8b\x7f\xf9\x19\xea?'
p3943
tp3944
Rp3945
ssg42
g11
(g12
(S'S6'
p3946
I0
I1
tp3947
Rp3948
(I3
S'|'
p3949
NNNI6
I1
I0
tp3950
bS'ISOMAP'
p3951
tp3952
Rp3953
sg51
F0.2
sg149
g3942
sg52
g11
(g12
(S'S8'
p3954
I0
I1
tp3955
Rp3956
(I3
S'|'
p3957
NNNI8
I1
I0
tp3958
bS'haralick'
p3959
tp3960
Rp3961
sg228
g3939
sg61
g11
(g15
S']\x13\xaa\xe2\xc36\xe7?'
p3962
tp3963
Rp3964
sg65
g11
(g12
(S'S2'
p3965
I0
I1
tp3966
Rp3967
(I3
S'|'
p3968
NNNI2
I1
I0
tp3969
bS'RF'
p3970
tp3971
Rp3972
sg74
I3
sg38
g3945
sg75
g76
sg77
g11
(g15
S'\xc8\xb9\x7f;\xf3\xff\xec?'
p3973
tp3974
Rp3975
sg81
g82
sg83
g84
sbag4
(g5
g6
Ntp3976
Rp3977
(dp3978
g10
g11
(g15
S'\x00\x00\x00\x00\x00\x00\xf8\xff'
p3979
tp3980
Rp3981
sg21
g11
(g15
S'\x00\x00\x00\x00\x00\xc0r@'
p3982
tp3983
Rp3984
sg34
g35
sg139
g11
(g142
S'\x04\x00\x00\x00\x00\x00\x00\x00'
p3985
tp3986
Rp3987
sg36
(dp3988
g21
g3984
sg139
g3987
sg149
g11
(g142
S'\x02\x00\x00\x00\x00\x00\x00\x00'
p3989
tp3990
Rp3991
sg38
g11
(g15
S'\xc1\xf5p\xce\x0cu\xd8?'
p3992
tp3993
Rp3994
ssg42
g11
(g12
(S'S6'
p3995
I0
I1
tp3996
Rp3997
(I3
S'|'
p3998
NNNI6
I1
I0
tp3999
bS'ISOMAP'
p4000
tp4001
Rp4002
sg51
F0.2
sg149
g3991
sg52
g11
(g12
(S'S9'
p4003
I0
I1
tp4004
Rp4005
(I3
S'|'
p4006
NNNI9
I1
I0
tp4007
bS'inception'
p4008
tp4009
Rp4010
sg61
g11
(g15
S'\x89\x8f\x12\x1c\xb8&\xed?'
p4011
tp4012
Rp4013
sg65
g11
(g12
(S'S2'
p4014
I0
I1
tp4015
Rp4016
(I3
S'|'
p4017
NNNI2
I1
I0
tp4018
bS'RF'
p4019
tp4020
Rp4021
sg74
I3
sg38
g3994
sg75
g76
sg77
g11
(g15
S'\xbbC\xfa~\xc6D\xe9?'
p4022
tp4023
Rp4024
sg81
g82
sg83
g84
sbag4
(g5
g6
Ntp4025
Rp4026
(dp4027
g10
g11
(g15
S'\x00\x00\x00\x00\x00\x00\xf8\xff'
p4028
tp4029
Rp4030
sg25
g33
sg34
g35
sg36
(dp4031
g25
g33
sg92
g11
(g15
S'`\x82\xf6\x88V\xe2<@'
p4032
tp4033
Rp4034
sg228
g11
(g142
S'\x03\x00\x00\x00\x00\x00\x00\x00'
p4035
tp4036
Rp4037
sg96
g11
(g15
S'\\\n\x8dw\x84\x87\x14@'
p4038
tp4039
Rp4040
ssg42
g11
(g12
(S'S3'
p4041
I0
I1
tp4042
Rp4043
(I3
S'|'
p4044
NNNI3
I1
I0
tp4045
bS'PCA'
p4046
tp4047
Rp4048
sg51
F0.2
sg96
g4040
sg52
g11
(g12
(S'S8'
p4049
I0
I1
tp4050
Rp4051
(I3
S'|'
p4052
NNNI8
I1
I0
tp4053
bS'haralick'
p4054
tp4055
Rp4056
sg92
g4034
sg228
g4037
sg61
g11
(g15
S'<\xb7I\xbb\x8f\xfe\xd0?'
p4057
tp4058
Rp4059
sg65
g11
(g12
(S'S3'
p4060
I0
I1
tp4061
Rp4062
(I3
S'|'
p4063
NNNI3
I1
I0
tp4064
bS'SVM'
p4065
tp4066
Rp4067
sg74
I3
sg75
g76
sg77
g11
(g15
S'`~\x02\x86EF\xeb?'
p4068
tp4069
Rp4070
sg81
g82
sg83
g84
sbag4
(g5
g6
Ntp4071
Rp4072
(dp4073
g10
g11
(g15
S'\x00\x00\x00\x00\x00\x00\xf8\xff'
p4074
tp4075
Rp4076
sg21
g11
(g15
S'\x00\x00\x00\x00\x00\xc0r@'
p4077
tp4078
Rp4079
sg34
g35
sg139
g11
(g142
S'\x05\x00\x00\x00\x00\x00\x00\x00'
p4080
tp4081
Rp4082
sg36
(dp4083
g21
g4079
sg139
g4082
sg228
g11
(g142
S'\x03\x00\x00\x00\x00\x00\x00\x00'
p4084
tp4085
Rp4086
sg149
g11
(g142
S'\x04\x00\x00\x00\x00\x00\x00\x00'
p4087
tp4088
Rp4089
sg38
g11
(g15
S'\x80u\xc0\x03\xcd!\xec?'
p4090
tp4091
Rp4092
ssg42
g11
(g12
(S'S6'
p4093
I0
I1
tp4094
Rp4095
(I3
S'|'
p4096
NNNI6
I1
I0
tp4097
bS'ISOMAP'
p4098
tp4099
Rp4100
sg51
F0.2
sg149
g4089
sg52
g11
(g12
(S'S8'
p4101
I0
I1
tp4102
Rp4103
(I3
S'|'
p4104
NNNI8
I1
I0
tp4105
bS'haralick'
p4106
tp4107
Rp4108
sg228
g4086
sg61
g11
(g15
S'\xc5\xd9\x9f\x9a\xe1\xfe\xd8?'
p4109
tp4110
Rp4111
sg65
g11
(g12
(S'S2'
p4112
I0
I1
tp4113
Rp4114
(I3
S'|'
p4115
NNNI2
I1
I0
tp4116
bS'RF'
p4117
tp4118
Rp4119
sg74
I3
sg38
g4092
sg75
g76
sg77
g11
(g15
S'\xf1\x16\x04\xe6\xec\xba\xec?'
p4120
tp4121
Rp4122
sg81
g82
sg83
g84
sbag4
(g5
g6
Ntp4123
Rp4124
(dp4125
g10
g11
(g15
S'\x00\x00\x00\x00\x00\x00\xf8\xff'
p4126
tp4127
Rp4128
sg21
g11
(g15
S'\x00\x00\x00\x00\x00`m@'
p4129
tp4130
Rp4131
sg34
g35
sg139
g11
(g142
S'\x03\x00\x00\x00\x00\x00\x00\x00'
p4132
tp4133
Rp4134
sg36
(dp4135
g21
g4131
sg139
g4134
sg149
g11
(g142
S'\x03\x00\x00\x00\x00\x00\x00\x00'
p4136
tp4137
Rp4138
sg38
g11
(g15
S'\x9c\xe6\xa1\xd2\xcf\xfb\xe1?'
p4139
tp4140
Rp4141
ssg42
g11
(g12
(S'S6'
p4142
I0
I1
tp4143
Rp4144
(I3
S'|'
p4145
NNNI6
I1
I0
tp4146
bS'ISOMAP'
p4147
tp4148
Rp4149
sg51
F0.2
sg149
g4138
sg52
g11
(g12
(S'S9'
p4150
I0
I1
tp4151
Rp4152
(I3
S'|'
p4153
NNNI9
I1
I0
tp4154
bS'inception'
p4155
tp4156
Rp4157
sg61
g11
(g15
S'e\xa8~\xcc\xcc\x15\xee?'
p4158
tp4159
Rp4160
sg65
g11
(g12
(S'S2'
p4161
I0
I1
tp4162
Rp4163
(I3
S'|'
p4164
NNNI2
I1
I0
tp4165
bS'RF'
p4166
tp4167
Rp4168
sg74
I3
sg38
g4141
sg75
g76
sg77
g11
(g15
S'\x9ba\x07\x1c\x86\xbb\xe8?'
p4169
tp4170
Rp4171
sg81
g82
sg83
g84
sbag4
(g5
g6
Ntp4172
Rp4173
(dp4174
g10
g11
(g15
S'\x00\x00\x00\x00\x00\x00\xf8\xff'
p4175
tp4176
Rp4177
sg25
g254
sg34
g35
sg36
(dp4178
g25
g254
sg92
g11
(g15
S'\xea\x14\xc7\xde?\xe28@'
p4179
tp4180
Rp4181
sg228
g11
(g142
S'\x01\x00\x00\x00\x00\x00\x00\x00'
p4182
tp4183
Rp4184
sg96
g11
(g15
S'\xf1\x8db\x1c~\x98\xf9?'
p4185
tp4186
Rp4187
ssg42
g11
(g12
(S'S3'
p4188
I0
I1
tp4189
Rp4190
(I3
S'|'
p4191
NNNI3
I1
I0
tp4192
bS'PCA'
p4193
tp4194
Rp4195
sg51
F0.2
sg96
g4187
sg52
g11
(g12
(S'S8'
p4196
I0
I1
tp4197
Rp4198
(I3
S'|'
p4199
NNNI8
I1
I0
tp4200
bS'haralick'
p4201
tp4202
Rp4203
sg92
g4181
sg228
g4184
sg61
g11
(g15
S'\xad\xf8D\xfa\x98\x06\xcd?'
p4204
tp4205
Rp4206
sg65
g11
(g12
(S'S3'
p4207
I0
I1
tp4208
Rp4209
(I3
S'|'
p4210
NNNI3
I1
I0
tp4211
bS'SVM'
p4212
tp4213
Rp4214
sg74
I3
sg75
g76
sg77
g11
(g15
S"\xd7?\x00':\xba\xea?"
p4215
tp4216
Rp4217
sg81
g82
sg83
g84
sbag4
(g5
g6
Ntp4218
Rp4219
(dp4220
g10
g11
(g15
S'\x00\x00\x00\x00\x00\x00\xf8\xff'
p4221
tp4222
Rp4223
sg139
g11
(g142
S'\x04\x00\x00\x00\x00\x00\x00\x00'
p4224
tp4225
Rp4226
sg34
g35
sg36
(dp4227
g139
g4226
sg92
g11
(g15
S'\x87\xe3\xd4\x16\xffCS@'
p4228
tp4229
Rp4230
sg149
g11
(g142
S'\x03\x00\x00\x00\x00\x00\x00\x00'
p4231
tp4232
Rp4233
sg96
g11
(g15
S'+\xa8Y\x98\x93\xe4\x17@'
p4234
tp4235
Rp4236
ssg96
g4236
sg42
g11
(g12
(S'S6'
p4237
I0
I1
tp4238
Rp4239
(I3
S'|'
p4240
NNNI6
I1
I0
tp4241
bS'ISOMAP'
p4242
tp4243
Rp4244
sg51
F0.2
sg149
g4233
sg52
g11
(g12
(S'S9'
p4245
I0
I1
tp4246
Rp4247
(I3
S'|'
p4248
NNNI9
I1
I0
tp4249
bS'inception'
p4250
tp4251
Rp4252
sg92
g4230
sg61
g11
(g15
S'5\\\xa7\xa1\x82\xfe\xd3?'
p4253
tp4254
Rp4255
sg65
g11
(g12
(S'S3'
p4256
I0
I1
tp4257
Rp4258
(I3
S'|'
p4259
NNNI3
I1
I0
tp4260
bS'SVM'
p4261
tp4262
Rp4263
sg74
I3
sg75
g76
sg77
g11
(g15
S'ALc\xdd\r\x12\xe6?'
p4264
tp4265
Rp4266
sg81
g82
sg83
g84
sbasS'error_curve'
p4267
(lp4268
g64
ag64
ag64
ag64
ag64
ag64
ag64
ag64
ag64
ag64
ag64
ag64
ag64
ag64
ag64
ag64
ag64
ag64
ag64
ag64
ag64
ag64
ag64
ag118
ag118
ag118
ag118
ag118
ag118
ag118
ag118
ag118
ag118
ag118
ag118
ag174
ag174
ag174
ag174
ag174
ag174
ag174
ag174
ag174
ag174
ag174
ag174
ag174
ag174
ag174
ag174
ag174
ag174
ag174
ag174
ag174
ag174
ag174
ag174
ag174
ag174
ag174
ag174
ag174
ag174
ag174
ag174
ag174
ag174
ag174
ag174
ag174
ag174
ag174
ag174
ag174
ag174
ag174
ag174
ag174
ag174
ag174
ag174
ag174
ag174
ag174
ag174
ag174
asS'iters'
p4269
I51
sg34
g35
sS'results_loc'
p4270
S'/gpfs/u/home/CGHI/CGHIarch/barn/EP_project/results/'
p4271
sS'times'
p4272
(lp4273
F1.427581787109375
aF1.593616008758545
aF1.7594878673553467
aF14.281552791595459
aF16.63344097137451
aF16.797741889953613
aF18.180104970932007
aF30.737863779067993
aF32.776166915893555
aF45.32346200942993
aF45.504530906677246
aF45.67141079902649
aF46.22227382659912
aF61.429969787597656
aF61.96162390708923
aF63.019757986068726
aF63.578858852386475
aF76.28780794143677
aF77.85440397262573
aF79.38574194908142
aF79.55821394920349
aF80.15541481971741
aF93.02506685256958
aF93.18395686149597
aF107.99020791053772
aF120.74186182022095
aF121.55085682868958
aF122.13269591331482
aF123.67878580093384
aF137.82803893089294
aF139.40260696411133
aF152.52944588661194
aF166.94930601119995
aF167.81092286109924
aF168.37014293670654
aF171.2728488445282
aF173.85039401054382
aF176.38185381889343
aF176.5406138896942
aF189.9450387954712
aF204.13911390304565
aF206.22427082061768
aF208.57821393013
aF208.75141382217407
aF210.55770778656006
aF223.49701189994812
aF236.19002485275269
aF236.79181098937988
aF238.90930795669556
aF241.2206289768219
aF253.78303790092468
aF254.2253589630127
aF269.1899209022522
aF270.8016448020935
aF284.16017985343933
aF285.4998519420624
aF298.31836700439453
aF298.46615982055664
aF299.0624489784241
aF299.22861194610596
aF299.7672538757324
aF299.9377110004425
aF301.53838181495667
aF302.11878180503845
aF302.273854970932
aF316.75080394744873
aF317.35244393348694
aF317.52499198913574
aF319.9968738555908
aF320.5993928909302
aF321.59698486328125
aF335.00508093833923
aF349.25370383262634
aF351.220782995224
aF353.1754639148712
aF367.20941495895386
aF367.3783769607544
aF380.0771667957306
aF394.6544539928436
aF396.4571578502655
aF397.0396988391876
aF409.7576358318329
aF412.5282518863678
aF425.1423897743225
aF440.4598398208618
aF442.7313208580017
aF459.65653681755066
aF460.2166259288788
asS'data_loc'
p4274
g84
sS'run'
p4275
I4
sg81
S'random_MCMC'
p4276
sb.