(iprototypes.random_based_mcmc1
random_MCMC
p0
(dp1
S'best_pipelines'
p2
(lp3
ccopy_reg
_reconstructor
p4
(cprototypes.data_analytic_pipeline
image_classification_pipeline
p5
c__builtin__
object
p6
Ntp7
Rp8
(dp9
S'f1_score'
p10
cnumpy.core.multiarray
scalar
p11
(cnumpy
dtype
p12
(S'f8'
p13
I0
I1
tp14
Rp15
(I3
S'<'
p16
NNNI-1
I-1
I0
tp17
bS'\x00\x00\x00\x00\x00\x00\xf8\xff'
p18
tp19
Rp20
sS'n_estimators'
p21
g11
(g15
S'\x00\x00\x00\x00\x00\xc0r@'
p22
tp23
Rp24
sS'data_name'
p25
S'bone'
p26
sS'n_neighbors'
p27
g11
(g12
(S'i8'
p28
I0
I1
tp29
Rp30
(I3
S'<'
p31
NNNI-1
I-1
I0
tp32
bS'\x03\x00\x00\x00\x00\x00\x00\x00'
p33
tp34
Rp35
sS'kwargs'
p36
(dp37
g21
g24
sg27
g35
sS'n_components'
p38
g11
(g30
S'\x03\x00\x00\x00\x00\x00\x00\x00'
p39
tp40
Rp41
sS'max_features'
p42
g11
(g15
S'\xf2\x06\xceu>\xa3\xdf?'
p43
tp44
Rp45
ssS'dimensionality_reduction'
p46
g11
(g12
(S'S6'
p47
I0
I1
tp48
Rp49
(I3
S'|'
p50
NNNI6
I1
I0
tp51
bS'ISOMAP'
p52
tp53
Rp54
sS'test_size'
p55
F0.2
sg38
g41
sS'feature_extraction'
p56
g11
(g12
(S'S3'
p57
I0
I1
tp58
Rp59
(I3
S'|'
p60
NNNI3
I1
I0
tp61
bS'VGG'
p62
tp63
Rp64
sS'result'
p65
g11
(g15
S'a5\x9b\xdf\xb2A\xe0?'
p66
tp67
Rp68
sS'learning_algorithm'
p69
g11
(g12
(S'S2'
p70
I0
I1
tp71
Rp72
(I3
S'|'
p73
NNNI2
I1
I0
tp74
bS'RF'
p75
tp76
Rp77
sS'val_splits'
p78
I3
sg42
g45
sS'ml_type'
p79
S'validation'
p80
sS'accuracy'
p81
g11
(g15
S'\x11\x11\x11\x11\x11\x11\xe9?'
p82
tp83
Rp84
sS'type1'
p85
S'random1'
p86
sS'data_location'
p87
S'/gpfs/u/home/CGHI/CGHIarch/barn/EP_project/data/'
p88
sbag4
(g5
g6
Ntp89
Rp90
(dp91
g10
g11
(g15
S'\x00\x00\x00\x00\x00\x00\xf8\xff'
p92
tp93
Rp94
sg21
g11
(g15
S'\x00\x00\x00\x00\x00@a@'
p95
tp96
Rp97
sS'pca_whiten'
p98
g11
(g12
(S'b1'
p99
I0
I1
tp100
Rp101
(I3
S'|'
p102
NNNI-1
I-1
I0
tp103
bS'\x01'
p104
tp105
Rp106
sg25
g26
sg36
(dp107
g21
g97
sg42
g11
(g15
S'bZ\x9cbWB\xe1?'
p108
tp109
Rp110
sg98
g106
ssg46
g11
(g12
(S'S3'
p111
I0
I1
tp112
Rp113
(I3
S'|'
p114
NNNI3
I1
I0
tp115
bS'PCA'
p116
tp117
Rp118
sg55
F0.2
sg56
g11
(g12
(S'S3'
p119
I0
I1
tp120
Rp121
(I3
S'|'
p122
NNNI3
I1
I0
tp123
bS'VGG'
p124
tp125
Rp126
sg65
g11
(g15
S'\xf8pO\xe5G\x17\xdb?'
p127
tp128
Rp129
sg69
g11
(g12
(S'S2'
p130
I0
I1
tp131
Rp132
(I3
S'|'
p133
NNNI2
I1
I0
tp134
bS'RF'
p135
tp136
Rp137
sg78
I3
sg42
g110
sg79
g80
sg81
g11
(g15
S'\x91z\x1d\xa9\xd7\x91\xea?'
p138
tp139
Rp140
sg85
g86
sg87
g88
sbag4
(g5
g6
Ntp141
Rp142
(dp143
g10
g11
(g15
S'\x00\x00\x00\x00\x00\x00\xf8\xff'
p144
tp145
Rp146
sg21
g11
(g15
S'\x00\x00\x00\x00\x00\x00D@'
p147
tp148
Rp149
sg98
g106
sg25
g26
sg36
(dp150
g21
g149
sg42
g11
(g15
S'\x0c\n]Wf\x91\xda?'
p151
tp152
Rp153
sg98
g106
sS'haralick_distance'
p154
g11
(g30
S'\x03\x00\x00\x00\x00\x00\x00\x00'
p155
tp156
Rp157
ssg46
g11
(g12
(S'S3'
p158
I0
I1
tp159
Rp160
(I3
S'|'
p161
NNNI3
I1
I0
tp162
bS'PCA'
p163
tp164
Rp165
sg55
F0.2
sg56
g11
(g12
(S'S8'
p166
I0
I1
tp167
Rp168
(I3
S'|'
p169
NNNI8
I1
I0
tp170
bS'haralick'
p171
tp172
Rp173
sg154
g157
sg65
g11
(g15
S'\x98\xbf,\xff\xc8\xa6\xd6?'
p174
tp175
Rp176
sg69
g11
(g12
(S'S2'
p177
I0
I1
tp178
Rp179
(I3
S'|'
p180
NNNI2
I1
I0
tp181
bS'RF'
p182
tp183
Rp184
sg78
I3
sg42
g153
sg79
g80
sg81
g11
(g15
S'\x1b\x03\xa61`\x1a\xeb?'
p185
tp186
Rp187
sg85
g86
sg87
g88
sbasS'paths'
p188
(lp189
(lp190
S'VGG'
p191
aS'PCA'
p192
aS'SVM'
p193
aa(lp194
g191
ag192
aS'RF'
p195
aa(lp196
g191
aS'ISOMAP'
p197
ag193
aa(lp198
g191
ag197
ag195
aa(lp199
S'haralick'
p200
ag192
ag193
aa(lp201
g200
ag192
ag195
aa(lp202
g200
ag197
ag193
aa(lp203
g200
ag197
ag195
aa(lp204
S'inception'
p205
ag192
ag193
aa(lp206
g205
ag192
ag195
aa(lp207
g205
ag197
ag193
aa(lp208
g205
ag197
ag195
aasS'pipeline'
p209
(dp210
g27
(lp211
I3
aI4
aI5
aI6
aI7
asg98
(lp212
I01
aI00
asg21
cnumpy.core.multiarray
_reconstruct
p213
(cnumpy
ndarray
p214
(I0
tp215
S'b'
p216
tp217
Rp218
(I1
(I10
tp219
g15
I00
S'\x00\x00\x00\x00\x00\x00 @\x00\x00\x00\x00\x00\x00D@\x00\x00\x00\x00\x00@R@\x00\x00\x00\x00\x00@Z@\x00\x00\x00\x00\x00@a@\x00\x00\x00\x00\x00@e@\x00\x00\x00\x00\x00`i@\x00\x00\x00\x00\x00`m@\x00\x00\x00\x00\x00\xc0p@\x00\x00\x00\x00\x00\xc0r@'
p220
tp221
bsg46
(lp222
g192
ag197
asS'svm_gamma'
p223
g213
(g214
(I0
tp224
g216
tp225
Rp226
(I1
(I10
tp227
g15
I00
S"{\x14\xaeG\xe1z\x84?\x102Tv\x98\xba\xec?\xe7\xd5\xc4\xb3\xa2\x91\xfc?b\xc9/\x96\xfcb\x05@\xd2'}\xd2'}\x0c@!Ce\x87\xa9\xcb\x11@X\xf2\x8b%\xbfX\x15@\x90\xa1\xb2\xc3\xd4\xe5\x18@\xc8P\xd9a\xear\x1c@\x00\x00\x00\x00\x00\x00 @"
p228
tp229
bsg56
(lp230
g191
ag200
ag205
asg154
(lp231
I1
aI2
aI3
asg38
(lp232
I2
aI3
aI4
asg69
(lp233
g193
ag195
asg42
g213
(g214
(I0
tp234
g216
tp235
Rp236
(I1
(I5
tp237
g15
I00
S'333333\xd3?\x9a\x99\x99\x99\x99\x99\xd9?\x00\x00\x00\x00\x00\x00\xe0?433333\xe3?hfffff\xe6?'
p238
tp239
bsS'svm_C'
p240
g213
(g214
(I0
tp241
g216
tp242
Rp243
(I1
(I10
tp244
g15
I00
S'\x9a\x99\x99\x99\x99\x99\xb9?gfffff&@\xce\xcc\xcc\xcc\xccL6@43333\xb3@@\x01\x00\x00\x00\x00@F@\xce\xcc\xcc\xcc\xcc\xccK@\xcd\xcc\xcc\xcc\xcc\xacP@43333sS@\x9a\x99\x99\x99\x999V@\x00\x00\x00\x00\x00\x00Y@'
p245
tp246
bssS'pipelines'
p247
(lp248
g8
ag4
(g5
g6
Ntp249
Rp250
(dp251
g10
g11
(g15
S'\x00\x00\x00\x00\x00\x00\xf8\xff'
p252
tp253
Rp254
sg98
g106
sg25
g26
sg36
(dp255
g98
g106
sg240
g11
(g15
S'\xda\xf9\ry4\x19X@'
p256
tp257
Rp258
sg223
g11
(g15
S'p\x8a\xc3g\x9f\xf7\x1c@'
p259
tp260
Rp261
ssg46
g11
(g12
(S'S3'
p262
I0
I1
tp263
Rp264
(I3
S'|'
p265
NNNI3
I1
I0
tp266
bS'PCA'
p267
tp268
Rp269
sg55
F0.2
sg223
g261
sg56
g11
(g12
(S'S3'
p270
I0
I1
tp271
Rp272
(I3
S'|'
p273
NNNI3
I1
I0
tp274
bS'VGG'
p275
tp276
Rp277
sg240
g258
sg65
g11
(g15
S'\x9d\xcc1\x03\xd7\xe4\xe0?'
p278
tp279
Rp280
sg69
g11
(g12
(S'S3'
p281
I0
I1
tp282
Rp283
(I3
S'|'
p284
NNNI3
I1
I0
tp285
bS'SVM'
p286
tp287
Rp288
sg78
I3
sg79
g80
sg81
g11
(g15
S'\x05yJ\x90\xa7\x04\xe9?'
p289
tp290
Rp291
sg85
g86
sg87
g88
sbag90
ag4
(g5
g6
Ntp292
Rp293
(dp294
g10
g11
(g15
S'\x00\x00\x00\x00\x00\x00\xf8\xff'
p295
tp296
Rp297
sg98
g106
sg25
g26
sg36
(dp298
g98
g106
sg240
g11
(g15
S'\xb3_J\xad%\xd2:@'
p299
tp300
Rp301
sg223
g11
(g15
S'Y G\x0eT5\xf8?'
p302
tp303
Rp304
ssg46
g11
(g12
(S'S3'
p305
I0
I1
tp306
Rp307
(I3
S'|'
p308
NNNI3
I1
I0
tp309
bS'PCA'
p310
tp311
Rp312
sg55
F0.2
sg223
g304
sg56
g11
(g12
(S'S9'
p313
I0
I1
tp314
Rp315
(I3
S'|'
p316
NNNI9
I1
I0
tp317
bS'inception'
p318
tp319
Rp320
sg240
g301
sg65
g11
(g15
S'\xbd\xa4\xd0\x11Q)\xe2?'
p321
tp322
Rp323
sg69
g11
(g12
(S'S3'
p324
I0
I1
tp325
Rp326
(I3
S'|'
p327
NNNI3
I1
I0
tp328
bS'SVM'
p329
tp330
Rp331
sg78
I3
sg79
g80
sg81
g11
(g15
S'\x12\xe4)A\x9e\x12\xe4?'
p332
tp333
Rp334
sg85
g86
sg87
g88
sbag4
(g5
g6
Ntp335
Rp336
(dp337
g10
g11
(g15
S'\x00\x00\x00\x00\x00\x00\xf8\xff'
p338
tp339
Rp340
sg21
g11
(g15
S'\x00\x00\x00\x00\x00\x00D@'
p341
tp342
Rp343
sg98
g106
sg25
g26
sg36
(dp344
g21
g343
sg42
g11
(g15
S'0\xef>\xba\x10\xe1\xdc?'
p345
tp346
Rp347
sg98
g106
ssg46
g11
(g12
(S'S3'
p348
I0
I1
tp349
Rp350
(I3
S'|'
p351
NNNI3
I1
I0
tp352
bS'PCA'
p353
tp354
Rp355
sg55
F0.2
sg56
g11
(g12
(S'S9'
p356
I0
I1
tp357
Rp358
(I3
S'|'
p359
NNNI9
I1
I0
tp360
bS'inception'
p361
tp362
Rp363
sg65
g11
(g15
S'c\nR\xcc\xcb\xa0\xe0?'
p364
tp365
Rp366
sg69
g11
(g12
(S'S2'
p367
I0
I1
tp368
Rp369
(I3
S'|'
p370
NNNI2
I1
I0
tp371
bS'RF'
p372
tp373
Rp374
sg78
I3
sg42
g347
sg79
g80
sg81
g11
(g15
S'\x08\x1f|\xf0\xc1\x07\xe7?'
p375
tp376
Rp377
sg85
g86
sg87
g88
sbag4
(g5
g6
Ntp378
Rp379
(dp380
g10
g11
(g15
S'\x00\x00\x00\x00\x00\x00\xf8\xff'
p381
tp382
Rp383
sg21
g11
(g15
S'\x00\x00\x00\x00\x00@Z@'
p384
tp385
Rp386
sg25
g26
sg27
g11
(g30
S'\x05\x00\x00\x00\x00\x00\x00\x00'
p387
tp388
Rp389
sg36
(dp390
g21
g386
sg27
g389
sg154
g11
(g30
S'\x03\x00\x00\x00\x00\x00\x00\x00'
p391
tp392
Rp393
sg38
g11
(g30
S'\x04\x00\x00\x00\x00\x00\x00\x00'
p394
tp395
Rp396
sg42
g11
(g15
S';`B206\xe0?'
p397
tp398
Rp399
ssg46
g11
(g12
(S'S6'
p400
I0
I1
tp401
Rp402
(I3
S'|'
p403
NNNI6
I1
I0
tp404
bS'ISOMAP'
p405
tp406
Rp407
sg55
F0.2
sg38
g396
sg56
g11
(g12
(S'S8'
p408
I0
I1
tp409
Rp410
(I3
S'|'
p411
NNNI8
I1
I0
tp412
bS'haralick'
p413
tp414
Rp415
sg154
g393
sg65
g11
(g15
S'(\xdd\x88b|;\xef?'
p416
tp417
Rp418
sg69
g11
(g12
(S'S2'
p419
I0
I1
tp420
Rp421
(I3
S'|'
p422
NNNI2
I1
I0
tp423
bS'RF'
p424
tp425
Rp426
sg78
I3
sg42
g399
sg79
g80
sg81
g11
(g15
S'\x8b[\xa1\xb8\x15\x8a\xeb?'
p427
tp428
Rp429
sg85
g86
sg87
g88
sbag4
(g5
g6
Ntp430
Rp431
(dp432
g10
g11
(g15
S'\x00\x00\x00\x00\x00\x00\xf8\xff'
p433
tp434
Rp435
sg27
g11
(g30
S'\x04\x00\x00\x00\x00\x00\x00\x00'
p436
tp437
Rp438
sg25
g26
sg36
(dp439
g27
g438
sg240
g11
(g15
S'$(0\x1d\x9a\xe46@'
p440
tp441
Rp442
sg154
g11
(g30
S'\x02\x00\x00\x00\x00\x00\x00\x00'
p443
tp444
Rp445
sg38
g11
(g30
S'\x02\x00\x00\x00\x00\x00\x00\x00'
p446
tp447
Rp448
sg223
g11
(g15
S'\x7f\xf6\x91\xf2\x9bo\x13@'
p449
tp450
Rp451
ssg223
g451
sg46
g11
(g12
(S'S6'
p452
I0
I1
tp453
Rp454
(I3
S'|'
p455
NNNI6
I1
I0
tp456
bS'ISOMAP'
p457
tp458
Rp459
sg55
F0.2
sg38
g448
sg56
g11
(g12
(S'S8'
p460
I0
I1
tp461
Rp462
(I3
S'|'
p463
NNNI8
I1
I0
tp464
bS'haralick'
p465
tp466
Rp467
sg240
g442
sg154
g445
sg65
g11
(g15
S'\xe3\x8eE\xaem\xe5\xe0?'
p468
tp469
Rp470
sg69
g11
(g12
(S'S3'
p471
I0
I1
tp472
Rp473
(I3
S'|'
p474
NNNI3
I1
I0
tp475
bS'SVM'
p476
tp477
Rp478
sg78
I3
sg79
g80
sg81
g11
(g15
S'\xa4^G\xeau\xa4\xe6?'
p479
tp480
Rp481
sg85
g86
sg87
g88
sbag4
(g5
g6
Ntp482
Rp483
(dp484
g10
g11
(g15
S'\x00\x00\x00\x00\x00\x00\xf8\xff'
p485
tp486
Rp487
sg21
g11
(g15
S'\x00\x00\x00\x00\x00@R@'
p488
tp489
Rp490
sg25
g26
sg27
g11
(g30
S'\x05\x00\x00\x00\x00\x00\x00\x00'
p491
tp492
Rp493
sg36
(dp494
g21
g490
sg27
g493
sg154
g11
(g30
S'\x02\x00\x00\x00\x00\x00\x00\x00'
p495
tp496
Rp497
sg38
g11
(g30
S'\x03\x00\x00\x00\x00\x00\x00\x00'
p498
tp499
Rp500
sg42
g11
(g15
S'\xfc\xc6jQ\x88\xbe\xea?'
p501
tp502
Rp503
ssg46
g11
(g12
(S'S6'
p504
I0
I1
tp505
Rp506
(I3
S'|'
p507
NNNI6
I1
I0
tp508
bS'ISOMAP'
p509
tp510
Rp511
sg55
F0.2
sg38
g500
sg56
g11
(g12
(S'S8'
p512
I0
I1
tp513
Rp514
(I3
S'|'
p515
NNNI8
I1
I0
tp516
bS'haralick'
p517
tp518
Rp519
sg154
g497
sg65
g11
(g15
S';h4S\x04%\xf8?'
p520
tp521
Rp522
sg69
g11
(g12
(S'S2'
p523
I0
I1
tp524
Rp525
(I3
S'|'
p526
NNNI2
I1
I0
tp527
bS'RF'
p528
tp529
Rp530
sg78
I3
sg42
g503
sg79
g80
sg81
g11
(g15
S'\xf8\xe0\x83\x0f>\xf8\xe8?'
p531
tp532
Rp533
sg85
g86
sg87
g88
sbag4
(g5
g6
Ntp534
Rp535
(dp536
g10
g11
(g15
S'\x00\x00\x00\x00\x00\x00\xf8\xff'
p537
tp538
Rp539
sg21
g11
(g15
S'\x00\x00\x00\x00\x00@a@'
p540
tp541
Rp542
sg25
g26
sg27
g11
(g30
S'\x05\x00\x00\x00\x00\x00\x00\x00'
p543
tp544
Rp545
sg36
(dp546
g21
g542
sg27
g545
sg154
g11
(g30
S'\x02\x00\x00\x00\x00\x00\x00\x00'
p547
tp548
Rp549
sg38
g11
(g30
S'\x04\x00\x00\x00\x00\x00\x00\x00'
p550
tp551
Rp552
sg42
g11
(g15
S'\xb6\xb3\xe8\x1c\xd9\xef\xe0?'
p553
tp554
Rp555
ssg46
g11
(g12
(S'S6'
p556
I0
I1
tp557
Rp558
(I3
S'|'
p559
NNNI6
I1
I0
tp560
bS'ISOMAP'
p561
tp562
Rp563
sg55
F0.2
sg38
g552
sg56
g11
(g12
(S'S8'
p564
I0
I1
tp565
Rp566
(I3
S'|'
p567
NNNI8
I1
I0
tp568
bS'haralick'
p569
tp570
Rp571
sg154
g549
sg65
g11
(g15
S'\x1d\xe0\x9a\x16 \x95\xdf?'
p572
tp573
Rp574
sg69
g11
(g12
(S'S2'
p575
I0
I1
tp576
Rp577
(I3
S'|'
p578
NNNI2
I1
I0
tp579
bS'RF'
p580
tp581
Rp582
sg78
I3
sg42
g555
sg79
g80
sg81
g11
(g15
S'\x88\x88\x88\x88\x88\x88\xe8?'
p583
tp584
Rp585
sg85
g86
sg87
g88
sbag4
(g5
g6
Ntp586
Rp587
(dp588
g10
g11
(g15
S'\x00\x00\x00\x00\x00\x00\xf8\xff'
p589
tp590
Rp591
sg27
g11
(g30
S'\x07\x00\x00\x00\x00\x00\x00\x00'
p592
tp593
Rp594
sg25
g26
sg36
(dp595
g27
g594
sg240
g11
(g15
S'\x87\xee\xe8U0\x87)@'
p596
tp597
Rp598
sg38
g11
(g30
S'\x04\x00\x00\x00\x00\x00\x00\x00'
p599
tp600
Rp601
sg223
g11
(g15
S'\x92=\x08\x10k\x88\x18@'
p602
tp603
Rp604
ssg223
g604
sg46
g11
(g12
(S'S6'
p605
I0
I1
tp606
Rp607
(I3
S'|'
p608
NNNI6
I1
I0
tp609
bS'ISOMAP'
p610
tp611
Rp612
sg55
F0.2
sg38
g601
sg56
g11
(g12
(S'S3'
p613
I0
I1
tp614
Rp615
(I3
S'|'
p616
NNNI3
I1
I0
tp617
bS'VGG'
p618
tp619
Rp620
sg240
g598
sg65
g11
(g15
S'\x95\t8\x8d\xe3f\xe2?'
p621
tp622
Rp623
sg69
g11
(g12
(S'S3'
p624
I0
I1
tp625
Rp626
(I3
S'|'
p627
NNNI3
I1
I0
tp628
bS'SVM'
p629
tp630
Rp631
sg78
I3
sg79
g80
sg81
g11
(g15
S'\x95 O\t\xf2\x94\xe8?'
p632
tp633
Rp634
sg85
g86
sg87
g88
sbag4
(g5
g6
Ntp635
Rp636
(dp637
g10
g11
(g15
S'\x00\x00\x00\x00\x00\x00\xf8\xff'
p638
tp639
Rp640
sg21
g11
(g15
S'\x00\x00\x00\x00\x00`i@'
p641
tp642
Rp643
sg25
g26
sg27
g11
(g30
S'\x03\x00\x00\x00\x00\x00\x00\x00'
p644
tp645
Rp646
sg36
(dp647
g21
g643
sg27
g646
sg38
g11
(g30
S'\x02\x00\x00\x00\x00\x00\x00\x00'
p648
tp649
Rp650
sg42
g11
(g15
S'\\\xae\x06\x0ckY\xed?'
p651
tp652
Rp653
ssg46
g11
(g12
(S'S6'
p654
I0
I1
tp655
Rp656
(I3
S'|'
p657
NNNI6
I1
I0
tp658
bS'ISOMAP'
p659
tp660
Rp661
sg55
F0.2
sg38
g650
sg56
g11
(g12
(S'S9'
p662
I0
I1
tp663
Rp664
(I3
S'|'
p665
NNNI9
I1
I0
tp666
bS'inception'
p667
tp668
Rp669
sg65
g11
(g15
S'm}\xa8a\x8eH\x01@'
p670
tp671
Rp672
sg69
g11
(g12
(S'S2'
p673
I0
I1
tp674
Rp675
(I3
S'|'
p676
NNNI2
I1
I0
tp677
bS'RF'
p678
tp679
Rp680
sg78
I3
sg42
g653
sg79
g80
sg81
g11
(g15
S'\x15\xb7Bq+\x14\xe7?'
p681
tp682
Rp683
sg85
g86
sg87
g88
sbag4
(g5
g6
Ntp684
Rp685
(dp686
g10
g11
(g15
S'\x00\x00\x00\x00\x00\x00\xf8\xff'
p687
tp688
Rp689
sg27
g11
(g30
S'\x05\x00\x00\x00\x00\x00\x00\x00'
p690
tp691
Rp692
sg25
g26
sg36
(dp693
g27
g692
sg240
g11
(g15
S'\xfe\x82\x16\xd6,\xe2L@'
p694
tp695
Rp696
sg38
g11
(g30
S'\x03\x00\x00\x00\x00\x00\x00\x00'
p697
tp698
Rp699
sg223
g11
(g15
S'\x89\xbd\xb1\x97;I\xff?'
p700
tp701
Rp702
ssg223
g702
sg46
g11
(g12
(S'S6'
p703
I0
I1
tp704
Rp705
(I3
S'|'
p706
NNNI6
I1
I0
tp707
bS'ISOMAP'
p708
tp709
Rp710
sg55
F0.2
sg38
g699
sg56
g11
(g12
(S'S9'
p711
I0
I1
tp712
Rp713
(I3
S'|'
p714
NNNI9
I1
I0
tp715
bS'inception'
p716
tp717
Rp718
sg240
g696
sg65
g11
(g15
S'\x9d\xd23N\x00\x97\xe2?'
p719
tp720
Rp721
sg69
g11
(g12
(S'S3'
p722
I0
I1
tp723
Rp724
(I3
S'|'
p725
NNNI3
I1
I0
tp726
bS'SVM'
p727
tp728
Rp729
sg78
I3
sg79
g80
sg81
g11
(g15
S'\rk\xdf\xb0\xf6\r\xe3?'
p730
tp731
Rp732
sg85
g86
sg87
g88
sbag4
(g5
g6
Ntp733
Rp734
(dp735
g10
g11
(g15
S'\x00\x00\x00\x00\x00\x00\xf8\xff'
p736
tp737
Rp738
sg98
g106
sg25
g26
sg36
(dp739
g98
g106
sg240
g11
(g15
S'\xb8\x056#\xed\x8cX@'
p740
tp741
Rp742
sg223
g11
(g15
S'\xda\x9a\xb8\n<\x05\xd6?'
p743
tp744
Rp745
ssg46
g11
(g12
(S'S3'
p746
I0
I1
tp747
Rp748
(I3
S'|'
p749
NNNI3
I1
I0
tp750
bS'PCA'
p751
tp752
Rp753
sg55
F0.2
sg223
g745
sg56
g11
(g12
(S'S9'
p754
I0
I1
tp755
Rp756
(I3
S'|'
p757
NNNI9
I1
I0
tp758
bS'inception'
p759
tp760
Rp761
sg240
g742
sg65
g11
(g15
S'\x06|t\xa3\xea\x8a\xe4?'
p762
tp763
Rp764
sg69
g11
(g12
(S'S3'
p765
I0
I1
tp766
Rp767
(I3
S'|'
p768
NNNI3
I1
I0
tp769
bS'SVM'
p770
tp771
Rp772
sg78
I3
sg79
g80
sg81
g11
(g15
S'\x93M6\xd9d\x93\xe5?'
p773
tp774
Rp775
sg85
g86
sg87
g88
sbag4
(g5
g6
Ntp776
Rp777
(dp778
g10
g11
(g15
S'\x00\x00\x00\x00\x00\x00\xf8\xff'
p779
tp780
Rp781
sg27
g11
(g30
S'\x07\x00\x00\x00\x00\x00\x00\x00'
p782
tp783
Rp784
sg25
g26
sg36
(dp785
g27
g784
sg240
g11
(g15
S'\xeb=_\xda^yU@'
p786
tp787
Rp788
sg38
g11
(g30
S'\x04\x00\x00\x00\x00\x00\x00\x00'
p789
tp790
Rp791
sg223
g11
(g15
S'\x16f\xd4G\x8c\x97\x1f@'
p792
tp793
Rp794
ssg223
g794
sg46
g11
(g12
(S'S6'
p795
I0
I1
tp796
Rp797
(I3
S'|'
p798
NNNI6
I1
I0
tp799
bS'ISOMAP'
p800
tp801
Rp802
sg55
F0.2
sg38
g791
sg56
g11
(g12
(S'S9'
p803
I0
I1
tp804
Rp805
(I3
S'|'
p806
NNNI9
I1
I0
tp807
bS'inception'
p808
tp809
Rp810
sg240
g788
sg65
g11
(g15
S'\xbb\xf0\x92\xc1\x07\x10\xe5?'
p811
tp812
Rp813
sg69
g11
(g12
(S'S3'
p814
I0
I1
tp815
Rp816
(I3
S'|'
p817
NNNI3
I1
I0
tp818
bS'SVM'
p819
tp820
Rp821
sg78
I3
sg79
g80
sg81
g11
(g15
S'\x15\x8a[\xa1\xb8\x15\xe2?'
p822
tp823
Rp824
sg85
g86
sg87
g88
sbag4
(g5
g6
Ntp825
Rp826
(dp827
g10
g11
(g15
S'\x00\x00\x00\x00\x00\x00\xf8\xff'
p828
tp829
Rp830
sg98
g11
(g101
S'\x00'
p831
tp832
Rp833
sg25
g26
sg36
(dp834
g98
g833
sg240
g11
(g15
S'\x05?\x0eR\xb4\x9eS@'
p835
tp836
Rp837
sg154
g11
(g30
S'\x02\x00\x00\x00\x00\x00\x00\x00'
p838
tp839
Rp840
sg223
g11
(g15
S'\x92\xd8\x8aK\xbe\xd5\x16@'
p841
tp842
Rp843
ssg46
g11
(g12
(S'S3'
p844
I0
I1
tp845
Rp846
(I3
S'|'
p847
NNNI3
I1
I0
tp848
bS'PCA'
p849
tp850
Rp851
sg55
F0.2
sg223
g843
sg56
g11
(g12
(S'S8'
p852
I0
I1
tp853
Rp854
(I3
S'|'
p855
NNNI8
I1
I0
tp856
bS'haralick'
p857
tp858
Rp859
sg240
g837
sg154
g840
sg65
g11
(g15
S'\xed`d;\xbb\x1c\xdd?'
p860
tp861
Rp862
sg69
g11
(g12
(S'S3'
p863
I0
I1
tp864
Rp865
(I3
S'|'
p866
NNNI3
I1
I0
tp867
bS'SVM'
p868
tp869
Rp870
sg78
I3
sg79
g80
sg81
g11
(g15
S'\xa3\x8b.\xba\xe8\xa2\xe3?'
p871
tp872
Rp873
sg85
g86
sg87
g88
sbag4
(g5
g6
Ntp874
Rp875
(dp876
g10
g11
(g15
S'\x00\x00\x00\x00\x00\x00\xf8\xff'
p877
tp878
Rp879
sg27
g11
(g30
S'\x07\x00\x00\x00\x00\x00\x00\x00'
p880
tp881
Rp882
sg25
g26
sg36
(dp883
g27
g882
sg240
g11
(g15
S"\xf9'\xbaOl\xafM@"
p884
tp885
Rp886
sg38
g11
(g30
S'\x04\x00\x00\x00\x00\x00\x00\x00'
p887
tp888
Rp889
sg223
g11
(g15
S'\xf9\xc3\x84vj;\x1f@'
p890
tp891
Rp892
ssg223
g892
sg46
g11
(g12
(S'S6'
p893
I0
I1
tp894
Rp895
(I3
S'|'
p896
NNNI6
I1
I0
tp897
bS'ISOMAP'
p898
tp899
Rp900
sg55
F0.2
sg38
g889
sg56
g11
(g12
(S'S9'
p901
I0
I1
tp902
Rp903
(I3
S'|'
p904
NNNI9
I1
I0
tp905
bS'inception'
p906
tp907
Rp908
sg240
g886
sg65
g11
(g15
S'5\x9c\xa3\xbe\x83\xb1\xe3?'
p909
tp910
Rp911
sg69
g11
(g12
(S'S3'
p912
I0
I1
tp913
Rp914
(I3
S'|'
p915
NNNI3
I1
I0
tp916
bS'SVM'
p917
tp918
Rp919
sg78
I3
sg79
g80
sg81
g11
(g15
S'\x15\x8a[\xa1\xb8\x15\xe2?'
p920
tp921
Rp922
sg85
g86
sg87
g88
sbag4
(g5
g6
Ntp923
Rp924
(dp925
g10
g11
(g15
S'\x00\x00\x00\x00\x00\x00\xf8\xff'
p926
tp927
Rp928
sg21
g11
(g15
S'\x00\x00\x00\x00\x00@a@'
p929
tp930
Rp931
sg25
g26
sg27
g11
(g30
S'\x05\x00\x00\x00\x00\x00\x00\x00'
p932
tp933
Rp934
sg36
(dp935
g21
g931
sg27
g934
sg38
g11
(g30
S'\x03\x00\x00\x00\x00\x00\x00\x00'
p936
tp937
Rp938
sg42
g11
(g15
S'\x0e\x06\xaesD\xcd\xee?'
p939
tp940
Rp941
ssg46
g11
(g12
(S'S6'
p942
I0
I1
tp943
Rp944
(I3
S'|'
p945
NNNI6
I1
I0
tp946
bS'ISOMAP'
p947
tp948
Rp949
sg55
F0.2
sg38
g938
sg56
g11
(g12
(S'S3'
p950
I0
I1
tp951
Rp952
(I3
S'|'
p953
NNNI3
I1
I0
tp954
bS'VGG'
p955
tp956
Rp957
sg65
g11
(g15
S'\xeb\x91V\x0fVH\xdf?'
p958
tp959
Rp960
sg69
g11
(g12
(S'S2'
p961
I0
I1
tp962
Rp963
(I3
S'|'
p964
NNNI2
I1
I0
tp965
bS'RF'
p966
tp967
Rp968
sg78
I3
sg42
g941
sg79
g80
sg81
g11
(g15
S'\x1d\xa9\xd7\x91z\x1d\xe9?'
p969
tp970
Rp971
sg85
g86
sg87
g88
sbag4
(g5
g6
Ntp972
Rp973
(dp974
g10
g11
(g15
S'\x00\x00\x00\x00\x00\x00\xf8\xff'
p975
tp976
Rp977
sg27
g11
(g30
S'\x05\x00\x00\x00\x00\x00\x00\x00'
p978
tp979
Rp980
sg25
g26
sg36
(dp981
g27
g980
sg240
g11
(g15
S'H\xba\x1eO6\xf8\x1a@'
p982
tp983
Rp984
sg38
g11
(g30
S'\x02\x00\x00\x00\x00\x00\x00\x00'
p985
tp986
Rp987
sg223
g11
(g15
S'?\xceX\x1e\xbc5\x1b@'
p988
tp989
Rp990
ssg223
g990
sg46
g11
(g12
(S'S6'
p991
I0
I1
tp992
Rp993
(I3
S'|'
p994
NNNI6
I1
I0
tp995
bS'ISOMAP'
p996
tp997
Rp998
sg55
F0.2
sg38
g987
sg56
g11
(g12
(S'S9'
p999
I0
I1
tp1000
Rp1001
(I3
S'|'
p1002
NNNI9
I1
I0
tp1003
bS'inception'
p1004
tp1005
Rp1006
sg240
g984
sg65
g11
(g15
S'\x98\xeb(q\xebo\xe2?'
p1007
tp1008
Rp1009
sg69
g11
(g12
(S'S3'
p1010
I0
I1
tp1011
Rp1012
(I3
S'|'
p1013
NNNI3
I1
I0
tp1014
bS'SVM'
p1015
tp1016
Rp1017
sg78
I3
sg79
g80
sg81
g11
(g15
S"'\x9bl\xb2\xc9&\xe3?"
p1018
tp1019
Rp1020
sg85
g86
sg87
g88
sbag4
(g5
g6
Ntp1021
Rp1022
(dp1023
g10
g11
(g15
S'\x00\x00\x00\x00\x00\x00\xf8\xff'
p1024
tp1025
Rp1026
sg21
g11
(g15
S'\x00\x00\x00\x00\x00\xc0r@'
p1027
tp1028
Rp1029
sg98
g106
sg25
g26
sg36
(dp1030
g21
g1029
sg42
g11
(g15
S'\xcaE\xe2\xd3]{\xe4?'
p1031
tp1032
Rp1033
sg98
g106
sg154
g11
(g30
S'\x02\x00\x00\x00\x00\x00\x00\x00'
p1034
tp1035
Rp1036
ssg46
g11
(g12
(S'S3'
p1037
I0
I1
tp1038
Rp1039
(I3
S'|'
p1040
NNNI3
I1
I0
tp1041
bS'PCA'
p1042
tp1043
Rp1044
sg55
F0.2
sg56
g11
(g12
(S'S8'
p1045
I0
I1
tp1046
Rp1047
(I3
S'|'
p1048
NNNI8
I1
I0
tp1049
bS'haralick'
p1050
tp1051
Rp1052
sg154
g1036
sg65
g11
(g15
S'\xe5\x16;\xc5\xa37\xe8?'
p1053
tp1054
Rp1055
sg69
g11
(g12
(S'S2'
p1056
I0
I1
tp1057
Rp1058
(I3
S'|'
p1059
NNNI2
I1
I0
tp1060
bS'RF'
p1061
tp1062
Rp1063
sg78
I3
sg42
g1033
sg79
g80
sg81
g11
(g15
S'\xac}\xc3\xda7\xac\xe5?'
p1064
tp1065
Rp1066
sg85
g86
sg87
g88
sbag4
(g5
g6
Ntp1067
Rp1068
(dp1069
g10
g11
(g15
S'\x00\x00\x00\x00\x00\x00\xf8\xff'
p1070
tp1071
Rp1072
sg21
g11
(g15
S'\x00\x00\x00\x00\x00@e@'
p1073
tp1074
Rp1075
sg25
g26
sg27
g11
(g30
S'\x03\x00\x00\x00\x00\x00\x00\x00'
p1076
tp1077
Rp1078
sg36
(dp1079
g21
g1075
sg27
g1078
sg38
g11
(g30
S'\x03\x00\x00\x00\x00\x00\x00\x00'
p1080
tp1081
Rp1082
sg42
g11
(g15
S'\xf2\x8e\xa35\xd8\xee\xe5?'
p1083
tp1084
Rp1085
ssg46
g11
(g12
(S'S6'
p1086
I0
I1
tp1087
Rp1088
(I3
S'|'
p1089
NNNI6
I1
I0
tp1090
bS'ISOMAP'
p1091
tp1092
Rp1093
sg55
F0.2
sg38
g1082
sg56
g11
(g12
(S'S9'
p1094
I0
I1
tp1095
Rp1096
(I3
S'|'
p1097
NNNI9
I1
I0
tp1098
bS'inception'
p1099
tp1100
Rp1101
sg65
g11
(g15
S'o[*\x9cB0\xf3?'
p1102
tp1103
Rp1104
sg69
g11
(g12
(S'S2'
p1105
I0
I1
tp1106
Rp1107
(I3
S'|'
p1108
NNNI2
I1
I0
tp1109
bS'RF'
p1110
tp1111
Rp1112
sg78
I3
sg42
g1085
sg79
g80
sg81
g11
(g15
S'\x87\xb5oX\xfb\x86\xe5?'
p1113
tp1114
Rp1115
sg85
g86
sg87
g88
sbag4
(g5
g6
Ntp1116
Rp1117
(dp1118
g10
g11
(g15
S'\x00\x00\x00\x00\x00\x00\xf8\xff'
p1119
tp1120
Rp1121
sg98
g833
sg25
g26
sg36
(dp1122
g98
g833
sg240
g11
(g15
S'\xe6D\x1df-\xfc4@'
p1123
tp1124
Rp1125
sg154
g11
(g30
S'\x03\x00\x00\x00\x00\x00\x00\x00'
p1126
tp1127
Rp1128
sg223
g11
(g15
S'V\xa8\x0f\xbb\xccK\x10@'
p1129
tp1130
Rp1131
ssg46
g11
(g12
(S'S3'
p1132
I0
I1
tp1133
Rp1134
(I3
S'|'
p1135
NNNI3
I1
I0
tp1136
bS'PCA'
p1137
tp1138
Rp1139
sg55
F0.2
sg223
g1131
sg56
g11
(g12
(S'S8'
p1140
I0
I1
tp1141
Rp1142
(I3
S'|'
p1143
NNNI8
I1
I0
tp1144
bS'haralick'
p1145
tp1146
Rp1147
sg240
g1125
sg154
g1128
sg65
g11
(g15
S'\xd9M\xa4\xba1\xa4\xe1?'
p1148
tp1149
Rp1150
sg69
g11
(g12
(S'S3'
p1151
I0
I1
tp1152
Rp1153
(I3
S'|'
p1154
NNNI3
I1
I0
tp1155
bS'SVM'
p1156
tp1157
Rp1158
sg78
I3
sg79
g80
sg81
g11
(g15
S'\xa3\x8b.\xba\xe8\xa2\xe3?'
p1159
tp1160
Rp1161
sg85
g86
sg87
g88
sbag4
(g5
g6
Ntp1162
Rp1163
(dp1164
g10
g11
(g15
S'\x00\x00\x00\x00\x00\x00\xf8\xff'
p1165
tp1166
Rp1167
sg21
g11
(g15
S'\x00\x00\x00\x00\x00@R@'
p1168
tp1169
Rp1170
sg98
g833
sg25
g26
sg36
(dp1171
g21
g1170
sg42
g11
(g15
S'>\xb03\xf5\x87\xd9\xe6?'
p1172
tp1173
Rp1174
sg98
g833
ssg46
g11
(g12
(S'S3'
p1175
I0
I1
tp1176
Rp1177
(I3
S'|'
p1178
NNNI3
I1
I0
tp1179
bS'PCA'
p1180
tp1181
Rp1182
sg55
F0.2
sg56
g11
(g12
(S'S9'
p1183
I0
I1
tp1184
Rp1185
(I3
S'|'
p1186
NNNI9
I1
I0
tp1187
bS'inception'
p1188
tp1189
Rp1190
sg65
g11
(g15
S'(\xb3\t`\x84\xf4\xe1?'
p1191
tp1192
Rp1193
sg69
g11
(g12
(S'S2'
p1194
I0
I1
tp1195
Rp1196
(I3
S'|'
p1197
NNNI2
I1
I0
tp1198
bS'RF'
p1199
tp1200
Rp1201
sg78
I3
sg42
g1174
sg79
g80
sg81
g11
(g15
S'\r\x98\xc6\x80i\x0c\xe8?'
p1202
tp1203
Rp1204
sg85
g86
sg87
g88
sbag4
(g5
g6
Ntp1205
Rp1206
(dp1207
g10
g11
(g15
S'\x00\x00\x00\x00\x00\x00\xf8\xff'
p1208
tp1209
Rp1210
sg21
g11
(g15
S'\x00\x00\x00\x00\x00\xc0r@'
p1211
tp1212
Rp1213
sg98
g833
sg25
g26
sg36
(dp1214
g21
g1213
sg42
g11
(g15
S'\x9c\xb4\xd31i\xad\xed?'
p1215
tp1216
Rp1217
sg98
g833
ssg46
g11
(g12
(S'S3'
p1218
I0
I1
tp1219
Rp1220
(I3
S'|'
p1221
NNNI3
I1
I0
tp1222
bS'PCA'
p1223
tp1224
Rp1225
sg55
F0.2
sg56
g11
(g12
(S'S9'
p1226
I0
I1
tp1227
Rp1228
(I3
S'|'
p1229
NNNI9
I1
I0
tp1230
bS'inception'
p1231
tp1232
Rp1233
sg65
g11
(g15
S'\xa3bG{tB\xe1?'
p1234
tp1235
Rp1236
sg69
g11
(g12
(S'S2'
p1237
I0
I1
tp1238
Rp1239
(I3
S'|'
p1240
NNNI2
I1
I0
tp1241
bS'RF'
p1242
tp1243
Rp1244
sg78
I3
sg42
g1217
sg79
g80
sg81
g11
(g15
S'\x190\x8d\x01\xd3\x18\xe8?'
p1245
tp1246
Rp1247
sg85
g86
sg87
g88
sbag4
(g5
g6
Ntp1248
Rp1249
(dp1250
g10
g11
(g15
S'\x00\x00\x00\x00\x00\x00\xf8\xff'
p1251
tp1252
Rp1253
sg21
g11
(g15
S'\x00\x00\x00\x00\x00\x00D@'
p1254
tp1255
Rp1256
sg98
g833
sg25
g26
sg36
(dp1257
g21
g1256
sg42
g11
(g15
S'\x81O\x93\xe5\x8d\x9f\xdf?'
p1258
tp1259
Rp1260
sg98
g833
sg154
g11
(g30
S'\x03\x00\x00\x00\x00\x00\x00\x00'
p1261
tp1262
Rp1263
ssg46
g11
(g12
(S'S3'
p1264
I0
I1
tp1265
Rp1266
(I3
S'|'
p1267
NNNI3
I1
I0
tp1268
bS'PCA'
p1269
tp1270
Rp1271
sg55
F0.2
sg56
g11
(g12
(S'S8'
p1272
I0
I1
tp1273
Rp1274
(I3
S'|'
p1275
NNNI8
I1
I0
tp1276
bS'haralick'
p1277
tp1278
Rp1279
sg154
g1263
sg65
g11
(g15
S'\xb0s\x9a\x1a\x11\xc1\xeb?'
p1280
tp1281
Rp1282
sg69
g11
(g12
(S'S2'
p1283
I0
I1
tp1284
Rp1285
(I3
S'|'
p1286
NNNI2
I1
I0
tp1287
bS'RF'
p1288
tp1289
Rp1290
sg78
I3
sg42
g1260
sg79
g80
sg81
g11
(g15
S'\x95\xf3g9\x7f\x96\xeb?'
p1291
tp1292
Rp1293
sg85
g86
sg87
g88
sbag4
(g5
g6
Ntp1294
Rp1295
(dp1296
g10
g11
(g15
S'\x00\x00\x00\x00\x00\x00\xf8\xff'
p1297
tp1298
Rp1299
sg21
g11
(g15
S'\x00\x00\x00\x00\x00\x00D@'
p1300
tp1301
Rp1302
sg25
g26
sg27
g11
(g30
S'\x05\x00\x00\x00\x00\x00\x00\x00'
p1303
tp1304
Rp1305
sg36
(dp1306
g21
g1302
sg27
g1305
sg38
g11
(g30
S'\x03\x00\x00\x00\x00\x00\x00\x00'
p1307
tp1308
Rp1309
sg42
g11
(g15
S'J\x1dF\xeaB\xca\xe9?'
p1310
tp1311
Rp1312
ssg46
g11
(g12
(S'S6'
p1313
I0
I1
tp1314
Rp1315
(I3
S'|'
p1316
NNNI6
I1
I0
tp1317
bS'ISOMAP'
p1318
tp1319
Rp1320
sg55
F0.2
sg38
g1309
sg56
g11
(g12
(S'S3'
p1321
I0
I1
tp1322
Rp1323
(I3
S'|'
p1324
NNNI3
I1
I0
tp1325
bS'VGG'
p1326
tp1327
Rp1328
sg65
g11
(g15
S'\t\x9bE\x86v\x92\xe1?'
p1329
tp1330
Rp1331
sg69
g11
(g12
(S'S2'
p1332
I0
I1
tp1333
Rp1334
(I3
S'|'
p1335
NNNI2
I1
I0
tp1336
bS'RF'
p1337
tp1338
Rp1339
sg78
I3
sg42
g1312
sg79
g80
sg81
g11
(g15
S'\xa51`\x1a\x03\xa6\xe9?'
p1340
tp1341
Rp1342
sg85
g86
sg87
g88
sbag4
(g5
g6
Ntp1343
Rp1344
(dp1345
g10
g11
(g15
S'\x00\x00\x00\x00\x00\x00\xf8\xff'
p1346
tp1347
Rp1348
sg27
g11
(g30
S'\x03\x00\x00\x00\x00\x00\x00\x00'
p1349
tp1350
Rp1351
sg25
g26
sg36
(dp1352
g27
g1351
sg240
g11
(g15
S'\xe9xN4\x8c5\x19@'
p1353
tp1354
Rp1355
sg154
g11
(g30
S'\x02\x00\x00\x00\x00\x00\x00\x00'
p1356
tp1357
Rp1358
sg38
g11
(g30
S'\x04\x00\x00\x00\x00\x00\x00\x00'
p1359
tp1360
Rp1361
sg223
g11
(g15
S'`\xb7}\xd7\xfd\x14\x13@'
p1362
tp1363
Rp1364
ssg223
g1364
sg46
g11
(g12
(S'S6'
p1365
I0
I1
tp1366
Rp1367
(I3
S'|'
p1368
NNNI6
I1
I0
tp1369
bS'ISOMAP'
p1370
tp1371
Rp1372
sg55
F0.2
sg38
g1361
sg56
g11
(g12
(S'S8'
p1373
I0
I1
tp1374
Rp1375
(I3
S'|'
p1376
NNNI8
I1
I0
tp1377
bS'haralick'
p1378
tp1379
Rp1380
sg240
g1355
sg154
g1358
sg65
g11
(g15
S'\xa9\x9f9\xf5,\xbe\xde?'
p1381
tp1382
Rp1383
sg69
g11
(g12
(S'S3'
p1384
I0
I1
tp1385
Rp1386
(I3
S'|'
p1387
NNNI3
I1
I0
tp1388
bS'SVM'
p1389
tp1390
Rp1391
sg78
I3
sg79
g80
sg81
g11
(g15
S'\xa1\xb8\x15\x8a[\xa1\xe8?'
p1392
tp1393
Rp1394
sg85
g86
sg87
g88
sbag4
(g5
g6
Ntp1395
Rp1396
(dp1397
g10
g11
(g15
S'\x00\x00\x00\x00\x00\x00\xf8\xff'
p1398
tp1399
Rp1400
sg21
g11
(g15
S'\x00\x00\x00\x00\x00\x00D@'
p1401
tp1402
Rp1403
sg98
g106
sg25
g26
sg36
(dp1404
g21
g1403
sg42
g11
(g15
S'\\\x19c\xc105\xe9?'
p1405
tp1406
Rp1407
sg98
g106
ssg46
g11
(g12
(S'S3'
p1408
I0
I1
tp1409
Rp1410
(I3
S'|'
p1411
NNNI3
I1
I0
tp1412
bS'PCA'
p1413
tp1414
Rp1415
sg55
F0.2
sg56
g11
(g12
(S'S9'
p1416
I0
I1
tp1417
Rp1418
(I3
S'|'
p1419
NNNI9
I1
I0
tp1420
bS'inception'
p1421
tp1422
Rp1423
sg65
g11
(g15
S'\xf5[\xe1a\xf6s\xf0?'
p1424
tp1425
Rp1426
sg69
g11
(g12
(S'S2'
p1427
I0
I1
tp1428
Rp1429
(I3
S'|'
p1430
NNNI2
I1
I0
tp1431
bS'RF'
p1432
tp1433
Rp1434
sg78
I3
sg42
g1407
sg79
g80
sg81
g11
(g15
S'\x90\xa7\x04yJ\x90\xe7?'
p1435
tp1436
Rp1437
sg85
g86
sg87
g88
sbag4
(g5
g6
Ntp1438
Rp1439
(dp1440
g10
g11
(g15
S'\x00\x00\x00\x00\x00\x00\xf8\xff'
p1441
tp1442
Rp1443
sg27
g11
(g30
S'\x04\x00\x00\x00\x00\x00\x00\x00'
p1444
tp1445
Rp1446
sg25
g26
sg36
(dp1447
g27
g1446
sg240
g11
(g15
S'\x8f5\xe4\xc3`\x87E@'
p1448
tp1449
Rp1450
sg38
g11
(g30
S'\x03\x00\x00\x00\x00\x00\x00\x00'
p1451
tp1452
Rp1453
sg223
g11
(g15
S'eS\xc7P\xb5X\xff?'
p1454
tp1455
Rp1456
ssg223
g1456
sg46
g11
(g12
(S'S6'
p1457
I0
I1
tp1458
Rp1459
(I3
S'|'
p1460
NNNI6
I1
I0
tp1461
bS'ISOMAP'
p1462
tp1463
Rp1464
sg55
F0.2
sg38
g1453
sg56
g11
(g12
(S'S3'
p1465
I0
I1
tp1466
Rp1467
(I3
S'|'
p1468
NNNI3
I1
I0
tp1469
bS'VGG'
p1470
tp1471
Rp1472
sg240
g1450
sg65
g11
(g15
S'i\xf9LQ-\t\xe2?'
p1473
tp1474
Rp1475
sg69
g11
(g12
(S'S3'
p1476
I0
I1
tp1477
Rp1478
(I3
S'|'
p1479
NNNI3
I1
I0
tp1480
bS'SVM'
p1481
tp1482
Rp1483
sg78
I3
sg79
g80
sg81
g11
(g15
S'\x190\x8d\x01\xd3\x18\xe8?'
p1484
tp1485
Rp1486
sg85
g86
sg87
g88
sbag4
(g5
g6
Ntp1487
Rp1488
(dp1489
g10
g11
(g15
S'\x00\x00\x00\x00\x00\x00\xf8\xff'
p1490
tp1491
Rp1492
sg98
g833
sg25
g26
sg36
(dp1493
g98
g833
sg240
g11
(g15
S'\x96\xca\xe4\xbcY\x96K@'
p1494
tp1495
Rp1496
sg223
g11
(g15
S'48\x98\xe9\xfc\x8d\x19@'
p1497
tp1498
Rp1499
ssg46
g11
(g12
(S'S3'
p1500
I0
I1
tp1501
Rp1502
(I3
S'|'
p1503
NNNI3
I1
I0
tp1504
bS'PCA'
p1505
tp1506
Rp1507
sg55
F0.2
sg223
g1499
sg56
g11
(g12
(S'S9'
p1508
I0
I1
tp1509
Rp1510
(I3
S'|'
p1511
NNNI9
I1
I0
tp1512
bS'inception'
p1513
tp1514
Rp1515
sg240
g1496
sg65
g11
(g15
S'"qysM\xb1\xe0?'
p1516
tp1517
Rp1518
sg69
g11
(g12
(S'S3'
p1519
I0
I1
tp1520
Rp1521
(I3
S'|'
p1522
NNNI3
I1
I0
tp1523
bS'SVM'
p1524
tp1525
Rp1526
sg78
I3
sg79
g80
sg81
g11
(g15
S'\x03\xa61`\x1a\x03\xe6?'
p1527
tp1528
Rp1529
sg85
g86
sg87
g88
sbag142
ag4
(g5
g6
Ntp1530
Rp1531
(dp1532
g10
g11
(g15
S'\x00\x00\x00\x00\x00\x00\xf8\xff'
p1533
tp1534
Rp1535
sg27
g11
(g30
S'\x03\x00\x00\x00\x00\x00\x00\x00'
p1536
tp1537
Rp1538
sg25
g26
sg36
(dp1539
g27
g1538
sg240
g11
(g15
S'\xf22\xcc\xdc\xd1[L@'
p1540
tp1541
Rp1542
sg154
g11
(g30
S'\x03\x00\x00\x00\x00\x00\x00\x00'
p1543
tp1544
Rp1545
sg38
g11
(g30
S'\x02\x00\x00\x00\x00\x00\x00\x00'
p1546
tp1547
Rp1548
sg223
g11
(g15
S'\x16\xd0\xa0\x17\x14\xe2\x1c@'
p1549
tp1550
Rp1551
ssg223
g1551
sg46
g11
(g12
(S'S6'
p1552
I0
I1
tp1553
Rp1554
(I3
S'|'
p1555
NNNI6
I1
I0
tp1556
bS'ISOMAP'
p1557
tp1558
Rp1559
sg55
F0.2
sg38
g1548
sg56
g11
(g12
(S'S8'
p1560
I0
I1
tp1561
Rp1562
(I3
S'|'
p1563
NNNI8
I1
I0
tp1564
bS'haralick'
p1565
tp1566
Rp1567
sg240
g1542
sg154
g1545
sg65
g11
(g15
S'\xff\x18n\xccZ\xd7\xe0?'
p1568
tp1569
Rp1570
sg69
g11
(g12
(S'S3'
p1571
I0
I1
tp1572
Rp1573
(I3
S'|'
p1574
NNNI3
I1
I0
tp1575
bS'SVM'
p1576
tp1577
Rp1578
sg78
I3
sg79
g80
sg81
g11
(g15
S'\x8b.\xba\xe8\xa2\x8b\xe6?'
p1579
tp1580
Rp1581
sg85
g86
sg87
g88
sbag4
(g5
g6
Ntp1582
Rp1583
(dp1584
g10
g11
(g15
S'\x00\x00\x00\x00\x00\x00\xf8\xff'
p1585
tp1586
Rp1587
sg21
g11
(g15
S'\x00\x00\x00\x00\x00`i@'
p1588
tp1589
Rp1590
sg25
g26
sg27
g11
(g30
S'\x04\x00\x00\x00\x00\x00\x00\x00'
p1591
tp1592
Rp1593
sg36
(dp1594
g21
g1590
sg27
g1593
sg38
g11
(g30
S'\x03\x00\x00\x00\x00\x00\x00\x00'
p1595
tp1596
Rp1597
sg42
g11
(g15
S'D\x9eIg\x9f\r\xee?'
p1598
tp1599
Rp1600
ssg46
g11
(g12
(S'S6'
p1601
I0
I1
tp1602
Rp1603
(I3
S'|'
p1604
NNNI6
I1
I0
tp1605
bS'ISOMAP'
p1606
tp1607
Rp1608
sg55
F0.2
sg38
g1597
sg56
g11
(g12
(S'S9'
p1609
I0
I1
tp1610
Rp1611
(I3
S'|'
p1612
NNNI9
I1
I0
tp1613
bS'inception'
p1614
tp1615
Rp1616
sg65
g11
(g15
S'\xbb \xb2\x94\xe7\xb4\xe4?'
p1617
tp1618
Rp1619
sg69
g11
(g12
(S'S2'
p1620
I0
I1
tp1621
Rp1622
(I3
S'|'
p1623
NNNI2
I1
I0
tp1624
bS'RF'
p1625
tp1626
Rp1627
sg78
I3
sg42
g1600
sg79
g80
sg81
g11
(g15
S'!O\t\xf2\x94 \xe7?'
p1628
tp1629
Rp1630
sg85
g86
sg87
g88
sbag4
(g5
g6
Ntp1631
Rp1632
(dp1633
g10
g11
(g15
S'\x00\x00\x00\x00\x00\x00\xf8\xff'
p1634
tp1635
Rp1636
sg21
g11
(g15
S'\x00\x00\x00\x00\x00\x00D@'
p1637
tp1638
Rp1639
sg98
g833
sg25
g26
sg36
(dp1640
g21
g1639
sg42
g11
(g15
S'\x08\xff\x04\x14tu\xda?'
p1641
tp1642
Rp1643
sg98
g833
ssg46
g11
(g12
(S'S3'
p1644
I0
I1
tp1645
Rp1646
(I3
S'|'
p1647
NNNI3
I1
I0
tp1648
bS'PCA'
p1649
tp1650
Rp1651
sg55
F0.2
sg56
g11
(g12
(S'S9'
p1652
I0
I1
tp1653
Rp1654
(I3
S'|'
p1655
NNNI9
I1
I0
tp1656
bS'inception'
p1657
tp1658
Rp1659
sg65
g11
(g15
S'\xfd\xec`:[R\xe0?'
p1660
tp1661
Rp1662
sg69
g11
(g12
(S'S2'
p1663
I0
I1
tp1664
Rp1665
(I3
S'|'
p1666
NNNI2
I1
I0
tp1667
bS'RF'
p1668
tp1669
Rp1670
sg78
I3
sg42
g1643
sg79
g80
sg81
g11
(g15
S'\x190\x8d\x01\xd3\x18\xe8?'
p1671
tp1672
Rp1673
sg85
g86
sg87
g88
sbag4
(g5
g6
Ntp1674
Rp1675
(dp1676
g10
g11
(g15
S'\x00\x00\x00\x00\x00\x00\xf8\xff'
p1677
tp1678
Rp1679
sg21
g11
(g15
S'\x00\x00\x00\x00\x00`i@'
p1680
tp1681
Rp1682
sg98
g833
sg25
g26
sg36
(dp1683
g21
g1682
sg42
g11
(g15
S'R\xd1S\x18+m\xe0?'
p1684
tp1685
Rp1686
sg98
g833
ssg46
g11
(g12
(S'S3'
p1687
I0
I1
tp1688
Rp1689
(I3
S'|'
p1690
NNNI3
I1
I0
tp1691
bS'PCA'
p1692
tp1693
Rp1694
sg55
F0.2
sg56
g11
(g12
(S'S9'
p1695
I0
I1
tp1696
Rp1697
(I3
S'|'
p1698
NNNI9
I1
I0
tp1699
bS'inception'
p1700
tp1701
Rp1702
sg65
g11
(g15
S'\xa1\xfc,)\x9bV\xe1?'
p1703
tp1704
Rp1705
sg69
g11
(g12
(S'S2'
p1706
I0
I1
tp1707
Rp1708
(I3
S'|'
p1709
NNNI2
I1
I0
tp1710
bS'RF'
p1711
tp1712
Rp1713
sg78
I3
sg42
g1686
sg79
g80
sg81
g11
(g15
S'\x95 O\t\xf2\x94\xe8?'
p1714
tp1715
Rp1716
sg85
g86
sg87
g88
sbag4
(g5
g6
Ntp1717
Rp1718
(dp1719
g10
g11
(g15
S'\x00\x00\x00\x00\x00\x00\xf8\xff'
p1720
tp1721
Rp1722
sg98
g106
sg25
g26
sg36
(dp1723
g98
g106
sg240
g11
(g15
S'\xb4\xee\x8b+\t\x15M@'
p1724
tp1725
Rp1726
sg223
g11
(g15
S'j\x1a\xee\x892%\xf2?'
p1727
tp1728
Rp1729
ssg46
g11
(g12
(S'S3'
p1730
I0
I1
tp1731
Rp1732
(I3
S'|'
p1733
NNNI3
I1
I0
tp1734
bS'PCA'
p1735
tp1736
Rp1737
sg55
F0.2
sg223
g1729
sg56
g11
(g12
(S'S9'
p1738
I0
I1
tp1739
Rp1740
(I3
S'|'
p1741
NNNI9
I1
I0
tp1742
bS'inception'
p1743
tp1744
Rp1745
sg240
g1726
sg65
g11
(g15
S'/\xb4zQ\xa7\x80\xe1?'
p1746
tp1747
Rp1748
sg69
g11
(g12
(S'S3'
p1749
I0
I1
tp1750
Rp1751
(I3
S'|'
p1752
NNNI3
I1
I0
tp1753
bS'SVM'
p1754
tp1755
Rp1756
sg78
I3
sg79
g80
sg81
g11
(g15
S'\x0b\xc5\xadP\xdc\n\xe5?'
p1757
tp1758
Rp1759
sg85
g86
sg87
g88
sbag4
(g5
g6
Ntp1760
Rp1761
(dp1762
g10
g11
(g15
S'\x00\x00\x00\x00\x00\x00\xf8\xff'
p1763
tp1764
Rp1765
sg21
g11
(g15
S'\x00\x00\x00\x00\x00\xc0p@'
p1766
tp1767
Rp1768
sg98
g106
sg25
g26
sg36
(dp1769
g21
g1768
sg42
g11
(g15
S'\xbb`@v\x10\xd7\xe2?'
p1770
tp1771
Rp1772
sg98
g106
ssg46
g11
(g12
(S'S3'
p1773
I0
I1
tp1774
Rp1775
(I3
S'|'
p1776
NNNI3
I1
I0
tp1777
bS'PCA'
p1778
tp1779
Rp1780
sg55
F0.2
sg56
g11
(g12
(S'S3'
p1781
I0
I1
tp1782
Rp1783
(I3
S'|'
p1784
NNNI3
I1
I0
tp1785
bS'VGG'
p1786
tp1787
Rp1788
sg65
g11
(g15
S']\xc8\xf7o\xba\xde\xdb?'
p1789
tp1790
Rp1791
sg69
g11
(g12
(S'S2'
p1792
I0
I1
tp1793
Rp1794
(I3
S'|'
p1795
NNNI2
I1
I0
tp1796
bS'RF'
p1797
tp1798
Rp1799
sg78
I3
sg42
g1772
sg79
g80
sg81
g11
(g15
S'\t\xf2\x94 O\t\xea?'
p1800
tp1801
Rp1802
sg85
g86
sg87
g88
sbag4
(g5
g6
Ntp1803
Rp1804
(dp1805
g10
g11
(g15
S'\x00\x00\x00\x00\x00\x00\xf8\xff'
p1806
tp1807
Rp1808
sg98
g106
sg25
g26
sg36
(dp1809
g98
g106
sg240
g11
(g15
S's\x1az\xc76\xbbM@'
p1810
tp1811
Rp1812
sg223
g11
(g15
S'\xd5\x8e\xd49\x9b\xee\x03@'
p1813
tp1814
Rp1815
ssg46
g11
(g12
(S'S3'
p1816
I0
I1
tp1817
Rp1818
(I3
S'|'
p1819
NNNI3
I1
I0
tp1820
bS'PCA'
p1821
tp1822
Rp1823
sg55
F0.2
sg223
g1815
sg56
g11
(g12
(S'S9'
p1824
I0
I1
tp1825
Rp1826
(I3
S'|'
p1827
NNNI9
I1
I0
tp1828
bS'inception'
p1829
tp1830
Rp1831
sg240
g1812
sg65
g11
(g15
S'\x9a\xd7\xee\x0f\x05x\xe1?'
p1832
tp1833
Rp1834
sg69
g11
(g12
(S'S3'
p1835
I0
I1
tp1836
Rp1837
(I3
S'|'
p1838
NNNI3
I1
I0
tp1839
bS'SVM'
p1840
tp1841
Rp1842
sg78
I3
sg79
g80
sg81
g11
(g15
S'\x12\xe4)A\x9e\x12\xe4?'
p1843
tp1844
Rp1845
sg85
g86
sg87
g88
sbag4
(g5
g6
Ntp1846
Rp1847
(dp1848
g10
g11
(g15
S'\x00\x00\x00\x00\x00\x00\xf8\xff'
p1849
tp1850
Rp1851
sg27
g11
(g30
S'\x04\x00\x00\x00\x00\x00\x00\x00'
p1852
tp1853
Rp1854
sg25
g26
sg36
(dp1855
g27
g1854
sg240
g11
(g15
S'v\x86\xfc\xb4\xc1\x04X@'
p1856
tp1857
Rp1858
sg38
g11
(g30
S'\x04\x00\x00\x00\x00\x00\x00\x00'
p1859
tp1860
Rp1861
sg223
g11
(g15
S'\x16\xed-Ji\x87\xfa?'
p1862
tp1863
Rp1864
ssg223
g1864
sg46
g11
(g12
(S'S6'
p1865
I0
I1
tp1866
Rp1867
(I3
S'|'
p1868
NNNI6
I1
I0
tp1869
bS'ISOMAP'
p1870
tp1871
Rp1872
sg55
F0.2
sg38
g1861
sg56
g11
(g12
(S'S3'
p1873
I0
I1
tp1874
Rp1875
(I3
S'|'
p1876
NNNI3
I1
I0
tp1877
bS'VGG'
p1878
tp1879
Rp1880
sg240
g1858
sg65
g11
(g15
S'\x9c\x08\xe2p\xe0J\xe2?'
p1881
tp1882
Rp1883
sg69
g11
(g12
(S'S3'
p1884
I0
I1
tp1885
Rp1886
(I3
S'|'
p1887
NNNI3
I1
I0
tp1888
bS'SVM'
p1889
tp1890
Rp1891
sg78
I3
sg79
g80
sg81
g11
(g15
S'\x99\x99\x99\x99\x99\x99\xe9?'
p1892
tp1893
Rp1894
sg85
g86
sg87
g88
sbag4
(g5
g6
Ntp1895
Rp1896
(dp1897
g10
g11
(g15
S'\x00\x00\x00\x00\x00\x00\xf8\xff'
p1898
tp1899
Rp1900
sg98
g106
sg25
g26
sg36
(dp1901
g98
g106
sg240
g11
(g15
S'\xfc\xd0%\xaf\xe6\x1b6@'
p1902
tp1903
Rp1904
sg223
g11
(g15
S'c-\xed\x06\xf49\x1b@'
p1905
tp1906
Rp1907
ssg46
g11
(g12
(S'S3'
p1908
I0
I1
tp1909
Rp1910
(I3
S'|'
p1911
NNNI3
I1
I0
tp1912
bS'PCA'
p1913
tp1914
Rp1915
sg55
F0.2
sg223
g1907
sg56
g11
(g12
(S'S3'
p1916
I0
I1
tp1917
Rp1918
(I3
S'|'
p1919
NNNI3
I1
I0
tp1920
bS'VGG'
p1921
tp1922
Rp1923
sg240
g1904
sg65
g11
(g15
S'\n\x04\x1e\t\xfd\xe0\xe0?'
p1924
tp1925
Rp1926
sg69
g11
(g12
(S'S3'
p1927
I0
I1
tp1928
Rp1929
(I3
S'|'
p1930
NNNI3
I1
I0
tp1931
bS'SVM'
p1932
tp1933
Rp1934
sg78
I3
sg79
g80
sg81
g11
(g15
S'\x05yJ\x90\xa7\x04\xe9?'
p1935
tp1936
Rp1937
sg85
g86
sg87
g88
sbag4
(g5
g6
Ntp1938
Rp1939
(dp1940
g10
g11
(g15
S'\x00\x00\x00\x00\x00\x00\xf8\xff'
p1941
tp1942
Rp1943
sg27
g11
(g30
S'\x03\x00\x00\x00\x00\x00\x00\x00'
p1944
tp1945
Rp1946
sg25
g26
sg36
(dp1947
g27
g1946
sg240
g11
(g15
S'-\xb1\x17@!xR@'
p1948
tp1949
Rp1950
sg154
g11
(g30
S'\x01\x00\x00\x00\x00\x00\x00\x00'
p1951
tp1952
Rp1953
sg38
g11
(g30
S'\x03\x00\x00\x00\x00\x00\x00\x00'
p1954
tp1955
Rp1956
sg223
g11
(g15
S'\xbc\xc2\xed\xf7<\x9d\x1f@'
p1957
tp1958
Rp1959
ssg223
g1959
sg46
g11
(g12
(S'S6'
p1960
I0
I1
tp1961
Rp1962
(I3
S'|'
p1963
NNNI6
I1
I0
tp1964
bS'ISOMAP'
p1965
tp1966
Rp1967
sg55
F0.2
sg38
g1956
sg56
g11
(g12
(S'S8'
p1968
I0
I1
tp1969
Rp1970
(I3
S'|'
p1971
NNNI8
I1
I0
tp1972
bS'haralick'
p1973
tp1974
Rp1975
sg240
g1950
sg154
g1953
sg65
g11
(g15
S'\xf9\xc5\x97\xadC\x92\xe1?'
p1976
tp1977
Rp1978
sg69
g11
(g12
(S'S3'
p1979
I0
I1
tp1980
Rp1981
(I3
S'|'
p1982
NNNI3
I1
I0
tp1983
bS'SVM'
p1984
tp1985
Rp1986
sg78
I3
sg79
g80
sg81
g11
(g15
S'(n\x85\xe2V(\xe6?'
p1987
tp1988
Rp1989
sg85
g86
sg87
g88
sbag4
(g5
g6
Ntp1990
Rp1991
(dp1992
g10
g11
(g15
S'\x00\x00\x00\x00\x00\x00\xf8\xff'
p1993
tp1994
Rp1995
sg98
g833
sg25
g26
sg36
(dp1996
g98
g833
sg240
g11
(g15
S'\x02\x8cv\xfal\\\x1f@'
p1997
tp1998
Rp1999
sg223
g11
(g15
S'h~\xef\xe1?\xa4\x08@'
p2000
tp2001
Rp2002
ssg46
g11
(g12
(S'S3'
p2003
I0
I1
tp2004
Rp2005
(I3
S'|'
p2006
NNNI3
I1
I0
tp2007
bS'PCA'
p2008
tp2009
Rp2010
sg55
F0.2
sg223
g2002
sg56
g11
(g12
(S'S3'
p2011
I0
I1
tp2012
Rp2013
(I3
S'|'
p2014
NNNI3
I1
I0
tp2015
bS'VGG'
p2016
tp2017
Rp2018
sg240
g1999
sg65
g11
(g15
S'\xfc\x82pB\xcb\xd9\xe0?'
p2019
tp2020
Rp2021
sg69
g11
(g12
(S'S3'
p2022
I0
I1
tp2023
Rp2024
(I3
S'|'
p2025
NNNI3
I1
I0
tp2026
bS'SVM'
p2027
tp2028
Rp2029
sg78
I3
sg79
g80
sg81
g11
(g15
S'\x05yJ\x90\xa7\x04\xe9?'
p2030
tp2031
Rp2032
sg85
g86
sg87
g88
sbag4
(g5
g6
Ntp2033
Rp2034
(dp2035
g10
g11
(g15
S'\x00\x00\x00\x00\x00\x00\xf8\xff'
p2036
tp2037
Rp2038
sg21
g11
(g15
S'\x00\x00\x00\x00\x00\xc0p@'
p2039
tp2040
Rp2041
sg25
g26
sg27
g11
(g30
S'\x05\x00\x00\x00\x00\x00\x00\x00'
p2042
tp2043
Rp2044
sg36
(dp2045
g21
g2041
sg27
g2044
sg154
g11
(g30
S'\x02\x00\x00\x00\x00\x00\x00\x00'
p2046
tp2047
Rp2048
sg38
g11
(g30
S'\x02\x00\x00\x00\x00\x00\x00\x00'
p2049
tp2050
Rp2051
sg42
g11
(g15
S'\xee\xb7\xb2\xcf\x8a\xaa\xeb?'
p2052
tp2053
Rp2054
ssg46
g11
(g12
(S'S6'
p2055
I0
I1
tp2056
Rp2057
(I3
S'|'
p2058
NNNI6
I1
I0
tp2059
bS'ISOMAP'
p2060
tp2061
Rp2062
sg55
F0.2
sg38
g2051
sg56
g11
(g12
(S'S8'
p2063
I0
I1
tp2064
Rp2065
(I3
S'|'
p2066
NNNI8
I1
I0
tp2067
bS'haralick'
p2068
tp2069
Rp2070
sg154
g2048
sg65
g11
(g15
S'1K\x88\xad\x0e\x18\xf1?'
p2071
tp2072
Rp2073
sg69
g11
(g12
(S'S2'
p2074
I0
I1
tp2075
Rp2076
(I3
S'|'
p2077
NNNI2
I1
I0
tp2078
bS'RF'
p2079
tp2080
Rp2081
sg78
I3
sg42
g2054
sg79
g80
sg81
g11
(g15
S'\x11\x11\x11\x11\x11\x11\xe9?'
p2082
tp2083
Rp2084
sg85
g86
sg87
g88
sbag4
(g5
g6
Ntp2085
Rp2086
(dp2087
g10
g11
(g15
S'\x00\x00\x00\x00\x00\x00\xf8\xff'
p2088
tp2089
Rp2090
sg98
g106
sg25
g26
sg36
(dp2091
g98
g106
sg240
g11
(g15
S'\x1f\x82=\x98.\x99U@'
p2092
tp2093
Rp2094
sg223
g11
(g15
S'\x0e\xda\x97c8\x9b\x16@'
p2095
tp2096
Rp2097
ssg46
g11
(g12
(S'S3'
p2098
I0
I1
tp2099
Rp2100
(I3
S'|'
p2101
NNNI3
I1
I0
tp2102
bS'PCA'
p2103
tp2104
Rp2105
sg55
F0.2
sg223
g2097
sg56
g11
(g12
(S'S9'
p2106
I0
I1
tp2107
Rp2108
(I3
S'|'
p2109
NNNI9
I1
I0
tp2110
bS'inception'
p2111
tp2112
Rp2113
sg240
g2094
sg65
g11
(g15
S'\xb8\x8e\x98\xa8\xd0\xd9\xe1?'
p2114
tp2115
Rp2116
sg69
g11
(g12
(S'S3'
p2117
I0
I1
tp2118
Rp2119
(I3
S'|'
p2120
NNNI3
I1
I0
tp2121
bS'SVM'
p2122
tp2123
Rp2124
sg78
I3
sg79
g80
sg81
g11
(g15
S'\x88\xb5oX\xfb\x86\xe5?'
p2125
tp2126
Rp2127
sg85
g86
sg87
g88
sbag4
(g5
g6
Ntp2128
Rp2129
(dp2130
g10
g11
(g15
S'\x00\x00\x00\x00\x00\x00\xf8\xff'
p2131
tp2132
Rp2133
sg21
g11
(g15
S'\x00\x00\x00\x00\x00`i@'
p2134
tp2135
Rp2136
sg98
g106
sg25
g26
sg36
(dp2137
g21
g2136
sg42
g11
(g15
S'D\x98>6\x93\x96\xeb?'
p2138
tp2139
Rp2140
sg98
g106
sg154
g11
(g30
S'\x01\x00\x00\x00\x00\x00\x00\x00'
p2141
tp2142
Rp2143
ssg46
g11
(g12
(S'S3'
p2144
I0
I1
tp2145
Rp2146
(I3
S'|'
p2147
NNNI3
I1
I0
tp2148
bS'PCA'
p2149
tp2150
Rp2151
sg55
F0.2
sg56
g11
(g12
(S'S8'
p2152
I0
I1
tp2153
Rp2154
(I3
S'|'
p2155
NNNI8
I1
I0
tp2156
bS'haralick'
p2157
tp2158
Rp2159
sg154
g2143
sg65
g11
(g15
S';\xcfnB\xaa\xd1\xfa?'
p2160
tp2161
Rp2162
sg69
g11
(g12
(S'S2'
p2163
I0
I1
tp2164
Rp2165
(I3
S'|'
p2166
NNNI2
I1
I0
tp2167
bS'RF'
p2168
tp2169
Rp2170
sg78
I3
sg42
g2140
sg79
g80
sg81
g11
(g15
S'\x1c\xd6\xbea\xed\x1b\xe6?'
p2171
tp2172
Rp2173
sg85
g86
sg87
g88
sbag4
(g5
g6
Ntp2174
Rp2175
(dp2176
g10
g11
(g15
S'\x00\x00\x00\x00\x00\x00\xf8\xff'
p2177
tp2178
Rp2179
sg21
g11
(g15
S'\x00\x00\x00\x00\x00\xc0r@'
p2180
tp2181
Rp2182
sg98
g106
sg25
g26
sg36
(dp2183
g21
g2182
sg42
g11
(g15
S'\xe0\xa0\xdb\xa1\x19\t\xec?'
p2184
tp2185
Rp2186
sg98
g106
ssg46
g11
(g12
(S'S3'
p2187
I0
I1
tp2188
Rp2189
(I3
S'|'
p2190
NNNI3
I1
I0
tp2191
bS'PCA'
p2192
tp2193
Rp2194
sg55
F0.2
sg56
g11
(g12
(S'S9'
p2195
I0
I1
tp2196
Rp2197
(I3
S'|'
p2198
NNNI9
I1
I0
tp2199
bS'inception'
p2200
tp2201
Rp2202
sg65
g11
(g15
S'T\xeev\x18\x86\x03\xe2?'
p2203
tp2204
Rp2205
sg69
g11
(g12
(S'S2'
p2206
I0
I1
tp2207
Rp2208
(I3
S'|'
p2209
NNNI2
I1
I0
tp2210
bS'RF'
p2211
tp2212
Rp2213
sg78
I3
sg42
g2186
sg79
g80
sg81
g11
(g15
S'\x190\x8d\x01\xd3\x18\xe8?'
p2214
tp2215
Rp2216
sg85
g86
sg87
g88
sbag4
(g5
g6
Ntp2217
Rp2218
(dp2219
g10
g11
(g15
S'\x00\x00\x00\x00\x00\x00\xf8\xff'
p2220
tp2221
Rp2222
sg98
g106
sg25
g26
sg36
(dp2223
g98
g106
sg240
g11
(g15
S'3\x15\xcd=KYX@'
p2224
tp2225
Rp2226
sg154
g11
(g30
S'\x01\x00\x00\x00\x00\x00\x00\x00'
p2227
tp2228
Rp2229
sg223
g11
(g15
S'\xae\xca\xe5d\x82\x1f\x14@'
p2230
tp2231
Rp2232
ssg46
g11
(g12
(S'S3'
p2233
I0
I1
tp2234
Rp2235
(I3
S'|'
p2236
NNNI3
I1
I0
tp2237
bS'PCA'
p2238
tp2239
Rp2240
sg55
F0.2
sg223
g2232
sg56
g11
(g12
(S'S8'
p2241
I0
I1
tp2242
Rp2243
(I3
S'|'
p2244
NNNI8
I1
I0
tp2245
bS'haralick'
p2246
tp2247
Rp2248
sg240
g2226
sg154
g2229
sg65
g11
(g15
S'\xf7u\x92u\xa5\x9c\xdd?'
p2249
tp2250
Rp2251
sg69
g11
(g12
(S'S3'
p2252
I0
I1
tp2253
Rp2254
(I3
S'|'
p2255
NNNI3
I1
I0
tp2256
bS'SVM'
p2257
tp2258
Rp2259
sg78
I3
sg79
g80
sg81
g11
(g15
S'\x1f|\xf0\xc1\x07\x1f\xe4?'
p2260
tp2261
Rp2262
sg85
g86
sg87
g88
sbag4
(g5
g6
Ntp2263
Rp2264
(dp2265
g10
g11
(g15
S'\x00\x00\x00\x00\x00\x00\xf8\xff'
p2266
tp2267
Rp2268
sg21
g11
(g15
S'\x00\x00\x00\x00\x00@Z@'
p2269
tp2270
Rp2271
sg98
g106
sg25
g26
sg36
(dp2272
g21
g2271
sg42
g11
(g15
S'\xc6\xd4\x90\xa3Rm\xd9?'
p2273
tp2274
Rp2275
sg98
g106
ssg46
g11
(g12
(S'S3'
p2276
I0
I1
tp2277
Rp2278
(I3
S'|'
p2279
NNNI3
I1
I0
tp2280
bS'PCA'
p2281
tp2282
Rp2283
sg55
F0.2
sg56
g11
(g12
(S'S9'
p2284
I0
I1
tp2285
Rp2286
(I3
S'|'
p2287
NNNI9
I1
I0
tp2288
bS'inception'
p2289
tp2290
Rp2291
sg65
g11
(g15
S'\xafV\xf6\xf8b\xbd\xe0?'
p2292
tp2293
Rp2294
sg69
g11
(g12
(S'S2'
p2295
I0
I1
tp2296
Rp2297
(I3
S'|'
p2298
NNNI2
I1
I0
tp2299
bS'RF'
p2300
tp2301
Rp2302
sg78
I3
sg42
g2275
sg79
g80
sg81
g11
(g15
S'\x90\xa7\x04yJ\x90\xe7?'
p2303
tp2304
Rp2305
sg85
g86
sg87
g88
sbag4
(g5
g6
Ntp2306
Rp2307
(dp2308
g10
g11
(g15
S'\x00\x00\x00\x00\x00\x00\xf8\xff'
p2309
tp2310
Rp2311
sg21
g11
(g15
S'\x00\x00\x00\x00\x00\xc0p@'
p2312
tp2313
Rp2314
sg25
g26
sg27
g11
(g30
S'\x06\x00\x00\x00\x00\x00\x00\x00'
p2315
tp2316
Rp2317
sg36
(dp2318
g21
g2314
sg27
g2317
sg38
g11
(g30
S'\x03\x00\x00\x00\x00\x00\x00\x00'
p2319
tp2320
Rp2321
sg42
g11
(g15
S'X\xb8\xfd*!=\xeb?'
p2322
tp2323
Rp2324
ssg46
g11
(g12
(S'S6'
p2325
I0
I1
tp2326
Rp2327
(I3
S'|'
p2328
NNNI6
I1
I0
tp2329
bS'ISOMAP'
p2330
tp2331
Rp2332
sg55
F0.2
sg38
g2321
sg56
g11
(g12
(S'S3'
p2333
I0
I1
tp2334
Rp2335
(I3
S'|'
p2336
NNNI3
I1
I0
tp2337
bS'VGG'
p2338
tp2339
Rp2340
sg65
g11
(g15
S"\xa8\xe9\xfa\xe9'\xd1\xdf?"
p2341
tp2342
Rp2343
sg69
g11
(g12
(S'S2'
p2344
I0
I1
tp2345
Rp2346
(I3
S'|'
p2347
NNNI2
I1
I0
tp2348
bS'RF'
p2349
tp2350
Rp2351
sg78
I3
sg42
g2324
sg79
g80
sg81
g11
(g15
S'\x9d?\xcb\xf9\xb3\x9c\xe7?'
p2352
tp2353
Rp2354
sg85
g86
sg87
g88
sbag4
(g5
g6
Ntp2355
Rp2356
(dp2357
g10
g11
(g15
S'\x00\x00\x00\x00\x00\x00\xf8\xff'
p2358
tp2359
Rp2360
sg98
g106
sg25
g26
sg36
(dp2361
g98
g106
sg240
g11
(g15
S'A\x04\\0\x96OX@'
p2362
tp2363
Rp2364
sg223
g11
(g15
S'Fs\x176~\n\x14@'
p2365
tp2366
Rp2367
ssg46
g11
(g12
(S'S3'
p2368
I0
I1
tp2369
Rp2370
(I3
S'|'
p2371
NNNI3
I1
I0
tp2372
bS'PCA'
p2373
tp2374
Rp2375
sg55
F0.2
sg223
g2367
sg56
g11
(g12
(S'S3'
p2376
I0
I1
tp2377
Rp2378
(I3
S'|'
p2379
NNNI3
I1
I0
tp2380
bS'VGG'
p2381
tp2382
Rp2383
sg240
g2364
sg65
g11
(g15
S'\xf7.\xbe\xfa\x90\xd7\xe0?'
p2384
tp2385
Rp2386
sg69
g11
(g12
(S'S3'
p2387
I0
I1
tp2388
Rp2389
(I3
S'|'
p2390
NNNI3
I1
I0
tp2391
bS'SVM'
p2392
tp2393
Rp2394
sg78
I3
sg79
g80
sg81
g11
(g15
S'\x05yJ\x90\xa7\x04\xe9?'
p2395
tp2396
Rp2397
sg85
g86
sg87
g88
sbag4
(g5
g6
Ntp2398
Rp2399
(dp2400
g10
g11
(g15
S'\x00\x00\x00\x00\x00\x00\xf8\xff'
p2401
tp2402
Rp2403
sg21
g11
(g15
S'\x00\x00\x00\x00\x00\x00D@'
p2404
tp2405
Rp2406
sg98
g833
sg25
g26
sg36
(dp2407
g21
g2406
sg42
g11
(g15
S'8\xd1\xcb7\xae\xc3\xef?'
p2408
tp2409
Rp2410
sg98
g833
ssg46
g11
(g12
(S'S3'
p2411
I0
I1
tp2412
Rp2413
(I3
S'|'
p2414
NNNI3
I1
I0
tp2415
bS'PCA'
p2416
tp2417
Rp2418
sg55
F0.2
sg56
g11
(g12
(S'S9'
p2419
I0
I1
tp2420
Rp2421
(I3
S'|'
p2422
NNNI9
I1
I0
tp2423
bS'inception'
p2424
tp2425
Rp2426
sg65
g11
(g15
S'0j\x07:\x9d\x02\xf8?'
p2427
tp2428
Rp2429
sg69
g11
(g12
(S'S2'
p2430
I0
I1
tp2431
Rp2432
(I3
S'|'
p2433
NNNI2
I1
I0
tp2434
bS'RF'
p2435
tp2436
Rp2437
sg78
I3
sg42
g2410
sg79
g80
sg81
g11
(g15
S'\r\x98\xc6\x80i\x0c\xe8?'
p2438
tp2439
Rp2440
sg85
g86
sg87
g88
sbag4
(g5
g6
Ntp2441
Rp2442
(dp2443
g10
g11
(g15
S'\x00\x00\x00\x00\x00\x00\xf8\xff'
p2444
tp2445
Rp2446
sg21
g11
(g15
S'\x00\x00\x00\x00\x00@a@'
p2447
tp2448
Rp2449
sg98
g106
sg25
g26
sg36
(dp2450
g21
g2449
sg42
g11
(g15
S'%Zz\xca\xdc\xb6\xe4?'
p2451
tp2452
Rp2453
sg98
g106
ssg46
g11
(g12
(S'S3'
p2454
I0
I1
tp2455
Rp2456
(I3
S'|'
p2457
NNNI3
I1
I0
tp2458
bS'PCA'
p2459
tp2460
Rp2461
sg55
F0.2
sg56
g11
(g12
(S'S3'
p2462
I0
I1
tp2463
Rp2464
(I3
S'|'
p2465
NNNI3
I1
I0
tp2466
bS'VGG'
p2467
tp2468
Rp2469
sg65
g11
(g15
S'\xb8\xea\x13w\xe1<\xda?'
p2470
tp2471
Rp2472
sg69
g11
(g12
(S'S2'
p2473
I0
I1
tp2474
Rp2475
(I3
S'|'
p2476
NNNI2
I1
I0
tp2477
bS'RF'
p2478
tp2479
Rp2480
sg78
I3
sg42
g2453
sg79
g80
sg81
g11
(g15
S'\x15\x8a[\xa1\xb8\x15\xea?'
p2481
tp2482
Rp2483
sg85
g86
sg87
g88
sbag4
(g5
g6
Ntp2484
Rp2485
(dp2486
g10
g11
(g15
S'\x00\x00\x00\x00\x00\x00\xf8\xff'
p2487
tp2488
Rp2489
sg21
g11
(g15
S'\x00\x00\x00\x00\x00\xc0r@'
p2490
tp2491
Rp2492
sg25
g26
sg27
g11
(g30
S'\x05\x00\x00\x00\x00\x00\x00\x00'
p2493
tp2494
Rp2495
sg36
(dp2496
g21
g2492
sg27
g2495
sg154
g11
(g30
S'\x03\x00\x00\x00\x00\x00\x00\x00'
p2497
tp2498
Rp2499
sg38
g11
(g30
S'\x02\x00\x00\x00\x00\x00\x00\x00'
p2500
tp2501
Rp2502
sg42
g11
(g15
S'\xc8\x05\xedDS\xd9\xe4?'
p2503
tp2504
Rp2505
ssg46
g11
(g12
(S'S6'
p2506
I0
I1
tp2507
Rp2508
(I3
S'|'
p2509
NNNI6
I1
I0
tp2510
bS'ISOMAP'
p2511
tp2512
Rp2513
sg55
F0.2
sg38
g2502
sg56
g11
(g12
(S'S8'
p2514
I0
I1
tp2515
Rp2516
(I3
S'|'
p2517
NNNI8
I1
I0
tp2518
bS'haralick'
p2519
tp2520
Rp2521
sg154
g2499
sg65
g11
(g15
S'p\x81\xbf\xfe\xe0/\xe0?'
p2522
tp2523
Rp2524
sg69
g11
(g12
(S'S2'
p2525
I0
I1
tp2526
Rp2527
(I3
S'|'
p2528
NNNI2
I1
I0
tp2529
bS'RF'
p2530
tp2531
Rp2532
sg78
I3
sg42
g2505
sg79
g80
sg81
g11
(g15
S'\x8b[\xa1\xb8\x15\x8a\xeb?'
p2533
tp2534
Rp2535
sg85
g86
sg87
g88
sbag4
(g5
g6
Ntp2536
Rp2537
(dp2538
g10
g11
(g15
S'\x00\x00\x00\x00\x00\x00\xf8\xff'
p2539
tp2540
Rp2541
sg27
g11
(g30
S'\x06\x00\x00\x00\x00\x00\x00\x00'
p2542
tp2543
Rp2544
sg25
g26
sg36
(dp2545
g27
g2544
sg240
g11
(g15
S'\x9b\xed\xc8h\xa2\xfb>@'
p2546
tp2547
Rp2548
sg154
g11
(g30
S'\x02\x00\x00\x00\x00\x00\x00\x00'
p2549
tp2550
Rp2551
sg38
g11
(g30
S'\x02\x00\x00\x00\x00\x00\x00\x00'
p2552
tp2553
Rp2554
sg223
g11
(g15
S'\x88\x9b\xb9T\x85\x80\x14@'
p2555
tp2556
Rp2557
ssg223
g2557
sg46
g11
(g12
(S'S6'
p2558
I0
I1
tp2559
Rp2560
(I3
S'|'
p2561
NNNI6
I1
I0
tp2562
bS'ISOMAP'
p2563
tp2564
Rp2565
sg55
F0.2
sg38
g2554
sg56
g11
(g12
(S'S8'
p2566
I0
I1
tp2567
Rp2568
(I3
S'|'
p2569
NNNI8
I1
I0
tp2570
bS'haralick'
p2571
tp2572
Rp2573
sg240
g2548
sg154
g2551
sg65
g11
(g15
S'\x9b\x9e\xdcO\x1e\x0c\xde?'
p2574
tp2575
Rp2576
sg69
g11
(g12
(S'S3'
p2577
I0
I1
tp2578
Rp2579
(I3
S'|'
p2580
NNNI3
I1
I0
tp2581
bS'SVM'
p2582
tp2583
Rp2584
sg78
I3
sg79
g80
sg81
g11
(g15
S'\x1c\xd6\xbea\xed\x1b\xe6?'
p2585
tp2586
Rp2587
sg85
g86
sg87
g88
sbag4
(g5
g6
Ntp2588
Rp2589
(dp2590
g10
g11
(g15
S'\x00\x00\x00\x00\x00\x00\xf8\xff'
p2591
tp2592
Rp2593
sg98
g833
sg25
g26
sg36
(dp2594
g98
g833
sg240
g11
(g15
S'\x1b\x02yI8\xeaQ@'
p2595
tp2596
Rp2597
sg154
g11
(g30
S'\x02\x00\x00\x00\x00\x00\x00\x00'
p2598
tp2599
Rp2600
sg223
g11
(g15
S'Q\xa7\xa4F\xec:\xf1?'
p2601
tp2602
Rp2603
ssg46
g11
(g12
(S'S3'
p2604
I0
I1
tp2605
Rp2606
(I3
S'|'
p2607
NNNI3
I1
I0
tp2608
bS'PCA'
p2609
tp2610
Rp2611
sg55
F0.2
sg223
g2603
sg56
g11
(g12
(S'S8'
p2612
I0
I1
tp2613
Rp2614
(I3
S'|'
p2615
NNNI8
I1
I0
tp2616
bS'haralick'
p2617
tp2618
Rp2619
sg240
g2597
sg154
g2600
sg65
g11
(g15
S'_\xd0\x99\xdft \xe0?'
p2620
tp2621
Rp2622
sg69
g11
(g12
(S'S3'
p2623
I0
I1
tp2624
Rp2625
(I3
S'|'
p2626
NNNI3
I1
I0
tp2627
bS'SVM'
p2628
tp2629
Rp2630
sg78
I3
sg79
g80
sg81
g11
(g15
S'\x9bl\xb2\xc9&\x9b\xe4?'
p2631
tp2632
Rp2633
sg85
g86
sg87
g88
sbag4
(g5
g6
Ntp2634
Rp2635
(dp2636
g10
g11
(g15
S'\x00\x00\x00\x00\x00\x00\xf8\xff'
p2637
tp2638
Rp2639
sg21
g11
(g15
S'\x00\x00\x00\x00\x00@Z@'
p2640
tp2641
Rp2642
sg25
g26
sg27
g11
(g30
S'\x04\x00\x00\x00\x00\x00\x00\x00'
p2643
tp2644
Rp2645
sg36
(dp2646
g21
g2642
sg27
g2645
sg154
g11
(g30
S'\x02\x00\x00\x00\x00\x00\x00\x00'
p2647
tp2648
Rp2649
sg38
g11
(g30
S'\x04\x00\x00\x00\x00\x00\x00\x00'
p2650
tp2651
Rp2652
sg42
g11
(g15
S'6\x83\xcf\x91R\x8f\xe4?'
p2653
tp2654
Rp2655
ssg46
g11
(g12
(S'S6'
p2656
I0
I1
tp2657
Rp2658
(I3
S'|'
p2659
NNNI6
I1
I0
tp2660
bS'ISOMAP'
p2661
tp2662
Rp2663
sg55
F0.2
sg38
g2652
sg56
g11
(g12
(S'S8'
p2664
I0
I1
tp2665
Rp2666
(I3
S'|'
p2667
NNNI8
I1
I0
tp2668
bS'haralick'
p2669
tp2670
Rp2671
sg154
g2649
sg65
g11
(g15
S'M7\x0c\x81\x14\xed\xef?'
p2672
tp2673
Rp2674
sg69
g11
(g12
(S'S2'
p2675
I0
I1
tp2676
Rp2677
(I3
S'|'
p2678
NNNI2
I1
I0
tp2679
bS'RF'
p2680
tp2681
Rp2682
sg78
I3
sg42
g2655
sg79
g80
sg81
g11
(g15
S'\x11\x11\x11\x11\x11\x11\xe9?'
p2683
tp2684
Rp2685
sg85
g86
sg87
g88
sbag4
(g5
g6
Ntp2686
Rp2687
(dp2688
g10
g11
(g15
S'\x00\x00\x00\x00\x00\x00\xf8\xff'
p2689
tp2690
Rp2691
sg21
g11
(g15
S'\x00\x00\x00\x00\x00\x00D@'
p2692
tp2693
Rp2694
sg98
g106
sg25
g26
sg36
(dp2695
g21
g2694
sg42
g11
(g15
S'aP\x7f\xf1\x9b\xea\xd8?'
p2696
tp2697
Rp2698
sg98
g106
ssg46
g11
(g12
(S'S3'
p2699
I0
I1
tp2700
Rp2701
(I3
S'|'
p2702
NNNI3
I1
I0
tp2703
bS'PCA'
p2704
tp2705
Rp2706
sg55
F0.2
sg56
g11
(g12
(S'S9'
p2707
I0
I1
tp2708
Rp2709
(I3
S'|'
p2710
NNNI9
I1
I0
tp2711
bS'inception'
p2712
tp2713
Rp2714
sg65
g11
(g15
S'\x95\xf4&\xb9\xde\xd5\xe1?'
p2715
tp2716
Rp2717
sg69
g11
(g12
(S'S2'
p2718
I0
I1
tp2719
Rp2720
(I3
S'|'
p2721
NNNI2
I1
I0
tp2722
bS'RF'
p2723
tp2724
Rp2725
sg78
I3
sg42
g2698
sg79
g80
sg81
g11
(g15
S'\x88\x88\x88\x88\x88\x88\xe8?'
p2726
tp2727
Rp2728
sg85
g86
sg87
g88
sbag4
(g5
g6
Ntp2729
Rp2730
(dp2731
g10
g11
(g15
S'\x00\x00\x00\x00\x00\x00\xf8\xff'
p2732
tp2733
Rp2734
sg27
g11
(g30
S'\x06\x00\x00\x00\x00\x00\x00\x00'
p2735
tp2736
Rp2737
sg25
g26
sg36
(dp2738
g27
g2737
sg240
g11
(g15
S'p\x19\xb2.)\xfd @'
p2739
tp2740
Rp2741
sg154
g11
(g30
S'\x02\x00\x00\x00\x00\x00\x00\x00'
p2742
tp2743
Rp2744
sg38
g11
(g30
S'\x02\x00\x00\x00\x00\x00\x00\x00'
p2745
tp2746
Rp2747
sg223
g11
(g15
S'\xeb\x1d\xe4?\xabm\xe2?'
p2748
tp2749
Rp2750
ssg223
g2750
sg46
g11
(g12
(S'S6'
p2751
I0
I1
tp2752
Rp2753
(I3
S'|'
p2754
NNNI6
I1
I0
tp2755
bS'ISOMAP'
p2756
tp2757
Rp2758
sg55
F0.2
sg38
g2747
sg56
g11
(g12
(S'S8'
p2759
I0
I1
tp2760
Rp2761
(I3
S'|'
p2762
NNNI8
I1
I0
tp2763
bS'haralick'
p2764
tp2765
Rp2766
sg240
g2741
sg154
g2744
sg65
g11
(g15
S'\xbb\x8fA\xeam\xf2\xdc?'
p2767
tp2768
Rp2769
sg69
g11
(g12
(S'S3'
p2770
I0
I1
tp2771
Rp2772
(I3
S'|'
p2773
NNNI3
I1
I0
tp2774
bS'SVM'
p2775
tp2776
Rp2777
sg78
I3
sg79
g80
sg81
g11
(g15
S'#\xf5:R\xaf#\xe5?'
p2778
tp2779
Rp2780
sg85
g86
sg87
g88
sbag4
(g5
g6
Ntp2781
Rp2782
(dp2783
g10
g11
(g15
S'\x00\x00\x00\x00\x00\x00\xf8\xff'
p2784
tp2785
Rp2786
sg21
g11
(g15
S'\x00\x00\x00\x00\x00`i@'
p2787
tp2788
Rp2789
sg25
g26
sg27
g11
(g30
S'\x05\x00\x00\x00\x00\x00\x00\x00'
p2790
tp2791
Rp2792
sg36
(dp2793
g21
g2789
sg27
g2792
sg38
g11
(g30
S'\x03\x00\x00\x00\x00\x00\x00\x00'
p2794
tp2795
Rp2796
sg42
g11
(g15
S'\xc0\xda1X\xb9`\xe7?'
p2797
tp2798
Rp2799
ssg46
g11
(g12
(S'S6'
p2800
I0
I1
tp2801
Rp2802
(I3
S'|'
p2803
NNNI6
I1
I0
tp2804
bS'ISOMAP'
p2805
tp2806
Rp2807
sg55
F0.2
sg38
g2796
sg56
g11
(g12
(S'S9'
p2808
I0
I1
tp2809
Rp2810
(I3
S'|'
p2811
NNNI9
I1
I0
tp2812
bS'inception'
p2813
tp2814
Rp2815
sg65
g11
(g15
S'\x10\xad\xe2\xbb\xb1\x8e\xf8?'
p2816
tp2817
Rp2818
sg69
g11
(g12
(S'S2'
p2819
I0
I1
tp2820
Rp2821
(I3
S'|'
p2822
NNNI2
I1
I0
tp2823
bS'RF'
p2824
tp2825
Rp2826
sg78
I3
sg42
g2799
sg79
g80
sg81
g11
(g15
S'\r\x98\xc6\x80i\x0c\xe8?'
p2827
tp2828
Rp2829
sg85
g86
sg87
g88
sbag4
(g5
g6
Ntp2830
Rp2831
(dp2832
g10
g11
(g15
S'\x00\x00\x00\x00\x00\x00\xf8\xff'
p2833
tp2834
Rp2835
sg21
g11
(g15
S'\x00\x00\x00\x00\x00`m@'
p2836
tp2837
Rp2838
sg25
g26
sg27
g11
(g30
S'\x05\x00\x00\x00\x00\x00\x00\x00'
p2839
tp2840
Rp2841
sg36
(dp2842
g21
g2838
sg27
g2841
sg38
g11
(g30
S'\x03\x00\x00\x00\x00\x00\x00\x00'
p2843
tp2844
Rp2845
sg42
g11
(g15
S'8=\xd3\xfb O\xe1?'
p2846
tp2847
Rp2848
ssg46
g11
(g12
(S'S6'
p2849
I0
I1
tp2850
Rp2851
(I3
S'|'
p2852
NNNI6
I1
I0
tp2853
bS'ISOMAP'
p2854
tp2855
Rp2856
sg55
F0.2
sg38
g2845
sg56
g11
(g12
(S'S9'
p2857
I0
I1
tp2858
Rp2859
(I3
S'|'
p2860
NNNI9
I1
I0
tp2861
bS'inception'
p2862
tp2863
Rp2864
sg65
g11
(g15
S'\x1d\x86\x80\xe5W\x9e\xe3?'
p2865
tp2866
Rp2867
sg69
g11
(g12
(S'S2'
p2868
I0
I1
tp2869
Rp2870
(I3
S'|'
p2871
NNNI2
I1
I0
tp2872
bS'RF'
p2873
tp2874
Rp2875
sg78
I3
sg42
g2848
sg79
g80
sg81
g11
(g15
S'\x90\xa7\x04yJ\x90\xe7?'
p2876
tp2877
Rp2878
sg85
g86
sg87
g88
sbag4
(g5
g6
Ntp2879
Rp2880
(dp2881
g10
g11
(g15
S'\x00\x00\x00\x00\x00\x00\xf8\xff'
p2882
tp2883
Rp2884
sg21
g11
(g15
S'\x00\x00\x00\x00\x00@R@'
p2885
tp2886
Rp2887
sg98
g833
sg25
g26
sg36
(dp2888
g21
g2887
sg42
g11
(g15
S'z1\xbfh\xddi\xda?'
p2889
tp2890
Rp2891
sg98
g833
ssg46
g11
(g12
(S'S3'
p2892
I0
I1
tp2893
Rp2894
(I3
S'|'
p2895
NNNI3
I1
I0
tp2896
bS'PCA'
p2897
tp2898
Rp2899
sg55
F0.2
sg56
g11
(g12
(S'S9'
p2900
I0
I1
tp2901
Rp2902
(I3
S'|'
p2903
NNNI9
I1
I0
tp2904
bS'inception'
p2905
tp2906
Rp2907
sg65
g11
(g15
S'\x97\xc2\x95H<\xe5\xe0?'
p2908
tp2909
Rp2910
sg69
g11
(g12
(S'S2'
p2911
I0
I1
tp2912
Rp2913
(I3
S'|'
p2914
NNNI2
I1
I0
tp2915
bS'RF'
p2916
tp2917
Rp2918
sg78
I3
sg42
g2891
sg79
g80
sg81
g11
(g15
S'\x190\x8d\x01\xd3\x18\xe8?'
p2919
tp2920
Rp2921
sg85
g86
sg87
g88
sbag4
(g5
g6
Ntp2922
Rp2923
(dp2924
g10
g11
(g15
S'\x00\x00\x00\x00\x00\x00\xf8\xff'
p2925
tp2926
Rp2927
sg27
g11
(g30
S'\x06\x00\x00\x00\x00\x00\x00\x00'
p2928
tp2929
Rp2930
sg25
g26
sg36
(dp2931
g27
g2930
sg240
g11
(g15
S'\x12k\x9c\xfb\xe6PQ@'
p2932
tp2933
Rp2934
sg38
g11
(g30
S'\x02\x00\x00\x00\x00\x00\x00\x00'
p2935
tp2936
Rp2937
sg223
g11
(g15
S'\x03\xb5\x18\x9e\xa3[\x11@'
p2938
tp2939
Rp2940
ssg223
g2940
sg46
g11
(g12
(S'S6'
p2941
I0
I1
tp2942
Rp2943
(I3
S'|'
p2944
NNNI6
I1
I0
tp2945
bS'ISOMAP'
p2946
tp2947
Rp2948
sg55
F0.2
sg38
g2937
sg56
g11
(g12
(S'S3'
p2949
I0
I1
tp2950
Rp2951
(I3
S'|'
p2952
NNNI3
I1
I0
tp2953
bS'VGG'
p2954
tp2955
Rp2956
sg240
g2934
sg65
g11
(g15
S'\x93\x94ZA\xa2-\xe1?'
p2957
tp2958
Rp2959
sg69
g11
(g12
(S'S3'
p2960
I0
I1
tp2961
Rp2962
(I3
S'|'
p2963
NNNI3
I1
I0
tp2964
bS'SVM'
p2965
tp2966
Rp2967
sg78
I3
sg79
g80
sg81
g11
(g15
S'\x08\x1f|\xf0\xc1\x07\xe7?'
p2968
tp2969
Rp2970
sg85
g86
sg87
g88
sbag4
(g5
g6
Ntp2971
Rp2972
(dp2973
g10
g11
(g15
S'\x00\x00\x00\x00\x00\x00\xf8\xff'
p2974
tp2975
Rp2976
sg21
g11
(g15
S'\x00\x00\x00\x00\x00@R@'
p2977
tp2978
Rp2979
sg98
g106
sg25
g26
sg36
(dp2980
g21
g2979
sg42
g11
(g15
S'\x0e\xe1V\x9f\x0b\xc9\xec?'
p2981
tp2982
Rp2983
sg98
g106
sg154
g11
(g30
S'\x02\x00\x00\x00\x00\x00\x00\x00'
p2984
tp2985
Rp2986
ssg46
g11
(g12
(S'S3'
p2987
I0
I1
tp2988
Rp2989
(I3
S'|'
p2990
NNNI3
I1
I0
tp2991
bS'PCA'
p2992
tp2993
Rp2994
sg55
F0.2
sg56
g11
(g12
(S'S8'
p2995
I0
I1
tp2996
Rp2997
(I3
S'|'
p2998
NNNI8
I1
I0
tp2999
bS'haralick'
p3000
tp3001
Rp3002
sg154
g2986
sg65
g11
(g15
S'\x08\x15\xd8\n\xfe\xe2\x04@'
p3003
tp3004
Rp3005
sg69
g11
(g12
(S'S2'
p3006
I0
I1
tp3007
Rp3008
(I3
S'|'
p3009
NNNI2
I1
I0
tp3010
bS'RF'
p3011
tp3012
Rp3013
sg78
I3
sg42
g2983
sg79
g80
sg81
g11
(g15
S'\xac}\xc3\xda7\xac\xe5?'
p3014
tp3015
Rp3016
sg85
g86
sg87
g88
sbag4
(g5
g6
Ntp3017
Rp3018
(dp3019
g10
g11
(g15
S'\x00\x00\x00\x00\x00\x00\xf8\xff'
p3020
tp3021
Rp3022
sg27
g11
(g30
S'\x04\x00\x00\x00\x00\x00\x00\x00'
p3023
tp3024
Rp3025
sg25
g26
sg36
(dp3026
g27
g3025
sg240
g11
(g15
S'\t\x8e\xc0\xcc\x86\x923@'
p3027
tp3028
Rp3029
sg154
g11
(g30
S'\x02\x00\x00\x00\x00\x00\x00\x00'
p3030
tp3031
Rp3032
sg38
g11
(g30
S'\x03\x00\x00\x00\x00\x00\x00\x00'
p3033
tp3034
Rp3035
sg223
g11
(g15
S'F\x10\x9cC\x17@\x0b@'
p3036
tp3037
Rp3038
ssg223
g3038
sg46
g11
(g12
(S'S6'
p3039
I0
I1
tp3040
Rp3041
(I3
S'|'
p3042
NNNI6
I1
I0
tp3043
bS'ISOMAP'
p3044
tp3045
Rp3046
sg55
F0.2
sg38
g3035
sg56
g11
(g12
(S'S8'
p3047
I0
I1
tp3048
Rp3049
(I3
S'|'
p3050
NNNI8
I1
I0
tp3051
bS'haralick'
p3052
tp3053
Rp3054
sg240
g3029
sg154
g3032
sg65
g11
(g15
S'Y\xa4W\x137n\xe0?'
p3055
tp3056
Rp3057
sg69
g11
(g12
(S'S3'
p3058
I0
I1
tp3059
Rp3060
(I3
S'|'
p3061
NNNI3
I1
I0
tp3062
bS'SVM'
p3063
tp3064
Rp3065
sg78
I3
sg79
g80
sg81
g11
(g15
S'\x9bl\xb2\xc9&\x9b\xe4?'
p3066
tp3067
Rp3068
sg85
g86
sg87
g88
sbag4
(g5
g6
Ntp3069
Rp3070
(dp3071
g10
g11
(g15
S'\x00\x00\x00\x00\x00\x00\xf8\xff'
p3072
tp3073
Rp3074
sg21
g11
(g15
S'\x00\x00\x00\x00\x00\xc0p@'
p3075
tp3076
Rp3077
sg98
g833
sg25
g26
sg36
(dp3078
g21
g3077
sg42
g11
(g15
S'\x94\xb6p\xb4\xf5\xf6\xe3?'
p3079
tp3080
Rp3081
sg98
g833
ssg46
g11
(g12
(S'S3'
p3082
I0
I1
tp3083
Rp3084
(I3
S'|'
p3085
NNNI3
I1
I0
tp3086
bS'PCA'
p3087
tp3088
Rp3089
sg55
F0.2
sg56
g11
(g12
(S'S9'
p3090
I0
I1
tp3091
Rp3092
(I3
S'|'
p3093
NNNI9
I1
I0
tp3094
bS'inception'
p3095
tp3096
Rp3097
sg65
g11
(g15
S'Ea\x81_h\xdc\xe0?'
p3098
tp3099
Rp3100
sg69
g11
(g12
(S'S2'
p3101
I0
I1
tp3102
Rp3103
(I3
S'|'
p3104
NNNI2
I1
I0
tp3105
bS'RF'
p3106
tp3107
Rp3108
sg78
I3
sg42
g3081
sg79
g80
sg81
g11
(g15
S'\x190\x8d\x01\xd3\x18\xe8?'
p3109
tp3110
Rp3111
sg85
g86
sg87
g88
sbag4
(g5
g6
Ntp3112
Rp3113
(dp3114
g10
g11
(g15
S'\x00\x00\x00\x00\x00\x00\xf8\xff'
p3115
tp3116
Rp3117
sg27
g11
(g30
S'\x04\x00\x00\x00\x00\x00\x00\x00'
p3118
tp3119
Rp3120
sg25
g26
sg36
(dp3121
g27
g3120
sg240
g11
(g15
S'\xa8g\xc0\xb0l\x8eP@'
p3122
tp3123
Rp3124
sg38
g11
(g30
S'\x04\x00\x00\x00\x00\x00\x00\x00'
p3125
tp3126
Rp3127
sg223
g11
(g15
S' \x87\xd19\xd0%\x12@'
p3128
tp3129
Rp3130
ssg223
g3130
sg46
g11
(g12
(S'S6'
p3131
I0
I1
tp3132
Rp3133
(I3
S'|'
p3134
NNNI6
I1
I0
tp3135
bS'ISOMAP'
p3136
tp3137
Rp3138
sg55
F0.2
sg38
g3127
sg56
g11
(g12
(S'S9'
p3139
I0
I1
tp3140
Rp3141
(I3
S'|'
p3142
NNNI9
I1
I0
tp3143
bS'inception'
p3144
tp3145
Rp3146
sg240
g3124
sg65
g11
(g15
S'?x\xcd#\xc0\xe7\xe4?'
p3147
tp3148
Rp3149
sg69
g11
(g12
(S'S3'
p3150
I0
I1
tp3151
Rp3152
(I3
S'|'
p3153
NNNI3
I1
I0
tp3154
bS'SVM'
p3155
tp3156
Rp3157
sg78
I3
sg79
g80
sg81
g11
(g15
S'\x8f\xd4\xebH\xbd\x8e\xe4?'
p3158
tp3159
Rp3160
sg85
g86
sg87
g88
sbag4
(g5
g6
Ntp3161
Rp3162
(dp3163
g10
g11
(g15
S'\x00\x00\x00\x00\x00\x00\xf8\xff'
p3164
tp3165
Rp3166
sg21
g11
(g15
S'\x00\x00\x00\x00\x00\x00D@'
p3167
tp3168
Rp3169
sg98
g106
sg25
g26
sg36
(dp3170
g21
g3169
sg42
g11
(g15
S'\nR&\xac\xfd\xd9\xeb?'
p3171
tp3172
Rp3173
sg98
g106
sg154
g11
(g30
S'\x03\x00\x00\x00\x00\x00\x00\x00'
p3174
tp3175
Rp3176
ssg46
g11
(g12
(S'S3'
p3177
I0
I1
tp3178
Rp3179
(I3
S'|'
p3180
NNNI3
I1
I0
tp3181
bS'PCA'
p3182
tp3183
Rp3184
sg55
F0.2
sg56
g11
(g12
(S'S8'
p3185
I0
I1
tp3186
Rp3187
(I3
S'|'
p3188
NNNI8
I1
I0
tp3189
bS'haralick'
p3190
tp3191
Rp3192
sg154
g3176
sg65
g11
(g15
S'E\x0c\xcd\xe8\x8d\xfa\xd6?'
p3193
tp3194
Rp3195
sg69
g11
(g12
(S'S2'
p3196
I0
I1
tp3197
Rp3198
(I3
S'|'
p3199
NNNI2
I1
I0
tp3200
bS'RF'
p3201
tp3202
Rp3203
sg78
I3
sg42
g3173
sg79
g80
sg81
g11
(g15
S'#"""""\xea?'
p3204
tp3205
Rp3206
sg85
g86
sg87
g88
sbag4
(g5
g6
Ntp3207
Rp3208
(dp3209
g10
g11
(g15
S'\x00\x00\x00\x00\x00\x00\xf8\xff'
p3210
tp3211
Rp3212
sg21
g11
(g15
S'\x00\x00\x00\x00\x00\x00D@'
p3213
tp3214
Rp3215
sg25
g26
sg27
g11
(g30
S'\x07\x00\x00\x00\x00\x00\x00\x00'
p3216
tp3217
Rp3218
sg36
(dp3219
g21
g3215
sg27
g3218
sg154
g11
(g30
S'\x03\x00\x00\x00\x00\x00\x00\x00'
p3220
tp3221
Rp3222
sg38
g11
(g30
S'\x02\x00\x00\x00\x00\x00\x00\x00'
p3223
tp3224
Rp3225
sg42
g11
(g15
S'"\xb0\x02y1\x8c\xee?'
p3226
tp3227
Rp3228
ssg46
g11
(g12
(S'S6'
p3229
I0
I1
tp3230
Rp3231
(I3
S'|'
p3232
NNNI6
I1
I0
tp3233
bS'ISOMAP'
p3234
tp3235
Rp3236
sg55
F0.2
sg38
g3225
sg56
g11
(g12
(S'S8'
p3237
I0
I1
tp3238
Rp3239
(I3
S'|'
p3240
NNNI8
I1
I0
tp3241
bS'haralick'
p3242
tp3243
Rp3244
sg154
g3222
sg65
g11
(g15
S'\x9d\xc5m\x8e\xfd[\xde?'
p3245
tp3246
Rp3247
sg69
g11
(g12
(S'S2'
p3248
I0
I1
tp3249
Rp3250
(I3
S'|'
p3251
NNNI2
I1
I0
tp3252
bS'RF'
p3253
tp3254
Rp3255
sg78
I3
sg42
g3228
sg79
g80
sg81
g11
(g15
S'\t\xf2\x94 O\t\xea?'
p3256
tp3257
Rp3258
sg85
g86
sg87
g88
sbag4
(g5
g6
Ntp3259
Rp3260
(dp3261
g10
g11
(g15
S'\x00\x00\x00\x00\x00\x00\xf8\xff'
p3262
tp3263
Rp3264
sg98
g106
sg25
g26
sg36
(dp3265
g98
g106
sg240
g11
(g15
S"\xf8'\x8a\x81\x8e\xb7@@"
p3266
tp3267
Rp3268
sg223
g11
(g15
S'\xec\x8634\xae\xe9\x10@'
p3269
tp3270
Rp3271
ssg46
g11
(g12
(S'S3'
p3272
I0
I1
tp3273
Rp3274
(I3
S'|'
p3275
NNNI3
I1
I0
tp3276
bS'PCA'
p3277
tp3278
Rp3279
sg55
F0.2
sg223
g3271
sg56
g11
(g12
(S'S3'
p3280
I0
I1
tp3281
Rp3282
(I3
S'|'
p3283
NNNI3
I1
I0
tp3284
bS'VGG'
p3285
tp3286
Rp3287
sg240
g3268
sg65
g11
(g15
S'[^\x15\x1b\x02"\xe1?'
p3288
tp3289
Rp3290
sg69
g11
(g12
(S'S3'
p3291
I0
I1
tp3292
Rp3293
(I3
S'|'
p3294
NNNI3
I1
I0
tp3295
bS'SVM'
p3296
tp3297
Rp3298
sg78
I3
sg79
g80
sg81
g11
(g15
S'\x05yJ\x90\xa7\x04\xe9?'
p3299
tp3300
Rp3301
sg85
g86
sg87
g88
sbag4
(g5
g6
Ntp3302
Rp3303
(dp3304
g10
g11
(g15
S'\x00\x00\x00\x00\x00\x00\xf8\xff'
p3305
tp3306
Rp3307
sg21
g11
(g15
S'\x00\x00\x00\x00\x00@R@'
p3308
tp3309
Rp3310
sg25
g26
sg27
g11
(g30
S'\x06\x00\x00\x00\x00\x00\x00\x00'
p3311
tp3312
Rp3313
sg36
(dp3314
g21
g3310
sg27
g3313
sg154
g11
(g30
S'\x03\x00\x00\x00\x00\x00\x00\x00'
p3315
tp3316
Rp3317
sg38
g11
(g30
S'\x02\x00\x00\x00\x00\x00\x00\x00'
p3318
tp3319
Rp3320
sg42
g11
(g15
S'\x8c\xe0\x98\x0b4\x9e\xe2?'
p3321
tp3322
Rp3323
ssg46
g11
(g12
(S'S6'
p3324
I0
I1
tp3325
Rp3326
(I3
S'|'
p3327
NNNI6
I1
I0
tp3328
bS'ISOMAP'
p3329
tp3330
Rp3331
sg55
F0.2
sg38
g3320
sg56
g11
(g12
(S'S8'
p3332
I0
I1
tp3333
Rp3334
(I3
S'|'
p3335
NNNI8
I1
I0
tp3336
bS'haralick'
p3337
tp3338
Rp3339
sg154
g3317
sg65
g11
(g15
S'\xc9\x85</\x03d\xf8?'
p3340
tp3341
Rp3342
sg69
g11
(g12
(S'S2'
p3343
I0
I1
tp3344
Rp3345
(I3
S'|'
p3346
NNNI2
I1
I0
tp3347
bS'RF'
p3348
tp3349
Rp3350
sg78
I3
sg42
g3323
sg79
g80
sg81
g11
(g15
S'\x11\x11\x11\x11\x11\x11\xe9?'
p3351
tp3352
Rp3353
sg85
g86
sg87
g88
sbag4
(g5
g6
Ntp3354
Rp3355
(dp3356
g10
g11
(g15
S'\x00\x00\x00\x00\x00\x00\xf8\xff'
p3357
tp3358
Rp3359
sg27
g11
(g30
S'\x05\x00\x00\x00\x00\x00\x00\x00'
p3360
tp3361
Rp3362
sg25
g26
sg36
(dp3363
g27
g3362
sg240
g11
(g15
S'\xd6,X\xb1\x06&/@'
p3364
tp3365
Rp3366
sg38
g11
(g30
S'\x02\x00\x00\x00\x00\x00\x00\x00'
p3367
tp3368
Rp3369
sg223
g11
(g15
S'\x8d\xaa\xfbG\x97\x0c\xfe?'
p3370
tp3371
Rp3372
ssg223
g3372
sg46
g11
(g12
(S'S6'
p3373
I0
I1
tp3374
Rp3375
(I3
S'|'
p3376
NNNI6
I1
I0
tp3377
bS'ISOMAP'
p3378
tp3379
Rp3380
sg55
F0.2
sg38
g3369
sg56
g11
(g12
(S'S3'
p3381
I0
I1
tp3382
Rp3383
(I3
S'|'
p3384
NNNI3
I1
I0
tp3385
bS'VGG'
p3386
tp3387
Rp3388
sg240
g3366
sg65
g11
(g15
S'P\x03\xcbA\x0c4\xe1?'
p3389
tp3390
Rp3391
sg69
g11
(g12
(S'S3'
p3392
I0
I1
tp3393
Rp3394
(I3
S'|'
p3395
NNNI3
I1
I0
tp3396
bS'SVM'
p3397
tp3398
Rp3399
sg78
I3
sg79
g80
sg81
g11
(g15
S'\x17]t\xd1E\x17\xe5?'
p3400
tp3401
Rp3402
sg85
g86
sg87
g88
sbag4
(g5
g6
Ntp3403
Rp3404
(dp3405
g10
g11
(g15
S'\x00\x00\x00\x00\x00\x00\xf8\xff'
p3406
tp3407
Rp3408
sg98
g833
sg25
g26
sg36
(dp3409
g98
g833
sg240
g11
(g15
S'\x9abV\x1e\xa3\x9c=@'
p3410
tp3411
Rp3412
sg154
g11
(g30
S'\x01\x00\x00\x00\x00\x00\x00\x00'
p3413
tp3414
Rp3415
sg223
g11
(g15
S'\x06\xc0\x9d\x81\tp\x1c@'
p3416
tp3417
Rp3418
ssg46
g11
(g12
(S'S3'
p3419
I0
I1
tp3420
Rp3421
(I3
S'|'
p3422
NNNI3
I1
I0
tp3423
bS'PCA'
p3424
tp3425
Rp3426
sg55
F0.2
sg223
g3418
sg56
g11
(g12
(S'S8'
p3427
I0
I1
tp3428
Rp3429
(I3
S'|'
p3430
NNNI8
I1
I0
tp3431
bS'haralick'
p3432
tp3433
Rp3434
sg240
g3412
sg154
g3415
sg65
g11
(g15
S'9\xd3\x08\x8e\x06\xe1\xdd?'
p3435
tp3436
Rp3437
sg69
g11
(g12
(S'S3'
p3438
I0
I1
tp3439
Rp3440
(I3
S'|'
p3441
NNNI3
I1
I0
tp3442
bS'SVM'
p3443
tp3444
Rp3445
sg78
I3
sg79
g80
sg81
g11
(g15
S'+\x14\xb7Bq+\xe4?'
p3446
tp3447
Rp3448
sg85
g86
sg87
g88
sbag4
(g5
g6
Ntp3449
Rp3450
(dp3451
g10
g11
(g15
S'\x00\x00\x00\x00\x00\x00\xf8\xff'
p3452
tp3453
Rp3454
sg27
g11
(g30
S'\x03\x00\x00\x00\x00\x00\x00\x00'
p3455
tp3456
Rp3457
sg25
g26
sg36
(dp3458
g27
g3457
sg240
g11
(g15
S'\xed\xa9_\x82\x0e\x84\x10@'
p3459
tp3460
Rp3461
sg38
g11
(g30
S'\x04\x00\x00\x00\x00\x00\x00\x00'
p3462
tp3463
Rp3464
sg223
g11
(g15
S'`\xb1\xe6\x96H\xc8\xfc?'
p3465
tp3466
Rp3467
ssg223
g3467
sg46
g11
(g12
(S'S6'
p3468
I0
I1
tp3469
Rp3470
(I3
S'|'
p3471
NNNI6
I1
I0
tp3472
bS'ISOMAP'
p3473
tp3474
Rp3475
sg55
F0.2
sg38
g3464
sg56
g11
(g12
(S'S9'
p3476
I0
I1
tp3477
Rp3478
(I3
S'|'
p3479
NNNI9
I1
I0
tp3480
bS'inception'
p3481
tp3482
Rp3483
sg240
g3461
sg65
g11
(g15
S'\xa0\x10\xb7\xcbZ\xea\xe0?'
p3484
tp3485
Rp3486
sg69
g11
(g12
(S'S3'
p3487
I0
I1
tp3488
Rp3489
(I3
S'|'
p3490
NNNI3
I1
I0
tp3491
bS'SVM'
p3492
tp3493
Rp3494
sg78
I3
sg79
g80
sg81
g11
(g15
S'\x91z\x1d\xa9\xd7\x91\xe2?'
p3495
tp3496
Rp3497
sg85
g86
sg87
g88
sbag4
(g5
g6
Ntp3498
Rp3499
(dp3500
g10
g11
(g15
S'\x00\x00\x00\x00\x00\x00\xf8\xff'
p3501
tp3502
Rp3503
sg21
g11
(g15
S'\x00\x00\x00\x00\x00`m@'
p3504
tp3505
Rp3506
sg98
g833
sg25
g26
sg36
(dp3507
g21
g3506
sg42
g11
(g15
S'\xb2j\xfa\xca=\x8a\xd3?'
p3508
tp3509
Rp3510
sg98
g833
sg154
g11
(g30
S'\x01\x00\x00\x00\x00\x00\x00\x00'
p3511
tp3512
Rp3513
ssg46
g11
(g12
(S'S3'
p3514
I0
I1
tp3515
Rp3516
(I3
S'|'
p3517
NNNI3
I1
I0
tp3518
bS'PCA'
p3519
tp3520
Rp3521
sg55
F0.2
sg56
g11
(g12
(S'S8'
p3522
I0
I1
tp3523
Rp3524
(I3
S'|'
p3525
NNNI8
I1
I0
tp3526
bS'haralick'
p3527
tp3528
Rp3529
sg154
g3513
sg65
g11
(g15
S'\x0ba\xa8\xbfQD\xfb?'
p3530
tp3531
Rp3532
sg69
g11
(g12
(S'S2'
p3533
I0
I1
tp3534
Rp3535
(I3
S'|'
p3536
NNNI2
I1
I0
tp3537
bS'RF'
p3538
tp3539
Rp3540
sg78
I3
sg42
g3510
sg79
g80
sg81
g11
(g15
S'\x1c\xd6\xbea\xed\x1b\xe6?'
p3541
tp3542
Rp3543
sg85
g86
sg87
g88
sbag4
(g5
g6
Ntp3544
Rp3545
(dp3546
g10
g11
(g15
S'\x00\x00\x00\x00\x00\x00\xf8\xff'
p3547
tp3548
Rp3549
sg21
g11
(g15
S'\x00\x00\x00\x00\x00\x00 @'
p3550
tp3551
Rp3552
sg98
g833
sg25
g26
sg36
(dp3553
g21
g3552
sg42
g11
(g15
S'\xa2\xf3\xcdJ\xa1\xd7\xe5?'
p3554
tp3555
Rp3556
sg98
g833
ssg46
g11
(g12
(S'S3'
p3557
I0
I1
tp3558
Rp3559
(I3
S'|'
p3560
NNNI3
I1
I0
tp3561
bS'PCA'
p3562
tp3563
Rp3564
sg55
F0.2
sg56
g11
(g12
(S'S9'
p3565
I0
I1
tp3566
Rp3567
(I3
S'|'
p3568
NNNI9
I1
I0
tp3569
bS'inception'
p3570
tp3571
Rp3572
sg65
g11
(g15
S'\x1f\xa0z\x07\xf9q\x08@'
p3573
tp3574
Rp3575
sg69
g11
(g12
(S'S2'
p3576
I0
I1
tp3577
Rp3578
(I3
S'|'
p3579
NNNI2
I1
I0
tp3580
bS'RF'
p3581
tp3582
Rp3583
sg78
I3
sg42
g3556
sg79
g80
sg81
g11
(g15
S'\x1c\xd6\xbea\xed\x1b\xe6?'
p3584
tp3585
Rp3586
sg85
g86
sg87
g88
sbag4
(g5
g6
Ntp3587
Rp3588
(dp3589
g10
g11
(g15
S'\x00\x00\x00\x00\x00\x00\xf8\xff'
p3590
tp3591
Rp3592
sg27
g11
(g30
S'\x04\x00\x00\x00\x00\x00\x00\x00'
p3593
tp3594
Rp3595
sg25
g26
sg36
(dp3596
g27
g3595
sg240
g11
(g15
S'\xfee^\xfa7QR@'
p3597
tp3598
Rp3599
sg154
g11
(g30
S'\x01\x00\x00\x00\x00\x00\x00\x00'
p3600
tp3601
Rp3602
sg38
g11
(g30
S'\x02\x00\x00\x00\x00\x00\x00\x00'
p3603
tp3604
Rp3605
sg223
g11
(g15
S'F4\xfa\xe5o\x01\x02@'
p3606
tp3607
Rp3608
ssg223
g3608
sg46
g11
(g12
(S'S6'
p3609
I0
I1
tp3610
Rp3611
(I3
S'|'
p3612
NNNI6
I1
I0
tp3613
bS'ISOMAP'
p3614
tp3615
Rp3616
sg55
F0.2
sg38
g3605
sg56
g11
(g12
(S'S8'
p3617
I0
I1
tp3618
Rp3619
(I3
S'|'
p3620
NNNI8
I1
I0
tp3621
bS'haralick'
p3622
tp3623
Rp3624
sg240
g3599
sg154
g3602
sg65
g11
(g15
S'\xf0\xa7>fF\xcb\xdf?'
p3625
tp3626
Rp3627
sg69
g11
(g12
(S'S3'
p3628
I0
I1
tp3629
Rp3630
(I3
S'|'
p3631
NNNI3
I1
I0
tp3632
bS'SVM'
p3633
tp3634
Rp3635
sg78
I3
sg79
g80
sg81
g11
(g15
S'\xac}\xc3\xda7\xac\xe5?'
p3636
tp3637
Rp3638
sg85
g86
sg87
g88
sbag4
(g5
g6
Ntp3639
Rp3640
(dp3641
g10
g11
(g15
S'\x00\x00\x00\x00\x00\x00\xf8\xff'
p3642
tp3643
Rp3644
sg98
g106
sg25
g26
sg36
(dp3645
g98
g106
sg240
g11
(g15
S'y\xab\xb0\xfb|\x85U@'
p3646
tp3647
Rp3648
sg154
g11
(g30
S'\x02\x00\x00\x00\x00\x00\x00\x00'
p3649
tp3650
Rp3651
sg223
g11
(g15
S'N\xde{\xb4O\xb0\x07@'
p3652
tp3653
Rp3654
ssg46
g11
(g12
(S'S3'
p3655
I0
I1
tp3656
Rp3657
(I3
S'|'
p3658
NNNI3
I1
I0
tp3659
bS'PCA'
p3660
tp3661
Rp3662
sg55
F0.2
sg223
g3654
sg56
g11
(g12
(S'S8'
p3663
I0
I1
tp3664
Rp3665
(I3
S'|'
p3666
NNNI8
I1
I0
tp3667
bS'haralick'
p3668
tp3669
Rp3670
sg240
g3648
sg154
g3651
sg65
g11
(g15
S'\xd8\xd3Og\x9cy\xdd?'
p3671
tp3672
Rp3673
sg69
g11
(g12
(S'S3'
p3674
I0
I1
tp3675
Rp3676
(I3
S'|'
p3677
NNNI3
I1
I0
tp3678
bS'SVM'
p3679
tp3680
Rp3681
sg78
I3
sg79
g80
sg81
g11
(g15
S'\xbc\xbb\xbb\xbb\xbb\xbb\xe3?'
p3682
tp3683
Rp3684
sg85
g86
sg87
g88
sbag4
(g5
g6
Ntp3685
Rp3686
(dp3687
g10
g11
(g15
S'\x00\x00\x00\x00\x00\x00\xf8\xff'
p3688
tp3689
Rp3690
sg98
g106
sg25
g26
sg36
(dp3691
g98
g106
sg240
g11
(g15
S'\xec\xa8\xf872rF@'
p3692
tp3693
Rp3694
sg154
g11
(g30
S'\x03\x00\x00\x00\x00\x00\x00\x00'
p3695
tp3696
Rp3697
sg223
g11
(g15
S';\x96\xcd\xac\xe3\x0e\xea?'
p3698
tp3699
Rp3700
ssg46
g11
(g12
(S'S3'
p3701
I0
I1
tp3702
Rp3703
(I3
S'|'
p3704
NNNI3
I1
I0
tp3705
bS'PCA'
p3706
tp3707
Rp3708
sg55
F0.2
sg223
g3700
sg56
g11
(g12
(S'S8'
p3709
I0
I1
tp3710
Rp3711
(I3
S'|'
p3712
NNNI8
I1
I0
tp3713
bS'haralick'
p3714
tp3715
Rp3716
sg240
g3694
sg154
g3697
sg65
g11
(g15
S'\x90\x14%\xf6\x16^\xdf?'
p3717
tp3718
Rp3719
sg69
g11
(g12
(S'S3'
p3720
I0
I1
tp3721
Rp3722
(I3
S'|'
p3723
NNNI3
I1
I0
tp3724
bS'SVM'
p3725
tp3726
Rp3727
sg78
I3
sg79
g80
sg81
g11
(g15
S'\x17]t\xd1E\x17\xe5?'
p3728
tp3729
Rp3730
sg85
g86
sg87
g88
sbag4
(g5
g6
Ntp3731
Rp3732
(dp3733
g10
g11
(g15
S'\x00\x00\x00\x00\x00\x00\xf8\xff'
p3734
tp3735
Rp3736
sg21
g11
(g15
S'\x00\x00\x00\x00\x00@R@'
p3737
tp3738
Rp3739
sg98
g833
sg25
g26
sg36
(dp3740
g21
g3739
sg42
g11
(g15
S'\xe9D%\xf5\xba\x1e\xda?'
p3741
tp3742
Rp3743
sg98
g833
ssg46
g11
(g12
(S'S3'
p3744
I0
I1
tp3745
Rp3746
(I3
S'|'
p3747
NNNI3
I1
I0
tp3748
bS'PCA'
p3749
tp3750
Rp3751
sg55
F0.2
sg56
g11
(g12
(S'S3'
p3752
I0
I1
tp3753
Rp3754
(I3
S'|'
p3755
NNNI3
I1
I0
tp3756
bS'VGG'
p3757
tp3758
Rp3759
sg65
g11
(g15
S';\x1a\x8a\x99_c\xdc?'
p3760
tp3761
Rp3762
sg69
g11
(g12
(S'S2'
p3763
I0
I1
tp3764
Rp3765
(I3
S'|'
p3766
NNNI2
I1
I0
tp3767
bS'RF'
p3768
tp3769
Rp3770
sg78
I3
sg42
g3743
sg79
g80
sg81
g11
(g15
S'\x15\x8a[\xa1\xb8\x15\xea?'
p3771
tp3772
Rp3773
sg85
g86
sg87
g88
sbag4
(g5
g6
Ntp3774
Rp3775
(dp3776
g10
g11
(g15
S'\x00\x00\x00\x00\x00\x00\xf8\xff'
p3777
tp3778
Rp3779
sg98
g106
sg25
g26
sg36
(dp3780
g98
g106
sg240
g11
(g15
S'\xe2\xb0\xc3p"\xe2O@'
p3781
tp3782
Rp3783
sg154
g11
(g30
S'\x01\x00\x00\x00\x00\x00\x00\x00'
p3784
tp3785
Rp3786
sg223
g11
(g15
S'pR\x02\xd6\xc8\x12\xe9?'
p3787
tp3788
Rp3789
ssg46
g11
(g12
(S'S3'
p3790
I0
I1
tp3791
Rp3792
(I3
S'|'
p3793
NNNI3
I1
I0
tp3794
bS'PCA'
p3795
tp3796
Rp3797
sg55
F0.2
sg223
g3789
sg56
g11
(g12
(S'S8'
p3798
I0
I1
tp3799
Rp3800
(I3
S'|'
p3801
NNNI8
I1
I0
tp3802
bS'haralick'
p3803
tp3804
Rp3805
sg240
g3783
sg154
g3786
sg65
g11
(g15
S'\xb5w\xa6\xc8\xd9\x02\xde?'
p3806
tp3807
Rp3808
sg69
g11
(g12
(S'S3'
p3809
I0
I1
tp3810
Rp3811
(I3
S'|'
p3812
NNNI3
I1
I0
tp3813
bS'SVM'
p3814
tp3815
Rp3816
sg78
I3
sg79
g80
sg81
g11
(g15
S'\x8f\xd4\xebH\xbd\x8e\xe4?'
p3817
tp3818
Rp3819
sg85
g86
sg87
g88
sbag4
(g5
g6
Ntp3820
Rp3821
(dp3822
g10
g11
(g15
S'\x00\x00\x00\x00\x00\x00\xf8\xff'
p3823
tp3824
Rp3825
sg21
g11
(g15
S'\x00\x00\x00\x00\x00@e@'
p3826
tp3827
Rp3828
sg98
g106
sg25
g26
sg36
(dp3829
g21
g3828
sg42
g11
(g15
S'G\xfc\xa6\xd6ar\xe7?'
p3830
tp3831
Rp3832
sg98
g106
ssg46
g11
(g12
(S'S3'
p3833
I0
I1
tp3834
Rp3835
(I3
S'|'
p3836
NNNI3
I1
I0
tp3837
bS'PCA'
p3838
tp3839
Rp3840
sg55
F0.2
sg56
g11
(g12
(S'S3'
p3841
I0
I1
tp3842
Rp3843
(I3
S'|'
p3844
NNNI3
I1
I0
tp3845
bS'VGG'
p3846
tp3847
Rp3848
sg65
g11
(g15
S'1x\xa0_XE\xdb?'
p3849
tp3850
Rp3851
sg69
g11
(g12
(S'S2'
p3852
I0
I1
tp3853
Rp3854
(I3
S'|'
p3855
NNNI2
I1
I0
tp3856
bS'RF'
p3857
tp3858
Rp3859
sg78
I3
sg42
g3832
sg79
g80
sg81
g11
(g15
S'\x91z\x1d\xa9\xd7\x91\xea?'
p3860
tp3861
Rp3862
sg85
g86
sg87
g88
sbag4
(g5
g6
Ntp3863
Rp3864
(dp3865
g10
g11
(g15
S'\x00\x00\x00\x00\x00\x00\xf8\xff'
p3866
tp3867
Rp3868
sg21
g11
(g15
S'\x00\x00\x00\x00\x00\x00 @'
p3869
tp3870
Rp3871
sg98
g833
sg25
g26
sg36
(dp3872
g21
g3871
sg42
g11
(g15
S'\xd0\x81\x02\xa8\xa2\xa2\xea?'
p3873
tp3874
Rp3875
sg98
g833
ssg46
g11
(g12
(S'S3'
p3876
I0
I1
tp3877
Rp3878
(I3
S'|'
p3879
NNNI3
I1
I0
tp3880
bS'PCA'
p3881
tp3882
Rp3883
sg55
F0.2
sg56
g11
(g12
(S'S9'
p3884
I0
I1
tp3885
Rp3886
(I3
S'|'
p3887
NNNI9
I1
I0
tp3888
bS'inception'
p3889
tp3890
Rp3891
sg65
g11
(g15
S'`\n\xa4\xb1\xa3\x99\xf8?'
p3892
tp3893
Rp3894
sg69
g11
(g12
(S'S2'
p3895
I0
I1
tp3896
Rp3897
(I3
S'|'
p3898
NNNI2
I1
I0
tp3899
bS'RF'
p3900
tp3901
Rp3902
sg78
I3
sg42
g3875
sg79
g80
sg81
g11
(g15
S'!O\t\xf2\x94 \xe7?'
p3903
tp3904
Rp3905
sg85
g86
sg87
g88
sbag4
(g5
g6
Ntp3906
Rp3907
(dp3908
g10
g11
(g15
S'\x00\x00\x00\x00\x00\x00\xf8\xff'
p3909
tp3910
Rp3911
sg27
g11
(g30
S'\x03\x00\x00\x00\x00\x00\x00\x00'
p3912
tp3913
Rp3914
sg25
g26
sg36
(dp3915
g27
g3914
sg240
g11
(g15
S'V`\xce\xd5c\xe7M@'
p3916
tp3917
Rp3918
sg154
g11
(g30
S'\x02\x00\x00\x00\x00\x00\x00\x00'
p3919
tp3920
Rp3921
sg38
g11
(g30
S'\x03\x00\x00\x00\x00\x00\x00\x00'
p3922
tp3923
Rp3924
sg223
g11
(g15
S'\xfb\xd5\xf0\xcd\x93]\xf5?'
p3925
tp3926
Rp3927
ssg223
g3927
sg46
g11
(g12
(S'S6'
p3928
I0
I1
tp3929
Rp3930
(I3
S'|'
p3931
NNNI6
I1
I0
tp3932
bS'ISOMAP'
p3933
tp3934
Rp3935
sg55
F0.2
sg38
g3924
sg56
g11
(g12
(S'S8'
p3936
I0
I1
tp3937
Rp3938
(I3
S'|'
p3939
NNNI8
I1
I0
tp3940
bS'haralick'
p3941
tp3942
Rp3943
sg240
g3918
sg154
g3921
sg65
g11
(g15
S'\x97\xf5\xdb\xfc0z\xe0?'
p3944
tp3945
Rp3946
sg69
g11
(g12
(S'S3'
p3947
I0
I1
tp3948
Rp3949
(I3
S'|'
p3950
NNNI3
I1
I0
tp3951
bS'SVM'
p3952
tp3953
Rp3954
sg78
I3
sg79
g80
sg81
g11
(g15
S'\xa0\xe5\xfcY\xce\x9f\xe5?'
p3955
tp3956
Rp3957
sg85
g86
sg87
g88
sbasS'error_curve'
p3958
(lp3959
g68
ag68
ag129
ag129
ag129
ag129
ag129
ag129
ag129
ag129
ag129
ag129
ag129
ag129
ag129
ag129
ag129
ag129
ag129
ag129
ag129
ag129
ag129
ag129
ag129
ag129
ag129
ag129
ag129
ag176
ag176
ag176
ag176
ag176
ag176
ag176
ag176
ag176
ag176
ag176
ag176
ag176
ag176
ag176
ag176
ag176
ag176
ag176
ag176
ag176
ag176
ag176
ag176
ag176
ag176
ag176
ag176
ag176
ag176
ag176
ag176
ag176
ag176
ag176
ag176
ag176
ag176
ag176
ag176
ag176
ag176
ag176
ag176
ag176
ag176
ag176
ag176
ag176
ag176
ag176
ag176
ag176
asS'iters'
p3960
I51
sg25
g26
sS'results_loc'
p3961
S'/gpfs/u/home/CGHI/CGHIarch/barn/EP_project/results/'
p3962
sS'times'
p3963
(lp3964
F2.275224208831787
aF2.315186023712158
aF3.3526320457458496
aF3.3888421058654785
aF3.713642120361328
aF9.591724157333374
aF14.531796216964722
aF19.99478316307068
aF26.668389081954956
aF26.718188047409058
aF28.217124223709106
aF28.265868186950684
aF28.30212903022766
aF28.351423025131226
aF34.03194713592529
aF34.081664085388184
aF35.121700048446655
aF35.170490026474
aF42.69037199020386
aF43.96404004096985
aF49.64759302139282
aF50.215861082077026
aF52.49366521835327
aF58.10783004760742
aF58.444401025772095
aF64.14332818984985
aF64.46937322616577
aF64.5175621509552
aF64.5541000366211
aF70.54701614379883
aF76.28307604789734
aF77.78851318359375
aF78.11419916152954
aF79.61648511886597
aF79.65310311317444
aF81.63591599464417
aF81.67281699180603
aF81.72177314758301
aF81.76097822189331
aF87.36924815177917
aF87.4091010093689
aF94.98748302459717
aF95.02481317520142
aF101.98373222351074
aF104.19553518295288
aF109.79526615142822
aF110.5904541015625
aF112.57018518447876
aF112.6099841594696
aF112.93838500976562
aF113.98182916641235
aF121.83098006248474
aF127.48940110206604
aF133.18426203727722
aF139.6246690750122
aF139.94971013069153
aF145.63512420654297
aF147.20396304130554
aF148.93159222602844
aF149.49232006072998
aF149.54146599769592
aF155.73096203804016
aF161.34653306007385
aF163.312331199646
aF163.36152815818787
aF169.3404140472412
aF175.35309219360352
aF175.3929271697998
aF181.65228509902954
aF181.70101022720337
aF187.28308606147766
aF187.33160018920898
aF194.63423013687134
aF194.72919917106628
aF200.31990504264832
aF206.00577402114868
aF211.56923604011536
aF212.13569808006287
aF217.56022214889526
aF218.83856511116028
aF218.93358421325684
aF224.2658622264862
asS'data_loc'
p3965
g88
sS'run'
p3966
I5
sg85
S'random_MCMC'
p3967
sb.