(iprototypes.random_based_mcmc1
random_MCMC
p0
(dp1
S'best_pipelines'
p2
(lp3
ccopy_reg
_reconstructor
p4
(cprototypes.data_analytic_pipeline
image_classification_pipeline
p5
c__builtin__
object
p6
Ntp7
Rp8
(dp9
S'f1_score'
p10
cnumpy.core.multiarray
scalar
p11
(cnumpy
dtype
p12
(S'f8'
p13
I0
I1
tp14
Rp15
(I3
S'<'
p16
NNNI-1
I-1
I0
tp17
bS'\x00\x00\x00\x00\x00\x00\xf8\xff'
p18
tp19
Rp20
sS'n_estimators'
p21
g11
(g15
S'\x00\x00\x00\x00\x00`m@'
p22
tp23
Rp24
sS'data_name'
p25
S'breast'
p26
sS'n_neighbors'
p27
g11
(g12
(S'i8'
p28
I0
I1
tp29
Rp30
(I3
S'<'
p31
NNNI-1
I-1
I0
tp32
bS'\x07\x00\x00\x00\x00\x00\x00\x00'
p33
tp34
Rp35
sS'kwargs'
p36
(dp37
g21
g24
sg27
g35
sS'n_components'
p38
g11
(g30
S'\x03\x00\x00\x00\x00\x00\x00\x00'
p39
tp40
Rp41
sS'max_features'
p42
g11
(g15
S'(\x8ch\xd42L\xe8?'
p43
tp44
Rp45
ssS'dimensionality_reduction'
p46
g11
(g12
(S'S6'
p47
I0
I1
tp48
Rp49
(I3
S'|'
p50
NNNI6
I1
I0
tp51
bS'ISOMAP'
p52
tp53
Rp54
sS'test_size'
p55
F0.2
sg38
g41
sS'feature_extraction'
p56
g11
(g12
(S'S9'
p57
I0
I1
tp58
Rp59
(I3
S'|'
p60
NNNI9
I1
I0
tp61
bS'inception'
p62
tp63
Rp64
sS'result'
p65
g11
(g15
S"\xcf'\xfb\xd0\x0e\x14\xf7?"
p66
tp67
Rp68
sS'learning_algorithm'
p69
g11
(g12
(S'S2'
p70
I0
I1
tp71
Rp72
(I3
S'|'
p73
NNNI2
I1
I0
tp74
bS'RF'
p75
tp76
Rp77
sS'val_splits'
p78
I3
sg42
g45
sS'ml_type'
p79
S'validation'
p80
sS'accuracy'
p81
g11
(g15
S'\xe5%\xe92\x10\xa8\xdf?'
p82
tp83
Rp84
sS'type1'
p85
S'random1'
p86
sS'data_location'
p87
S'/gpfs/u/home/CGHI/CGHIarch/barn/EP_project/data/'
p88
sbag4
(g5
g6
Ntp89
Rp90
(dp91
g10
g11
(g15
S'\x00\x00\x00\x00\x00\x00\xf8\xff'
p92
tp93
Rp94
sg21
g11
(g15
S'\x00\x00\x00\x00\x00@Z@'
p95
tp96
Rp97
sS'pca_whiten'
p98
g11
(g12
(S'b1'
p99
I0
I1
tp100
Rp101
(I3
S'|'
p102
NNNI-1
I-1
I0
tp103
bS'\x00'
p104
tp105
Rp106
sg25
g26
sg36
(dp107
g21
g97
sg42
g11
(g15
S'\xdb\xc7\x81\x00x?\xe9?'
p108
tp109
Rp110
sg98
g106
ssg46
g11
(g12
(S'S3'
p111
I0
I1
tp112
Rp113
(I3
S'|'
p114
NNNI3
I1
I0
tp115
bS'PCA'
p116
tp117
Rp118
sg55
F0.2
sg56
g11
(g12
(S'S3'
p119
I0
I1
tp120
Rp121
(I3
S'|'
p122
NNNI3
I1
I0
tp123
bS'VGG'
p124
tp125
Rp126
sg65
g11
(g15
S'\xfd\xac\x03\x8c\xb1\xe7\xe6?'
p127
tp128
Rp129
sg69
g11
(g12
(S'S2'
p130
I0
I1
tp131
Rp132
(I3
S'|'
p133
NNNI2
I1
I0
tp134
bS'RF'
p135
tp136
Rp137
sg78
I3
sg42
g110
sg79
g80
sg81
g11
(g15
S'\x1cC\xb8\x176\x91\xe6?'
p138
tp139
Rp140
sg85
g86
sg87
g88
sbag4
(g5
g6
Ntp141
Rp142
(dp143
g10
g11
(g15
S'\x00\x00\x00\x00\x00\x00\xf8\xff'
p144
tp145
Rp146
sg98
g106
sg25
g26
sg36
(dp147
g98
g106
sS'svm_C'
p148
g11
(g15
S'z\nn\xde\xce\x04F@'
p149
tp150
Rp151
sS'svm_gamma'
p152
g11
(g15
S'\xaa\xbe=\xbd\xf4\n\xb8?'
p153
tp154
Rp155
ssg46
g11
(g12
(S'S3'
p156
I0
I1
tp157
Rp158
(I3
S'|'
p159
NNNI3
I1
I0
tp160
bS'PCA'
p161
tp162
Rp163
sg55
F0.2
sg152
g155
sg56
g11
(g12
(S'S3'
p164
I0
I1
tp165
Rp166
(I3
S'|'
p167
NNNI3
I1
I0
tp168
bS'VGG'
p169
tp170
Rp171
sg148
g151
sg65
g11
(g15
S' \x0f\x05\x0b\xf1\xdf\xe6?'
p172
tp173
Rp174
sg69
g11
(g12
(S'S3'
p175
I0
I1
tp176
Rp177
(I3
S'|'
p178
NNNI3
I1
I0
tp179
bS'SVM'
p180
tp181
Rp182
sg78
I3
sg79
g80
sg81
g11
(g15
S'\x84`IY\xde\xc2\xe5?'
p183
tp184
Rp185
sg85
g86
sg87
g88
sbag4
(g5
g6
Ntp186
Rp187
(dp188
g10
g11
(g15
S'\x00\x00\x00\x00\x00\x00\xf8\xff'
p189
tp190
Rp191
sg21
g11
(g15
S'\x00\x00\x00\x00\x00\xc0r@'
p192
tp193
Rp194
sg98
g11
(g101
S'\x01'
p195
tp196
Rp197
sg25
g26
sg36
(dp198
g21
g194
sg42
g11
(g15
S'\\\xc6\xd5%\xbd\xb6\xe1?'
p199
tp200
Rp201
sg98
g197
ssg46
g11
(g12
(S'S3'
p202
I0
I1
tp203
Rp204
(I3
S'|'
p205
NNNI3
I1
I0
tp206
bS'PCA'
p207
tp208
Rp209
sg55
F0.2
sg56
g11
(g12
(S'S3'
p210
I0
I1
tp211
Rp212
(I3
S'|'
p213
NNNI3
I1
I0
tp214
bS'VGG'
p215
tp216
Rp217
sg65
g11
(g15
S'\xbd2\xf0@\x00\xab\xe6?'
p218
tp219
Rp220
sg69
g11
(g12
(S'S2'
p221
I0
I1
tp222
Rp223
(I3
S'|'
p224
NNNI2
I1
I0
tp225
bS'RF'
p226
tp227
Rp228
sg78
I3
sg42
g201
sg79
g80
sg81
g11
(g15
S'\x8f\xc8 \xd4\x98\x91\xe6?'
p229
tp230
Rp231
sg85
g86
sg87
g88
sbasS'paths'
p232
(lp233
(lp234
S'VGG'
p235
aS'PCA'
p236
aS'SVM'
p237
aa(lp238
g235
ag236
aS'RF'
p239
aa(lp240
g235
aS'ISOMAP'
p241
ag237
aa(lp242
g235
ag241
ag239
aa(lp243
S'haralick'
p244
ag236
ag237
aa(lp245
g244
ag236
ag239
aa(lp246
g244
ag241
ag237
aa(lp247
g244
ag241
ag239
aa(lp248
S'inception'
p249
ag236
ag237
aa(lp250
g249
ag236
ag239
aa(lp251
g249
ag241
ag237
aa(lp252
g249
ag241
ag239
aasS'pipeline'
p253
(dp254
g27
(lp255
I3
aI4
aI5
aI6
aI7
asg98
(lp256
I01
aI00
asg21
cnumpy.core.multiarray
_reconstruct
p257
(cnumpy
ndarray
p258
(I0
tp259
S'b'
p260
tp261
Rp262
(I1
(I10
tp263
g15
I00
S'\x00\x00\x00\x00\x00\x00 @\x00\x00\x00\x00\x00\x00D@\x00\x00\x00\x00\x00@R@\x00\x00\x00\x00\x00@Z@\x00\x00\x00\x00\x00@a@\x00\x00\x00\x00\x00@e@\x00\x00\x00\x00\x00`i@\x00\x00\x00\x00\x00`m@\x00\x00\x00\x00\x00\xc0p@\x00\x00\x00\x00\x00\xc0r@'
p264
tp265
bsg46
(lp266
g236
ag241
asg152
g257
(g258
(I0
tp267
g260
tp268
Rp269
(I1
(I10
tp270
g15
I00
S"{\x14\xaeG\xe1z\x84?\x102Tv\x98\xba\xec?\xe7\xd5\xc4\xb3\xa2\x91\xfc?b\xc9/\x96\xfcb\x05@\xd2'}\xd2'}\x0c@!Ce\x87\xa9\xcb\x11@X\xf2\x8b%\xbfX\x15@\x90\xa1\xb2\xc3\xd4\xe5\x18@\xc8P\xd9a\xear\x1c@\x00\x00\x00\x00\x00\x00 @"
p271
tp272
bsg56
(lp273
g235
ag244
ag249
asS'haralick_distance'
p274
(lp275
I1
aI2
aI3
asg38
(lp276
I2
aI3
aI4
asg69
(lp277
g237
ag239
asg42
g257
(g258
(I0
tp278
g260
tp279
Rp280
(I1
(I5
tp281
g15
I00
S'333333\xd3?\x9a\x99\x99\x99\x99\x99\xd9?\x00\x00\x00\x00\x00\x00\xe0?433333\xe3?hfffff\xe6?'
p282
tp283
bsg148
g257
(g258
(I0
tp284
g260
tp285
Rp286
(I1
(I10
tp287
g15
I00
S'\x9a\x99\x99\x99\x99\x99\xb9?gfffff&@\xce\xcc\xcc\xcc\xccL6@43333\xb3@@\x01\x00\x00\x00\x00@F@\xce\xcc\xcc\xcc\xcc\xccK@\xcd\xcc\xcc\xcc\xcc\xacP@43333sS@\x9a\x99\x99\x99\x999V@\x00\x00\x00\x00\x00\x00Y@'
p288
tp289
bssS'pipelines'
p290
(lp291
g8
ag90
ag4
(g5
g6
Ntp292
Rp293
(dp294
g10
g11
(g15
S'\x00\x00\x00\x00\x00\x00\xf8\xff'
p295
tp296
Rp297
sg98
g197
sg25
g26
sg36
(dp298
g98
g197
sg148
g11
(g15
S'n3/\xd72\x149@'
p299
tp300
Rp301
sg152
g11
(g15
S'V8>\xd2,}\x04@'
p302
tp303
Rp304
ssg46
g11
(g12
(S'S3'
p305
I0
I1
tp306
Rp307
(I3
S'|'
p308
NNNI3
I1
I0
tp309
bS'PCA'
p310
tp311
Rp312
sg55
F0.2
sg152
g304
sg56
g11
(g12
(S'S3'
p313
I0
I1
tp314
Rp315
(I3
S'|'
p316
NNNI3
I1
I0
tp317
bS'VGG'
p318
tp319
Rp320
sg148
g301
sg65
g11
(g15
S'c>\x18#\x1b\xbc\xef?'
p321
tp322
Rp323
sg69
g11
(g12
(S'S3'
p324
I0
I1
tp325
Rp326
(I3
S'|'
p327
NNNI3
I1
I0
tp328
bS'SVM'
p329
tp330
Rp331
sg78
I3
sg79
g80
sg81
g11
(g15
S'`\xe8*\x9d\x9eM\xdd?'
p332
tp333
Rp334
sg85
g86
sg87
g88
sbag4
(g5
g6
Ntp335
Rp336
(dp337
g10
g11
(g15
S'\x00\x00\x00\x00\x00\x00\xf8\xff'
p338
tp339
Rp340
sg21
g11
(g15
S'\x00\x00\x00\x00\x00`m@'
p341
tp342
Rp343
sg25
g26
sg27
g11
(g30
S'\x03\x00\x00\x00\x00\x00\x00\x00'
p344
tp345
Rp346
sg36
(dp347
g21
g343
sg27
g346
sg274
g11
(g30
S'\x03\x00\x00\x00\x00\x00\x00\x00'
p348
tp349
Rp350
sg38
g11
(g30
S'\x03\x00\x00\x00\x00\x00\x00\x00'
p351
tp352
Rp353
sg42
g11
(g15
S'\x12\x15\xca\xf2\xe1\x80\xe5?'
p354
tp355
Rp356
ssg46
g11
(g12
(S'S6'
p357
I0
I1
tp358
Rp359
(I3
S'|'
p360
NNNI6
I1
I0
tp361
bS'ISOMAP'
p362
tp363
Rp364
sg55
F0.2
sg38
g353
sg56
g11
(g12
(S'S8'
p365
I0
I1
tp366
Rp367
(I3
S'|'
p368
NNNI8
I1
I0
tp369
bS'haralick'
p370
tp371
Rp372
sg274
g350
sg65
g11
(g15
S'\xdfU\x84t\xa4\xa2\xfd?'
p373
tp374
Rp375
sg69
g11
(g12
(S'S2'
p376
I0
I1
tp377
Rp378
(I3
S'|'
p379
NNNI2
I1
I0
tp380
bS'RF'
p381
tp382
Rp383
sg78
I3
sg42
g356
sg79
g80
sg81
g11
(g15
S'\xfd\x02\xbf\x9d\xe4c\xe4?'
p384
tp385
Rp386
sg85
g86
sg87
g88
sbag4
(g5
g6
Ntp387
Rp388
(dp389
g10
g11
(g15
S'\x00\x00\x00\x00\x00\x00\xf8\xff'
p390
tp391
Rp392
sg21
g11
(g15
S'\x00\x00\x00\x00\x00@a@'
p393
tp394
Rp395
sg25
g26
sg27
g11
(g30
S'\x04\x00\x00\x00\x00\x00\x00\x00'
p396
tp397
Rp398
sg36
(dp399
g21
g395
sg27
g398
sg274
g11
(g30
S'\x03\x00\x00\x00\x00\x00\x00\x00'
p400
tp401
Rp402
sg38
g11
(g30
S'\x02\x00\x00\x00\x00\x00\x00\x00'
p403
tp404
Rp405
sg42
g11
(g15
S'\x16\xa2\xd6\x02\xa34\xed?'
p406
tp407
Rp408
ssg46
g11
(g12
(S'S6'
p409
I0
I1
tp410
Rp411
(I3
S'|'
p412
NNNI6
I1
I0
tp413
bS'ISOMAP'
p414
tp415
Rp416
sg55
F0.2
sg38
g405
sg56
g11
(g12
(S'S8'
p417
I0
I1
tp418
Rp419
(I3
S'|'
p420
NNNI8
I1
I0
tp421
bS'haralick'
p422
tp423
Rp424
sg274
g402
sg65
g11
(g15
S'7\x87)\xd4\x04\xd9\xfa?'
p425
tp426
Rp427
sg69
g11
(g12
(S'S2'
p428
I0
I1
tp429
Rp430
(I3
S'|'
p431
NNNI2
I1
I0
tp432
bS'RF'
p433
tp434
Rp435
sg78
I3
sg42
g408
sg79
g80
sg81
g11
(g15
S'/\xa2R\xb9B4\xe6?'
p436
tp437
Rp438
sg85
g86
sg87
g88
sbag4
(g5
g6
Ntp439
Rp440
(dp441
g10
g11
(g15
S'\x00\x00\x00\x00\x00\x00\xf8\xff'
p442
tp443
Rp444
sg21
g11
(g15
S'\x00\x00\x00\x00\x00`m@'
p445
tp446
Rp447
sg25
g26
sg27
g11
(g30
S'\x03\x00\x00\x00\x00\x00\x00\x00'
p448
tp449
Rp450
sg36
(dp451
g21
g447
sg27
g450
sg38
g11
(g30
S'\x04\x00\x00\x00\x00\x00\x00\x00'
p452
tp453
Rp454
sg42
g11
(g15
S'\xa2\x00\x9bf\xebF\xe0?'
p455
tp456
Rp457
ssg46
g11
(g12
(S'S6'
p458
I0
I1
tp459
Rp460
(I3
S'|'
p461
NNNI6
I1
I0
tp462
bS'ISOMAP'
p463
tp464
Rp465
sg55
F0.2
sg38
g454
sg56
g11
(g12
(S'S9'
p466
I0
I1
tp467
Rp468
(I3
S'|'
p469
NNNI9
I1
I0
tp470
bS'inception'
p471
tp472
Rp473
sg65
g11
(g15
S'\x91,\x1eQ\xf1\xd6\x05@'
p474
tp475
Rp476
sg69
g11
(g12
(S'S2'
p477
I0
I1
tp478
Rp479
(I3
S'|'
p480
NNNI2
I1
I0
tp481
bS'RF'
p482
tp483
Rp484
sg78
I3
sg42
g457
sg79
g80
sg81
g11
(g15
S'5\xc7\xd2J\x08\x96\xdc?'
p485
tp486
Rp487
sg85
g86
sg87
g88
sbag4
(g5
g6
Ntp488
Rp489
(dp490
g10
g11
(g15
S'\x00\x00\x00\x00\x00\x00\xf8\xff'
p491
tp492
Rp493
sg21
g11
(g15
S'\x00\x00\x00\x00\x00@R@'
p494
tp495
Rp496
sg25
g26
sg27
g11
(g30
S'\x07\x00\x00\x00\x00\x00\x00\x00'
p497
tp498
Rp499
sg36
(dp500
g21
g496
sg27
g499
sg38
g11
(g30
S'\x02\x00\x00\x00\x00\x00\x00\x00'
p501
tp502
Rp503
sg42
g11
(g15
S'f7\x12\xa6\xc0@\xeb?'
p504
tp505
Rp506
ssg46
g11
(g12
(S'S6'
p507
I0
I1
tp508
Rp509
(I3
S'|'
p510
NNNI6
I1
I0
tp511
bS'ISOMAP'
p512
tp513
Rp514
sg55
F0.2
sg38
g503
sg56
g11
(g12
(S'S9'
p515
I0
I1
tp516
Rp517
(I3
S'|'
p518
NNNI9
I1
I0
tp519
bS'inception'
p520
tp521
Rp522
sg65
g11
(g15
S'\x03\xed\x95\xd9D\x0f\xff?'
p523
tp524
Rp525
sg69
g11
(g12
(S'S2'
p526
I0
I1
tp527
Rp528
(I3
S'|'
p529
NNNI2
I1
I0
tp530
bS'RF'
p531
tp532
Rp533
sg78
I3
sg42
g506
sg79
g80
sg81
g11
(g15
S'Q\xcc\xe7\xe4\x86\x17\xe0?'
p534
tp535
Rp536
sg85
g86
sg87
g88
sbag4
(g5
g6
Ntp537
Rp538
(dp539
g10
g11
(g15
S'\x00\x00\x00\x00\x00\x00\xf8\xff'
p540
tp541
Rp542
sg98
g197
sg25
g26
sg36
(dp543
g98
g197
sg148
g11
(g15
S'\xb7l<x\x17\xb1+@'
p544
tp545
Rp546
sg152
g11
(g15
S'\x04\xbdFOZ\x94\xd2?'
p547
tp548
Rp549
ssg46
g11
(g12
(S'S3'
p550
I0
I1
tp551
Rp552
(I3
S'|'
p553
NNNI3
I1
I0
tp554
bS'PCA'
p555
tp556
Rp557
sg55
F0.2
sg152
g549
sg56
g11
(g12
(S'S3'
p558
I0
I1
tp559
Rp560
(I3
S'|'
p561
NNNI3
I1
I0
tp562
bS'VGG'
p563
tp564
Rp565
sg148
g546
sg65
g11
(g15
S'\xe7\xf5\xfbb\xb9\xe0\xe8?'
p566
tp567
Rp568
sg69
g11
(g12
(S'S3'
p569
I0
I1
tp570
Rp571
(I3
S'|'
p572
NNNI3
I1
I0
tp573
bS'SVM'
p574
tp575
Rp576
sg78
I3
sg79
g80
sg81
g11
(g15
S'=]g06\xf2\xe4?'
p577
tp578
Rp579
sg85
g86
sg87
g88
sbag4
(g5
g6
Ntp580
Rp581
(dp582
g10
g11
(g15
S'\x00\x00\x00\x00\x00\x00\xf8\xff'
p583
tp584
Rp585
sg21
g11
(g15
S'\x00\x00\x00\x00\x00\xc0r@'
p586
tp587
Rp588
sg25
g26
sg27
g11
(g30
S'\x05\x00\x00\x00\x00\x00\x00\x00'
p589
tp590
Rp591
sg36
(dp592
g21
g588
sg27
g591
sg38
g11
(g30
S'\x03\x00\x00\x00\x00\x00\x00\x00'
p593
tp594
Rp595
sg42
g11
(g15
S'\xbd\xbb1Y\x9f\x84\xe9?'
p596
tp597
Rp598
ssg46
g11
(g12
(S'S6'
p599
I0
I1
tp600
Rp601
(I3
S'|'
p602
NNNI6
I1
I0
tp603
bS'ISOMAP'
p604
tp605
Rp606
sg55
F0.2
sg38
g595
sg56
g11
(g12
(S'S9'
p607
I0
I1
tp608
Rp609
(I3
S'|'
p610
NNNI9
I1
I0
tp611
bS'inception'
p612
tp613
Rp614
sg65
g11
(g15
S'\x95\x92\xc41\xc2h\x01@'
p615
tp616
Rp617
sg69
g11
(g12
(S'S2'
p618
I0
I1
tp619
Rp620
(I3
S'|'
p621
NNNI2
I1
I0
tp622
bS'RF'
p623
tp624
Rp625
sg78
I3
sg42
g598
sg79
g80
sg81
g11
(g15
S'\x13\xad#2\x085\xde?'
p626
tp627
Rp628
sg85
g86
sg87
g88
sbag4
(g5
g6
Ntp629
Rp630
(dp631
g10
g11
(g15
S'\x00\x00\x00\x00\x00\x00\xf8\xff'
p632
tp633
Rp634
sg21
g11
(g15
S'\x00\x00\x00\x00\x00`i@'
p635
tp636
Rp637
sg25
g26
sg27
g11
(g30
S'\x06\x00\x00\x00\x00\x00\x00\x00'
p638
tp639
Rp640
sg36
(dp641
g21
g637
sg27
g640
sg38
g11
(g30
S'\x04\x00\x00\x00\x00\x00\x00\x00'
p642
tp643
Rp644
sg42
g11
(g15
S'\xe5\x8aE\xa0\x17\x0e\xdb?'
p645
tp646
Rp647
ssg46
g11
(g12
(S'S6'
p648
I0
I1
tp649
Rp650
(I3
S'|'
p651
NNNI6
I1
I0
tp652
bS'ISOMAP'
p653
tp654
Rp655
sg55
F0.2
sg38
g644
sg56
g11
(g12
(S'S9'
p656
I0
I1
tp657
Rp658
(I3
S'|'
p659
NNNI9
I1
I0
tp660
bS'inception'
p661
tp662
Rp663
sg65
g11
(g15
S'\x85\xb9\xc3\xd9\xf2G\xfd?'
p664
tp665
Rp666
sg69
g11
(g12
(S'S2'
p667
I0
I1
tp668
Rp669
(I3
S'|'
p670
NNNI2
I1
I0
tp671
bS'RF'
p672
tp673
Rp674
sg78
I3
sg42
g647
sg79
g80
sg81
g11
(g15
S'\x9e\xa6\xc0\x0e\xf9\xb7\xe0?'
p675
tp676
Rp677
sg85
g86
sg87
g88
sbag4
(g5
g6
Ntp678
Rp679
(dp680
g10
g11
(g15
S'\x00\x00\x00\x00\x00\x00\xf8\xff'
p681
tp682
Rp683
sg21
g11
(g15
S'\x00\x00\x00\x00\x00@Z@'
p684
tp685
Rp686
sg25
g26
sg27
g11
(g30
S'\x04\x00\x00\x00\x00\x00\x00\x00'
p687
tp688
Rp689
sg36
(dp690
g21
g686
sg27
g689
sg38
g11
(g30
S'\x02\x00\x00\x00\x00\x00\x00\x00'
p691
tp692
Rp693
sg42
g11
(g15
S'\\\x18ZdO\x10\xe5?'
p694
tp695
Rp696
ssg46
g11
(g12
(S'S6'
p697
I0
I1
tp698
Rp699
(I3
S'|'
p700
NNNI6
I1
I0
tp701
bS'ISOMAP'
p702
tp703
Rp704
sg55
F0.2
sg38
g693
sg56
g11
(g12
(S'S3'
p705
I0
I1
tp706
Rp707
(I3
S'|'
p708
NNNI3
I1
I0
tp709
bS'VGG'
p710
tp711
Rp712
sg65
g11
(g15
S'\xd0\x0e\xa8\xa6\xf4l\xfc?'
p713
tp714
Rp715
sg69
g11
(g12
(S'S2'
p716
I0
I1
tp717
Rp718
(I3
S'|'
p719
NNNI2
I1
I0
tp720
bS'RF'
p721
tp722
Rp723
sg78
I3
sg42
g696
sg79
g80
sg81
g11
(g15
S'\xc0L\x9c5\xac\xba\xe0?'
p724
tp725
Rp726
sg85
g86
sg87
g88
sbag4
(g5
g6
Ntp727
Rp728
(dp729
g10
g11
(g15
S'\x00\x00\x00\x00\x00\x00\xf8\xff'
p730
tp731
Rp732
sg21
g11
(g15
S'\x00\x00\x00\x00\x00@e@'
p733
tp734
Rp735
sg25
g26
sg27
g11
(g30
S'\x04\x00\x00\x00\x00\x00\x00\x00'
p736
tp737
Rp738
sg36
(dp739
g21
g735
sg27
g738
sg274
g11
(g30
S'\x03\x00\x00\x00\x00\x00\x00\x00'
p740
tp741
Rp742
sg38
g11
(g30
S'\x04\x00\x00\x00\x00\x00\x00\x00'
p743
tp744
Rp745
sg42
g11
(g15
S'\xfc\x82\xbdj\xa5\xd3\xe5?'
p746
tp747
Rp748
ssg46
g11
(g12
(S'S6'
p749
I0
I1
tp750
Rp751
(I3
S'|'
p752
NNNI6
I1
I0
tp753
bS'ISOMAP'
p754
tp755
Rp756
sg55
F0.2
sg38
g745
sg56
g11
(g12
(S'S8'
p757
I0
I1
tp758
Rp759
(I3
S'|'
p760
NNNI8
I1
I0
tp761
bS'haralick'
p762
tp763
Rp764
sg274
g742
sg65
g11
(g15
S',\x8f\xf4\x81\xfe\xdd\xf4?'
p765
tp766
Rp767
sg69
g11
(g12
(S'S2'
p768
I0
I1
tp769
Rp770
(I3
S'|'
p771
NNNI2
I1
I0
tp772
bS'RF'
p773
tp774
Rp775
sg78
I3
sg42
g748
sg79
g80
sg81
g11
(g15
S'\x03\x94\x9f\x17\xd5b\xe5?'
p776
tp777
Rp778
sg85
g86
sg87
g88
sbag4
(g5
g6
Ntp779
Rp780
(dp781
g10
g11
(g15
S'\x00\x00\x00\x00\x00\x00\xf8\xff'
p782
tp783
Rp784
sg98
g106
sg25
g26
sg36
(dp785
g98
g106
sg148
g11
(g15
S'\x97y\x9a<\x8e\xdfU@'
p786
tp787
Rp788
sg274
g11
(g30
S'\x03\x00\x00\x00\x00\x00\x00\x00'
p789
tp790
Rp791
sg152
g11
(g15
S'\xc8\xcb\x8cM[l\x1f@'
p792
tp793
Rp794
ssg46
g11
(g12
(S'S3'
p795
I0
I1
tp796
Rp797
(I3
S'|'
p798
NNNI3
I1
I0
tp799
bS'PCA'
p800
tp801
Rp802
sg55
F0.2
sg152
g794
sg56
g11
(g12
(S'S8'
p803
I0
I1
tp804
Rp805
(I3
S'|'
p806
NNNI8
I1
I0
tp807
bS'haralick'
p808
tp809
Rp810
sg148
g788
sg274
g791
sg65
g11
(g15
S'\xab\x9c\x89k\x90\x95\xec?'
p811
tp812
Rp813
sg69
g11
(g12
(S'S3'
p814
I0
I1
tp815
Rp816
(I3
S'|'
p817
NNNI3
I1
I0
tp818
bS'SVM'
p819
tp820
Rp821
sg78
I3
sg79
g80
sg81
g11
(g15
S'\x19Fw\xb5\x1a\xf5\xe2?'
p822
tp823
Rp824
sg85
g86
sg87
g88
sbag4
(g5
g6
Ntp825
Rp826
(dp827
g10
g11
(g15
S'\x00\x00\x00\x00\x00\x00\xf8\xff'
p828
tp829
Rp830
sg98
g106
sg25
g26
sg36
(dp831
g98
g106
sg148
g11
(g15
S'\x8f\x13\x85h\x1a`#@'
p832
tp833
Rp834
sg152
g11
(g15
S'I\xce{\x1b>\x05\xe0?'
p835
tp836
Rp837
ssg46
g11
(g12
(S'S3'
p838
I0
I1
tp839
Rp840
(I3
S'|'
p841
NNNI3
I1
I0
tp842
bS'PCA'
p843
tp844
Rp845
sg55
F0.2
sg152
g837
sg56
g11
(g12
(S'S3'
p846
I0
I1
tp847
Rp848
(I3
S'|'
p849
NNNI3
I1
I0
tp850
bS'VGG'
p851
tp852
Rp853
sg148
g834
sg65
g11
(g15
S'\xa8_^LqP\xea?'
p854
tp855
Rp856
sg69
g11
(g12
(S'S3'
p857
I0
I1
tp858
Rp859
(I3
S'|'
p860
NNNI3
I1
I0
tp861
bS'SVM'
p862
tp863
Rp864
sg78
I3
sg79
g80
sg81
g11
(g15
S'N\xea\xbe<\xb6"\xe4?'
p865
tp866
Rp867
sg85
g86
sg87
g88
sbag4
(g5
g6
Ntp868
Rp869
(dp870
g10
g11
(g15
S'\x00\x00\x00\x00\x00\x00\xf8\xff'
p871
tp872
Rp873
sg98
g197
sg25
g26
sg36
(dp874
g98
g197
sg148
g11
(g15
S"m\xc2\x9e\xed\xfe\xc1'@"
p875
tp876
Rp877
sg152
g11
(g15
S'\xbb\x84\xb1\x88\x87[\x1f@'
p878
tp879
Rp880
ssg46
g11
(g12
(S'S3'
p881
I0
I1
tp882
Rp883
(I3
S'|'
p884
NNNI3
I1
I0
tp885
bS'PCA'
p886
tp887
Rp888
sg55
F0.2
sg152
g880
sg56
g11
(g12
(S'S9'
p889
I0
I1
tp890
Rp891
(I3
S'|'
p892
NNNI9
I1
I0
tp893
bS'inception'
p894
tp895
Rp896
sg148
g877
sg65
g11
(g15
S'\xf7]\xefR\xeds\xf0?'
p897
tp898
Rp899
sg69
g11
(g12
(S'S3'
p900
I0
I1
tp901
Rp902
(I3
S'|'
p903
NNNI3
I1
I0
tp904
bS'SVM'
p905
tp906
Rp907
sg78
I3
sg79
g80
sg81
g11
(g15
S'X\x9095(\x01\xe0?'
p908
tp909
Rp910
sg85
g86
sg87
g88
sbag4
(g5
g6
Ntp911
Rp912
(dp913
g10
g11
(g15
S'\x00\x00\x00\x00\x00\x00\xf8\xff'
p914
tp915
Rp916
sg27
g11
(g30
S'\x04\x00\x00\x00\x00\x00\x00\x00'
p917
tp918
Rp919
sg25
g26
sg36
(dp920
g27
g919
sg148
g11
(g15
S'\x8e{7/\xc31F@'
p921
tp922
Rp923
sg38
g11
(g30
S'\x02\x00\x00\x00\x00\x00\x00\x00'
p924
tp925
Rp926
sg152
g11
(g15
S'\x06\x0f=>\xed\xee\xfd?'
p927
tp928
Rp929
ssg152
g929
sg46
g11
(g12
(S'S6'
p930
I0
I1
tp931
Rp932
(I3
S'|'
p933
NNNI6
I1
I0
tp934
bS'ISOMAP'
p935
tp936
Rp937
sg55
F0.2
sg38
g926
sg56
g11
(g12
(S'S9'
p938
I0
I1
tp939
Rp940
(I3
S'|'
p941
NNNI9
I1
I0
tp942
bS'inception'
p943
tp944
Rp945
sg148
g923
sg65
g11
(g15
S'\xe1\xd33\x8b\xd4x\xf0?'
p946
tp947
Rp948
sg69
g11
(g12
(S'S3'
p949
I0
I1
tp950
Rp951
(I3
S'|'
p952
NNNI3
I1
I0
tp953
bS'SVM'
p954
tp955
Rp956
sg78
I3
sg79
g80
sg81
g11
(g15
S'\xa9\xbdO[\xd3\x90\xde?'
p957
tp958
Rp959
sg85
g86
sg87
g88
sbag4
(g5
g6
Ntp960
Rp961
(dp962
g10
g11
(g15
S'\x00\x00\x00\x00\x00\x00\xf8\xff'
p963
tp964
Rp965
sg98
g197
sg25
g26
sg36
(dp966
g98
g197
sg148
g11
(g15
S'hT\x93HM\x9eL@'
p967
tp968
Rp969
sg274
g11
(g30
S'\x02\x00\x00\x00\x00\x00\x00\x00'
p970
tp971
Rp972
sg152
g11
(g15
S'\x83\x1d\xcb\x17\xe6\xfa\r@'
p973
tp974
Rp975
ssg46
g11
(g12
(S'S3'
p976
I0
I1
tp977
Rp978
(I3
S'|'
p979
NNNI3
I1
I0
tp980
bS'PCA'
p981
tp982
Rp983
sg55
F0.2
sg152
g975
sg56
g11
(g12
(S'S8'
p984
I0
I1
tp985
Rp986
(I3
S'|'
p987
NNNI8
I1
I0
tp988
bS'haralick'
p989
tp990
Rp991
sg148
g969
sg274
g972
sg65
g11
(g15
S'\xd3\x1b\xd5:P\xaa\xeb?'
p992
tp993
Rp994
sg69
g11
(g12
(S'S3'
p995
I0
I1
tp996
Rp997
(I3
S'|'
p998
NNNI3
I1
I0
tp999
bS'SVM'
p1000
tp1001
Rp1002
sg78
I3
sg79
g80
sg81
g11
(g15
S'\xb1(\xe6sr\xc3\xe3?'
p1003
tp1004
Rp1005
sg85
g86
sg87
g88
sbag4
(g5
g6
Ntp1006
Rp1007
(dp1008
g10
g11
(g15
S'\x00\x00\x00\x00\x00\x00\xf8\xff'
p1009
tp1010
Rp1011
sg21
g11
(g15
S'\x00\x00\x00\x00\x00\xc0p@'
p1012
tp1013
Rp1014
sg25
g26
sg27
g11
(g30
S'\x03\x00\x00\x00\x00\x00\x00\x00'
p1015
tp1016
Rp1017
sg36
(dp1018
g21
g1014
sg27
g1017
sg38
g11
(g30
S'\x04\x00\x00\x00\x00\x00\x00\x00'
p1019
tp1020
Rp1021
sg42
g11
(g15
S'\xce\x94\x01\xf7\xa6K\xdc?'
p1022
tp1023
Rp1024
ssg46
g11
(g12
(S'S6'
p1025
I0
I1
tp1026
Rp1027
(I3
S'|'
p1028
NNNI6
I1
I0
tp1029
bS'ISOMAP'
p1030
tp1031
Rp1032
sg55
F0.2
sg38
g1021
sg56
g11
(g12
(S'S3'
p1033
I0
I1
tp1034
Rp1035
(I3
S'|'
p1036
NNNI3
I1
I0
tp1037
bS'VGG'
p1038
tp1039
Rp1040
sg65
g11
(g15
S'\x15q\x86U\xa6I\xf0?'
p1041
tp1042
Rp1043
sg69
g11
(g12
(S'S2'
p1044
I0
I1
tp1045
Rp1046
(I3
S'|'
p1047
NNNI2
I1
I0
tp1048
bS'RF'
p1049
tp1050
Rp1051
sg78
I3
sg42
g1024
sg79
g80
sg81
g11
(g15
S'^\xf3\\D\xa5r\xe1?'
p1052
tp1053
Rp1054
sg85
g86
sg87
g88
sbag4
(g5
g6
Ntp1055
Rp1056
(dp1057
g10
g11
(g15
S'\x00\x00\x00\x00\x00\x00\xf8\xff'
p1058
tp1059
Rp1060
sg21
g11
(g15
S'\x00\x00\x00\x00\x00@e@'
p1061
tp1062
Rp1063
sg98
g197
sg25
g26
sg36
(dp1064
g21
g1063
sg42
g11
(g15
S'<p\xdah\xa1\x97\xe3?'
p1065
tp1066
Rp1067
sg98
g197
sg274
g11
(g30
S'\x03\x00\x00\x00\x00\x00\x00\x00'
p1068
tp1069
Rp1070
ssg46
g11
(g12
(S'S3'
p1071
I0
I1
tp1072
Rp1073
(I3
S'|'
p1074
NNNI3
I1
I0
tp1075
bS'PCA'
p1076
tp1077
Rp1078
sg55
F0.2
sg56
g11
(g12
(S'S8'
p1079
I0
I1
tp1080
Rp1081
(I3
S'|'
p1082
NNNI8
I1
I0
tp1083
bS'haralick'
p1084
tp1085
Rp1086
sg274
g1070
sg65
g11
(g15
S'\x99\x92\t\xe8J\xaf\xf5?'
p1087
tp1088
Rp1089
sg69
g11
(g12
(S'S2'
p1090
I0
I1
tp1091
Rp1092
(I3
S'|'
p1093
NNNI2
I1
I0
tp1094
bS'RF'
p1095
tp1096
Rp1097
sg78
I3
sg42
g1067
sg79
g80
sg81
g11
(g15
S'\x95\xd2\x88\xab\x13L\xe5?'
p1098
tp1099
Rp1100
sg85
g86
sg87
g88
sbag4
(g5
g6
Ntp1101
Rp1102
(dp1103
g10
g11
(g15
S'\x00\x00\x00\x00\x00\x00\xf8\xff'
p1104
tp1105
Rp1106
sg21
g11
(g15
S'\x00\x00\x00\x00\x00\xc0p@'
p1107
tp1108
Rp1109
sg98
g106
sg25
g26
sg36
(dp1110
g21
g1109
sg42
g11
(g15
S'~A\xc8X\xef\x95\xdb?'
p1111
tp1112
Rp1113
sg98
g106
ssg46
g11
(g12
(S'S3'
p1114
I0
I1
tp1115
Rp1116
(I3
S'|'
p1117
NNNI3
I1
I0
tp1118
bS'PCA'
p1119
tp1120
Rp1121
sg55
F0.2
sg56
g11
(g12
(S'S3'
p1122
I0
I1
tp1123
Rp1124
(I3
S'|'
p1125
NNNI3
I1
I0
tp1126
bS'VGG'
p1127
tp1128
Rp1129
sg65
g11
(g15
S'\x84\xb2r\xe2d0\xe7?'
p1130
tp1131
Rp1132
sg69
g11
(g12
(S'S2'
p1133
I0
I1
tp1134
Rp1135
(I3
S'|'
p1136
NNNI2
I1
I0
tp1137
bS'RF'
p1138
tp1139
Rp1140
sg78
I3
sg42
g1113
sg79
g80
sg81
g11
(g15
S'X\xf1gvLy\xe6?'
p1141
tp1142
Rp1143
sg85
g86
sg87
g88
sbag4
(g5
g6
Ntp1144
Rp1145
(dp1146
g10
g11
(g15
S'\x00\x00\x00\x00\x00\x00\xf8\xff'
p1147
tp1148
Rp1149
sg21
g11
(g15
S'\x00\x00\x00\x00\x00@e@'
p1150
tp1151
Rp1152
sg25
g26
sg27
g11
(g30
S'\x05\x00\x00\x00\x00\x00\x00\x00'
p1153
tp1154
Rp1155
sg36
(dp1156
g21
g1152
sg27
g1155
sg38
g11
(g30
S'\x02\x00\x00\x00\x00\x00\x00\x00'
p1157
tp1158
Rp1159
sg42
g11
(g15
S'WQf\x00FD\xdc?'
p1160
tp1161
Rp1162
ssg46
g11
(g12
(S'S6'
p1163
I0
I1
tp1164
Rp1165
(I3
S'|'
p1166
NNNI6
I1
I0
tp1167
bS'ISOMAP'
p1168
tp1169
Rp1170
sg55
F0.2
sg38
g1159
sg56
g11
(g12
(S'S9'
p1171
I0
I1
tp1172
Rp1173
(I3
S'|'
p1174
NNNI9
I1
I0
tp1175
bS'inception'
p1176
tp1177
Rp1178
sg65
g11
(g15
S'_\xa1D\x80\x00f\x04@'
p1179
tp1180
Rp1181
sg69
g11
(g12
(S'S2'
p1182
I0
I1
tp1183
Rp1184
(I3
S'|'
p1185
NNNI2
I1
I0
tp1186
bS'RF'
p1187
tp1188
Rp1189
sg78
I3
sg42
g1162
sg79
g80
sg81
g11
(g15
S'\xcb\xd7\xfes\xd3\xf1\xdc?'
p1190
tp1191
Rp1192
sg85
g86
sg87
g88
sbag4
(g5
g6
Ntp1193
Rp1194
(dp1195
g10
g11
(g15
S'\x00\x00\x00\x00\x00\x00\xf8\xff'
p1196
tp1197
Rp1198
sg21
g11
(g15
S'\x00\x00\x00\x00\x00`i@'
p1199
tp1200
Rp1201
sg25
g26
sg27
g11
(g30
S'\x07\x00\x00\x00\x00\x00\x00\x00'
p1202
tp1203
Rp1204
sg36
(dp1205
g21
g1201
sg27
g1204
sg38
g11
(g30
S'\x02\x00\x00\x00\x00\x00\x00\x00'
p1206
tp1207
Rp1208
sg42
g11
(g15
S'\xbc\xe5\x95\x80\x92v\xe0?'
p1209
tp1210
Rp1211
ssg46
g11
(g12
(S'S6'
p1212
I0
I1
tp1213
Rp1214
(I3
S'|'
p1215
NNNI6
I1
I0
tp1216
bS'ISOMAP'
p1217
tp1218
Rp1219
sg55
F0.2
sg38
g1208
sg56
g11
(g12
(S'S3'
p1220
I0
I1
tp1221
Rp1222
(I3
S'|'
p1223
NNNI3
I1
I0
tp1224
bS'VGG'
p1225
tp1226
Rp1227
sg65
g11
(g15
S'\t\xbc\xae6\xb2\xc6\xf6?'
p1228
tp1229
Rp1230
sg69
g11
(g12
(S'S2'
p1231
I0
I1
tp1232
Rp1233
(I3
S'|'
p1234
NNNI2
I1
I0
tp1235
bS'RF'
p1236
tp1237
Rp1238
sg78
I3
sg42
g1211
sg79
g80
sg81
g11
(g15
S'\x18Q\xa9\\!\x1a\xdf?'
p1239
tp1240
Rp1241
sg85
g86
sg87
g88
sbag4
(g5
g6
Ntp1242
Rp1243
(dp1244
g10
g11
(g15
S'\x00\x00\x00\x00\x00\x00\xf8\xff'
p1245
tp1246
Rp1247
sg98
g197
sg25
g26
sg36
(dp1248
g98
g197
sg148
g11
(g15
S'.\x8c#\xb8\xcf\xd8L@'
p1249
tp1250
Rp1251
sg274
g11
(g30
S'\x01\x00\x00\x00\x00\x00\x00\x00'
p1252
tp1253
Rp1254
sg152
g11
(g15
S'\x12\x05\xbe\xfc\xa3\xb7\x12@'
p1255
tp1256
Rp1257
ssg46
g11
(g12
(S'S3'
p1258
I0
I1
tp1259
Rp1260
(I3
S'|'
p1261
NNNI3
I1
I0
tp1262
bS'PCA'
p1263
tp1264
Rp1265
sg55
F0.2
sg152
g1257
sg56
g11
(g12
(S'S8'
p1266
I0
I1
tp1267
Rp1268
(I3
S'|'
p1269
NNNI8
I1
I0
tp1270
bS'haralick'
p1271
tp1272
Rp1273
sg148
g1251
sg274
g1254
sg65
g11
(g15
S')\xa7~H4\x86\xee?'
p1274
tp1275
Rp1276
sg69
g11
(g12
(S'S3'
p1277
I0
I1
tp1278
Rp1279
(I3
S'|'
p1280
NNNI3
I1
I0
tp1281
bS'SVM'
p1282
tp1283
Rp1284
sg78
I3
sg79
g80
sg81
g11
(g15
S'\x81\xdfN\xf21F\xe0?'
p1285
tp1286
Rp1287
sg85
g86
sg87
g88
sbag4
(g5
g6
Ntp1288
Rp1289
(dp1290
g10
g11
(g15
S'\x00\x00\x00\x00\x00\x00\xf8\xff'
p1291
tp1292
Rp1293
sg98
g197
sg25
g26
sg36
(dp1294
g98
g197
sg148
g11
(g15
S'm5\xd5#\xb1\x906@'
p1295
tp1296
Rp1297
sg274
g11
(g30
S'\x01\x00\x00\x00\x00\x00\x00\x00'
p1298
tp1299
Rp1300
sg152
g11
(g15
S'\xca\xd41)\xe2\x7f\x04@'
p1301
tp1302
Rp1303
ssg46
g11
(g12
(S'S3'
p1304
I0
I1
tp1305
Rp1306
(I3
S'|'
p1307
NNNI3
I1
I0
tp1308
bS'PCA'
p1309
tp1310
Rp1311
sg55
F0.2
sg152
g1303
sg56
g11
(g12
(S'S8'
p1312
I0
I1
tp1313
Rp1314
(I3
S'|'
p1315
NNNI8
I1
I0
tp1316
bS'haralick'
p1317
tp1318
Rp1319
sg148
g1297
sg274
g1300
sg65
g11
(g15
S'3\x9a\xde\xf8R\xe5\xed?'
p1320
tp1321
Rp1322
sg69
g11
(g12
(S'S3'
p1323
I0
I1
tp1324
Rp1325
(I3
S'|'
p1326
NNNI3
I1
I0
tp1327
bS'SVM'
p1328
tp1329
Rp1330
sg78
I3
sg79
g80
sg81
g11
(g15
S'K\x08\x96\x94\xe5-\xe0?'
p1331
tp1332
Rp1333
sg85
g86
sg87
g88
sbag4
(g5
g6
Ntp1334
Rp1335
(dp1336
g10
g11
(g15
S'\x00\x00\x00\x00\x00\x00\xf8\xff'
p1337
tp1338
Rp1339
sg21
g11
(g15
S'\x00\x00\x00\x00\x00\x00D@'
p1340
tp1341
Rp1342
sg25
g26
sg27
g11
(g30
S'\x05\x00\x00\x00\x00\x00\x00\x00'
p1343
tp1344
Rp1345
sg36
(dp1346
g21
g1342
sg27
g1345
sg38
g11
(g30
S'\x02\x00\x00\x00\x00\x00\x00\x00'
p1347
tp1348
Rp1349
sg42
g11
(g15
S'rJ\xe0\xc7\xfb\xc8\xe9?'
p1350
tp1351
Rp1352
ssg46
g11
(g12
(S'S6'
p1353
I0
I1
tp1354
Rp1355
(I3
S'|'
p1356
NNNI6
I1
I0
tp1357
bS'ISOMAP'
p1358
tp1359
Rp1360
sg55
F0.2
sg38
g1349
sg56
g11
(g12
(S'S3'
p1361
I0
I1
tp1362
Rp1363
(I3
S'|'
p1364
NNNI3
I1
I0
tp1365
bS'VGG'
p1366
tp1367
Rp1368
sg65
g11
(g15
S'a\xf4\t\xb42=\x02@'
p1369
tp1370
Rp1371
sg69
g11
(g12
(S'S2'
p1372
I0
I1
tp1373
Rp1374
(I3
S'|'
p1375
NNNI2
I1
I0
tp1376
bS'RF'
p1377
tp1378
Rp1379
sg78
I3
sg42
g1352
sg79
g80
sg81
g11
(g15
S'\xd9Tpm\x0f\xa0\xe0?'
p1380
tp1381
Rp1382
sg85
g86
sg87
g88
sbag4
(g5
g6
Ntp1383
Rp1384
(dp1385
g10
g11
(g15
S'\x00\x00\x00\x00\x00\x00\xf8\xff'
p1386
tp1387
Rp1388
sg98
g106
sg25
g26
sg36
(dp1389
g98
g106
sg148
g11
(g15
S'\xd1f$q~ E@'
p1390
tp1391
Rp1392
sg152
g11
(g15
S'\x81\xea\x98\x91n<\x1a@'
p1393
tp1394
Rp1395
ssg46
g11
(g12
(S'S3'
p1396
I0
I1
tp1397
Rp1398
(I3
S'|'
p1399
NNNI3
I1
I0
tp1400
bS'PCA'
p1401
tp1402
Rp1403
sg55
F0.2
sg152
g1395
sg56
g11
(g12
(S'S9'
p1404
I0
I1
tp1405
Rp1406
(I3
S'|'
p1407
NNNI9
I1
I0
tp1408
bS'inception'
p1409
tp1410
Rp1411
sg148
g1392
sg65
g11
(g15
S'\xcfUog\xe1 \xf0?'
p1412
tp1413
Rp1414
sg69
g11
(g12
(S'S3'
p1415
I0
I1
tp1416
Rp1417
(I3
S'|'
p1418
NNNI3
I1
I0
tp1419
bS'SVM'
p1420
tp1421
Rp1422
sg78
I3
sg79
g80
sg81
g11
(g15
S'\\\x9d`\xaa\x87\x1f\xdf?'
p1423
tp1424
Rp1425
sg85
g86
sg87
g88
sbag4
(g5
g6
Ntp1426
Rp1427
(dp1428
g10
g11
(g15
S'\x00\x00\x00\x00\x00\x00\xf8\xff'
p1429
tp1430
Rp1431
sg21
g11
(g15
S'\x00\x00\x00\x00\x00@a@'
p1432
tp1433
Rp1434
sg25
g26
sg27
g11
(g30
S'\x07\x00\x00\x00\x00\x00\x00\x00'
p1435
tp1436
Rp1437
sg36
(dp1438
g21
g1434
sg27
g1437
sg38
g11
(g30
S'\x02\x00\x00\x00\x00\x00\x00\x00'
p1439
tp1440
Rp1441
sg42
g11
(g15
S'`\xe6\x08\xe2\\\x9f\xeb?'
p1442
tp1443
Rp1444
ssg46
g11
(g12
(S'S6'
p1445
I0
I1
tp1446
Rp1447
(I3
S'|'
p1448
NNNI6
I1
I0
tp1449
bS'ISOMAP'
p1450
tp1451
Rp1452
sg55
F0.2
sg38
g1441
sg56
g11
(g12
(S'S3'
p1453
I0
I1
tp1454
Rp1455
(I3
S'|'
p1456
NNNI3
I1
I0
tp1457
bS'VGG'
p1458
tp1459
Rp1460
sg65
g11
(g15
S'\x94\x91|\xcb\x8b\xf7\xf6?'
p1461
tp1462
Rp1463
sg69
g11
(g12
(S'S2'
p1464
I0
I1
tp1465
Rp1466
(I3
S'|'
p1467
NNNI2
I1
I0
tp1468
bS'RF'
p1469
tp1470
Rp1471
sg78
I3
sg42
g1444
sg79
g80
sg81
g11
(g15
S'\xa9\xbdO[\xd3\x90\xde?'
p1472
tp1473
Rp1474
sg85
g86
sg87
g88
sbag4
(g5
g6
Ntp1475
Rp1476
(dp1477
g10
g11
(g15
S'\x00\x00\x00\x00\x00\x00\xf8\xff'
p1478
tp1479
Rp1480
sg98
g197
sg25
g26
sg36
(dp1481
g98
g197
sg148
g11
(g15
S'\x0f\r\xe6\x12\xc4\xd3&@'
p1482
tp1483
Rp1484
sg152
g11
(g15
S'\x12\x1f\xf3\x9dS\xcd\xfe?'
p1485
tp1486
Rp1487
ssg46
g11
(g12
(S'S3'
p1488
I0
I1
tp1489
Rp1490
(I3
S'|'
p1491
NNNI3
I1
I0
tp1492
bS'PCA'
p1493
tp1494
Rp1495
sg55
F0.2
sg152
g1487
sg56
g11
(g12
(S'S9'
p1496
I0
I1
tp1497
Rp1498
(I3
S'|'
p1499
NNNI9
I1
I0
tp1500
bS'inception'
p1501
tp1502
Rp1503
sg148
g1484
sg65
g11
(g15
S'q\xa4\x0bV\xcaE\xf0?'
p1504
tp1505
Rp1506
sg69
g11
(g12
(S'S3'
p1507
I0
I1
tp1508
Rp1509
(I3
S'|'
p1510
NNNI3
I1
I0
tp1511
bS'SVM'
p1512
tp1513
Rp1514
sg78
I3
sg79
g80
sg81
g11
(g15
S'\xdb\x1e@\xf9yQ\xdd?'
p1515
tp1516
Rp1517
sg85
g86
sg87
g88
sbag4
(g5
g6
Ntp1518
Rp1519
(dp1520
g10
g11
(g15
S'\x00\x00\x00\x00\x00\x00\xf8\xff'
p1521
tp1522
Rp1523
sg98
g197
sg25
g26
sg36
(dp1524
g98
g197
sg148
g11
(g15
S'C\x87\xbd\xaf\xdfrK@'
p1525
tp1526
Rp1527
sg152
g11
(g15
S'`\xc9\xcbS\x87g\x0c@'
p1528
tp1529
Rp1530
ssg46
g11
(g12
(S'S3'
p1531
I0
I1
tp1532
Rp1533
(I3
S'|'
p1534
NNNI3
I1
I0
tp1535
bS'PCA'
p1536
tp1537
Rp1538
sg55
F0.2
sg152
g1530
sg56
g11
(g12
(S'S3'
p1539
I0
I1
tp1540
Rp1541
(I3
S'|'
p1542
NNNI3
I1
I0
tp1543
bS'VGG'
p1544
tp1545
Rp1546
sg148
g1527
sg65
g11
(g15
S'U\xfd\x8b\xf1\xaaC\xf0?'
p1547
tp1548
Rp1549
sg69
g11
(g12
(S'S3'
p1550
I0
I1
tp1551
Rp1552
(I3
S'|'
p1553
NNNI3
I1
I0
tp1554
bS'SVM'
p1555
tp1556
Rp1557
sg78
I3
sg79
g80
sg81
g11
(g15
S'(?/\xaa\xc5\xc2\xdc?'
p1558
tp1559
Rp1560
sg85
g86
sg87
g88
sbag4
(g5
g6
Ntp1561
Rp1562
(dp1563
g10
g11
(g15
S'\x00\x00\x00\x00\x00\x00\xf8\xff'
p1564
tp1565
Rp1566
sg27
g11
(g30
S'\x04\x00\x00\x00\x00\x00\x00\x00'
p1567
tp1568
Rp1569
sg25
g26
sg36
(dp1570
g27
g1569
sg148
g11
(g15
S'\xbd\r[\xa2\xb8I#@'
p1571
tp1572
Rp1573
sg38
g11
(g30
S'\x02\x00\x00\x00\x00\x00\x00\x00'
p1574
tp1575
Rp1576
sg152
g11
(g15
S'\xa3\xaaq(\xb4\xe4\x11@'
p1577
tp1578
Rp1579
ssg152
g1579
sg46
g11
(g12
(S'S6'
p1580
I0
I1
tp1581
Rp1582
(I3
S'|'
p1583
NNNI6
I1
I0
tp1584
bS'ISOMAP'
p1585
tp1586
Rp1587
sg55
F0.2
sg38
g1576
sg56
g11
(g12
(S'S9'
p1588
I0
I1
tp1589
Rp1590
(I3
S'|'
p1591
NNNI9
I1
I0
tp1592
bS'inception'
p1593
tp1594
Rp1595
sg148
g1573
sg65
g11
(g15
S'\xe5\xbf\x96=\xb5\x9c\xf0?'
p1596
tp1597
Rp1598
sg69
g11
(g12
(S'S3'
p1599
I0
I1
tp1600
Rp1601
(I3
S'|'
p1602
NNNI3
I1
I0
tp1603
bS'SVM'
p1604
tp1605
Rp1606
sg78
I3
sg79
g80
sg81
g11
(g15
S'LV\x1f%\xe1\xbf\xde?'
p1607
tp1608
Rp1609
sg85
g86
sg87
g88
sbag4
(g5
g6
Ntp1610
Rp1611
(dp1612
g10
g11
(g15
S'\x00\x00\x00\x00\x00\x00\xf8\xff'
p1613
tp1614
Rp1615
sg27
g11
(g30
S'\x03\x00\x00\x00\x00\x00\x00\x00'
p1616
tp1617
Rp1618
sg25
g26
sg36
(dp1619
g27
g1618
sg148
g11
(g15
S'\xc5\xd1+\xe8\x00y1@'
p1620
tp1621
Rp1622
sg38
g11
(g30
S'\x02\x00\x00\x00\x00\x00\x00\x00'
p1623
tp1624
Rp1625
sg152
g11
(g15
S'Q\xb5\xa4\x19\xcc\x91\x0c@'
p1626
tp1627
Rp1628
ssg152
g1628
sg46
g11
(g12
(S'S6'
p1629
I0
I1
tp1630
Rp1631
(I3
S'|'
p1632
NNNI6
I1
I0
tp1633
bS'ISOMAP'
p1634
tp1635
Rp1636
sg55
F0.2
sg38
g1625
sg56
g11
(g12
(S'S3'
p1637
I0
I1
tp1638
Rp1639
(I3
S'|'
p1640
NNNI3
I1
I0
tp1641
bS'VGG'
p1642
tp1643
Rp1644
sg148
g1622
sg65
g11
(g15
S'\xa0V\xb9\x9d\x10\x80\xef?'
p1645
tp1646
Rp1647
sg69
g11
(g12
(S'S3'
p1648
I0
I1
tp1649
Rp1650
(I3
S'|'
p1651
NNNI3
I1
I0
tp1652
bS'SVM'
p1653
tp1654
Rp1655
sg78
I3
sg79
g80
sg81
g11
(g15
S'\t\xe4\x1dv)\xee\xde?'
p1656
tp1657
Rp1658
sg85
g86
sg87
g88
sbag4
(g5
g6
Ntp1659
Rp1660
(dp1661
g10
g11
(g15
S'\x00\x00\x00\x00\x00\x00\xf8\xff'
p1662
tp1663
Rp1664
sg27
g11
(g30
S'\x03\x00\x00\x00\x00\x00\x00\x00'
p1665
tp1666
Rp1667
sg25
g26
sg36
(dp1668
g27
g1667
sg148
g11
(g15
S'\x7f\xc1\xd0(\x83\xacP@'
p1669
tp1670
Rp1671
sg38
g11
(g30
S'\x02\x00\x00\x00\x00\x00\x00\x00'
p1672
tp1673
Rp1674
sg152
g11
(g15
S'a\xfe\x1b\xca\x04\xbe\x16@'
p1675
tp1676
Rp1677
ssg152
g1677
sg46
g11
(g12
(S'S6'
p1678
I0
I1
tp1679
Rp1680
(I3
S'|'
p1681
NNNI6
I1
I0
tp1682
bS'ISOMAP'
p1683
tp1684
Rp1685
sg55
F0.2
sg38
g1674
sg56
g11
(g12
(S'S9'
p1686
I0
I1
tp1687
Rp1688
(I3
S'|'
p1689
NNNI9
I1
I0
tp1690
bS'inception'
p1691
tp1692
Rp1693
sg148
g1671
sg65
g11
(g15
S'\xcc!\x174SX\xf0?'
p1694
tp1695
Rp1696
sg69
g11
(g12
(S'S3'
p1697
I0
I1
tp1698
Rp1699
(I3
S'|'
p1700
NNNI3
I1
I0
tp1701
bS'SVM'
p1702
tp1703
Rp1704
sg78
I3
sg79
g80
sg81
g11
(g15
S'\xf3\x92t\x19\x08\xd4\xdf?'
p1705
tp1706
Rp1707
sg85
g86
sg87
g88
sbag4
(g5
g6
Ntp1708
Rp1709
(dp1710
g10
g11
(g15
S'\x00\x00\x00\x00\x00\x00\xf8\xff'
p1711
tp1712
Rp1713
sg27
g11
(g30
S'\x04\x00\x00\x00\x00\x00\x00\x00'
p1714
tp1715
Rp1716
sg25
g26
sg36
(dp1717
g27
g1716
sg148
g11
(g15
S'\xd1\xcaw6i\xeb7@'
p1718
tp1719
Rp1720
sg274
g11
(g30
S'\x02\x00\x00\x00\x00\x00\x00\x00'
p1721
tp1722
Rp1723
sg38
g11
(g30
S'\x02\x00\x00\x00\x00\x00\x00\x00'
p1724
tp1725
Rp1726
sg152
g11
(g15
S':\xa0I\xef\x19\x06\x0e@'
p1727
tp1728
Rp1729
ssg152
g1729
sg46
g11
(g12
(S'S6'
p1730
I0
I1
tp1731
Rp1732
(I3
S'|'
p1733
NNNI6
I1
I0
tp1734
bS'ISOMAP'
p1735
tp1736
Rp1737
sg55
F0.2
sg38
g1726
sg56
g11
(g12
(S'S8'
p1738
I0
I1
tp1739
Rp1740
(I3
S'|'
p1741
NNNI8
I1
I0
tp1742
bS'haralick'
p1743
tp1744
Rp1745
sg148
g1720
sg274
g1723
sg65
g11
(g15
S'\xa1\x87\xd3$\xf5V\xeb?'
p1746
tp1747
Rp1748
sg69
g11
(g12
(S'S3'
p1749
I0
I1
tp1750
Rp1751
(I3
S'|'
p1752
NNNI3
I1
I0
tp1753
bS'SVM'
p1754
tp1755
Rp1756
sg78
I3
sg79
g80
sg81
g11
(g15
S'\xd5\x013q\xd6\xb0\xe2?'
p1757
tp1758
Rp1759
sg85
g86
sg87
g88
sbag4
(g5
g6
Ntp1760
Rp1761
(dp1762
g10
g11
(g15
S'\x00\x00\x00\x00\x00\x00\xf8\xff'
p1763
tp1764
Rp1765
sg21
g11
(g15
S'\x00\x00\x00\x00\x00\x00D@'
p1766
tp1767
Rp1768
sg98
g106
sg25
g26
sg36
(dp1769
g21
g1768
sg42
g11
(g15
S'Z\xbb\xf7%A<\xda?'
p1770
tp1771
Rp1772
sg98
g106
ssg46
g11
(g12
(S'S3'
p1773
I0
I1
tp1774
Rp1775
(I3
S'|'
p1776
NNNI3
I1
I0
tp1777
bS'PCA'
p1778
tp1779
Rp1780
sg55
F0.2
sg56
g11
(g12
(S'S3'
p1781
I0
I1
tp1782
Rp1783
(I3
S'|'
p1784
NNNI3
I1
I0
tp1785
bS'VGG'
p1786
tp1787
Rp1788
sg65
g11
(g15
S'h\xc5w. M\xea?'
p1789
tp1790
Rp1791
sg69
g11
(g12
(S'S2'
p1792
I0
I1
tp1793
Rp1794
(I3
S'|'
p1795
NNNI2
I1
I0
tp1796
bS'RF'
p1797
tp1798
Rp1799
sg78
I3
sg42
g1772
sg79
g80
sg81
g11
(g15
S'\x872\x8c\xeej5\xe6?'
p1800
tp1801
Rp1802
sg85
g86
sg87
g88
sbag4
(g5
g6
Ntp1803
Rp1804
(dp1805
g10
g11
(g15
S'\x00\x00\x00\x00\x00\x00\xf8\xff'
p1806
tp1807
Rp1808
sg21
g11
(g15
S'\x00\x00\x00\x00\x00`i@'
p1809
tp1810
Rp1811
sg25
g26
sg27
g11
(g30
S'\x03\x00\x00\x00\x00\x00\x00\x00'
p1812
tp1813
Rp1814
sg36
(dp1815
g21
g1811
sg27
g1814
sg38
g11
(g30
S'\x03\x00\x00\x00\x00\x00\x00\x00'
p1816
tp1817
Rp1818
sg42
g11
(g15
S'\x12Z\x8f\xe3\x96^\xe9?'
p1819
tp1820
Rp1821
ssg46
g11
(g12
(S'S6'
p1822
I0
I1
tp1823
Rp1824
(I3
S'|'
p1825
NNNI6
I1
I0
tp1826
bS'ISOMAP'
p1827
tp1828
Rp1829
sg55
F0.2
sg38
g1818
sg56
g11
(g12
(S'S9'
p1830
I0
I1
tp1831
Rp1832
(I3
S'|'
p1833
NNNI9
I1
I0
tp1834
bS'inception'
p1835
tp1836
Rp1837
sg65
g11
(g15
S'.\x86!e\x01C\x05@'
p1838
tp1839
Rp1840
sg69
g11
(g12
(S'S2'
p1841
I0
I1
tp1842
Rp1843
(I3
S'|'
p1844
NNNI2
I1
I0
tp1845
bS'RF'
p1846
tp1847
Rp1848
sg78
I3
sg42
g1821
sg79
g80
sg81
g11
(g15
S'\x8b$\x9b\xa9\x7f\xac\xdd?'
p1849
tp1850
Rp1851
sg85
g86
sg87
g88
sbag4
(g5
g6
Ntp1852
Rp1853
(dp1854
g10
g11
(g15
S'\x00\x00\x00\x00\x00\x00\xf8\xff'
p1855
tp1856
Rp1857
sg21
g11
(g15
S'\x00\x00\x00\x00\x00@e@'
p1858
tp1859
Rp1860
sg98
g106
sg25
g26
sg36
(dp1861
g21
g1860
sg42
g11
(g15
S'\xe4\xf9nm\x02\x95\xe6?'
p1862
tp1863
Rp1864
sg98
g106
sg274
g11
(g30
S'\x03\x00\x00\x00\x00\x00\x00\x00'
p1865
tp1866
Rp1867
ssg46
g11
(g12
(S'S3'
p1868
I0
I1
tp1869
Rp1870
(I3
S'|'
p1871
NNNI3
I1
I0
tp1872
bS'PCA'
p1873
tp1874
Rp1875
sg55
F0.2
sg56
g11
(g12
(S'S8'
p1876
I0
I1
tp1877
Rp1878
(I3
S'|'
p1879
NNNI8
I1
I0
tp1880
bS'haralick'
p1881
tp1882
Rp1883
sg274
g1867
sg65
g11
(g15
S'\x0fZ\xa1m"\xb7\xf5?'
p1884
tp1885
Rp1886
sg69
g11
(g12
(S'S2'
p1887
I0
I1
tp1888
Rp1889
(I3
S'|'
p1890
NNNI2
I1
I0
tp1891
bS'RF'
p1892
tp1893
Rp1894
sg78
I3
sg42
g1864
sg79
g80
sg81
g11
(g15
S'\xcd{\x84\x9e\xec\xd6\xe5?'
p1895
tp1896
Rp1897
sg85
g86
sg87
g88
sbag4
(g5
g6
Ntp1898
Rp1899
(dp1900
g10
g11
(g15
S'\x00\x00\x00\x00\x00\x00\xf8\xff'
p1901
tp1902
Rp1903
sg27
g11
(g30
S'\x04\x00\x00\x00\x00\x00\x00\x00'
p1904
tp1905
Rp1906
sg25
g26
sg36
(dp1907
g27
g1906
sg148
g11
(g15
S'\x9b@\x82{\x8b\xeb@@'
p1908
tp1909
Rp1910
sg38
g11
(g30
S'\x03\x00\x00\x00\x00\x00\x00\x00'
p1911
tp1912
Rp1913
sg152
g11
(g15
S'\xcc\xad\x14\x9b\xcc\xea\xe0?'
p1914
tp1915
Rp1916
ssg152
g1916
sg46
g11
(g12
(S'S6'
p1917
I0
I1
tp1918
Rp1919
(I3
S'|'
p1920
NNNI6
I1
I0
tp1921
bS'ISOMAP'
p1922
tp1923
Rp1924
sg55
F0.2
sg38
g1913
sg56
g11
(g12
(S'S3'
p1925
I0
I1
tp1926
Rp1927
(I3
S'|'
p1928
NNNI3
I1
I0
tp1929
bS'VGG'
p1930
tp1931
Rp1932
sg148
g1910
sg65
g11
(g15
S'\x93U\x8f\x08\x11\xcd\xed?'
p1933
tp1934
Rp1935
sg69
g11
(g12
(S'S3'
p1936
I0
I1
tp1937
Rp1938
(I3
S'|'
p1939
NNNI3
I1
I0
tp1940
bS'SVM'
p1941
tp1942
Rp1943
sg78
I3
sg79
g80
sg81
g11
(g15
S'\xcb\xfa\x897@Z\xe0?'
p1944
tp1945
Rp1946
sg85
g86
sg87
g88
sbag4
(g5
g6
Ntp1947
Rp1948
(dp1949
g10
g11
(g15
S'\x00\x00\x00\x00\x00\x00\xf8\xff'
p1950
tp1951
Rp1952
sg21
g11
(g15
S'\x00\x00\x00\x00\x00@e@'
p1953
tp1954
Rp1955
sg98
g106
sg25
g26
sg36
(dp1956
g21
g1955
sg42
g11
(g15
S'\xb4\x9e\xa6\xec\x0ce\xed?'
p1957
tp1958
Rp1959
sg98
g106
ssg46
g11
(g12
(S'S3'
p1960
I0
I1
tp1961
Rp1962
(I3
S'|'
p1963
NNNI3
I1
I0
tp1964
bS'PCA'
p1965
tp1966
Rp1967
sg55
F0.2
sg56
g11
(g12
(S'S9'
p1968
I0
I1
tp1969
Rp1970
(I3
S'|'
p1971
NNNI9
I1
I0
tp1972
bS'inception'
p1973
tp1974
Rp1975
sg65
g11
(g15
S'\xb1\xb7\xc0r\xe1\x83\xf7?'
p1976
tp1977
Rp1978
sg69
g11
(g12
(S'S2'
p1979
I0
I1
tp1980
Rp1981
(I3
S'|'
p1982
NNNI2
I1
I0
tp1983
bS'RF'
p1984
tp1985
Rp1986
sg78
I3
sg42
g1959
sg79
g80
sg81
g11
(g15
S'\xc5#\x936v\x8a\xe0?'
p1987
tp1988
Rp1989
sg85
g86
sg87
g88
sbag4
(g5
g6
Ntp1990
Rp1991
(dp1992
g10
g11
(g15
S'\x00\x00\x00\x00\x00\x00\xf8\xff'
p1993
tp1994
Rp1995
sg21
g11
(g15
S'\x00\x00\x00\x00\x00\xc0p@'
p1996
tp1997
Rp1998
sg25
g26
sg27
g11
(g30
S'\x06\x00\x00\x00\x00\x00\x00\x00'
p1999
tp2000
Rp2001
sg36
(dp2002
g21
g1998
sg27
g2001
sg274
g11
(g30
S'\x02\x00\x00\x00\x00\x00\x00\x00'
p2003
tp2004
Rp2005
sg38
g11
(g30
S'\x04\x00\x00\x00\x00\x00\x00\x00'
p2006
tp2007
Rp2008
sg42
g11
(g15
S'\xf0\x14\xc4\x1bSk\xe4?'
p2009
tp2010
Rp2011
ssg46
g11
(g12
(S'S6'
p2012
I0
I1
tp2013
Rp2014
(I3
S'|'
p2015
NNNI6
I1
I0
tp2016
bS'ISOMAP'
p2017
tp2018
Rp2019
sg55
F0.2
sg38
g2008
sg56
g11
(g12
(S'S8'
p2020
I0
I1
tp2021
Rp2022
(I3
S'|'
p2023
NNNI8
I1
I0
tp2024
bS'haralick'
p2025
tp2026
Rp2027
sg274
g2005
sg65
g11
(g15
S'\xcf\xb5\x92cm \xf0?'
p2028
tp2029
Rp2030
sg69
g11
(g12
(S'S2'
p2031
I0
I1
tp2032
Rp2033
(I3
S'|'
p2034
NNNI2
I1
I0
tp2035
bS'RF'
p2036
tp2037
Rp2038
sg78
I3
sg42
g2011
sg79
g80
sg81
g11
(g15
S'5\xc7\xd2J\x08\x96\xe4?'
p2039
tp2040
Rp2041
sg85
g86
sg87
g88
sbag4
(g5
g6
Ntp2042
Rp2043
(dp2044
g10
g11
(g15
S'\x00\x00\x00\x00\x00\x00\xf8\xff'
p2045
tp2046
Rp2047
sg21
g11
(g15
S'\x00\x00\x00\x00\x00@a@'
p2048
tp2049
Rp2050
sg98
g106
sg25
g26
sg36
(dp2051
g21
g2050
sg42
g11
(g15
S'K\xeb\xe4\x15\x9e#\xe0?'
p2052
tp2053
Rp2054
sg98
g106
ssg46
g11
(g12
(S'S3'
p2055
I0
I1
tp2056
Rp2057
(I3
S'|'
p2058
NNNI3
I1
I0
tp2059
bS'PCA'
p2060
tp2061
Rp2062
sg55
F0.2
sg56
g11
(g12
(S'S9'
p2063
I0
I1
tp2064
Rp2065
(I3
S'|'
p2066
NNNI9
I1
I0
tp2067
bS'inception'
p2068
tp2069
Rp2070
sg65
g11
(g15
S'\xcbL\x9f\xbb\x99\xaa\xf5?'
p2071
tp2072
Rp2073
sg69
g11
(g12
(S'S2'
p2074
I0
I1
tp2075
Rp2076
(I3
S'|'
p2077
NNNI2
I1
I0
tp2078
bS'RF'
p2079
tp2080
Rp2081
sg78
I3
sg42
g2054
sg79
g80
sg81
g11
(g15
S'\xbf_A\xe6\xd4\xa0\xe0?'
p2082
tp2083
Rp2084
sg85
g86
sg87
g88
sbag4
(g5
g6
Ntp2085
Rp2086
(dp2087
g10
g11
(g15
S'\x00\x00\x00\x00\x00\x00\xf8\xff'
p2088
tp2089
Rp2090
sg98
g106
sg25
g26
sg36
(dp2091
g98
g106
sg148
g11
(g15
S'\x94\x17\xb0a\xb2\x84S@'
p2092
tp2093
Rp2094
sg152
g11
(g15
S'\xb0\x05et\x14K\x0c@'
p2095
tp2096
Rp2097
ssg46
g11
(g12
(S'S3'
p2098
I0
I1
tp2099
Rp2100
(I3
S'|'
p2101
NNNI3
I1
I0
tp2102
bS'PCA'
p2103
tp2104
Rp2105
sg55
F0.2
sg152
g2097
sg56
g11
(g12
(S'S3'
p2106
I0
I1
tp2107
Rp2108
(I3
S'|'
p2109
NNNI3
I1
I0
tp2110
bS'VGG'
p2111
tp2112
Rp2113
sg148
g2094
sg65
g11
(g15
S'\x98i\xdc\x1c[*\xf0?'
p2114
tp2115
Rp2116
sg69
g11
(g12
(S'S3'
p2117
I0
I1
tp2118
Rp2119
(I3
S'|'
p2120
NNNI3
I1
I0
tp2121
bS'SVM'
p2122
tp2123
Rp2124
sg78
I3
sg79
g80
sg81
g11
(g15
S'(?/\xaa\xc5\xc2\xdc?'
p2125
tp2126
Rp2127
sg85
g86
sg87
g88
sbag4
(g5
g6
Ntp2128
Rp2129
(dp2130
g10
g11
(g15
S'\x00\x00\x00\x00\x00\x00\xf8\xff'
p2131
tp2132
Rp2133
sg21
g11
(g15
S'\x00\x00\x00\x00\x00\x00D@'
p2134
tp2135
Rp2136
sg25
g26
sg27
g11
(g30
S'\x03\x00\x00\x00\x00\x00\x00\x00'
p2137
tp2138
Rp2139
sg36
(dp2140
g21
g2136
sg27
g2139
sg274
g11
(g30
S'\x03\x00\x00\x00\x00\x00\x00\x00'
p2141
tp2142
Rp2143
sg38
g11
(g30
S'\x04\x00\x00\x00\x00\x00\x00\x00'
p2144
tp2145
Rp2146
sg42
g11
(g15
S'sSZ\x05\xad~\xe1?'
p2147
tp2148
Rp2149
ssg46
g11
(g12
(S'S6'
p2150
I0
I1
tp2151
Rp2152
(I3
S'|'
p2153
NNNI6
I1
I0
tp2154
bS'ISOMAP'
p2155
tp2156
Rp2157
sg55
F0.2
sg38
g2146
sg56
g11
(g12
(S'S8'
p2158
I0
I1
tp2159
Rp2160
(I3
S'|'
p2161
NNNI8
I1
I0
tp2162
bS'haralick'
p2163
tp2164
Rp2165
sg274
g2143
sg65
g11
(g15
S'\xab\x95u@/\x90\x08@'
p2166
tp2167
Rp2168
sg69
g11
(g12
(S'S2'
p2169
I0
I1
tp2170
Rp2171
(I3
S'|'
p2172
NNNI2
I1
I0
tp2173
bS'RF'
p2174
tp2175
Rp2176
sg78
I3
sg42
g2149
sg79
g80
sg81
g11
(g15
S'\xb8\xbezY\xa0\x1f\xe4?'
p2177
tp2178
Rp2179
sg85
g86
sg87
g88
sbag142
ag4
(g5
g6
Ntp2180
Rp2181
(dp2182
g10
g11
(g15
S'\x00\x00\x00\x00\x00\x00\xf8\xff'
p2183
tp2184
Rp2185
sg21
g11
(g15
S'\x00\x00\x00\x00\x00\x00D@'
p2186
tp2187
Rp2188
sg25
g26
sg27
g11
(g30
S'\x06\x00\x00\x00\x00\x00\x00\x00'
p2189
tp2190
Rp2191
sg36
(dp2192
g21
g2188
sg27
g2191
sg38
g11
(g30
S'\x03\x00\x00\x00\x00\x00\x00\x00'
p2193
tp2194
Rp2195
sg42
g11
(g15
S'\xdcU\x0b>f/\xef?'
p2196
tp2197
Rp2198
ssg46
g11
(g12
(S'S6'
p2199
I0
I1
tp2200
Rp2201
(I3
S'|'
p2202
NNNI6
I1
I0
tp2203
bS'ISOMAP'
p2204
tp2205
Rp2206
sg55
F0.2
sg38
g2195
sg56
g11
(g12
(S'S3'
p2207
I0
I1
tp2208
Rp2209
(I3
S'|'
p2210
NNNI3
I1
I0
tp2211
bS'VGG'
p2212
tp2213
Rp2214
sg65
g11
(g15
S'\xa0"\x0f\xb5l\x85\x01@'
p2215
tp2216
Rp2217
sg69
g11
(g12
(S'S2'
p2218
I0
I1
tp2219
Rp2220
(I3
S'|'
p2221
NNNI2
I1
I0
tp2222
bS'RF'
p2223
tp2224
Rp2225
sg78
I3
sg42
g2198
sg79
g80
sg81
g11
(g15
S';{>\x88e\xfd\xe0?'
p2226
tp2227
Rp2228
sg85
g86
sg87
g88
sbag4
(g5
g6
Ntp2229
Rp2230
(dp2231
g10
g11
(g15
S'\x00\x00\x00\x00\x00\x00\xf8\xff'
p2232
tp2233
Rp2234
sg98
g106
sg25
g26
sg36
(dp2235
g98
g106
sg148
g11
(g15
S'\xb8\xc2E}\xd7\xf44@'
p2236
tp2237
Rp2238
sg274
g11
(g30
S'\x03\x00\x00\x00\x00\x00\x00\x00'
p2239
tp2240
Rp2241
sg152
g11
(g15
S'\x81|\xb8\x8bD\x80\x15@'
p2242
tp2243
Rp2244
ssg46
g11
(g12
(S'S3'
p2245
I0
I1
tp2246
Rp2247
(I3
S'|'
p2248
NNNI3
I1
I0
tp2249
bS'PCA'
p2250
tp2251
Rp2252
sg55
F0.2
sg152
g2244
sg56
g11
(g12
(S'S8'
p2253
I0
I1
tp2254
Rp2255
(I3
S'|'
p2256
NNNI8
I1
I0
tp2257
bS'haralick'
p2258
tp2259
Rp2260
sg148
g2238
sg274
g2241
sg65
g11
(g15
S'\x8b}\xbb\xb5~\x8b\xeb?'
p2261
tp2262
Rp2263
sg69
g11
(g12
(S'S3'
p2264
I0
I1
tp2265
Rp2266
(I3
S'|'
p2267
NNNI3
I1
I0
tp2268
bS'SVM'
p2269
tp2270
Rp2271
sg78
I3
sg79
g80
sg81
g11
(g15
S'\xf0\xf6a\xf8\x10\xb0\xe2?'
p2272
tp2273
Rp2274
sg85
g86
sg87
g88
sbag4
(g5
g6
Ntp2275
Rp2276
(dp2277
g10
g11
(g15
S'\x00\x00\x00\x00\x00\x00\xf8\xff'
p2278
tp2279
Rp2280
sg21
g11
(g15
S'\x00\x00\x00\x00\x00@R@'
p2281
tp2282
Rp2283
sg98
g106
sg25
g26
sg36
(dp2284
g21
g2283
sg42
g11
(g15
S'\x06Ha\x00\x00\xba\xe4?'
p2285
tp2286
Rp2287
sg98
g106
ssg46
g11
(g12
(S'S3'
p2288
I0
I1
tp2289
Rp2290
(I3
S'|'
p2291
NNNI3
I1
I0
tp2292
bS'PCA'
p2293
tp2294
Rp2295
sg55
F0.2
sg56
g11
(g12
(S'S9'
p2296
I0
I1
tp2297
Rp2298
(I3
S'|'
p2299
NNNI9
I1
I0
tp2300
bS'inception'
p2301
tp2302
Rp2303
sg65
g11
(g15
S'W\x9fT\xfb\xb5\x11\xfb?'
p2304
tp2305
Rp2306
sg69
g11
(g12
(S'S2'
p2307
I0
I1
tp2308
Rp2309
(I3
S'|'
p2310
NNNI2
I1
I0
tp2311
bS'RF'
p2312
tp2313
Rp2314
sg78
I3
sg42
g2287
sg79
g80
sg81
g11
(g15
S'L\xda\xd8)r\xa0\xe0?'
p2315
tp2316
Rp2317
sg85
g86
sg87
g88
sbag4
(g5
g6
Ntp2318
Rp2319
(dp2320
g10
g11
(g15
S'\x00\x00\x00\x00\x00\x00\xf8\xff'
p2321
tp2322
Rp2323
sg98
g106
sg25
g26
sg36
(dp2324
g98
g106
sg148
g11
(g15
S'.\xb4\xce+\x06Z5@'
p2325
tp2326
Rp2327
sg274
g11
(g30
S'\x01\x00\x00\x00\x00\x00\x00\x00'
p2328
tp2329
Rp2330
sg152
g11
(g15
S'J\xe9\xaf\xf0\xebw\x0b@'
p2331
tp2332
Rp2333
ssg46
g11
(g12
(S'S3'
p2334
I0
I1
tp2335
Rp2336
(I3
S'|'
p2337
NNNI3
I1
I0
tp2338
bS'PCA'
p2339
tp2340
Rp2341
sg55
F0.2
sg152
g2333
sg56
g11
(g12
(S'S8'
p2342
I0
I1
tp2343
Rp2344
(I3
S'|'
p2345
NNNI8
I1
I0
tp2346
bS'haralick'
p2347
tp2348
Rp2349
sg148
g2327
sg274
g2330
sg65
g11
(g15
S'\x15\xd9Vb\x011\xee?'
p2350
tp2351
Rp2352
sg69
g11
(g12
(S'S3'
p2353
I0
I1
tp2354
Rp2355
(I3
S'|'
p2356
NNNI3
I1
I0
tp2357
bS'SVM'
p2358
tp2359
Rp2360
sg78
I3
sg79
g80
sg81
g11
(g15
S'Yb|\xca\xb4s\xe0?'
p2361
tp2362
Rp2363
sg85
g86
sg87
g88
sbag4
(g5
g6
Ntp2364
Rp2365
(dp2366
g10
g11
(g15
S'\x00\x00\x00\x00\x00\x00\xf8\xff'
p2367
tp2368
Rp2369
sg27
g11
(g30
S'\x03\x00\x00\x00\x00\x00\x00\x00'
p2370
tp2371
Rp2372
sg25
g26
sg36
(dp2373
g27
g2372
sg148
g11
(g15
S'@\r$N\x9eYU@'
p2374
tp2375
Rp2376
sg38
g11
(g30
S'\x02\x00\x00\x00\x00\x00\x00\x00'
p2377
tp2378
Rp2379
sg152
g11
(g15
S'\xc9\x01\xb73Z\x1b\x15@'
p2380
tp2381
Rp2382
ssg152
g2382
sg46
g11
(g12
(S'S6'
p2383
I0
I1
tp2384
Rp2385
(I3
S'|'
p2386
NNNI6
I1
I0
tp2387
bS'ISOMAP'
p2388
tp2389
Rp2390
sg55
F0.2
sg38
g2379
sg56
g11
(g12
(S'S3'
p2391
I0
I1
tp2392
Rp2393
(I3
S'|'
p2394
NNNI3
I1
I0
tp2395
bS'VGG'
p2396
tp2397
Rp2398
sg148
g2376
sg65
g11
(g15
S'H\x0f\x03\xe7\\\x8d\xef?'
p2399
tp2400
Rp2401
sg69
g11
(g12
(S'S3'
p2402
I0
I1
tp2403
Rp2404
(I3
S'|'
p2405
NNNI3
I1
I0
tp2406
bS'SVM'
p2407
tp2408
Rp2409
sg78
I3
sg79
g80
sg81
g11
(g15
S'\xb1\xf2\xb5\xff\xdct\xe0?'
p2410
tp2411
Rp2412
sg85
g86
sg87
g88
sbag4
(g5
g6
Ntp2413
Rp2414
(dp2415
g10
g11
(g15
S'\x00\x00\x00\x00\x00\x00\xf8\xff'
p2416
tp2417
Rp2418
sg27
g11
(g30
S'\x03\x00\x00\x00\x00\x00\x00\x00'
p2419
tp2420
Rp2421
sg25
g26
sg36
(dp2422
g27
g2421
sg148
g11
(g15
S'+;\x9d\xf95dK@'
p2423
tp2424
Rp2425
sg38
g11
(g30
S'\x03\x00\x00\x00\x00\x00\x00\x00'
p2426
tp2427
Rp2428
sg152
g11
(g15
S'\xa9\xf2\x05\xdcC\xe3\xe2?'
p2429
tp2430
Rp2431
ssg152
g2431
sg46
g11
(g12
(S'S6'
p2432
I0
I1
tp2433
Rp2434
(I3
S'|'
p2435
NNNI6
I1
I0
tp2436
bS'ISOMAP'
p2437
tp2438
Rp2439
sg55
F0.2
sg38
g2428
sg56
g11
(g12
(S'S3'
p2440
I0
I1
tp2441
Rp2442
(I3
S'|'
p2443
NNNI3
I1
I0
tp2444
bS'VGG'
p2445
tp2446
Rp2447
sg148
g2425
sg65
g11
(g15
S'\xc4\x8c!\xe7\xab\x7f\xee?'
p2448
tp2449
Rp2450
sg69
g11
(g12
(S'S3'
p2451
I0
I1
tp2452
Rp2453
(I3
S'|'
p2454
NNNI3
I1
I0
tp2455
bS'SVM'
p2456
tp2457
Rp2458
sg78
I3
sg79
g80
sg81
g11
(g15
S'\x9f\x0fbY?\xf1\xde?'
p2459
tp2460
Rp2461
sg85
g86
sg87
g88
sbag4
(g5
g6
Ntp2462
Rp2463
(dp2464
g10
g11
(g15
S'\x00\x00\x00\x00\x00\x00\xf8\xff'
p2465
tp2466
Rp2467
sg27
g11
(g30
S'\x07\x00\x00\x00\x00\x00\x00\x00'
p2468
tp2469
Rp2470
sg25
g26
sg36
(dp2471
g27
g2470
sg148
g11
(g15
S'\x9f|\x92\xcec\xfa\x03@'
p2472
tp2473
Rp2474
sg274
g11
(g30
S'\x02\x00\x00\x00\x00\x00\x00\x00'
p2475
tp2476
Rp2477
sg38
g11
(g30
S'\x04\x00\x00\x00\x00\x00\x00\x00'
p2478
tp2479
Rp2480
sg152
g11
(g15
S'~\xbc\xb8\x95\xbb\xc6\x00@'
p2481
tp2482
Rp2483
ssg152
g2483
sg46
g11
(g12
(S'S6'
p2484
I0
I1
tp2485
Rp2486
(I3
S'|'
p2487
NNNI6
I1
I0
tp2488
bS'ISOMAP'
p2489
tp2490
Rp2491
sg55
F0.2
sg38
g2480
sg56
g11
(g12
(S'S8'
p2492
I0
I1
tp2493
Rp2494
(I3
S'|'
p2495
NNNI8
I1
I0
tp2496
bS'haralick'
p2497
tp2498
Rp2499
sg148
g2474
sg274
g2477
sg65
g11
(g15
S'\t/\xfe\t\x16\xa5\xeb?'
p2500
tp2501
Rp2502
sg69
g11
(g12
(S'S3'
p2503
I0
I1
tp2504
Rp2505
(I3
S'|'
p2506
NNNI3
I1
I0
tp2507
bS'SVM'
p2508
tp2509
Rp2510
sg78
I3
sg79
g80
sg81
g11
(g15
S'\x14\x0eRs,\xad\xe4?'
p2511
tp2512
Rp2513
sg85
g86
sg87
g88
sbag4
(g5
g6
Ntp2514
Rp2515
(dp2516
g10
g11
(g15
S'\x00\x00\x00\x00\x00\x00\xf8\xff'
p2517
tp2518
Rp2519
sg21
g11
(g15
S'\x00\x00\x00\x00\x00\x00D@'
p2520
tp2521
Rp2522
sg98
g197
sg25
g26
sg36
(dp2523
g21
g2522
sg42
g11
(g15
S'h3\xc6\xd9WN\xde?'
p2524
tp2525
Rp2526
sg98
g197
ssg46
g11
(g12
(S'S3'
p2527
I0
I1
tp2528
Rp2529
(I3
S'|'
p2530
NNNI3
I1
I0
tp2531
bS'PCA'
p2532
tp2533
Rp2534
sg55
F0.2
sg56
g11
(g12
(S'S3'
p2535
I0
I1
tp2536
Rp2537
(I3
S'|'
p2538
NNNI3
I1
I0
tp2539
bS'VGG'
p2540
tp2541
Rp2542
sg65
g11
(g15
S'#\x88\xf5\xa0\x1c\xff\xe7?'
p2543
tp2544
Rp2545
sg69
g11
(g12
(S'S2'
p2546
I0
I1
tp2547
Rp2548
(I3
S'|'
p2549
NNNI2
I1
I0
tp2550
bS'RF'
p2551
tp2552
Rp2553
sg78
I3
sg42
g2526
sg79
g80
sg81
g11
(g15
S' 5\xc7\xd2J\x08\xe6?'
p2554
tp2555
Rp2556
sg85
g86
sg87
g88
sbag4
(g5
g6
Ntp2557
Rp2558
(dp2559
g10
g11
(g15
S'\x00\x00\x00\x00\x00\x00\xf8\xff'
p2560
tp2561
Rp2562
sg21
g11
(g15
S'\x00\x00\x00\x00\x00@Z@'
p2563
tp2564
Rp2565
sg25
g26
sg27
g11
(g30
S'\x07\x00\x00\x00\x00\x00\x00\x00'
p2566
tp2567
Rp2568
sg36
(dp2569
g21
g2565
sg27
g2568
sg274
g11
(g30
S'\x03\x00\x00\x00\x00\x00\x00\x00'
p2570
tp2571
Rp2572
sg38
g11
(g30
S'\x04\x00\x00\x00\x00\x00\x00\x00'
p2573
tp2574
Rp2575
sg42
g11
(g15
S'k\xd6yc\xceD\xdf?'
p2576
tp2577
Rp2578
ssg46
g11
(g12
(S'S6'
p2579
I0
I1
tp2580
Rp2581
(I3
S'|'
p2582
NNNI6
I1
I0
tp2583
bS'ISOMAP'
p2584
tp2585
Rp2586
sg55
F0.2
sg38
g2575
sg56
g11
(g12
(S'S8'
p2587
I0
I1
tp2588
Rp2589
(I3
S'|'
p2590
NNNI8
I1
I0
tp2591
bS'haralick'
p2592
tp2593
Rp2594
sg274
g2572
sg65
g11
(g15
S'\xb0\xc6\x1ccN\x1a\xf2?'
p2595
tp2596
Rp2597
sg69
g11
(g12
(S'S2'
p2598
I0
I1
tp2599
Rp2600
(I3
S'|'
p2601
NNNI2
I1
I0
tp2602
bS'RF'
p2603
tp2604
Rp2605
sg78
I3
sg42
g2578
sg79
g80
sg81
g11
(g15
S'\x94\x00F\x16\x87\xd9\xe4?'
p2606
tp2607
Rp2608
sg85
g86
sg87
g88
sbag4
(g5
g6
Ntp2609
Rp2610
(dp2611
g10
g11
(g15
S'\x00\x00\x00\x00\x00\x00\xf8\xff'
p2612
tp2613
Rp2614
sg27
g11
(g30
S'\x03\x00\x00\x00\x00\x00\x00\x00'
p2615
tp2616
Rp2617
sg25
g26
sg36
(dp2618
g27
g2617
sg148
g11
(g15
S'\xc2\xa8\xaa>\x04&K@'
p2619
tp2620
Rp2621
sg38
g11
(g30
S'\x02\x00\x00\x00\x00\x00\x00\x00'
p2622
tp2623
Rp2624
sg152
g11
(g15
S'\x9atG\x1a\xa7\x01\x00@'
p2625
tp2626
Rp2627
ssg152
g2627
sg46
g11
(g12
(S'S6'
p2628
I0
I1
tp2629
Rp2630
(I3
S'|'
p2631
NNNI6
I1
I0
tp2632
bS'ISOMAP'
p2633
tp2634
Rp2635
sg55
F0.2
sg38
g2624
sg56
g11
(g12
(S'S9'
p2636
I0
I1
tp2637
Rp2638
(I3
S'|'
p2639
NNNI9
I1
I0
tp2640
bS'inception'
p2641
tp2642
Rp2643
sg148
g2621
sg65
g11
(g15
S'V\x06C\xbd\x99\x88\xf0?'
p2644
tp2645
Rp2646
sg69
g11
(g12
(S'S3'
p2647
I0
I1
tp2648
Rp2649
(I3
S'|'
p2650
NNNI3
I1
I0
tp2651
bS'SVM'
p2652
tp2653
Rp2654
sg78
I3
sg79
g80
sg81
g11
(g15
S'\x9c\xd4}ylE\xe0?'
p2655
tp2656
Rp2657
sg85
g86
sg87
g88
sbag4
(g5
g6
Ntp2658
Rp2659
(dp2660
g10
g11
(g15
S'\x00\x00\x00\x00\x00\x00\xf8\xff'
p2661
tp2662
Rp2663
sg27
g11
(g30
S'\x06\x00\x00\x00\x00\x00\x00\x00'
p2664
tp2665
Rp2666
sg25
g26
sg36
(dp2667
g27
g2666
sg148
g11
(g15
S'O\xc5\x87\xc3\x00\xe3W@'
p2668
tp2669
Rp2670
sg38
g11
(g30
S'\x02\x00\x00\x00\x00\x00\x00\x00'
p2671
tp2672
Rp2673
sg152
g11
(g15
S'u\xe7\xb6\x0c\r\xab\x1e@'
p2674
tp2675
Rp2676
ssg152
g2676
sg46
g11
(g12
(S'S6'
p2677
I0
I1
tp2678
Rp2679
(I3
S'|'
p2680
NNNI6
I1
I0
tp2681
bS'ISOMAP'
p2682
tp2683
Rp2684
sg55
F0.2
sg38
g2673
sg56
g11
(g12
(S'S9'
p2685
I0
I1
tp2686
Rp2687
(I3
S'|'
p2688
NNNI9
I1
I0
tp2689
bS'inception'
p2690
tp2691
Rp2692
sg148
g2670
sg65
g11
(g15
S'\xcb\x03*7.?\xf0?'
p2693
tp2694
Rp2695
sg69
g11
(g12
(S'S3'
p2696
I0
I1
tp2697
Rp2698
(I3
S'|'
p2699
NNNI3
I1
I0
tp2700
bS'SVM'
p2701
tp2702
Rp2703
sg78
I3
sg79
g80
sg81
g11
(g15
S'O\x15\xbd\tEL\xdf?'
p2704
tp2705
Rp2706
sg85
g86
sg87
g88
sbag4
(g5
g6
Ntp2707
Rp2708
(dp2709
g10
g11
(g15
S'\x00\x00\x00\x00\x00\x00\xf8\xff'
p2710
tp2711
Rp2712
sg27
g11
(g30
S'\x07\x00\x00\x00\x00\x00\x00\x00'
p2713
tp2714
Rp2715
sg25
g26
sg36
(dp2716
g27
g2715
sg148
g11
(g15
S'-\xb7\xef\xd2\xcc\x04K@'
p2717
tp2718
Rp2719
sg38
g11
(g30
S'\x03\x00\x00\x00\x00\x00\x00\x00'
p2720
tp2721
Rp2722
sg152
g11
(g15
S'\xd2.\xe8\xb8v\x91\x17@'
p2723
tp2724
Rp2725
ssg152
g2725
sg46
g11
(g12
(S'S6'
p2726
I0
I1
tp2727
Rp2728
(I3
S'|'
p2729
NNNI6
I1
I0
tp2730
bS'ISOMAP'
p2731
tp2732
Rp2733
sg55
F0.2
sg38
g2722
sg56
g11
(g12
(S'S9'
p2734
I0
I1
tp2735
Rp2736
(I3
S'|'
p2737
NNNI9
I1
I0
tp2738
bS'inception'
p2739
tp2740
Rp2741
sg148
g2719
sg65
g11
(g15
S'(K\xee&\xba\x88\xf0?'
p2742
tp2743
Rp2744
sg69
g11
(g12
(S'S3'
p2745
I0
I1
tp2746
Rp2747
(I3
S'|'
p2748
NNNI3
I1
I0
tp2749
bS'SVM'
p2750
tp2751
Rp2752
sg78
I3
sg79
g80
sg81
g11
(g15
S'\xb0V\xa3\xde\xe5P\xdf?'
p2753
tp2754
Rp2755
sg85
g86
sg87
g88
sbag4
(g5
g6
Ntp2756
Rp2757
(dp2758
g10
g11
(g15
S'\x00\x00\x00\x00\x00\x00\xf8\xff'
p2759
tp2760
Rp2761
sg27
g11
(g30
S'\x03\x00\x00\x00\x00\x00\x00\x00'
p2762
tp2763
Rp2764
sg25
g26
sg36
(dp2765
g27
g2764
sg148
g11
(g15
S'|Z\x08VlsX@'
p2766
tp2767
Rp2768
sg38
g11
(g30
S'\x02\x00\x00\x00\x00\x00\x00\x00'
p2769
tp2770
Rp2771
sg152
g11
(g15
S'[q\xfdX\x15\xd1\x19@'
p2772
tp2773
Rp2774
ssg152
g2774
sg46
g11
(g12
(S'S6'
p2775
I0
I1
tp2776
Rp2777
(I3
S'|'
p2778
NNNI6
I1
I0
tp2779
bS'ISOMAP'
p2780
tp2781
Rp2782
sg55
F0.2
sg38
g2771
sg56
g11
(g12
(S'S9'
p2783
I0
I1
tp2784
Rp2785
(I3
S'|'
p2786
NNNI9
I1
I0
tp2787
bS'inception'
p2788
tp2789
Rp2790
sg148
g2768
sg65
g11
(g15
S'\x9b\xad\x88\\2F\xf0?'
p2791
tp2792
Rp2793
sg69
g11
(g12
(S'S3'
p2794
I0
I1
tp2795
Rp2796
(I3
S'|'
p2797
NNNI3
I1
I0
tp2798
bS'SVM'
p2799
tp2800
Rp2801
sg78
I3
sg79
g80
sg81
g11
(g15
S'\x93l\xa6\xfe\xb1v\xdf?'
p2802
tp2803
Rp2804
sg85
g86
sg87
g88
sbag4
(g5
g6
Ntp2805
Rp2806
(dp2807
g10
g11
(g15
S'\x00\x00\x00\x00\x00\x00\xf8\xff'
p2808
tp2809
Rp2810
sg27
g11
(g30
S'\x05\x00\x00\x00\x00\x00\x00\x00'
p2811
tp2812
Rp2813
sg25
g26
sg36
(dp2814
g27
g2813
sg148
g11
(g15
S'S\xb6\xc5\xb2*z\x16@'
p2815
tp2816
Rp2817
sg274
g11
(g30
S'\x01\x00\x00\x00\x00\x00\x00\x00'
p2818
tp2819
Rp2820
sg38
g11
(g30
S'\x04\x00\x00\x00\x00\x00\x00\x00'
p2821
tp2822
Rp2823
sg152
g11
(g15
S'\xd6]\x88\x8fc\x1a\x12@'
p2824
tp2825
Rp2826
ssg152
g2826
sg46
g11
(g12
(S'S6'
p2827
I0
I1
tp2828
Rp2829
(I3
S'|'
p2830
NNNI6
I1
I0
tp2831
bS'ISOMAP'
p2832
tp2833
Rp2834
sg55
F0.2
sg38
g2823
sg56
g11
(g12
(S'S8'
p2835
I0
I1
tp2836
Rp2837
(I3
S'|'
p2838
NNNI8
I1
I0
tp2839
bS'haralick'
p2840
tp2841
Rp2842
sg148
g2817
sg274
g2820
sg65
g11
(g15
S'\x0cj\xf6[C\xc7\xec?'
p2843
tp2844
Rp2845
sg69
g11
(g12
(S'S3'
p2846
I0
I1
tp2847
Rp2848
(I3
S'|'
p2849
NNNI3
I1
I0
tp2850
bS'SVM'
p2851
tp2852
Rp2853
sg78
I3
sg79
g80
sg81
g11
(g15
S'\xd8\xc0\xd0U:=\xe3?'
p2854
tp2855
Rp2856
sg85
g86
sg87
g88
sbag4
(g5
g6
Ntp2857
Rp2858
(dp2859
g10
g11
(g15
S'\x00\x00\x00\x00\x00\x00\xf8\xff'
p2860
tp2861
Rp2862
sg21
g11
(g15
S'\x00\x00\x00\x00\x00`i@'
p2863
tp2864
Rp2865
sg98
g106
sg25
g26
sg36
(dp2866
g21
g2865
sg42
g11
(g15
S'\x9cvxa\xd4+\xe8?'
p2867
tp2868
Rp2869
sg98
g106
ssg46
g11
(g12
(S'S3'
p2870
I0
I1
tp2871
Rp2872
(I3
S'|'
p2873
NNNI3
I1
I0
tp2874
bS'PCA'
p2875
tp2876
Rp2877
sg55
F0.2
sg56
g11
(g12
(S'S3'
p2878
I0
I1
tp2879
Rp2880
(I3
S'|'
p2881
NNNI3
I1
I0
tp2882
bS'VGG'
p2883
tp2884
Rp2885
sg65
g11
(g15
S'4\x8a\xf4\x8ad\x02\xe7?'
p2886
tp2887
Rp2888
sg69
g11
(g12
(S'S2'
p2889
I0
I1
tp2890
Rp2891
(I3
S'|'
p2892
NNNI2
I1
I0
tp2893
bS'RF'
p2894
tp2895
Rp2896
sg78
I3
sg42
g2869
sg79
g80
sg81
g11
(g15
S'\xb0\x81\xa1\xabtz\xe6?'
p2897
tp2898
Rp2899
sg85
g86
sg87
g88
sbag4
(g5
g6
Ntp2900
Rp2901
(dp2902
g10
g11
(g15
S'\x00\x00\x00\x00\x00\x00\xf8\xff'
p2903
tp2904
Rp2905
sg98
g106
sg25
g26
sg36
(dp2906
g98
g106
sg148
g11
(g15
S'\x84tn\xf8\x00\x02.@'
p2907
tp2908
Rp2909
sg152
g11
(g15
S'\xbdK\x15n-\\\x1f@'
p2910
tp2911
Rp2912
ssg46
g11
(g12
(S'S3'
p2913
I0
I1
tp2914
Rp2915
(I3
S'|'
p2916
NNNI3
I1
I0
tp2917
bS'PCA'
p2918
tp2919
Rp2920
sg55
F0.2
sg152
g2912
sg56
g11
(g12
(S'S9'
p2921
I0
I1
tp2922
Rp2923
(I3
S'|'
p2924
NNNI9
I1
I0
tp2925
bS'inception'
p2926
tp2927
Rp2928
sg148
g2909
sg65
g11
(g15
S'4P\x958*D\xf0?'
p2929
tp2930
Rp2931
sg69
g11
(g12
(S'S3'
p2932
I0
I1
tp2933
Rp2934
(I3
S'|'
p2935
NNNI3
I1
I0
tp2936
bS'SVM'
p2937
tp2938
Rp2939
sg78
I3
sg79
g80
sg81
g11
(g15
S'7\xd7\xb8]L\x18\xe0?'
p2940
tp2941
Rp2942
sg85
g86
sg87
g88
sbag4
(g5
g6
Ntp2943
Rp2944
(dp2945
g10
g11
(g15
S'\x00\x00\x00\x00\x00\x00\xf8\xff'
p2946
tp2947
Rp2948
sg27
g11
(g30
S'\x04\x00\x00\x00\x00\x00\x00\x00'
p2949
tp2950
Rp2951
sg25
g26
sg36
(dp2952
g27
g2951
sg148
g11
(g15
S'\xfa\xee\xea\xace\xd36@'
p2953
tp2954
Rp2955
sg274
g11
(g30
S'\x01\x00\x00\x00\x00\x00\x00\x00'
p2956
tp2957
Rp2958
sg38
g11
(g30
S'\x04\x00\x00\x00\x00\x00\x00\x00'
p2959
tp2960
Rp2961
sg152
g11
(g15
S':\x088\x1a.\xaf\xe7?'
p2962
tp2963
Rp2964
ssg152
g2964
sg46
g11
(g12
(S'S6'
p2965
I0
I1
tp2966
Rp2967
(I3
S'|'
p2968
NNNI6
I1
I0
tp2969
bS'ISOMAP'
p2970
tp2971
Rp2972
sg55
F0.2
sg38
g2961
sg56
g11
(g12
(S'S8'
p2973
I0
I1
tp2974
Rp2975
(I3
S'|'
p2976
NNNI8
I1
I0
tp2977
bS'haralick'
p2978
tp2979
Rp2980
sg148
g2955
sg274
g2958
sg65
g11
(g15
S'L\xb3h)a\x99\xec?'
p2981
tp2982
Rp2983
sg69
g11
(g12
(S'S3'
p2984
I0
I1
tp2985
Rp2986
(I3
S'|'
p2987
NNNI3
I1
I0
tp2988
bS'SVM'
p2989
tp2990
Rp2991
sg78
I3
sg79
g80
sg81
g11
(g15
S'_w\x16I6S\xe3?'
p2992
tp2993
Rp2994
sg85
g86
sg87
g88
sbag4
(g5
g6
Ntp2995
Rp2996
(dp2997
g10
g11
(g15
S'\x00\x00\x00\x00\x00\x00\xf8\xff'
p2998
tp2999
Rp3000
sg27
g11
(g30
S'\x04\x00\x00\x00\x00\x00\x00\x00'
p3001
tp3002
Rp3003
sg25
g26
sg36
(dp3004
g27
g3003
sg148
g11
(g15
S'\xac\xb9j\xf8\x8c\xfaB@'
p3005
tp3006
Rp3007
sg38
g11
(g30
S'\x02\x00\x00\x00\x00\x00\x00\x00'
p3008
tp3009
Rp3010
sg152
g11
(g15
S'|t\xec\xdb\xf5s\x13@'
p3011
tp3012
Rp3013
ssg152
g3013
sg46
g11
(g12
(S'S6'
p3014
I0
I1
tp3015
Rp3016
(I3
S'|'
p3017
NNNI6
I1
I0
tp3018
bS'ISOMAP'
p3019
tp3020
Rp3021
sg55
F0.2
sg38
g3010
sg56
g11
(g12
(S'S3'
p3022
I0
I1
tp3023
Rp3024
(I3
S'|'
p3025
NNNI3
I1
I0
tp3026
bS'VGG'
p3027
tp3028
Rp3029
sg148
g3007
sg65
g11
(g15
S'\xb8)\x9d{\xa5\x9c\xef?'
p3030
tp3031
Rp3032
sg69
g11
(g12
(S'S3'
p3033
I0
I1
tp3034
Rp3035
(I3
S'|'
p3036
NNNI3
I1
I0
tp3037
bS'SVM'
p3038
tp3039
Rp3040
sg78
I3
sg79
g80
sg81
g11
(g15
S'n\x93Y\x01N\x89\xe0?'
p3041
tp3042
Rp3043
sg85
g86
sg87
g88
sbag4
(g5
g6
Ntp3044
Rp3045
(dp3046
g10
g11
(g15
S'\x00\x00\x00\x00\x00\x00\xf8\xff'
p3047
tp3048
Rp3049
sg21
g11
(g15
S'\x00\x00\x00\x00\x00@a@'
p3050
tp3051
Rp3052
sg98
g106
sg25
g26
sg36
(dp3053
g21
g3052
sg42
g11
(g15
S'\x87\x95\tYH\xd1\xe6?'
p3054
tp3055
Rp3056
sg98
g106
ssg46
g11
(g12
(S'S3'
p3057
I0
I1
tp3058
Rp3059
(I3
S'|'
p3060
NNNI3
I1
I0
tp3061
bS'PCA'
p3062
tp3063
Rp3064
sg55
F0.2
sg56
g11
(g12
(S'S9'
p3065
I0
I1
tp3066
Rp3067
(I3
S'|'
p3068
NNNI9
I1
I0
tp3069
bS'inception'
p3070
tp3071
Rp3072
sg65
g11
(g15
S'X]&\x8c\xc5\xbd\xf8?'
p3073
tp3074
Rp3075
sg69
g11
(g12
(S'S2'
p3076
I0
I1
tp3077
Rp3078
(I3
S'|'
p3079
NNNI2
I1
I0
tp3080
bS'RF'
p3081
tp3082
Rp3083
sg78
I3
sg42
g3056
sg79
g80
sg81
g11
(g15
S'\xc5#\x936v\x8a\xe0?'
p3084
tp3085
Rp3086
sg85
g86
sg87
g88
sbag4
(g5
g6
Ntp3087
Rp3088
(dp3089
g10
g11
(g15
S'\x00\x00\x00\x00\x00\x00\xf8\xff'
p3090
tp3091
Rp3092
sg21
g11
(g15
S'\x00\x00\x00\x00\x00\x00 @'
p3093
tp3094
Rp3095
sg98
g197
sg25
g26
sg36
(dp3096
g21
g3095
sg42
g11
(g15
S'\xd5\xce\x80\xfe\xa9\xfd\xd7?'
p3097
tp3098
Rp3099
sg98
g197
ssg46
g11
(g12
(S'S3'
p3100
I0
I1
tp3101
Rp3102
(I3
S'|'
p3103
NNNI3
I1
I0
tp3104
bS'PCA'
p3105
tp3106
Rp3107
sg55
F0.2
sg56
g11
(g12
(S'S9'
p3108
I0
I1
tp3109
Rp3110
(I3
S'|'
p3111
NNNI9
I1
I0
tp3112
bS'inception'
p3113
tp3114
Rp3115
sg65
g11
(g15
S'\xb8\xff\x95\xbc\xf1_\x11@'
p3116
tp3117
Rp3118
sg69
g11
(g12
(S'S2'
p3119
I0
I1
tp3120
Rp3121
(I3
S'|'
p3122
NNNI2
I1
I0
tp3123
bS'RF'
p3124
tp3125
Rp3126
sg78
I3
sg42
g3099
sg79
g80
sg81
g11
(g15
S'Cr\x01\xaf\xb7\xd1\xdf?'
p3127
tp3128
Rp3129
sg85
g86
sg87
g88
sbag4
(g5
g6
Ntp3130
Rp3131
(dp3132
g10
g11
(g15
S'\x00\x00\x00\x00\x00\x00\xf8\xff'
p3133
tp3134
Rp3135
sg21
g11
(g15
S'\x00\x00\x00\x00\x00@R@'
p3136
tp3137
Rp3138
sg98
g197
sg25
g26
sg36
(dp3139
g21
g3138
sg42
g11
(g15
S'V\x9c\xc4\xebp\xc8\xd8?'
p3140
tp3141
Rp3142
sg98
g197
ssg46
g11
(g12
(S'S3'
p3143
I0
I1
tp3144
Rp3145
(I3
S'|'
p3146
NNNI3
I1
I0
tp3147
bS'PCA'
p3148
tp3149
Rp3150
sg55
F0.2
sg56
g11
(g12
(S'S3'
p3151
I0
I1
tp3152
Rp3153
(I3
S'|'
p3154
NNNI3
I1
I0
tp3155
bS'VGG'
p3156
tp3157
Rp3158
sg65
g11
(g15
S'\x8d\x1d[%\xfa\x87\xe7?'
p3159
tp3160
Rp3161
sg69
g11
(g12
(S'S2'
p3162
I0
I1
tp3163
Rp3164
(I3
S'|'
p3165
NNNI2
I1
I0
tp3166
bS'RF'
p3167
tp3168
Rp3169
sg78
I3
sg42
g3142
sg79
g80
sg81
g11
(g15
S'c\xa7\xc8\x81\x02\xda\xe5?'
p3170
tp3171
Rp3172
sg85
g86
sg87
g88
sbag4
(g5
g6
Ntp3173
Rp3174
(dp3175
g10
g11
(g15
S'\x00\x00\x00\x00\x00\x00\xf8\xff'
p3176
tp3177
Rp3178
sg27
g11
(g30
S'\x07\x00\x00\x00\x00\x00\x00\x00'
p3179
tp3180
Rp3181
sg25
g26
sg36
(dp3182
g27
g3181
sg148
g11
(g15
S'Yg\xa7;\x8e\x08V@'
p3183
tp3184
Rp3185
sg38
g11
(g30
S'\x03\x00\x00\x00\x00\x00\x00\x00'
p3186
tp3187
Rp3188
sg152
g11
(g15
S'\xed\x8a\xcbF\xbd\xf6\x1d@'
p3189
tp3190
Rp3191
ssg152
g3191
sg46
g11
(g12
(S'S6'
p3192
I0
I1
tp3193
Rp3194
(I3
S'|'
p3195
NNNI6
I1
I0
tp3196
bS'ISOMAP'
p3197
tp3198
Rp3199
sg55
F0.2
sg38
g3188
sg56
g11
(g12
(S'S3'
p3200
I0
I1
tp3201
Rp3202
(I3
S'|'
p3203
NNNI3
I1
I0
tp3204
bS'VGG'
p3205
tp3206
Rp3207
sg148
g3185
sg65
g11
(g15
S'\x81Vrr7h\xf0?'
p3208
tp3209
Rp3210
sg69
g11
(g12
(S'S3'
p3211
I0
I1
tp3212
Rp3213
(I3
S'|'
p3214
NNNI3
I1
I0
tp3215
bS'SVM'
p3216
tp3217
Rp3218
sg78
I3
sg79
g80
sg81
g11
(g15
S'\x17Q\xa9\\!\x1a\xdf?'
p3219
tp3220
Rp3221
sg85
g86
sg87
g88
sbag4
(g5
g6
Ntp3222
Rp3223
(dp3224
g10
g11
(g15
S'\x00\x00\x00\x00\x00\x00\xf8\xff'
p3225
tp3226
Rp3227
sg27
g11
(g30
S'\x05\x00\x00\x00\x00\x00\x00\x00'
p3228
tp3229
Rp3230
sg25
g26
sg36
(dp3231
g27
g3230
sg148
g11
(g15
S'\xddu?FV;D@'
p3232
tp3233
Rp3234
sg38
g11
(g30
S'\x04\x00\x00\x00\x00\x00\x00\x00'
p3235
tp3236
Rp3237
sg152
g11
(g15
S'\xd1R@.\xd1t\x14@'
p3238
tp3239
Rp3240
ssg152
g3240
sg46
g11
(g12
(S'S6'
p3241
I0
I1
tp3242
Rp3243
(I3
S'|'
p3244
NNNI6
I1
I0
tp3245
bS'ISOMAP'
p3246
tp3247
Rp3248
sg55
F0.2
sg38
g3237
sg56
g11
(g12
(S'S9'
p3249
I0
I1
tp3250
Rp3251
(I3
S'|'
p3252
NNNI9
I1
I0
tp3253
bS'inception'
p3254
tp3255
Rp3256
sg148
g3234
sg65
g11
(g15
S'\x88b\x93\xf4\x8fr\xf0?'
p3257
tp3258
Rp3259
sg69
g11
(g12
(S'S3'
p3260
I0
I1
tp3261
Rp3262
(I3
S'|'
p3263
NNNI3
I1
I0
tp3264
bS'SVM'
p3265
tp3266
Rp3267
sg78
I3
sg79
g80
sg81
g11
(g15
S'\x8f\xe38\x8e\xe38\xde?'
p3268
tp3269
Rp3270
sg85
g86
sg87
g88
sbag4
(g5
g6
Ntp3271
Rp3272
(dp3273
g10
g11
(g15
S'\x00\x00\x00\x00\x00\x00\xf8\xff'
p3274
tp3275
Rp3276
sg21
g11
(g15
S'\x00\x00\x00\x00\x00@Z@'
p3277
tp3278
Rp3279
sg25
g26
sg27
g11
(g30
S'\x06\x00\x00\x00\x00\x00\x00\x00'
p3280
tp3281
Rp3282
sg36
(dp3283
g21
g3279
sg27
g3282
sg38
g11
(g30
S'\x02\x00\x00\x00\x00\x00\x00\x00'
p3284
tp3285
Rp3286
sg42
g11
(g15
S'\xbcsw\x1bQ"\xe6?'
p3287
tp3288
Rp3289
ssg46
g11
(g12
(S'S6'
p3290
I0
I1
tp3291
Rp3292
(I3
S'|'
p3293
NNNI6
I1
I0
tp3294
bS'ISOMAP'
p3295
tp3296
Rp3297
sg55
F0.2
sg38
g3286
sg56
g11
(g12
(S'S9'
p3298
I0
I1
tp3299
Rp3300
(I3
S'|'
p3301
NNNI9
I1
I0
tp3302
bS'inception'
p3303
tp3304
Rp3305
sg65
g11
(g15
S')\x8c{\xdc\x08@\x01@'
p3306
tp3307
Rp3308
sg69
g11
(g12
(S'S2'
p3309
I0
I1
tp3310
Rp3311
(I3
S'|'
p3312
NNNI2
I1
I0
tp3313
bS'RF'
p3314
tp3315
Rp3316
sg78
I3
sg42
g3289
sg79
g80
sg81
g11
(g15
S'=\x80\xf2\xf3\xa2Z\xe0?'
p3317
tp3318
Rp3319
sg85
g86
sg87
g88
sbag4
(g5
g6
Ntp3320
Rp3321
(dp3322
g10
g11
(g15
S'\x00\x00\x00\x00\x00\x00\xf8\xff'
p3323
tp3324
Rp3325
sg21
g11
(g15
S'\x00\x00\x00\x00\x00`m@'
p3326
tp3327
Rp3328
sg98
g197
sg25
g26
sg36
(dp3329
g21
g3328
sg42
g11
(g15
S'H\xca~\xdd\x99\xd4\xea?'
p3330
tp3331
Rp3332
sg98
g197
ssg46
g11
(g12
(S'S3'
p3333
I0
I1
tp3334
Rp3335
(I3
S'|'
p3336
NNNI3
I1
I0
tp3337
bS'PCA'
p3338
tp3339
Rp3340
sg55
F0.2
sg56
g11
(g12
(S'S9'
p3341
I0
I1
tp3342
Rp3343
(I3
S'|'
p3344
NNNI9
I1
I0
tp3345
bS'inception'
p3346
tp3347
Rp3348
sg65
g11
(g15
S')\xca\x15\xf4\xd5\x1d\xf6?'
p3349
tp3350
Rp3351
sg69
g11
(g12
(S'S2'
p3352
I0
I1
tp3353
Rp3354
(I3
S'|'
p3355
NNNI2
I1
I0
tp3356
bS'RF'
p3357
tp3358
Rp3359
sg78
I3
sg42
g3332
sg79
g80
sg81
g11
(g15
S'\xe8\xaeV\xa3\xde\xe5\xe0?'
p3360
tp3361
Rp3362
sg85
g86
sg87
g88
sbag4
(g5
g6
Ntp3363
Rp3364
(dp3365
g10
g11
(g15
S'\x00\x00\x00\x00\x00\x00\xf8\xff'
p3366
tp3367
Rp3368
sg27
g11
(g30
S'\x05\x00\x00\x00\x00\x00\x00\x00'
p3369
tp3370
Rp3371
sg25
g26
sg36
(dp3372
g27
g3371
sg148
g11
(g15
S'\xd1d\xacb\x9b\xa6R@'
p3373
tp3374
Rp3375
sg274
g11
(g30
S'\x03\x00\x00\x00\x00\x00\x00\x00'
p3376
tp3377
Rp3378
sg38
g11
(g30
S'\x02\x00\x00\x00\x00\x00\x00\x00'
p3379
tp3380
Rp3381
sg152
g11
(g15
S'S\x04\x1c\xdc;\xf7\x07@'
p3382
tp3383
Rp3384
ssg152
g3384
sg46
g11
(g12
(S'S6'
p3385
I0
I1
tp3386
Rp3387
(I3
S'|'
p3388
NNNI6
I1
I0
tp3389
bS'ISOMAP'
p3390
tp3391
Rp3392
sg55
F0.2
sg38
g3381
sg56
g11
(g12
(S'S8'
p3393
I0
I1
tp3394
Rp3395
(I3
S'|'
p3396
NNNI8
I1
I0
tp3397
bS'haralick'
p3398
tp3399
Rp3400
sg148
g3375
sg274
g3378
sg65
g11
(g15
S'\x14_u0\xda\xe8\xea?'
p3401
tp3402
Rp3403
sg69
g11
(g12
(S'S3'
p3404
I0
I1
tp3405
Rp3406
(I3
S'|'
p3407
NNNI3
I1
I0
tp3408
bS'SVM'
p3409
tp3410
Rp3411
sg78
I3
sg79
g80
sg81
g11
(g15
S'\xef\xc3\xf0!`\xc5\xe3?'
p3412
tp3413
Rp3414
sg85
g86
sg87
g88
sbag4
(g5
g6
Ntp3415
Rp3416
(dp3417
g10
g11
(g15
S'\x00\x00\x00\x00\x00\x00\xf8\xff'
p3418
tp3419
Rp3420
sg21
g11
(g15
S'\x00\x00\x00\x00\x00`i@'
p3421
tp3422
Rp3423
sg25
g26
sg27
g11
(g30
S'\x04\x00\x00\x00\x00\x00\x00\x00'
p3424
tp3425
Rp3426
sg36
(dp3427
g21
g3423
sg27
g3426
sg38
g11
(g30
S'\x04\x00\x00\x00\x00\x00\x00\x00'
p3428
tp3429
Rp3430
sg42
g11
(g15
S'\x96\x0c=\xf2\x8a\xb2\xe9?'
p3431
tp3432
Rp3433
ssg46
g11
(g12
(S'S6'
p3434
I0
I1
tp3435
Rp3436
(I3
S'|'
p3437
NNNI6
I1
I0
tp3438
bS'ISOMAP'
p3439
tp3440
Rp3441
sg55
F0.2
sg38
g3430
sg56
g11
(g12
(S'S9'
p3442
I0
I1
tp3443
Rp3444
(I3
S'|'
p3445
NNNI9
I1
I0
tp3446
bS'inception'
p3447
tp3448
Rp3449
sg65
g11
(g15
S'\x87\x93\xb0\xa7\x00\xf5\xff?'
p3450
tp3451
Rp3452
sg69
g11
(g12
(S'S2'
p3453
I0
I1
tp3454
Rp3455
(I3
S'|'
p3456
NNNI2
I1
I0
tp3457
bS'RF'
p3458
tp3459
Rp3460
sg78
I3
sg42
g3433
sg79
g80
sg81
g11
(g15
S'q\xbb\x980\xf8N\xdb?'
p3461
tp3462
Rp3463
sg85
g86
sg87
g88
sbag4
(g5
g6
Ntp3464
Rp3465
(dp3466
g10
g11
(g15
S'\x00\x00\x00\x00\x00\x00\xf8\xff'
p3467
tp3468
Rp3469
sg98
g106
sg25
g26
sg36
(dp3470
g98
g106
sg148
g11
(g15
S'\xde4\xc9N;\x18V@'
p3471
tp3472
Rp3473
sg152
g11
(g15
S'?\xa6c\x90A\xb7\xae?'
p3474
tp3475
Rp3476
ssg46
g11
(g12
(S'S3'
p3477
I0
I1
tp3478
Rp3479
(I3
S'|'
p3480
NNNI3
I1
I0
tp3481
bS'PCA'
p3482
tp3483
Rp3484
sg55
F0.2
sg152
g3476
sg56
g11
(g12
(S'S9'
p3485
I0
I1
tp3486
Rp3487
(I3
S'|'
p3488
NNNI9
I1
I0
tp3489
bS'inception'
p3490
tp3491
Rp3492
sg148
g3473
sg65
g11
(g15
S'\x85\xb2\xad6}N\xf0?'
p3493
tp3494
Rp3495
sg69
g11
(g12
(S'S3'
p3496
I0
I1
tp3497
Rp3498
(I3
S'|'
p3499
NNNI3
I1
I0
tp3500
bS'SVM'
p3501
tp3502
Rp3503
sg78
I3
sg79
g80
sg81
g11
(g15
S'\xa8\xd8g\x15\x1e8\xde?'
p3504
tp3505
Rp3506
sg85
g86
sg87
g88
sbag187
ag4
(g5
g6
Ntp3507
Rp3508
(dp3509
g10
g11
(g15
S'\x00\x00\x00\x00\x00\x00\xf8\xff'
p3510
tp3511
Rp3512
sg21
g11
(g15
S'\x00\x00\x00\x00\x00@R@'
p3513
tp3514
Rp3515
sg25
g26
sg27
g11
(g30
S'\x03\x00\x00\x00\x00\x00\x00\x00'
p3516
tp3517
Rp3518
sg36
(dp3519
g21
g3515
sg27
g3518
sg38
g11
(g30
S'\x04\x00\x00\x00\x00\x00\x00\x00'
p3520
tp3521
Rp3522
sg42
g11
(g15
S'\xa7\xbe\xb5\x12\x82\xa2\xe1?'
p3523
tp3524
Rp3525
ssg46
g11
(g12
(S'S6'
p3526
I0
I1
tp3527
Rp3528
(I3
S'|'
p3529
NNNI6
I1
I0
tp3530
bS'ISOMAP'
p3531
tp3532
Rp3533
sg55
F0.2
sg38
g3522
sg56
g11
(g12
(S'S9'
p3534
I0
I1
tp3535
Rp3536
(I3
S'|'
p3537
NNNI9
I1
I0
tp3538
bS'inception'
p3539
tp3540
Rp3541
sg65
g11
(g15
S'g1+\x8e\xbf\xde\x05@'
p3542
tp3543
Rp3544
sg69
g11
(g12
(S'S2'
p3545
I0
I1
tp3546
Rp3547
(I3
S'|'
p3548
NNNI2
I1
I0
tp3549
bS'RF'
p3550
tp3551
Rp3552
sg78
I3
sg42
g3525
sg79
g80
sg81
g11
(g15
S'+\xfe\xcc\x8e)O\xdd?'
p3553
tp3554
Rp3555
sg85
g86
sg87
g88
sbag4
(g5
g6
Ntp3556
Rp3557
(dp3558
g10
g11
(g15
S'\x00\x00\x00\x00\x00\x00\xf8\xff'
p3559
tp3560
Rp3561
sg98
g197
sg25
g26
sg36
(dp3562
g98
g197
sg148
g11
(g15
S'\xe1\x99y\x94\xc2!;@'
p3563
tp3564
Rp3565
sg152
g11
(g15
S'\xba\xff\xf5\xfeVv\x10@'
p3566
tp3567
Rp3568
ssg46
g11
(g12
(S'S3'
p3569
I0
I1
tp3570
Rp3571
(I3
S'|'
p3572
NNNI3
I1
I0
tp3573
bS'PCA'
p3574
tp3575
Rp3576
sg55
F0.2
sg152
g3568
sg56
g11
(g12
(S'S3'
p3577
I0
I1
tp3578
Rp3579
(I3
S'|'
p3580
NNNI3
I1
I0
tp3581
bS'VGG'
p3582
tp3583
Rp3584
sg148
g3565
sg65
g11
(g15
S'\xabA\x8d\xcfhj\xf0?'
p3585
tp3586
Rp3587
sg69
g11
(g12
(S'S3'
p3588
I0
I1
tp3589
Rp3590
(I3
S'|'
p3591
NNNI3
I1
I0
tp3592
bS'SVM'
p3593
tp3594
Rp3595
sg78
I3
sg79
g80
sg81
g11
(g15
S'(?/\xaa\xc5\xc2\xdc?'
p3596
tp3597
Rp3598
sg85
g86
sg87
g88
sbag4
(g5
g6
Ntp3599
Rp3600
(dp3601
g10
g11
(g15
S'\x00\x00\x00\x00\x00\x00\xf8\xff'
p3602
tp3603
Rp3604
sg98
g106
sg25
g26
sg36
(dp3605
g98
g106
sg148
g11
(g15
S'6\x1e\xf6\x0e9\xe4E@'
p3606
tp3607
Rp3608
sg274
g11
(g30
S'\x02\x00\x00\x00\x00\x00\x00\x00'
p3609
tp3610
Rp3611
sg152
g11
(g15
S'\xe7\xb3\xb4R\xeb\xd8\x03@'
p3612
tp3613
Rp3614
ssg46
g11
(g12
(S'S3'
p3615
I0
I1
tp3616
Rp3617
(I3
S'|'
p3618
NNNI3
I1
I0
tp3619
bS'PCA'
p3620
tp3621
Rp3622
sg55
F0.2
sg152
g3614
sg56
g11
(g12
(S'S8'
p3623
I0
I1
tp3624
Rp3625
(I3
S'|'
p3626
NNNI8
I1
I0
tp3627
bS'haralick'
p3628
tp3629
Rp3630
sg148
g3608
sg274
g3611
sg65
g11
(g15
S'y\xe5Y\xc6\xa3\xf8\xea?'
p3631
tp3632
Rp3633
sg69
g11
(g12
(S'S3'
p3634
I0
I1
tp3635
Rp3636
(I3
S'|'
p3637
NNNI3
I1
I0
tp3638
bS'SVM'
p3639
tp3640
Rp3641
sg78
I3
sg79
g80
sg81
g11
(g15
S'\xbf\xb0\x89\x14\xb5\x96\xe3?'
p3642
tp3643
Rp3644
sg85
g86
sg87
g88
sbag4
(g5
g6
Ntp3645
Rp3646
(dp3647
g10
g11
(g15
S'\x00\x00\x00\x00\x00\x00\xf8\xff'
p3648
tp3649
Rp3650
sg98
g197
sg25
g26
sg36
(dp3651
g98
g197
sg148
g11
(g15
S'a\x80`\xf2(K6@'
p3652
tp3653
Rp3654
sg274
g11
(g30
S'\x03\x00\x00\x00\x00\x00\x00\x00'
p3655
tp3656
Rp3657
sg152
g11
(g15
S'y\x16\xf1\x88\xe5?\n@'
p3658
tp3659
Rp3660
ssg46
g11
(g12
(S'S3'
p3661
I0
I1
tp3662
Rp3663
(I3
S'|'
p3664
NNNI3
I1
I0
tp3665
bS'PCA'
p3666
tp3667
Rp3668
sg55
F0.2
sg152
g3660
sg56
g11
(g12
(S'S8'
p3669
I0
I1
tp3670
Rp3671
(I3
S'|'
p3672
NNNI8
I1
I0
tp3673
bS'haralick'
p3674
tp3675
Rp3676
sg148
g3654
sg274
g3657
sg65
g11
(g15
S'\x00\r\x0f\x95\x86\xcc\xea?'
p3677
tp3678
Rp3679
sg69
g11
(g12
(S'S3'
p3680
I0
I1
tp3681
Rp3682
(I3
S'|'
p3683
NNNI3
I1
I0
tp3684
bS'SVM'
p3685
tp3686
Rp3687
sg78
I3
sg79
g80
sg81
g11
(g15
S'S\xc1\xb5=\x80\xf2\xe3?'
p3688
tp3689
Rp3690
sg85
g86
sg87
g88
sbag4
(g5
g6
Ntp3691
Rp3692
(dp3693
g10
g11
(g15
S'\x00\x00\x00\x00\x00\x00\xf8\xff'
p3694
tp3695
Rp3696
sg98
g197
sg25
g26
sg36
(dp3697
g98
g197
sg148
g11
(g15
S'\xd8\xde\x089\xe1\xee8@'
p3698
tp3699
Rp3700
sg274
g11
(g30
S'\x03\x00\x00\x00\x00\x00\x00\x00'
p3701
tp3702
Rp3703
sg152
g11
(g15
S'\x04\xacR\x14\x07\xab\xfc?'
p3704
tp3705
Rp3706
ssg46
g11
(g12
(S'S3'
p3707
I0
I1
tp3708
Rp3709
(I3
S'|'
p3710
NNNI3
I1
I0
tp3711
bS'PCA'
p3712
tp3713
Rp3714
sg55
F0.2
sg152
g3706
sg56
g11
(g12
(S'S8'
p3715
I0
I1
tp3716
Rp3717
(I3
S'|'
p3718
NNNI8
I1
I0
tp3719
bS'haralick'
p3720
tp3721
Rp3722
sg148
g3700
sg274
g3703
sg65
g11
(g15
S'|*\x9c\xb9\x9b\x0e\xea?'
p3723
tp3724
Rp3725
sg69
g11
(g12
(S'S3'
p3726
I0
I1
tp3727
Rp3728
(I3
S'|'
p3729
NNNI3
I1
I0
tp3730
bS'SVM'
p3731
tp3732
Rp3733
sg78
I3
sg79
g80
sg81
g11
(g15
S'/\x03\x81\xfaf\xac\xe4?'
p3734
tp3735
Rp3736
sg85
g86
sg87
g88
sbag4
(g5
g6
Ntp3737
Rp3738
(dp3739
g10
g11
(g15
S'\x00\x00\x00\x00\x00\x00\xf8\xff'
p3740
tp3741
Rp3742
sg98
g106
sg25
g26
sg36
(dp3743
g98
g106
sg148
g11
(g15
S'\xfc\x8a\xb1\xb9\xc1OR@'
p3744
tp3745
Rp3746
sg152
g11
(g15
S'\xa90J\xba\x8e\xe5\x01@'
p3747
tp3748
Rp3749
ssg46
g11
(g12
(S'S3'
p3750
I0
I1
tp3751
Rp3752
(I3
S'|'
p3753
NNNI3
I1
I0
tp3754
bS'PCA'
p3755
tp3756
Rp3757
sg55
F0.2
sg152
g3749
sg56
g11
(g12
(S'S9'
p3758
I0
I1
tp3759
Rp3760
(I3
S'|'
p3761
NNNI9
I1
I0
tp3762
bS'inception'
p3763
tp3764
Rp3765
sg148
g3746
sg65
g11
(g15
S'yH\x1f\xfe\x8cE\xf0?'
p3766
tp3767
Rp3768
sg69
g11
(g12
(S'S3'
p3769
I0
I1
tp3770
Rp3771
(I3
S'|'
p3772
NNNI3
I1
I0
tp3773
bS'SVM'
p3774
tp3775
Rp3776
sg78
I3
sg79
g80
sg81
g11
(g15
S'\xf9\xb7\xf4\xaa\xcd5\xde?'
p3777
tp3778
Rp3779
sg85
g86
sg87
g88
sbag4
(g5
g6
Ntp3780
Rp3781
(dp3782
g10
g11
(g15
S'\x00\x00\x00\x00\x00\x00\xf8\xff'
p3783
tp3784
Rp3785
sg98
g197
sg25
g26
sg36
(dp3786
g98
g197
sg148
g11
(g15
S'$\x07\xc3\x17R\x16:@'
p3787
tp3788
Rp3789
sg274
g11
(g30
S'\x01\x00\x00\x00\x00\x00\x00\x00'
p3790
tp3791
Rp3792
sg152
g11
(g15
S's\x14d\xe9`]\x11@'
p3793
tp3794
Rp3795
ssg46
g11
(g12
(S'S3'
p3796
I0
I1
tp3797
Rp3798
(I3
S'|'
p3799
NNNI3
I1
I0
tp3800
bS'PCA'
p3801
tp3802
Rp3803
sg55
F0.2
sg152
g3795
sg56
g11
(g12
(S'S8'
p3804
I0
I1
tp3805
Rp3806
(I3
S'|'
p3807
NNNI8
I1
I0
tp3808
bS'haralick'
p3809
tp3810
Rp3811
sg148
g3789
sg274
g3792
sg65
g11
(g15
S'%\xdd\x86\r\x0cG\xee?'
p3812
tp3813
Rp3814
sg69
g11
(g12
(S'S3'
p3815
I0
I1
tp3816
Rp3817
(I3
S'|'
p3818
NNNI3
I1
I0
tp3819
bS'SVM'
p3820
tp3821
Rp3822
sg78
I3
sg79
g80
sg81
g11
(g15
S'\xed\xa0e^\xf3\\\xe0?'
p3823
tp3824
Rp3825
sg85
g86
sg87
g88
sbag4
(g5
g6
Ntp3826
Rp3827
(dp3828
g10
g11
(g15
S'\x00\x00\x00\x00\x00\x00\xf8\xff'
p3829
tp3830
Rp3831
sg27
g11
(g30
S'\x06\x00\x00\x00\x00\x00\x00\x00'
p3832
tp3833
Rp3834
sg25
g26
sg36
(dp3835
g27
g3834
sg148
g11
(g15
S'~\xbc|6\xcd\xe3C@'
p3836
tp3837
Rp3838
sg38
g11
(g30
S'\x04\x00\x00\x00\x00\x00\x00\x00'
p3839
tp3840
Rp3841
sg152
g11
(g15
S'\xbe?^\xd7u\x1b\x19@'
p3842
tp3843
Rp3844
ssg152
g3844
sg46
g11
(g12
(S'S6'
p3845
I0
I1
tp3846
Rp3847
(I3
S'|'
p3848
NNNI6
I1
I0
tp3849
bS'ISOMAP'
p3850
tp3851
Rp3852
sg55
F0.2
sg38
g3841
sg56
g11
(g12
(S'S9'
p3853
I0
I1
tp3854
Rp3855
(I3
S'|'
p3856
NNNI9
I1
I0
tp3857
bS'inception'
p3858
tp3859
Rp3860
sg148
g3838
sg65
g11
(g15
S"'`?\xc6ld\xf0?"
p3861
tp3862
Rp3863
sg69
g11
(g12
(S'S3'
p3864
I0
I1
tp3865
Rp3866
(I3
S'|'
p3867
NNNI3
I1
I0
tp3868
bS'SVM'
p3869
tp3870
Rp3871
sg78
I3
sg79
g80
sg81
g11
(g15
S']\x82H\xf0<x\xdf?'
p3872
tp3873
Rp3874
sg85
g86
sg87
g88
sbag4
(g5
g6
Ntp3875
Rp3876
(dp3877
g10
g11
(g15
S'\x00\x00\x00\x00\x00\x00\xf8\xff'
p3878
tp3879
Rp3880
sg27
g11
(g30
S'\x04\x00\x00\x00\x00\x00\x00\x00'
p3881
tp3882
Rp3883
sg25
g26
sg36
(dp3884
g27
g3883
sg148
g11
(g15
S'\xb2\x93\xffjS\xdc6@'
p3885
tp3886
Rp3887
sg38
g11
(g30
S'\x02\x00\x00\x00\x00\x00\x00\x00'
p3888
tp3889
Rp3890
sg152
g11
(g15
S'\xc8\x87\x92\x84\xf8i\x16@'
p3891
tp3892
Rp3893
ssg152
g3893
sg46
g11
(g12
(S'S6'
p3894
I0
I1
tp3895
Rp3896
(I3
S'|'
p3897
NNNI6
I1
I0
tp3898
bS'ISOMAP'
p3899
tp3900
Rp3901
sg55
F0.2
sg38
g3890
sg56
g11
(g12
(S'S3'
p3902
I0
I1
tp3903
Rp3904
(I3
S'|'
p3905
NNNI3
I1
I0
tp3906
bS'VGG'
p3907
tp3908
Rp3909
sg148
g3887
sg65
g11
(g15
S'\xed\x85\x88\xd78M\xef?'
p3910
tp3911
Rp3912
sg69
g11
(g12
(S'S3'
p3913
I0
I1
tp3914
Rp3915
(I3
S'|'
p3916
NNNI3
I1
I0
tp3917
bS'SVM'
p3918
tp3919
Rp3920
sg78
I3
sg79
g80
sg81
g11
(g15
S'\x87\xb6E\xf3\xfb\x15\xe0?'
p3921
tp3922
Rp3923
sg85
g86
sg87
g88
sbag4
(g5
g6
Ntp3924
Rp3925
(dp3926
g10
g11
(g15
S'\x00\x00\x00\x00\x00\x00\xf8\xff'
p3927
tp3928
Rp3929
sg21
g11
(g15
S'\x00\x00\x00\x00\x00\x00D@'
p3930
tp3931
Rp3932
sg25
g26
sg27
g11
(g30
S'\x07\x00\x00\x00\x00\x00\x00\x00'
p3933
tp3934
Rp3935
sg36
(dp3936
g21
g3932
sg27
g3935
sg274
g11
(g30
S'\x03\x00\x00\x00\x00\x00\x00\x00'
p3937
tp3938
Rp3939
sg38
g11
(g30
S'\x04\x00\x00\x00\x00\x00\x00\x00'
p3940
tp3941
Rp3942
sg42
g11
(g15
S'f\x97\xe0\x82 \xd0\xe5?'
p3943
tp3944
Rp3945
ssg46
g11
(g12
(S'S6'
p3946
I0
I1
tp3947
Rp3948
(I3
S'|'
p3949
NNNI6
I1
I0
tp3950
bS'ISOMAP'
p3951
tp3952
Rp3953
sg55
F0.2
sg38
g3942
sg56
g11
(g12
(S'S8'
p3954
I0
I1
tp3955
Rp3956
(I3
S'|'
p3957
NNNI8
I1
I0
tp3958
bS'haralick'
p3959
tp3960
Rp3961
sg274
g3939
sg65
g11
(g15
S'\xcc$rh\xe2\x91\x01@'
p3962
tp3963
Rp3964
sg69
g11
(g12
(S'S2'
p3965
I0
I1
tp3966
Rp3967
(I3
S'|'
p3968
NNNI2
I1
I0
tp3969
bS'RF'
p3970
tp3971
Rp3972
sg78
I3
sg42
g3945
sg79
g80
sg81
g11
(g15
S'\xc8\x18a\x8foe\xe4?'
p3973
tp3974
Rp3975
sg85
g86
sg87
g88
sbag4
(g5
g6
Ntp3976
Rp3977
(dp3978
g10
g11
(g15
S'\x00\x00\x00\x00\x00\x00\xf8\xff'
p3979
tp3980
Rp3981
sg21
g11
(g15
S'\x00\x00\x00\x00\x00@a@'
p3982
tp3983
Rp3984
sg25
g26
sg27
g11
(g30
S'\x04\x00\x00\x00\x00\x00\x00\x00'
p3985
tp3986
Rp3987
sg36
(dp3988
g21
g3984
sg27
g3987
sg38
g11
(g30
S'\x04\x00\x00\x00\x00\x00\x00\x00'
p3989
tp3990
Rp3991
sg42
g11
(g15
S'\xa8a\x90\xa0\x12\xb0\xe8?'
p3992
tp3993
Rp3994
ssg46
g11
(g12
(S'S6'
p3995
I0
I1
tp3996
Rp3997
(I3
S'|'
p3998
NNNI6
I1
I0
tp3999
bS'ISOMAP'
p4000
tp4001
Rp4002
sg55
F0.2
sg38
g3991
sg56
g11
(g12
(S'S9'
p4003
I0
I1
tp4004
Rp4005
(I3
S'|'
p4006
NNNI9
I1
I0
tp4007
bS'inception'
p4008
tp4009
Rp4010
sg65
g11
(g15
S'hdq(\x0b/\x03@'
p4011
tp4012
Rp4013
sg69
g11
(g12
(S'S2'
p4014
I0
I1
tp4015
Rp4016
(I3
S'|'
p4017
NNNI2
I1
I0
tp4018
bS'RF'
p4019
tp4020
Rp4021
sg78
I3
sg42
g3994
sg79
g80
sg81
g11
(g15
S'\xe3\r\x90\x16\xaad\xdc?'
p4022
tp4023
Rp4024
sg85
g86
sg87
g88
sbag4
(g5
g6
Ntp4025
Rp4026
(dp4027
g10
g11
(g15
S'\x00\x00\x00\x00\x00\x00\xf8\xff'
p4028
tp4029
Rp4030
sg98
g106
sg25
g26
sg36
(dp4031
g98
g106
sg148
g11
(g15
S'J\xba\xd2\xc9(\xa2C@'
p4032
tp4033
Rp4034
sg274
g11
(g30
S'\x01\x00\x00\x00\x00\x00\x00\x00'
p4035
tp4036
Rp4037
sg152
g11
(g15
S'\x08\xdf,\x1b\x0bP\x11@'
p4038
tp4039
Rp4040
ssg46
g11
(g12
(S'S3'
p4041
I0
I1
tp4042
Rp4043
(I3
S'|'
p4044
NNNI3
I1
I0
tp4045
bS'PCA'
p4046
tp4047
Rp4048
sg55
F0.2
sg152
g4040
sg56
g11
(g12
(S'S8'
p4049
I0
I1
tp4050
Rp4051
(I3
S'|'
p4052
NNNI8
I1
I0
tp4053
bS'haralick'
p4054
tp4055
Rp4056
sg148
g4034
sg274
g4037
sg65
g11
(g15
S'\x83\x11\xb5\xf6\x82j\xee?'
p4057
tp4058
Rp4059
sg69
g11
(g12
(S'S3'
p4060
I0
I1
tp4061
Rp4062
(I3
S'|'
p4063
NNNI3
I1
I0
tp4064
bS'SVM'
p4065
tp4066
Rp4067
sg78
I3
sg79
g80
sg81
g11
(g15
S'\xf4d\xb7\xae\x94F\xe0?'
p4068
tp4069
Rp4070
sg85
g86
sg87
g88
sbag4
(g5
g6
Ntp4071
Rp4072
(dp4073
g10
g11
(g15
S'\x00\x00\x00\x00\x00\x00\xf8\xff'
p4074
tp4075
Rp4076
sg21
g11
(g15
S'\x00\x00\x00\x00\x00@Z@'
p4077
tp4078
Rp4079
sg98
g106
sg25
g26
sg36
(dp4080
g21
g4079
sg42
g11
(g15
S'\xf4i\xe3\xe7\x9a\x86\xef?'
p4081
tp4082
Rp4083
sg98
g106
ssg46
g11
(g12
(S'S3'
p4084
I0
I1
tp4085
Rp4086
(I3
S'|'
p4087
NNNI3
I1
I0
tp4088
bS'PCA'
p4089
tp4090
Rp4091
sg55
F0.2
sg56
g11
(g12
(S'S9'
p4092
I0
I1
tp4093
Rp4094
(I3
S'|'
p4095
NNNI9
I1
I0
tp4096
bS'inception'
p4097
tp4098
Rp4099
sg65
g11
(g15
S'$\xca\x87\xed7\x14\xf9?'
p4100
tp4101
Rp4102
sg69
g11
(g12
(S'S2'
p4103
I0
I1
tp4104
Rp4105
(I3
S'|'
p4106
NNNI2
I1
I0
tp4107
bS'RF'
p4108
tp4109
Rp4110
sg78
I3
sg42
g4083
sg79
g80
sg81
g11
(g15
S'\xa4j\x12_\x9a\xa1\xe0?'
p4111
tp4112
Rp4113
sg85
g86
sg87
g88
sbag4
(g5
g6
Ntp4114
Rp4115
(dp4116
g10
g11
(g15
S'\x00\x00\x00\x00\x00\x00\xf8\xff'
p4117
tp4118
Rp4119
sg27
g11
(g30
S'\x07\x00\x00\x00\x00\x00\x00\x00'
p4120
tp4121
Rp4122
sg25
g26
sg36
(dp4123
g27
g4122
sg148
g11
(g15
S'\xa8Ny\xe6zBS@'
p4124
tp4125
Rp4126
sg38
g11
(g30
S'\x02\x00\x00\x00\x00\x00\x00\x00'
p4127
tp4128
Rp4129
sg152
g11
(g15
S'l\x9eIs\xb0V\xc4?'
p4130
tp4131
Rp4132
ssg152
g4132
sg46
g11
(g12
(S'S6'
p4133
I0
I1
tp4134
Rp4135
(I3
S'|'
p4136
NNNI6
I1
I0
tp4137
bS'ISOMAP'
p4138
tp4139
Rp4140
sg55
F0.2
sg38
g4129
sg56
g11
(g12
(S'S3'
p4141
I0
I1
tp4142
Rp4143
(I3
S'|'
p4144
NNNI3
I1
I0
tp4145
bS'VGG'
p4146
tp4147
Rp4148
sg148
g4126
sg65
g11
(g15
S'\xa30\xca\x061p\xef?'
p4149
tp4150
Rp4151
sg69
g11
(g12
(S'S3'
p4152
I0
I1
tp4153
Rp4154
(I3
S'|'
p4155
NNNI3
I1
I0
tp4156
bS'SVM'
p4157
tp4158
Rp4159
sg78
I3
sg79
g80
sg81
g11
(g15
S'9\xa9\xfb\xf2\xd8\x8a\xe0?'
p4160
tp4161
Rp4162
sg85
g86
sg87
g88
sbag4
(g5
g6
Ntp4163
Rp4164
(dp4165
g10
g11
(g15
S'\x00\x00\x00\x00\x00\x00\xf8\xff'
p4166
tp4167
Rp4168
sg21
g11
(g15
S'\x00\x00\x00\x00\x00`i@'
p4169
tp4170
Rp4171
sg98
g106
sg25
g26
sg36
(dp4172
g21
g4171
sg42
g11
(g15
S',\x97k\x9di\xa3\xeb?'
p4173
tp4174
Rp4175
sg98
g106
ssg46
g11
(g12
(S'S3'
p4176
I0
I1
tp4177
Rp4178
(I3
S'|'
p4179
NNNI3
I1
I0
tp4180
bS'PCA'
p4181
tp4182
Rp4183
sg55
F0.2
sg56
g11
(g12
(S'S3'
p4184
I0
I1
tp4185
Rp4186
(I3
S'|'
p4187
NNNI3
I1
I0
tp4188
bS'VGG'
p4189
tp4190
Rp4191
sg65
g11
(g15
S'S\xe7UM )\xe7?'
p4192
tp4193
Rp4194
sg69
g11
(g12
(S'S2'
p4195
I0
I1
tp4196
Rp4197
(I3
S'|'
p4198
NNNI2
I1
I0
tp4199
bS'RF'
p4200
tp4201
Rp4202
sg78
I3
sg42
g4175
sg79
g80
sg81
g11
(g15
S'@\xce{\x84\x9e\xec\xe6?'
p4203
tp4204
Rp4205
sg85
g86
sg87
g88
sbag4
(g5
g6
Ntp4206
Rp4207
(dp4208
g10
g11
(g15
S'\x00\x00\x00\x00\x00\x00\xf8\xff'
p4209
tp4210
Rp4211
sg98
g197
sg25
g26
sg36
(dp4212
g98
g197
sg148
g11
(g15
S'\xff\xd0*\xcc\xa8EP@'
p4213
tp4214
Rp4215
sg152
g11
(g15
S'9\xf0d\xf2\xbd\x0b\x19@'
p4216
tp4217
Rp4218
ssg46
g11
(g12
(S'S3'
p4219
I0
I1
tp4220
Rp4221
(I3
S'|'
p4222
NNNI3
I1
I0
tp4223
bS'PCA'
p4224
tp4225
Rp4226
sg55
F0.2
sg152
g4218
sg56
g11
(g12
(S'S3'
p4227
I0
I1
tp4228
Rp4229
(I3
S'|'
p4230
NNNI3
I1
I0
tp4231
bS'VGG'
p4232
tp4233
Rp4234
sg148
g4215
sg65
g11
(g15
S'\x86)\xa1\xfe\xe7\x8a\xf0?'
p4235
tp4236
Rp4237
sg69
g11
(g12
(S'S3'
p4238
I0
I1
tp4239
Rp4240
(I3
S'|'
p4241
NNNI3
I1
I0
tp4242
bS'SVM'
p4243
tp4244
Rp4245
sg78
I3
sg79
g80
sg81
g11
(g15
S'\rJ\x00#\x8b\xc3\xdc?'
p4246
tp4247
Rp4248
sg85
g86
sg87
g88
sbag4
(g5
g6
Ntp4249
Rp4250
(dp4251
g10
g11
(g15
S'\x00\x00\x00\x00\x00\x00\xf8\xff'
p4252
tp4253
Rp4254
sg21
g11
(g15
S'\x00\x00\x00\x00\x00`i@'
p4255
tp4256
Rp4257
sg25
g26
sg27
g11
(g30
S'\x05\x00\x00\x00\x00\x00\x00\x00'
p4258
tp4259
Rp4260
sg36
(dp4261
g21
g4257
sg27
g4260
sg38
g11
(g30
S'\x03\x00\x00\x00\x00\x00\x00\x00'
p4262
tp4263
Rp4264
sg42
g11
(g15
S'r\xa8\x887\xbf\x07\xec?'
p4265
tp4266
Rp4267
ssg46
g11
(g12
(S'S6'
p4268
I0
I1
tp4269
Rp4270
(I3
S'|'
p4271
NNNI6
I1
I0
tp4272
bS'ISOMAP'
p4273
tp4274
Rp4275
sg55
F0.2
sg38
g4264
sg56
g11
(g12
(S'S9'
p4276
I0
I1
tp4277
Rp4278
(I3
S'|'
p4279
NNNI9
I1
I0
tp4280
bS'inception'
p4281
tp4282
Rp4283
sg65
g11
(g15
S'\x17\xfc.\x84\xe2\xc0\x02@'
p4284
tp4285
Rp4286
sg69
g11
(g12
(S'S2'
p4287
I0
I1
tp4288
Rp4289
(I3
S'|'
p4290
NNNI2
I1
I0
tp4291
bS'RF'
p4292
tp4293
Rp4294
sg78
I3
sg42
g4267
sg79
g80
sg81
g11
(g15
S'U\x1f%\xe1\xbf\x06\xde?'
p4295
tp4296
Rp4297
sg85
g86
sg87
g88
sbag4
(g5
g6
Ntp4298
Rp4299
(dp4300
g10
g11
(g15
S'\x00\x00\x00\x00\x00\x00\xf8\xff'
p4301
tp4302
Rp4303
sg21
g11
(g15
S'\x00\x00\x00\x00\x00@Z@'
p4304
tp4305
Rp4306
sg98
g106
sg25
g26
sg36
(dp4307
g21
g4306
sg42
g11
(g15
S'\xc6 \xe5\x94Z\xd7\xee?'
p4308
tp4309
Rp4310
sg98
g106
sg274
g11
(g30
S'\x02\x00\x00\x00\x00\x00\x00\x00'
p4311
tp4312
Rp4313
ssg46
g11
(g12
(S'S3'
p4314
I0
I1
tp4315
Rp4316
(I3
S'|'
p4317
NNNI3
I1
I0
tp4318
bS'PCA'
p4319
tp4320
Rp4321
sg55
F0.2
sg56
g11
(g12
(S'S8'
p4322
I0
I1
tp4323
Rp4324
(I3
S'|'
p4325
NNNI8
I1
I0
tp4326
bS'haralick'
p4327
tp4328
Rp4329
sg274
g4313
sg65
g11
(g15
S'u\xc3S\t\xf0\xc2\xf6?'
p4330
tp4331
Rp4332
sg69
g11
(g12
(S'S2'
p4333
I0
I1
tp4334
Rp4335
(I3
S'|'
p4336
NNNI2
I1
I0
tp4337
bS'RF'
p4338
tp4339
Rp4340
sg78
I3
sg42
g4310
sg79
g80
sg81
g11
(g15
S'k\xb10Y}\x94\xe4?'
p4341
tp4342
Rp4343
sg85
g86
sg87
g88
sbag4
(g5
g6
Ntp4344
Rp4345
(dp4346
g10
g11
(g15
S'\x00\x00\x00\x00\x00\x00\xf8\xff'
p4347
tp4348
Rp4349
sg27
g11
(g30
S'\x07\x00\x00\x00\x00\x00\x00\x00'
p4350
tp4351
Rp4352
sg25
g26
sg36
(dp4353
g27
g4352
sg148
g11
(g15
S'\x9a\x90\xf5\xf2.\x0cM@'
p4354
tp4355
Rp4356
sg38
g11
(g30
S'\x02\x00\x00\x00\x00\x00\x00\x00'
p4357
tp4358
Rp4359
sg152
g11
(g15
S'8\xa6\x98\x9d\xa4\x05\x03@'
p4360
tp4361
Rp4362
ssg152
g4362
sg46
g11
(g12
(S'S6'
p4363
I0
I1
tp4364
Rp4365
(I3
S'|'
p4366
NNNI6
I1
I0
tp4367
bS'ISOMAP'
p4368
tp4369
Rp4370
sg55
F0.2
sg38
g4359
sg56
g11
(g12
(S'S9'
p4371
I0
I1
tp4372
Rp4373
(I3
S'|'
p4374
NNNI9
I1
I0
tp4375
bS'inception'
p4376
tp4377
Rp4378
sg148
g4356
sg65
g11
(g15
S'\xb6\xe8\x0c\xcc\xb9M\xf0?'
p4379
tp4380
Rp4381
sg69
g11
(g12
(S'S3'
p4382
I0
I1
tp4383
Rp4384
(I3
S'|'
p4385
NNNI3
I1
I0
tp4386
bS'SVM'
p4387
tp4388
Rp4389
sg78
I3
sg79
g80
sg81
g11
(g15
S'\xef\t\x07\xa99\x96\xde?'
p4390
tp4391
Rp4392
sg85
g86
sg87
g88
sbag4
(g5
g6
Ntp4393
Rp4394
(dp4395
g10
g11
(g15
S'\x00\x00\x00\x00\x00\x00\xf8\xff'
p4396
tp4397
Rp4398
sg27
g11
(g30
S'\x06\x00\x00\x00\x00\x00\x00\x00'
p4399
tp4400
Rp4401
sg25
g26
sg36
(dp4402
g27
g4401
sg148
g11
(g15
S'LwP\xe8 \xdeA@'
p4403
tp4404
Rp4405
sg38
g11
(g30
S'\x02\x00\x00\x00\x00\x00\x00\x00'
p4406
tp4407
Rp4408
sg152
g11
(g15
S'\xb1\xeb\xc3\xa07G\x1d@'
p4409
tp4410
Rp4411
ssg152
g4411
sg46
g11
(g12
(S'S6'
p4412
I0
I1
tp4413
Rp4414
(I3
S'|'
p4415
NNNI6
I1
I0
tp4416
bS'ISOMAP'
p4417
tp4418
Rp4419
sg55
F0.2
sg38
g4408
sg56
g11
(g12
(S'S3'
p4420
I0
I1
tp4421
Rp4422
(I3
S'|'
p4423
NNNI3
I1
I0
tp4424
bS'VGG'
p4425
tp4426
Rp4427
sg148
g4405
sg65
g11
(g15
S'-I{\xcb&)\xf0?'
p4428
tp4429
Rp4430
sg69
g11
(g12
(S'S3'
p4431
I0
I1
tp4432
Rp4433
(I3
S'|'
p4434
NNNI3
I1
I0
tp4435
bS'SVM'
p4436
tp4437
Rp4438
sg78
I3
sg79
g80
sg81
g11
(g15
S'\x9b\x86\xf4\xe8p\xb3\xdd?'
p4439
tp4440
Rp4441
sg85
g86
sg87
g88
sbag4
(g5
g6
Ntp4442
Rp4443
(dp4444
g10
g11
(g15
S'\x00\x00\x00\x00\x00\x00\xf8\xff'
p4445
tp4446
Rp4447
sg21
g11
(g15
S'\x00\x00\x00\x00\x00@e@'
p4448
tp4449
Rp4450
sg25
g26
sg27
g11
(g30
S'\x03\x00\x00\x00\x00\x00\x00\x00'
p4451
tp4452
Rp4453
sg36
(dp4454
g21
g4450
sg27
g4453
sg38
g11
(g30
S'\x04\x00\x00\x00\x00\x00\x00\x00'
p4455
tp4456
Rp4457
sg42
g11
(g15
S'd\x0e\x002R\x85\xe4?'
p4458
tp4459
Rp4460
ssg46
g11
(g12
(S'S6'
p4461
I0
I1
tp4462
Rp4463
(I3
S'|'
p4464
NNNI6
I1
I0
tp4465
bS'ISOMAP'
p4466
tp4467
Rp4468
sg55
F0.2
sg38
g4457
sg56
g11
(g12
(S'S3'
p4469
I0
I1
tp4470
Rp4471
(I3
S'|'
p4472
NNNI3
I1
I0
tp4473
bS'VGG'
p4474
tp4475
Rp4476
sg65
g11
(g15
S'o\xb3c\x9a${\xf4?'
p4477
tp4478
Rp4479
sg69
g11
(g12
(S'S2'
p4480
I0
I1
tp4481
Rp4482
(I3
S'|'
p4483
NNNI2
I1
I0
tp4484
bS'RF'
p4485
tp4486
Rp4487
sg78
I3
sg42
g4460
sg79
g80
sg81
g11
(g15
S'/\xe0\xf56\xfaC\xe1?'
p4488
tp4489
Rp4490
sg85
g86
sg87
g88
sbag4
(g5
g6
Ntp4491
Rp4492
(dp4493
g10
g11
(g15
S'\x00\x00\x00\x00\x00\x00\xf8\xff'
p4494
tp4495
Rp4496
sg21
g11
(g15
S'\x00\x00\x00\x00\x00@R@'
p4497
tp4498
Rp4499
sg98
g106
sg25
g26
sg36
(dp4500
g21
g4499
sg42
g11
(g15
S'\xc5W3\xa3\xe0\xa2\xd3?'
p4501
tp4502
Rp4503
sg98
g106
sg274
g11
(g30
S'\x01\x00\x00\x00\x00\x00\x00\x00'
p4504
tp4505
Rp4506
ssg46
g11
(g12
(S'S3'
p4507
I0
I1
tp4508
Rp4509
(I3
S'|'
p4510
NNNI3
I1
I0
tp4511
bS'PCA'
p4512
tp4513
Rp4514
sg55
F0.2
sg56
g11
(g12
(S'S8'
p4515
I0
I1
tp4516
Rp4517
(I3
S'|'
p4518
NNNI8
I1
I0
tp4519
bS'haralick'
p4520
tp4521
Rp4522
sg274
g4506
sg65
g11
(g15
S'\xb9Ea\xd4\x18y\x14@'
p4523
tp4524
Rp4525
sg69
g11
(g12
(S'S2'
p4526
I0
I1
tp4527
Rp4528
(I3
S'|'
p4529
NNNI2
I1
I0
tp4530
bS'RF'
p4531
tp4532
Rp4533
sg78
I3
sg42
g4503
sg79
g80
sg81
g11
(g15
S'\x01\xd2B\x95\x8cr\xe0?'
p4534
tp4535
Rp4536
sg85
g86
sg87
g88
sbag4
(g5
g6
Ntp4537
Rp4538
(dp4539
g10
g11
(g15
S'\x00\x00\x00\x00\x00\x00\xf8\xff'
p4540
tp4541
Rp4542
sg21
g11
(g15
S'\x00\x00\x00\x00\x00\xc0r@'
p4543
tp4544
Rp4545
sg98
g197
sg25
g26
sg36
(dp4546
g21
g4545
sg42
g11
(g15
S'\xaf\x94\xed\x00&\x82\xe5?'
p4547
tp4548
Rp4549
sg98
g197
sg274
g11
(g30
S'\x03\x00\x00\x00\x00\x00\x00\x00'
p4550
tp4551
Rp4552
ssg46
g11
(g12
(S'S3'
p4553
I0
I1
tp4554
Rp4555
(I3
S'|'
p4556
NNNI3
I1
I0
tp4557
bS'PCA'
p4558
tp4559
Rp4560
sg55
F0.2
sg56
g11
(g12
(S'S8'
p4561
I0
I1
tp4562
Rp4563
(I3
S'|'
p4564
NNNI8
I1
I0
tp4565
bS'haralick'
p4566
tp4567
Rp4568
sg274
g4552
sg65
g11
(g15
S'\x94^\xa9\x81\xac\xb4\xf1?'
p4569
tp4570
Rp4571
sg69
g11
(g12
(S'S2'
p4572
I0
I1
tp4573
Rp4574
(I3
S'|'
p4575
NNNI2
I1
I0
tp4576
bS'RF'
p4577
tp4578
Rp4579
sg78
I3
sg42
g4549
sg79
g80
sg81
g11
(g15
S'oU\xb6\x83\x96y\xe5?'
p4580
tp4581
Rp4582
sg85
g86
sg87
g88
sbag4
(g5
g6
Ntp4583
Rp4584
(dp4585
g10
g11
(g15
S'\x00\x00\x00\x00\x00\x00\xf8\xff'
p4586
tp4587
Rp4588
sg98
g197
sg25
g26
sg36
(dp4589
g98
g197
sg148
g11
(g15
S'\xb7\xa7\x00\x8cGX&@'
p4590
tp4591
Rp4592
sg274
g11
(g30
S'\x02\x00\x00\x00\x00\x00\x00\x00'
p4593
tp4594
Rp4595
sg152
g11
(g15
S'\xe7\xa9\xd9\xb6q\xb6\x02@'
p4596
tp4597
Rp4598
ssg46
g11
(g12
(S'S3'
p4599
I0
I1
tp4600
Rp4601
(I3
S'|'
p4602
NNNI3
I1
I0
tp4603
bS'PCA'
p4604
tp4605
Rp4606
sg55
F0.2
sg152
g4598
sg56
g11
(g12
(S'S8'
p4607
I0
I1
tp4608
Rp4609
(I3
S'|'
p4610
NNNI8
I1
I0
tp4611
bS'haralick'
p4612
tp4613
Rp4614
sg148
g4592
sg274
g4595
sg65
g11
(g15
S'\x10\x13C\xb2\x03H\xea?'
p4615
tp4616
Rp4617
sg69
g11
(g12
(S'S3'
p4618
I0
I1
tp4619
Rp4620
(I3
S'|'
p4621
NNNI3
I1
I0
tp4622
bS'SVM'
p4623
tp4624
Rp4625
sg78
I3
sg79
g80
sg81
g11
(g15
S'l\x83s\xee\t\x07\xe5?'
p4626
tp4627
Rp4628
sg85
g86
sg87
g88
sbag4
(g5
g6
Ntp4629
Rp4630
(dp4631
g10
g11
(g15
S'\x00\x00\x00\x00\x00\x00\xf8\xff'
p4632
tp4633
Rp4634
sg21
g11
(g15
S'\x00\x00\x00\x00\x00\xc0r@'
p4635
tp4636
Rp4637
sg98
g106
sg25
g26
sg36
(dp4638
g21
g4637
sg42
g11
(g15
S'q?u\xd0\x7f\xbe\xe7?'
p4639
tp4640
Rp4641
sg98
g106
ssg46
g11
(g12
(S'S3'
p4642
I0
I1
tp4643
Rp4644
(I3
S'|'
p4645
NNNI3
I1
I0
tp4646
bS'PCA'
p4647
tp4648
Rp4649
sg55
F0.2
sg56
g11
(g12
(S'S9'
p4650
I0
I1
tp4651
Rp4652
(I3
S'|'
p4653
NNNI9
I1
I0
tp4654
bS'inception'
p4655
tp4656
Rp4657
sg65
g11
(g15
S'\x05\xf2\xb9\xbfT\x14\xf6?'
p4658
tp4659
Rp4660
sg69
g11
(g12
(S'S2'
p4661
I0
I1
tp4662
Rp4663
(I3
S'|'
p4664
NNNI2
I1
I0
tp4665
bS'RF'
p4666
tp4667
Rp4668
sg78
I3
sg42
g4641
sg79
g80
sg81
g11
(g15
S'\x83\xb1\x91\x87\xbe\xb8\xe0?'
p4669
tp4670
Rp4671
sg85
g86
sg87
g88
sbag4
(g5
g6
Ntp4672
Rp4673
(dp4674
g10
g11
(g15
S'\x00\x00\x00\x00\x00\x00\xf8\xff'
p4675
tp4676
Rp4677
sg21
g11
(g15
S'\x00\x00\x00\x00\x00\x00D@'
p4678
tp4679
Rp4680
sg98
g106
sg25
g26
sg36
(dp4681
g21
g4680
sg42
g11
(g15
S'*\xff\x97O\x9eT\xee?'
p4682
tp4683
Rp4684
sg98
g106
ssg46
g11
(g12
(S'S3'
p4685
I0
I1
tp4686
Rp4687
(I3
S'|'
p4688
NNNI3
I1
I0
tp4689
bS'PCA'
p4690
tp4691
Rp4692
sg55
F0.2
sg56
g11
(g12
(S'S9'
p4693
I0
I1
tp4694
Rp4695
(I3
S'|'
p4696
NNNI9
I1
I0
tp4697
bS'inception'
p4698
tp4699
Rp4700
sg65
g11
(g15
S'\xe1HM\x15\xe0\x11\x00@'
p4701
tp4702
Rp4703
sg69
g11
(g12
(S'S2'
p4704
I0
I1
tp4705
Rp4706
(I3
S'|'
p4707
NNNI2
I1
I0
tp4708
bS'RF'
p4709
tp4710
Rp4711
sg78
I3
sg42
g4684
sg79
g80
sg81
g11
(g15
S'0\x13g\r\xab.\xe0?'
p4712
tp4713
Rp4714
sg85
g86
sg87
g88
sbag4
(g5
g6
Ntp4715
Rp4716
(dp4717
g10
g11
(g15
S'\x00\x00\x00\x00\x00\x00\xf8\xff'
p4718
tp4719
Rp4720
sg27
g11
(g30
S'\x04\x00\x00\x00\x00\x00\x00\x00'
p4721
tp4722
Rp4723
sg25
g26
sg36
(dp4724
g27
g4723
sg148
g11
(g15
S'P%\xb4MT\x1fX@'
p4725
tp4726
Rp4727
sg38
g11
(g30
S'\x02\x00\x00\x00\x00\x00\x00\x00'
p4728
tp4729
Rp4730
sg152
g11
(g15
S'p\xf1\x1f\xcba\xd0\xfd?'
p4731
tp4732
Rp4733
ssg152
g4733
sg46
g11
(g12
(S'S6'
p4734
I0
I1
tp4735
Rp4736
(I3
S'|'
p4737
NNNI6
I1
I0
tp4738
bS'ISOMAP'
p4739
tp4740
Rp4741
sg55
F0.2
sg38
g4730
sg56
g11
(g12
(S'S9'
p4742
I0
I1
tp4743
Rp4744
(I3
S'|'
p4745
NNNI9
I1
I0
tp4746
bS'inception'
p4747
tp4748
Rp4749
sg148
g4727
sg65
g11
(g15
S'\x8b\xe7 \xcb\xcfw\xf0?'
p4750
tp4751
Rp4752
sg69
g11
(g12
(S'S3'
p4753
I0
I1
tp4754
Rp4755
(I3
S'|'
p4756
NNNI3
I1
I0
tp4757
bS'SVM'
p4758
tp4759
Rp4760
sg78
I3
sg79
g80
sg81
g11
(g15
S'\xa9\xbdO[\xd3\x90\xde?'
p4761
tp4762
Rp4763
sg85
g86
sg87
g88
sbag4
(g5
g6
Ntp4764
Rp4765
(dp4766
g10
g11
(g15
S'\x00\x00\x00\x00\x00\x00\xf8\xff'
p4767
tp4768
Rp4769
sg21
g11
(g15
S'\x00\x00\x00\x00\x00\x00D@'
p4770
tp4771
Rp4772
sg25
g26
sg27
g11
(g30
S'\x05\x00\x00\x00\x00\x00\x00\x00'
p4773
tp4774
Rp4775
sg36
(dp4776
g21
g4772
sg27
g4775
sg274
g11
(g30
S'\x01\x00\x00\x00\x00\x00\x00\x00'
p4777
tp4778
Rp4779
sg38
g11
(g30
S'\x04\x00\x00\x00\x00\x00\x00\x00'
p4780
tp4781
Rp4782
sg42
g11
(g15
S'\x1c\x97X\x8fM\xb6\xef?'
p4783
tp4784
Rp4785
ssg46
g11
(g12
(S'S6'
p4786
I0
I1
tp4787
Rp4788
(I3
S'|'
p4789
NNNI6
I1
I0
tp4790
bS'ISOMAP'
p4791
tp4792
Rp4793
sg55
F0.2
sg38
g4782
sg56
g11
(g12
(S'S8'
p4794
I0
I1
tp4795
Rp4796
(I3
S'|'
p4797
NNNI8
I1
I0
tp4798
bS'haralick'
p4799
tp4800
Rp4801
sg274
g4779
sg65
g11
(g15
S'\x80\x8b,\x008\x15\x01@'
p4802
tp4803
Rp4804
sg69
g11
(g12
(S'S2'
p4805
I0
I1
tp4806
Rp4807
(I3
S'|'
p4808
NNNI2
I1
I0
tp4809
bS'RF'
p4810
tp4811
Rp4812
sg78
I3
sg42
g4785
sg79
g80
sg81
g11
(g15
S'\x8b\x98n\x9b\xcc\n\xe4?'
p4813
tp4814
Rp4815
sg85
g86
sg87
g88
sbag4
(g5
g6
Ntp4816
Rp4817
(dp4818
g10
g11
(g15
S'\x00\x00\x00\x00\x00\x00\xf8\xff'
p4819
tp4820
Rp4821
sg27
g11
(g30
S'\x03\x00\x00\x00\x00\x00\x00\x00'
p4822
tp4823
Rp4824
sg25
g26
sg36
(dp4825
g27
g4824
sg148
g11
(g15
S'}\xaf \xbft9J@'
p4826
tp4827
Rp4828
sg274
g11
(g30
S'\x01\x00\x00\x00\x00\x00\x00\x00'
p4829
tp4830
Rp4831
sg38
g11
(g30
S'\x03\x00\x00\x00\x00\x00\x00\x00'
p4832
tp4833
Rp4834
sg152
g11
(g15
S'\x93\xe5\x11\xe3I\xe0\x0f@'
p4835
tp4836
Rp4837
ssg152
g4837
sg46
g11
(g12
(S'S6'
p4838
I0
I1
tp4839
Rp4840
(I3
S'|'
p4841
NNNI6
I1
I0
tp4842
bS'ISOMAP'
p4843
tp4844
Rp4845
sg55
F0.2
sg38
g4834
sg56
g11
(g12
(S'S8'
p4846
I0
I1
tp4847
Rp4848
(I3
S'|'
p4849
NNNI8
I1
I0
tp4850
bS'haralick'
p4851
tp4852
Rp4853
sg148
g4828
sg274
g4831
sg65
g11
(g15
S'\x07\x9d\x08uX\xc1\xec?'
p4854
tp4855
Rp4856
sg69
g11
(g12
(S'S3'
p4857
I0
I1
tp4858
Rp4859
(I3
S'|'
p4860
NNNI3
I1
I0
tp4861
bS'SVM'
p4862
tp4863
Rp4864
sg78
I3
sg79
g80
sg81
g11
(g15
S'\xbd\xcb\xa1\xce\xff=\xe3?'
p4865
tp4866
Rp4867
sg85
g86
sg87
g88
sbag4
(g5
g6
Ntp4868
Rp4869
(dp4870
g10
g11
(g15
S'\x00\x00\x00\x00\x00\x00\xf8\xff'
p4871
tp4872
Rp4873
sg27
g11
(g30
S'\x03\x00\x00\x00\x00\x00\x00\x00'
p4874
tp4875
Rp4876
sg25
g26
sg36
(dp4877
g27
g4876
sg148
g11
(g15
S'\x0bH\x00>j27@'
p4878
tp4879
Rp4880
sg274
g11
(g30
S'\x01\x00\x00\x00\x00\x00\x00\x00'
p4881
tp4882
Rp4883
sg38
g11
(g30
S'\x02\x00\x00\x00\x00\x00\x00\x00'
p4884
tp4885
Rp4886
sg152
g11
(g15
S'\xde~\xfc\xf1\xf8\xbc\x1f@'
p4887
tp4888
Rp4889
ssg152
g4889
sg46
g11
(g12
(S'S6'
p4890
I0
I1
tp4891
Rp4892
(I3
S'|'
p4893
NNNI6
I1
I0
tp4894
bS'ISOMAP'
p4895
tp4896
Rp4897
sg55
F0.2
sg38
g4886
sg56
g11
(g12
(S'S8'
p4898
I0
I1
tp4899
Rp4900
(I3
S'|'
p4901
NNNI8
I1
I0
tp4902
bS'haralick'
p4903
tp4904
Rp4905
sg148
g4880
sg274
g4883
sg65
g11
(g15
S'\xe9\x06Z\x81)\xa8\xed?'
p4906
tp4907
Rp4908
sg69
g11
(g12
(S'S3'
p4909
I0
I1
tp4910
Rp4911
(I3
S'|'
p4912
NNNI3
I1
I0
tp4913
bS'SVM'
p4914
tp4915
Rp4916
sg78
I3
sg79
g80
sg81
g11
(g15
S'\x03CW\xe9\xf4l\xe2?'
p4917
tp4918
Rp4919
sg85
g86
sg87
g88
sbag4
(g5
g6
Ntp4920
Rp4921
(dp4922
g10
g11
(g15
S'\x00\x00\x00\x00\x00\x00\xf8\xff'
p4923
tp4924
Rp4925
sg21
g11
(g15
S'\x00\x00\x00\x00\x00\x00D@'
p4926
tp4927
Rp4928
sg98
g197
sg25
g26
sg36
(dp4929
g21
g4928
sg42
g11
(g15
S'\x08\xf4J\xef\x0cw\xe0?'
p4930
tp4931
Rp4932
sg98
g197
ssg46
g11
(g12
(S'S3'
p4933
I0
I1
tp4934
Rp4935
(I3
S'|'
p4936
NNNI3
I1
I0
tp4937
bS'PCA'
p4938
tp4939
Rp4940
sg55
F0.2
sg56
g11
(g12
(S'S9'
p4941
I0
I1
tp4942
Rp4943
(I3
S'|'
p4944
NNNI9
I1
I0
tp4945
bS'inception'
p4946
tp4947
Rp4948
sg65
g11
(g15
S'\xb5\x94|L\xcd\x1d\x01@'
p4949
tp4950
Rp4951
sg69
g11
(g12
(S'S2'
p4952
I0
I1
tp4953
Rp4954
(I3
S'|'
p4955
NNNI2
I1
I0
tp4956
bS'RF'
p4957
tp4958
Rp4959
sg78
I3
sg42
g4932
sg79
g80
sg81
g11
(g15
S"\xcf\xb9'\x1c\xa4\xe6\xe0?"
p4960
tp4961
Rp4962
sg85
g86
sg87
g88
sbag4
(g5
g6
Ntp4963
Rp4964
(dp4965
g10
g11
(g15
S'\x00\x00\x00\x00\x00\x00\xf8\xff'
p4966
tp4967
Rp4968
sg21
g11
(g15
S'\x00\x00\x00\x00\x00\xc0r@'
p4969
tp4970
Rp4971
sg98
g197
sg25
g26
sg36
(dp4972
g21
g4971
sg42
g11
(g15
S'\xc0\xcd\xc0\xe6\xfa7\xe2?'
p4973
tp4974
Rp4975
sg98
g197
ssg46
g11
(g12
(S'S3'
p4976
I0
I1
tp4977
Rp4978
(I3
S'|'
p4979
NNNI3
I1
I0
tp4980
bS'PCA'
p4981
tp4982
Rp4983
sg55
F0.2
sg56
g11
(g12
(S'S9'
p4984
I0
I1
tp4985
Rp4986
(I3
S'|'
p4987
NNNI9
I1
I0
tp4988
bS'inception'
p4989
tp4990
Rp4991
sg65
g11
(g15
S'_\xa7z\x86\xceo\xf4?'
p4992
tp4993
Rp4994
sg69
g11
(g12
(S'S2'
p4995
I0
I1
tp4996
Rp4997
(I3
S'|'
p4998
NNNI2
I1
I0
tp4999
bS'RF'
p5000
tp5001
Rp5002
sg78
I3
sg42
g4975
sg79
g80
sg81
g11
(g15
S'L\xda\xd8)r\xa0\xe0?'
p5003
tp5004
Rp5005
sg85
g86
sg87
g88
sbag4
(g5
g6
Ntp5006
Rp5007
(dp5008
g10
g11
(g15
S'\x00\x00\x00\x00\x00\x00\xf8\xff'
p5009
tp5010
Rp5011
sg98
g106
sg25
g26
sg36
(dp5012
g98
g106
sg148
g11
(g15
S'=\x95\x17\x1b\n4X@'
p5013
tp5014
Rp5015
sg274
g11
(g30
S'\x01\x00\x00\x00\x00\x00\x00\x00'
p5016
tp5017
Rp5018
sg152
g11
(g15
S'\x81^\xc0H\x9c\x13\x1b@'
p5019
tp5020
Rp5021
ssg46
g11
(g12
(S'S3'
p5022
I0
I1
tp5023
Rp5024
(I3
S'|'
p5025
NNNI3
I1
I0
tp5026
bS'PCA'
p5027
tp5028
Rp5029
sg55
F0.2
sg152
g5021
sg56
g11
(g12
(S'S8'
p5030
I0
I1
tp5031
Rp5032
(I3
S'|'
p5033
NNNI8
I1
I0
tp5034
bS'haralick'
p5035
tp5036
Rp5037
sg148
g5015
sg274
g5018
sg65
g11
(g15
S'\x1b&(\x10\t\xab\xee?'
p5038
tp5039
Rp5040
sg69
g11
(g12
(S'S3'
p5041
I0
I1
tp5042
Rp5043
(I3
S'|'
p5044
NNNI3
I1
I0
tp5045
bS'SVM'
p5046
tp5047
Rp5048
sg78
I3
sg79
g80
sg81
g11
(g15
S'\xed\xa0e^\xf3\\\xe0?'
p5049
tp5050
Rp5051
sg85
g86
sg87
g88
sbag4
(g5
g6
Ntp5052
Rp5053
(dp5054
g10
g11
(g15
S'\x00\x00\x00\x00\x00\x00\xf8\xff'
p5055
tp5056
Rp5057
sg21
g11
(g15
S'\x00\x00\x00\x00\x00@R@'
p5058
tp5059
Rp5060
sg98
g106
sg25
g26
sg36
(dp5061
g21
g5060
sg42
g11
(g15
S'\xd0q\xdd\xaf\x8eC\xeb?'
p5062
tp5063
Rp5064
sg98
g106
sg274
g11
(g30
S'\x03\x00\x00\x00\x00\x00\x00\x00'
p5065
tp5066
Rp5067
ssg46
g11
(g12
(S'S3'
p5068
I0
I1
tp5069
Rp5070
(I3
S'|'
p5071
NNNI3
I1
I0
tp5072
bS'PCA'
p5073
tp5074
Rp5075
sg55
F0.2
sg56
g11
(g12
(S'S8'
p5076
I0
I1
tp5077
Rp5078
(I3
S'|'
p5079
NNNI8
I1
I0
tp5080
bS'haralick'
p5081
tp5082
Rp5083
sg274
g5067
sg65
g11
(g15
S'\xa4LV\xf4\x0b\xa9\xfd?'
p5084
tp5085
Rp5086
sg69
g11
(g12
(S'S2'
p5087
I0
I1
tp5088
Rp5089
(I3
S'|'
p5090
NNNI2
I1
I0
tp5091
bS'RF'
p5092
tp5093
Rp5094
sg78
I3
sg42
g5064
sg79
g80
sg81
g11
(g15
S'\x1b\xb7\x8b\t\x83\xef\xe4?'
p5095
tp5096
Rp5097
sg85
g86
sg87
g88
sbag4
(g5
g6
Ntp5098
Rp5099
(dp5100
g10
g11
(g15
S'\x00\x00\x00\x00\x00\x00\xf8\xff'
p5101
tp5102
Rp5103
sg98
g106
sg25
g26
sg36
(dp5104
g98
g106
sg148
g11
(g15
S'\x9d\xdf\x97\xeb\x91hC@'
p5105
tp5106
Rp5107
sg152
g11
(g15
S'\xe3\xe4\xd87\x19Y\x14@'
p5108
tp5109
Rp5110
ssg46
g11
(g12
(S'S3'
p5111
I0
I1
tp5112
Rp5113
(I3
S'|'
p5114
NNNI3
I1
I0
tp5115
bS'PCA'
p5116
tp5117
Rp5118
sg55
F0.2
sg152
g5110
sg56
g11
(g12
(S'S3'
p5119
I0
I1
tp5120
Rp5121
(I3
S'|'
p5122
NNNI3
I1
I0
tp5123
bS'VGG'
p5124
tp5125
Rp5126
sg148
g5107
sg65
g11
(g15
S'\x8dT\x96l\x08\x9d\xf0?'
p5127
tp5128
Rp5129
sg69
g11
(g12
(S'S3'
p5130
I0
I1
tp5131
Rp5132
(I3
S'|'
p5133
NNNI3
I1
I0
tp5134
bS'SVM'
p5135
tp5136
Rp5137
sg78
I3
sg79
g80
sg81
g11
(g15
S'P\xbc\x01\xd2B\x95\xdc?'
p5138
tp5139
Rp5140
sg85
g86
sg87
g88
sbag4
(g5
g6
Ntp5141
Rp5142
(dp5143
g10
g11
(g15
S'\x00\x00\x00\x00\x00\x00\xf8\xff'
p5144
tp5145
Rp5146
sg27
g11
(g30
S'\x07\x00\x00\x00\x00\x00\x00\x00'
p5147
tp5148
Rp5149
sg25
g26
sg36
(dp5150
g27
g5149
sg148
g11
(g15
S'\xb4\x1c\xf9\xcf&k\xeb?'
p5151
tp5152
Rp5153
sg38
g11
(g30
S'\x03\x00\x00\x00\x00\x00\x00\x00'
p5154
tp5155
Rp5156
sg152
g11
(g15
S'\x18Of\x82JJ\x18@'
p5157
tp5158
Rp5159
ssg152
g5159
sg46
g11
(g12
(S'S6'
p5160
I0
I1
tp5161
Rp5162
(I3
S'|'
p5163
NNNI6
I1
I0
tp5164
bS'ISOMAP'
p5165
tp5166
Rp5167
sg55
F0.2
sg38
g5156
sg56
g11
(g12
(S'S3'
p5168
I0
I1
tp5169
Rp5170
(I3
S'|'
p5171
NNNI3
I1
I0
tp5172
bS'VGG'
p5173
tp5174
Rp5175
sg148
g5153
sg65
g11
(g15
S'\x10\x9ct\xf1\xf5a\xef?'
p5176
tp5177
Rp5178
sg69
g11
(g12
(S'S3'
p5179
I0
I1
tp5180
Rp5181
(I3
S'|'
p5182
NNNI3
I1
I0
tp5183
bS'SVM'
p5184
tp5185
Rp5186
sg78
I3
sg79
g80
sg81
g11
(g15
S'\xf3w\\_\xbd,\xe0?'
p5187
tp5188
Rp5189
sg85
g86
sg87
g88
sbag4
(g5
g6
Ntp5190
Rp5191
(dp5192
g10
g11
(g15
S'\x00\x00\x00\x00\x00\x00\xf8\xff'
p5193
tp5194
Rp5195
sg27
g11
(g30
S'\x05\x00\x00\x00\x00\x00\x00\x00'
p5196
tp5197
Rp5198
sg25
g26
sg36
(dp5199
g27
g5198
sg148
g11
(g15
S'yx\x024\x87HM@'
p5200
tp5201
Rp5202
sg38
g11
(g30
S'\x04\x00\x00\x00\x00\x00\x00\x00'
p5203
tp5204
Rp5205
sg152
g11
(g15
S'\xcd[\xb15oW\xf1?'
p5206
tp5207
Rp5208
ssg152
g5208
sg46
g11
(g12
(S'S6'
p5209
I0
I1
tp5210
Rp5211
(I3
S'|'
p5212
NNNI6
I1
I0
tp5213
bS'ISOMAP'
p5214
tp5215
Rp5216
sg55
F0.2
sg38
g5205
sg56
g11
(g12
(S'S9'
p5217
I0
I1
tp5218
Rp5219
(I3
S'|'
p5220
NNNI9
I1
I0
tp5221
bS'inception'
p5222
tp5223
Rp5224
sg148
g5202
sg65
g11
(g15
S'$\xefjm\x9aw\xf0?'
p5225
tp5226
Rp5227
sg69
g11
(g12
(S'S3'
p5228
I0
I1
tp5229
Rp5230
(I3
S'|'
p5231
NNNI3
I1
I0
tp5232
bS'SVM'
p5233
tp5234
Rp5235
sg78
I3
sg79
g80
sg81
g11
(g15
S'\xb9\x04\x91\xe0y\xf0\xde?'
p5236
tp5237
Rp5238
sg85
g86
sg87
g88
sbag4
(g5
g6
Ntp5239
Rp5240
(dp5241
g10
g11
(g15
S'\x00\x00\x00\x00\x00\x00\xf8\xff'
p5242
tp5243
Rp5244
sg21
g11
(g15
S'\x00\x00\x00\x00\x00@R@'
p5245
tp5246
Rp5247
sg98
g197
sg25
g26
sg36
(dp5248
g21
g5247
sg42
g11
(g15
S'0\x06\xa4\x08\xd5:\xe1?'
p5249
tp5250
Rp5251
sg98
g197
ssg46
g11
(g12
(S'S3'
p5252
I0
I1
tp5253
Rp5254
(I3
S'|'
p5255
NNNI3
I1
I0
tp5256
bS'PCA'
p5257
tp5258
Rp5259
sg55
F0.2
sg56
g11
(g12
(S'S9'
p5260
I0
I1
tp5261
Rp5262
(I3
S'|'
p5263
NNNI9
I1
I0
tp5264
bS'inception'
p5265
tp5266
Rp5267
sg65
g11
(g15
S'P\xb30\xcf\x01\xdd\xf9?'
p5268
tp5269
Rp5270
sg69
g11
(g12
(S'S2'
p5271
I0
I1
tp5272
Rp5273
(I3
S'|'
p5274
NNNI2
I1
I0
tp5275
bS'RF'
p5276
tp5277
Rp5278
sg78
I3
sg42
g5251
sg79
g80
sg81
g11
(g15
S'1\xe5\xa9\xa27\xa1\xe0?'
p5279
tp5280
Rp5281
sg85
g86
sg87
g88
sbag4
(g5
g6
Ntp5282
Rp5283
(dp5284
g10
g11
(g15
S'\x00\x00\x00\x00\x00\x00\xf8\xff'
p5285
tp5286
Rp5287
sg21
g11
(g15
S'\x00\x00\x00\x00\x00\xc0r@'
p5288
tp5289
Rp5290
sg98
g106
sg25
g26
sg36
(dp5291
g21
g5290
sg42
g11
(g15
S'\xd8\xe0\xc8j\x14m\xdf?'
p5292
tp5293
Rp5294
sg98
g106
ssg46
g11
(g12
(S'S3'
p5295
I0
I1
tp5296
Rp5297
(I3
S'|'
p5298
NNNI3
I1
I0
tp5299
bS'PCA'
p5300
tp5301
Rp5302
sg55
F0.2
sg56
g11
(g12
(S'S3'
p5303
I0
I1
tp5304
Rp5305
(I3
S'|'
p5306
NNNI3
I1
I0
tp5307
bS'VGG'
p5308
tp5309
Rp5310
sg65
g11
(g15
S'8.\xa6(M\xcd\xe6?'
p5311
tp5312
Rp5313
sg69
g11
(g12
(S'S2'
p5314
I0
I1
tp5315
Rp5316
(I3
S'|'
p5317
NNNI2
I1
I0
tp5318
bS'RF'
p5319
tp5320
Rp5321
sg78
I3
sg42
g5294
sg79
g80
sg81
g11
(g15
S'\xb8\x176\x91\xa2\xd6\xe6?'
p5322
tp5323
Rp5324
sg85
g86
sg87
g88
sbag4
(g5
g6
Ntp5325
Rp5326
(dp5327
g10
g11
(g15
S'\x00\x00\x00\x00\x00\x00\xf8\xff'
p5328
tp5329
Rp5330
sg27
g11
(g30
S'\x05\x00\x00\x00\x00\x00\x00\x00'
p5331
tp5332
Rp5333
sg25
g26
sg36
(dp5334
g27
g5333
sg148
g11
(g15
S'\xb2\x83\x02@M\xc4U@'
p5335
tp5336
Rp5337
sg274
g11
(g30
S'\x01\x00\x00\x00\x00\x00\x00\x00'
p5338
tp5339
Rp5340
sg38
g11
(g30
S'\x04\x00\x00\x00\x00\x00\x00\x00'
p5341
tp5342
Rp5343
sg152
g11
(g15
S'\xa5n\xaa\xe1\x8e\x9c\x18@'
p5344
tp5345
Rp5346
ssg152
g5346
sg46
g11
(g12
(S'S6'
p5347
I0
I1
tp5348
Rp5349
(I3
S'|'
p5350
NNNI6
I1
I0
tp5351
bS'ISOMAP'
p5352
tp5353
Rp5354
sg55
F0.2
sg38
g5343
sg56
g11
(g12
(S'S8'
p5355
I0
I1
tp5356
Rp5357
(I3
S'|'
p5358
NNNI8
I1
I0
tp5359
bS'haralick'
p5360
tp5361
Rp5362
sg148
g5337
sg274
g5340
sg65
g11
(g15
S'\x10X\x0f\x86\xef\x18\xef?'
p5363
tp5364
Rp5365
sg69
g11
(g12
(S'S3'
p5366
I0
I1
tp5367
Rp5368
(I3
S'|'
p5369
NNNI3
I1
I0
tp5370
bS'SVM'
p5371
tp5372
Rp5373
sg78
I3
sg79
g80
sg81
g11
(g15
S'\x1d8\x86p/l\xe2?'
p5374
tp5375
Rp5376
sg85
g86
sg87
g88
sbag4
(g5
g6
Ntp5377
Rp5378
(dp5379
g10
g11
(g15
S'\x00\x00\x00\x00\x00\x00\xf8\xff'
p5380
tp5381
Rp5382
sg21
g11
(g15
S'\x00\x00\x00\x00\x00\xc0p@'
p5383
tp5384
Rp5385
sg25
g26
sg27
g11
(g30
S'\x04\x00\x00\x00\x00\x00\x00\x00'
p5386
tp5387
Rp5388
sg36
(dp5389
g21
g5385
sg27
g5388
sg38
g11
(g30
S'\x04\x00\x00\x00\x00\x00\x00\x00'
p5390
tp5391
Rp5392
sg42
g11
(g15
S'\xc1yZ\xefv\x8d\xe8?'
p5393
tp5394
Rp5395
ssg46
g11
(g12
(S'S6'
p5396
I0
I1
tp5397
Rp5398
(I3
S'|'
p5399
NNNI6
I1
I0
tp5400
bS'ISOMAP'
p5401
tp5402
Rp5403
sg55
F0.2
sg38
g5392
sg56
g11
(g12
(S'S9'
p5404
I0
I1
tp5405
Rp5406
(I3
S'|'
p5407
NNNI9
I1
I0
tp5408
bS'inception'
p5409
tp5410
Rp5411
sg65
g11
(g15
S'\xc4@d{\xcb\xa8\xff?'
p5412
tp5413
Rp5414
sg69
g11
(g12
(S'S2'
p5415
I0
I1
tp5416
Rp5417
(I3
S'|'
p5418
NNNI2
I1
I0
tp5419
bS'RF'
p5420
tp5421
Rp5422
sg78
I3
sg42
g5395
sg79
g80
sg81
g11
(g15
S'\x1b\xb7\x8b\t\x83\xef\xdc?'
p5423
tp5424
Rp5425
sg85
g86
sg87
g88
sbag4
(g5
g6
Ntp5426
Rp5427
(dp5428
g10
g11
(g15
S'\x00\x00\x00\x00\x00\x00\xf8\xff'
p5429
tp5430
Rp5431
sg98
g106
sg25
g26
sg36
(dp5432
g98
g106
sg148
g11
(g15
S'\x1c\x01\x12k\x19\x9bJ@'
p5433
tp5434
Rp5435
sg152
g11
(g15
S'SO\x94\xae\xd2\x90\x18@'
p5436
tp5437
Rp5438
ssg46
g11
(g12
(S'S3'
p5439
I0
I1
tp5440
Rp5441
(I3
S'|'
p5442
NNNI3
I1
I0
tp5443
bS'PCA'
p5444
tp5445
Rp5446
sg55
F0.2
sg152
g5438
sg56
g11
(g12
(S'S9'
p5447
I0
I1
tp5448
Rp5449
(I3
S'|'
p5450
NNNI9
I1
I0
tp5451
bS'inception'
p5452
tp5453
Rp5454
sg148
g5435
sg65
g11
(g15
S'\xa7H\x99\xbb\xb4H\xf0?'
p5455
tp5456
Rp5457
sg69
g11
(g12
(S'S3'
p5458
I0
I1
tp5459
Rp5460
(I3
S'|'
p5461
NNNI3
I1
I0
tp5462
bS'SVM'
p5463
tp5464
Rp5465
sg78
I3
sg79
g80
sg81
g11
(g15
S'\x84\x1a3\xd2\x04\xf2\xde?'
p5466
tp5467
Rp5468
sg85
g86
sg87
g88
sbag4
(g5
g6
Ntp5469
Rp5470
(dp5471
g10
g11
(g15
S'\x00\x00\x00\x00\x00\x00\xf8\xff'
p5472
tp5473
Rp5474
sg98
g106
sg25
g26
sg36
(dp5475
g98
g106
sg148
g11
(g15
S'4?X\xd4\x9e0\x18@'
p5476
tp5477
Rp5478
sg152
g11
(g15
S'\x94\x146\xa6\x17k\x0f@'
p5479
tp5480
Rp5481
ssg46
g11
(g12
(S'S3'
p5482
I0
I1
tp5483
Rp5484
(I3
S'|'
p5485
NNNI3
I1
I0
tp5486
bS'PCA'
p5487
tp5488
Rp5489
sg55
F0.2
sg152
g5481
sg56
g11
(g12
(S'S3'
p5490
I0
I1
tp5491
Rp5492
(I3
S'|'
p5493
NNNI3
I1
I0
tp5494
bS'VGG'
p5495
tp5496
Rp5497
sg148
g5478
sg65
g11
(g15
S'y\x17\xd6\xcf\xe0W\xf0?'
p5498
tp5499
Rp5500
sg69
g11
(g12
(S'S3'
p5501
I0
I1
tp5502
Rp5503
(I3
S'|'
p5504
NNNI3
I1
I0
tp5505
bS'SVM'
p5506
tp5507
Rp5508
sg78
I3
sg79
g80
sg81
g11
(g15
S'\xe5\xcc-\xfb\r\xf1\xdc?'
p5509
tp5510
Rp5511
sg85
g86
sg87
g88
sbag4
(g5
g6
Ntp5512
Rp5513
(dp5514
g10
g11
(g15
S'\x00\x00\x00\x00\x00\x00\xf8\xff'
p5515
tp5516
Rp5517
sg98
g197
sg25
g26
sg36
(dp5518
g98
g197
sg148
g11
(g15
S'h?\xe5\x0e\x90\xa4J@'
p5519
tp5520
Rp5521
sg152
g11
(g15
S'\xfcE\xfe\x91\xa9\xe1\x0b@'
p5522
tp5523
Rp5524
ssg46
g11
(g12
(S'S3'
p5525
I0
I1
tp5526
Rp5527
(I3
S'|'
p5528
NNNI3
I1
I0
tp5529
bS'PCA'
p5530
tp5531
Rp5532
sg55
F0.2
sg152
g5524
sg56
g11
(g12
(S'S3'
p5533
I0
I1
tp5534
Rp5535
(I3
S'|'
p5536
NNNI3
I1
I0
tp5537
bS'VGG'
p5538
tp5539
Rp5540
sg148
g5521
sg65
g11
(g15
S'K\xcd\xa2Jd\x19\xf0?'
p5541
tp5542
Rp5543
sg69
g11
(g12
(S'S3'
p5544
I0
I1
tp5545
Rp5546
(I3
S'|'
p5547
NNNI3
I1
I0
tp5548
bS'SVM'
p5549
tp5550
Rp5551
sg78
I3
sg79
g80
sg81
g11
(g15
S'(?/\xaa\xc5\xc2\xdc?'
p5552
tp5553
Rp5554
sg85
g86
sg87
g88
sbag4
(g5
g6
Ntp5555
Rp5556
(dp5557
g10
g11
(g15
S'\x00\x00\x00\x00\x00\x00\xf8\xff'
p5558
tp5559
Rp5560
sg21
g11
(g15
S'\x00\x00\x00\x00\x00@a@'
p5561
tp5562
Rp5563
sg25
g26
sg27
g11
(g30
S'\x07\x00\x00\x00\x00\x00\x00\x00'
p5564
tp5565
Rp5566
sg36
(dp5567
g21
g5563
sg27
g5566
sg38
g11
(g30
S'\x03\x00\x00\x00\x00\x00\x00\x00'
p5568
tp5569
Rp5570
sg42
g11
(g15
S'[,\xcchy\xf1\xe2?'
p5571
tp5572
Rp5573
ssg46
g11
(g12
(S'S6'
p5574
I0
I1
tp5575
Rp5576
(I3
S'|'
p5577
NNNI6
I1
I0
tp5578
bS'ISOMAP'
p5579
tp5580
Rp5581
sg55
F0.2
sg38
g5570
sg56
g11
(g12
(S'S3'
p5582
I0
I1
tp5583
Rp5584
(I3
S'|'
p5585
NNNI3
I1
I0
tp5586
bS'VGG'
p5587
tp5588
Rp5589
sg65
g11
(g15
S'\x14,\x81/\x1a\xba\xf1?'
p5590
tp5591
Rp5592
sg69
g11
(g12
(S'S2'
p5593
I0
I1
tp5594
Rp5595
(I3
S'|'
p5596
NNNI2
I1
I0
tp5597
bS'RF'
p5598
tp5599
Rp5600
sg78
I3
sg42
g5573
sg79
g80
sg81
g11
(g15
S'\xbc?u\xc0L\x9c\xe1?'
p5601
tp5602
Rp5603
sg85
g86
sg87
g88
sbag4
(g5
g6
Ntp5604
Rp5605
(dp5606
g10
g11
(g15
S'\x00\x00\x00\x00\x00\x00\xf8\xff'
p5607
tp5608
Rp5609
sg98
g197
sg25
g26
sg36
(dp5610
g98
g197
sg148
g11
(g15
S'\x81\xeb\xf9\xa3\x12~X@'
p5611
tp5612
Rp5613
sg274
g11
(g30
S'\x01\x00\x00\x00\x00\x00\x00\x00'
p5614
tp5615
Rp5616
sg152
g11
(g15
S'y\xde\x1b\xf1\xc0\xae\x08@'
p5617
tp5618
Rp5619
ssg46
g11
(g12
(S'S3'
p5620
I0
I1
tp5621
Rp5622
(I3
S'|'
p5623
NNNI3
I1
I0
tp5624
bS'PCA'
p5625
tp5626
Rp5627
sg55
F0.2
sg152
g5619
sg56
g11
(g12
(S'S8'
p5628
I0
I1
tp5629
Rp5630
(I3
S'|'
p5631
NNNI8
I1
I0
tp5632
bS'haralick'
p5633
tp5634
Rp5635
sg148
g5613
sg274
g5616
sg65
g11
(g15
S'\xc1z\xeaU\xe9b\xee?'
p5636
tp5637
Rp5638
sg69
g11
(g12
(S'S3'
p5639
I0
I1
tp5640
Rp5641
(I3
S'|'
p5642
NNNI3
I1
I0
tp5643
bS'SVM'
p5644
tp5645
Rp5646
sg78
I3
sg79
g80
sg81
g11
(g15
S'\x81\xdfN\xf21F\xe0?'
p5647
tp5648
Rp5649
sg85
g86
sg87
g88
sbag4
(g5
g6
Ntp5650
Rp5651
(dp5652
g10
g11
(g15
S'\x00\x00\x00\x00\x00\x00\xf8\xff'
p5653
tp5654
Rp5655
sg21
g11
(g15
S'\x00\x00\x00\x00\x00`m@'
p5656
tp5657
Rp5658
sg98
g106
sg25
g26
sg36
(dp5659
g21
g5658
sg42
g11
(g15
S'\xe2\x93\x86Q\xb6N\xe9?'
p5660
tp5661
Rp5662
sg98
g106
ssg46
g11
(g12
(S'S3'
p5663
I0
I1
tp5664
Rp5665
(I3
S'|'
p5666
NNNI3
I1
I0
tp5667
bS'PCA'
p5668
tp5669
Rp5670
sg55
F0.2
sg56
g11
(g12
(S'S3'
p5671
I0
I1
tp5672
Rp5673
(I3
S'|'
p5674
NNNI3
I1
I0
tp5675
bS'VGG'
p5676
tp5677
Rp5678
sg65
g11
(g15
S'\xfc/\x88CV\xc9\xe6?'
p5679
tp5680
Rp5681
sg69
g11
(g12
(S'S2'
p5682
I0
I1
tp5683
Rp5684
(I3
S'|'
p5685
NNNI2
I1
I0
tp5686
bS'RF'
p5687
tp5688
Rp5689
sg78
I3
sg42
g5662
sg79
g80
sg81
g11
(g15
S'\xd3\x0ce\x18\xdd\xd5\xe6?'
p5690
tp5691
Rp5692
sg85
g86
sg87
g88
sbag4
(g5
g6
Ntp5693
Rp5694
(dp5695
g10
g11
(g15
S'\x00\x00\x00\x00\x00\x00\xf8\xff'
p5696
tp5697
Rp5698
sg21
g11
(g15
S'\x00\x00\x00\x00\x00@e@'
p5699
tp5700
Rp5701
sg98
g106
sg25
g26
sg36
(dp5702
g21
g5701
sg42
g11
(g15
S'\xc3\xec\x93\xfe{3\xe2?'
p5703
tp5704
Rp5705
sg98
g106
sg274
g11
(g30
S'\x02\x00\x00\x00\x00\x00\x00\x00'
p5706
tp5707
Rp5708
ssg46
g11
(g12
(S'S3'
p5709
I0
I1
tp5710
Rp5711
(I3
S'|'
p5712
NNNI3
I1
I0
tp5713
bS'PCA'
p5714
tp5715
Rp5716
sg55
F0.2
sg56
g11
(g12
(S'S8'
p5717
I0
I1
tp5718
Rp5719
(I3
S'|'
p5720
NNNI8
I1
I0
tp5721
bS'haralick'
p5722
tp5723
Rp5724
sg274
g5708
sg65
g11
(g15
S'\xd5\x11}]\xe5\xb8\xf5?'
p5725
tp5726
Rp5727
sg69
g11
(g12
(S'S2'
p5728
I0
I1
tp5729
Rp5730
(I3
S'|'
p5731
NNNI2
I1
I0
tp5732
bS'RF'
p5733
tp5734
Rp5735
sg78
I3
sg42
g5705
sg79
g80
sg81
g11
(g15
S'(?/\xaa\xc5\xc2\xe4?'
p5736
tp5737
Rp5738
sg85
g86
sg87
g88
sbag4
(g5
g6
Ntp5739
Rp5740
(dp5741
g10
g11
(g15
S'\x00\x00\x00\x00\x00\x00\xf8\xff'
p5742
tp5743
Rp5744
sg98
g197
sg25
g26
sg36
(dp5745
g98
g197
sg148
g11
(g15
S'\xe6\x8e\xa0X\xbf$F@'
p5746
tp5747
Rp5748
sg152
g11
(g15
S';\x12\x8e\x07\xe6\xc1\x1e@'
p5749
tp5750
Rp5751
ssg46
g11
(g12
(S'S3'
p5752
I0
I1
tp5753
Rp5754
(I3
S'|'
p5755
NNNI3
I1
I0
tp5756
bS'PCA'
p5757
tp5758
Rp5759
sg55
F0.2
sg152
g5751
sg56
g11
(g12
(S'S3'
p5760
I0
I1
tp5761
Rp5762
(I3
S'|'
p5763
NNNI3
I1
I0
tp5764
bS'VGG'
p5765
tp5766
Rp5767
sg148
g5748
sg65
g11
(g15
S"\xff'\xb6\x86\xa7\xb4\xf0?"
p5768
tp5769
Rp5770
sg69
g11
(g12
(S'S3'
p5771
I0
I1
tp5772
Rp5773
(I3
S'|'
p5774
NNNI3
I1
I0
tp5775
bS'SVM'
p5776
tp5777
Rp5778
sg78
I3
sg79
g80
sg81
g11
(g15
S'\xcb\xd7\xfes\xd3\xf1\xdc?'
p5779
tp5780
Rp5781
sg85
g86
sg87
g88
sbag4
(g5
g6
Ntp5782
Rp5783
(dp5784
g10
g11
(g15
S'\x00\x00\x00\x00\x00\x00\xf8\xff'
p5785
tp5786
Rp5787
sg21
g11
(g15
S'\x00\x00\x00\x00\x00@Z@'
p5788
tp5789
Rp5790
sg98
g106
sg25
g26
sg36
(dp5791
g21
g5790
sg42
g11
(g15
S'A,l\x88fl\xe6?'
p5792
tp5793
Rp5794
sg98
g106
sg274
g11
(g30
S'\x02\x00\x00\x00\x00\x00\x00\x00'
p5795
tp5796
Rp5797
ssg46
g11
(g12
(S'S3'
p5798
I0
I1
tp5799
Rp5800
(I3
S'|'
p5801
NNNI3
I1
I0
tp5802
bS'PCA'
p5803
tp5804
Rp5805
sg55
F0.2
sg56
g11
(g12
(S'S8'
p5806
I0
I1
tp5807
Rp5808
(I3
S'|'
p5809
NNNI8
I1
I0
tp5810
bS'haralick'
p5811
tp5812
Rp5813
sg274
g5797
sg65
g11
(g15
S'\x9f\xb0\x87\x93\xe1\xdb\xf6?'
p5814
tp5815
Rp5816
sg69
g11
(g12
(S'S2'
p5817
I0
I1
tp5818
Rp5819
(I3
S'|'
p5820
NNNI2
I1
I0
tp5821
bS'RF'
p5822
tp5823
Rp5824
sg78
I3
sg42
g5794
sg79
g80
sg81
g11
(g15
S'(?/\xaa\xc5\xc2\xe4?'
p5825
tp5826
Rp5827
sg85
g86
sg87
g88
sbag4
(g5
g6
Ntp5828
Rp5829
(dp5830
g10
g11
(g15
S'\x00\x00\x00\x00\x00\x00\xf8\xff'
p5831
tp5832
Rp5833
sg21
g11
(g15
S'\x00\x00\x00\x00\x00@R@'
p5834
tp5835
Rp5836
sg98
g106
sg25
g26
sg36
(dp5837
g21
g5836
sg42
g11
(g15
S'\x8dn6&\x05\x03\xe2?'
p5838
tp5839
Rp5840
sg98
g106
ssg46
g11
(g12
(S'S3'
p5841
I0
I1
tp5842
Rp5843
(I3
S'|'
p5844
NNNI3
I1
I0
tp5845
bS'PCA'
p5846
tp5847
Rp5848
sg55
F0.2
sg56
g11
(g12
(S'S9'
p5849
I0
I1
tp5850
Rp5851
(I3
S'|'
p5852
NNNI9
I1
I0
tp5853
bS'inception'
p5854
tp5855
Rp5856
sg65
g11
(g15
S'\x88\xe8\xc5\xea\xaa\xc5\xf6?'
p5857
tp5858
Rp5859
sg69
g11
(g12
(S'S2'
p5860
I0
I1
tp5861
Rp5862
(I3
S'|'
p5863
NNNI2
I1
I0
tp5864
bS'RF'
p5865
tp5866
Rp5867
sg78
I3
sg42
g5840
sg79
g80
sg81
g11
(g15
S'+!XR\x96\xb7\xe0?'
p5868
tp5869
Rp5870
sg85
g86
sg87
g88
sbag4
(g5
g6
Ntp5871
Rp5872
(dp5873
g10
g11
(g15
S'\x00\x00\x00\x00\x00\x00\xf8\xff'
p5874
tp5875
Rp5876
sg27
g11
(g30
S'\x04\x00\x00\x00\x00\x00\x00\x00'
p5877
tp5878
Rp5879
sg25
g26
sg36
(dp5880
g27
g5879
sg148
g11
(g15
S'\xed\xe2D(\xbc\x9fR@'
p5881
tp5882
Rp5883
sg38
g11
(g30
S'\x03\x00\x00\x00\x00\x00\x00\x00'
p5884
tp5885
Rp5886
sg152
g11
(g15
S'\x90\xfa\x1d\xce\x15s\x02@'
p5887
tp5888
Rp5889
ssg152
g5889
sg46
g11
(g12
(S'S6'
p5890
I0
I1
tp5891
Rp5892
(I3
S'|'
p5893
NNNI6
I1
I0
tp5894
bS'ISOMAP'
p5895
tp5896
Rp5897
sg55
F0.2
sg38
g5886
sg56
g11
(g12
(S'S9'
p5898
I0
I1
tp5899
Rp5900
(I3
S'|'
p5901
NNNI9
I1
I0
tp5902
bS'inception'
p5903
tp5904
Rp5905
sg148
g5883
sg65
g11
(g15
S';*\x97l)O\xf0?'
p5906
tp5907
Rp5908
sg69
g11
(g12
(S'S3'
p5909
I0
I1
tp5910
Rp5911
(I3
S'|'
p5912
NNNI3
I1
I0
tp5913
bS'SVM'
p5914
tp5915
Rp5916
sg78
I3
sg79
g80
sg81
g11
(g15
S'\xf3\x92t\x19\x08\xd4\xdf?'
p5917
tp5918
Rp5919
sg85
g86
sg87
g88
sbasS'error_curve'
p5920
(lp5921
g68
ag129
ag129
ag129
ag129
ag129
ag129
ag129
ag129
ag129
ag129
ag129
ag129
ag129
ag129
ag129
ag129
ag129
ag129
ag129
ag129
ag129
ag129
ag129
ag129
ag129
ag129
ag129
ag129
ag129
ag129
ag129
ag129
ag129
ag129
ag129
ag129
ag129
ag129
ag129
ag129
ag129
ag174
ag174
ag174
ag174
ag174
ag174
ag174
ag174
ag174
ag174
ag174
ag174
ag174
ag174
ag174
ag174
ag174
ag174
ag174
ag174
ag174
ag174
ag174
ag174
ag174
ag174
ag174
ag174
ag174
ag220
ag220
ag220
ag220
ag220
ag220
ag220
ag220
ag220
ag220
ag220
ag220
ag220
ag220
ag220
ag220
ag220
ag220
ag220
ag220
ag220
ag220
ag220
ag220
ag220
ag220
ag220
ag220
ag220
ag220
ag220
ag220
ag220
ag220
ag220
ag220
ag220
ag220
ag220
ag220
ag220
ag220
ag220
ag220
ag220
ag220
ag220
ag220
ag220
ag220
ag220
ag220
ag220
asS'iters'
p5922
I51
sg25
g26
sS'results_loc'
p5923
S'/gpfs/u/home/CGHI/CGHIarch/barn/EP_project/results/'
p5924
sS'times'
p5925
(lp5926
F366.2635610103607
aF668.4277231693268
aF668.636871099472
aF692.4040760993958
aF717.8161091804504
aF720.0672221183777
aF721.0482630729675
aF721.2359249591827
aF724.0095591545105
aF725.9876101016998
aF727.3066880702972
aF752.4215130805969
aF775.4846711158752
aF775.6767461299896
aF775.8594350814819
aF776.3038830757141
aF798.8060321807861
aF801.3783349990845
aF827.175733089447
aF829.6527001857758
aF831.3658320903778
aF833.4775969982147
aF856.22958111763
aF878.645651102066
aF879.4834711551666
aF879.6868550777435
aF881.2980880737305
aF881.4804470539093
aF881.6947190761566
aF882.1350371837616
aF882.686900138855
aF883.1332900524139
aF905.1581461429596
aF905.6179730892181
aF907.6063749790192
aF932.8254339694977
aF933.4062621593475
aF934.9752621650696
aF961.3084681034088
aF962.5430450439453
aF962.7573111057281
aF985.002191066742
aF985.1843371391296
aF986.0285851955414
aF1007.7617630958557
aF1008.4728469848633
aF1033.2986240386963
aF1033.8789851665497
aF1034.4514451026917
aF1056.0437231063843
aF1056.5197010040283
aF1079.0582661628723
aF1079.5017659664154
aF1079.9818391799927
aF1080.4615721702576
aF1080.9138560295105
aF1102.835088968277
aF1104.9186279773712
aF1105.0971100330353
aF1127.5825281143188
aF1128.165449142456
aF1129.4288091659546
aF1129.6099030971527
aF1130.3524451255798
aF1130.9588100910187
aF1131.4268910884857
aF1132.6374039649963
aF1134.7352290153503
aF1156.8334121704102
aF1158.8758749961853
aF1159.0658230781555
aF1161.9226760864258
aF1162.8787291049957
aF1163.0933530330658
aF1184.7509150505066
aF1209.3144340515137
aF1231.6558380126953
aF1231.846619129181
aF1253.1346969604492
aF1253.6098551750183
aF1254.181193113327
aF1276.141223192215
aF1277.653659105301
aF1298.9408931732178
aF1299.9523010253906
aF1300.5625100135803
aF1302.715094089508
aF1302.9364440441132
aF1304.9434971809387
aF1327.1795120239258
aF1327.6533970832825
aF1328.257446050644
aF1330.0991370677948
aF1353.2388060092926
aF1380.3486151695251
aF1404.552208185196
aF1407.1673440933228
aF1407.6284849643707
aF1408.091789007187
aF1430.950875043869
aF1454.7032170295715
aF1477.7035691738129
aF1478.138333082199
aF1480.6791529655457
aF1502.4837090969086
aF1524.6988241672516
aF1524.9124941825867
aF1525.5003430843353
aF1525.9565060138702
aF1526.6574499607086
aF1529.443605184555
aF1550.9640481472015
aF1553.528398990631
aF1553.716567993164
aF1553.9408869743347
aF1554.1515181064606
aF1555.7470309734344
aF1579.111911058426
aF1581.5395691394806
aF1604.1803619861603
aF1604.4059691429138
aF1627.8964211940765
aF1628.6076560020447
aF1629.069431066513
asS'data_loc'
p5927
g88
sS'run'
p5928
I1
sg85
S'random_MCMC'
p5929
sb.