(iprototypes.random_based_mcmc1
random_MCMC
p0
(dp1
S'best_pipelines'
p2
(lp3
ccopy_reg
_reconstructor
p4
(cprototypes.data_analytic_pipeline
image_classification_pipeline
p5
c__builtin__
object
p6
Ntp7
Rp8
(dp9
S'f1_score'
p10
cnumpy.core.multiarray
scalar
p11
(cnumpy
dtype
p12
(S'f8'
p13
I0
I1
tp14
Rp15
(I3
S'<'
p16
NNNI-1
I-1
I0
tp17
bS'\x00\x00\x00\x00\x00\x00\xf8\xff'
p18
tp19
Rp20
sS'n_neighbors'
p21
g11
(g12
(S'i8'
p22
I0
I1
tp23
Rp24
(I3
S'<'
p25
NNNI-1
I-1
I0
tp26
bS'\x04\x00\x00\x00\x00\x00\x00\x00'
p27
tp28
Rp29
sS'data_name'
p30
S'matsc_dataset2'
p31
sS'kwargs'
p32
(dp33
g21
g29
sS'svm_C'
p34
g11
(g15
S'u\x99\xc3\xa3b\xf1L@'
p35
tp36
Rp37
sS'haralick_distance'
p38
g11
(g24
S'\x03\x00\x00\x00\x00\x00\x00\x00'
p39
tp40
Rp41
sS'n_components'
p42
g11
(g24
S'\x02\x00\x00\x00\x00\x00\x00\x00'
p43
tp44
Rp45
sS'svm_gamma'
p46
g11
(g15
S'\xd7\xdcNe\xf4\xeb\x12@'
p47
tp48
Rp49
ssg46
g49
sS'dimensionality_reduction'
p50
g11
(g12
(S'S6'
p51
I0
I1
tp52
Rp53
(I3
S'|'
p54
NNNI6
I1
I0
tp55
bS'ISOMAP'
p56
tp57
Rp58
sS'test_size'
p59
F0.2
sg42
g45
sS'feature_extraction'
p60
g11
(g12
(S'S8'
p61
I0
I1
tp62
Rp63
(I3
S'|'
p64
NNNI8
I1
I0
tp65
bS'haralick'
p66
tp67
Rp68
sg34
g37
sg38
g41
sS'result'
p69
g11
(g15
S'/=\x10G\x07\xd6\xd1?'
p70
tp71
Rp72
sS'learning_algorithm'
p73
g11
(g12
(S'S3'
p74
I0
I1
tp75
Rp76
(I3
S'|'
p77
NNNI3
I1
I0
tp78
bS'SVM'
p79
tp80
Rp81
sS'val_splits'
p82
I3
sS'ml_type'
p83
S'validation'
p84
sS'accuracy'
p85
g11
(g15
S'\xe8\x87\x07\xcdu^\xea?'
p86
tp87
Rp88
sS'type1'
p89
S'random1'
p90
sS'data_location'
p91
S'/gpfs/u/home/CGHI/CGHIarch/barn/EP_project/data/'
p92
sbag4
(g5
g6
Ntp93
Rp94
(dp95
g10
g11
(g15
S'\x00\x00\x00\x00\x00\x00\xf8\xff'
p96
tp97
Rp98
sS'pca_whiten'
p99
g11
(g12
(S'b1'
p100
I0
I1
tp101
Rp102
(I3
S'|'
p103
NNNI-1
I-1
I0
tp104
bS'\x00'
p105
tp106
Rp107
sg30
g31
sg32
(dp108
g99
g107
sg34
g11
(g15
S'\xc3\xed\xa0\xa3}\x16S@'
p109
tp110
Rp111
sg38
g11
(g24
S'\x02\x00\x00\x00\x00\x00\x00\x00'
p112
tp113
Rp114
sg46
g11
(g15
S'n\xe6\x04\xf0\x1a"\x0c@'
p115
tp116
Rp117
ssg50
g11
(g12
(S'S3'
p118
I0
I1
tp119
Rp120
(I3
S'|'
p121
NNNI3
I1
I0
tp122
bS'PCA'
p123
tp124
Rp125
sg59
F0.2
sg46
g117
sg60
g11
(g12
(S'S8'
p126
I0
I1
tp127
Rp128
(I3
S'|'
p129
NNNI8
I1
I0
tp130
bS'haralick'
p131
tp132
Rp133
sg34
g111
sg38
g114
sg69
g11
(g15
S'\x81sk\xac\xb9\xd6\xd0?'
p134
tp135
Rp136
sg73
g11
(g12
(S'S3'
p137
I0
I1
tp138
Rp139
(I3
S'|'
p140
NNNI3
I1
I0
tp141
bS'SVM'
p142
tp143
Rp144
sg82
I3
sg83
g84
sg85
g11
(g15
S'\xd1\x82\x85\xf7\xd1F\xec?'
p145
tp146
Rp147
sg89
g90
sg91
g92
sbag4
(g5
g6
Ntp148
Rp149
(dp150
g10
g11
(g15
S'\x00\x00\x00\x00\x00\x00\xf8\xff'
p151
tp152
Rp153
sS'n_estimators'
p154
g11
(g15
S'\x00\x00\x00\x00\x00\xc0r@'
p155
tp156
Rp157
sg99
g11
(g102
S'\x01'
p158
tp159
Rp160
sg30
g31
sg32
(dp161
g154
g157
sS'max_features'
p162
g11
(g15
S'\x00s*`\xa2\xf6\xe0?'
p163
tp164
Rp165
sg99
g160
ssg50
g11
(g12
(S'S3'
p166
I0
I1
tp167
Rp168
(I3
S'|'
p169
NNNI3
I1
I0
tp170
bS'PCA'
p171
tp172
Rp173
sg59
F0.2
sg60
g11
(g12
(S'S3'
p174
I0
I1
tp175
Rp176
(I3
S'|'
p177
NNNI3
I1
I0
tp178
bS'VGG'
p179
tp180
Rp181
sg69
g11
(g15
S'\xb8\x0b\xec6\n`\xcf?'
p182
tp183
Rp184
sg73
g11
(g12
(S'S2'
p185
I0
I1
tp186
Rp187
(I3
S'|'
p188
NNNI2
I1
I0
tp189
bS'RF'
p190
tp191
Rp192
sg82
I3
sg162
g165
sg83
g84
sg85
g11
(g15
S'\x93E\x81`\xf5\xe8\xed?'
p193
tp194
Rp195
sg89
g90
sg91
g92
sbag4
(g5
g6
Ntp196
Rp197
(dp198
g10
g11
(g15
S'\x00\x00\x00\x00\x00\x00\xf8\xff'
p199
tp200
Rp201
sg154
g11
(g15
S'\x00\x00\x00\x00\x00\xc0p@'
p202
tp203
Rp204
sg30
g31
sg21
g11
(g24
S'\x07\x00\x00\x00\x00\x00\x00\x00'
p205
tp206
Rp207
sg32
(dp208
g154
g204
sg21
g207
sg42
g11
(g24
S'\x04\x00\x00\x00\x00\x00\x00\x00'
p209
tp210
Rp211
sg162
g11
(g15
S'\xca\x12\xb8O\x94\x8b\xe6?'
p212
tp213
Rp214
ssg50
g11
(g12
(S'S6'
p215
I0
I1
tp216
Rp217
(I3
S'|'
p218
NNNI6
I1
I0
tp219
bS'ISOMAP'
p220
tp221
Rp222
sg59
F0.2
sg42
g211
sg60
g11
(g12
(S'S3'
p223
I0
I1
tp224
Rp225
(I3
S'|'
p226
NNNI3
I1
I0
tp227
bS'VGG'
p228
tp229
Rp230
sg69
g11
(g15
S'):\xd3t\xecp\xc5?'
p231
tp232
Rp233
sg73
g11
(g12
(S'S2'
p234
I0
I1
tp235
Rp236
(I3
S'|'
p237
NNNI2
I1
I0
tp238
bS'RF'
p239
tp240
Rp241
sg82
I3
sg162
g214
sg83
g84
sg85
g11
(g15
S'\xed\xcc\xff\x13k\xd1\xed?'
p242
tp243
Rp244
sg89
g90
sg91
g92
sbasS'paths'
p245
(lp246
(lp247
S'VGG'
p248
aS'PCA'
p249
aS'SVM'
p250
aa(lp251
g248
ag249
aS'RF'
p252
aa(lp253
g248
aS'ISOMAP'
p254
ag250
aa(lp255
g248
ag254
ag252
aa(lp256
S'haralick'
p257
ag249
ag250
aa(lp258
g257
ag249
ag252
aa(lp259
g257
ag254
ag250
aa(lp260
g257
ag254
ag252
aa(lp261
S'inception'
p262
ag249
ag250
aa(lp263
g262
ag249
ag252
aa(lp264
g262
ag254
ag250
aa(lp265
g262
ag254
ag252
aasS'pipeline'
p266
(dp267
g21
(lp268
I3
aI4
aI5
aI6
aI7
asg99
(lp269
I01
aI00
asg154
cnumpy.core.multiarray
_reconstruct
p270
(cnumpy
ndarray
p271
(I0
tp272
S'b'
p273
tp274
Rp275
(I1
(I10
tp276
g15
I00
S'\x00\x00\x00\x00\x00\x00 @\x00\x00\x00\x00\x00\x00D@\x00\x00\x00\x00\x00@R@\x00\x00\x00\x00\x00@Z@\x00\x00\x00\x00\x00@a@\x00\x00\x00\x00\x00@e@\x00\x00\x00\x00\x00`i@\x00\x00\x00\x00\x00`m@\x00\x00\x00\x00\x00\xc0p@\x00\x00\x00\x00\x00\xc0r@'
p277
tp278
bsg50
(lp279
g249
ag254
asg46
g270
(g271
(I0
tp280
g273
tp281
Rp282
(I1
(I10
tp283
g15
I00
S"{\x14\xaeG\xe1z\x84?\x102Tv\x98\xba\xec?\xe7\xd5\xc4\xb3\xa2\x91\xfc?b\xc9/\x96\xfcb\x05@\xd2'}\xd2'}\x0c@!Ce\x87\xa9\xcb\x11@X\xf2\x8b%\xbfX\x15@\x90\xa1\xb2\xc3\xd4\xe5\x18@\xc8P\xd9a\xear\x1c@\x00\x00\x00\x00\x00\x00 @"
p284
tp285
bsg60
(lp286
g248
ag257
ag262
asg38
(lp287
I1
aI2
aI3
asg42
(lp288
I2
aI3
aI4
asg73
(lp289
g250
ag252
asg162
g270
(g271
(I0
tp290
g273
tp291
Rp292
(I1
(I5
tp293
g15
I00
S'333333\xd3?\x9a\x99\x99\x99\x99\x99\xd9?\x00\x00\x00\x00\x00\x00\xe0?433333\xe3?hfffff\xe6?'
p294
tp295
bsg34
g270
(g271
(I0
tp296
g273
tp297
Rp298
(I1
(I10
tp299
g15
I00
S'\x9a\x99\x99\x99\x99\x99\xb9?gfffff&@\xce\xcc\xcc\xcc\xccL6@43333\xb3@@\x01\x00\x00\x00\x00@F@\xce\xcc\xcc\xcc\xcc\xccK@\xcd\xcc\xcc\xcc\xcc\xacP@43333sS@\x9a\x99\x99\x99\x999V@\x00\x00\x00\x00\x00\x00Y@'
p300
tp301
bssS'pipelines'
p302
(lp303
g8
ag94
ag149
ag4
(g5
g6
Ntp304
Rp305
(dp306
g10
g11
(g15
S'\x00\x00\x00\x00\x00\x00\xf8\xff'
p307
tp308
Rp309
sg99
g160
sg30
g31
sg32
(dp310
g99
g160
sg34
g11
(g15
S'\xea\x1d\x18\x8d/\xd7U@'
p311
tp312
Rp313
sg38
g11
(g24
S'\x03\x00\x00\x00\x00\x00\x00\x00'
p314
tp315
Rp316
sg46
g11
(g15
S';\xe9\xee\xad\xcc\xea\xef?'
p317
tp318
Rp319
ssg50
g11
(g12
(S'S3'
p320
I0
I1
tp321
Rp322
(I3
S'|'
p323
NNNI3
I1
I0
tp324
bS'PCA'
p325
tp326
Rp327
sg59
F0.2
sg46
g319
sg60
g11
(g12
(S'S8'
p328
I0
I1
tp329
Rp330
(I3
S'|'
p331
NNNI8
I1
I0
tp332
bS'haralick'
p333
tp334
Rp335
sg34
g313
sg38
g316
sg69
g11
(g15
S'\xcegf\xa1D\xda\xd0?'
p336
tp337
Rp338
sg73
g11
(g12
(S'S3'
p339
I0
I1
tp340
Rp341
(I3
S'|'
p342
NNNI3
I1
I0
tp343
bS'SVM'
p344
tp345
Rp346
sg82
I3
sg83
g84
sg85
g11
(g15
S'\xf9\x1d\x83\xe7\xd6\x17\xea?'
p347
tp348
Rp349
sg89
g90
sg91
g92
sbag4
(g5
g6
Ntp350
Rp351
(dp352
g10
g11
(g15
S'\x00\x00\x00\x00\x00\x00\xf8\xff'
p353
tp354
Rp355
sg154
g11
(g15
S'\x00\x00\x00\x00\x00`m@'
p356
tp357
Rp358
sg30
g31
sg21
g11
(g24
S'\x04\x00\x00\x00\x00\x00\x00\x00'
p359
tp360
Rp361
sg32
(dp362
g154
g358
sg21
g361
sg42
g11
(g24
S'\x04\x00\x00\x00\x00\x00\x00\x00'
p363
tp364
Rp365
sg162
g11
(g15
S'\x98\x98J\xce\xb7\xaa\xe1?'
p366
tp367
Rp368
ssg50
g11
(g12
(S'S6'
p369
I0
I1
tp370
Rp371
(I3
S'|'
p372
NNNI6
I1
I0
tp373
bS'ISOMAP'
p374
tp375
Rp376
sg59
F0.2
sg42
g365
sg60
g11
(g12
(S'S9'
p377
I0
I1
tp378
Rp379
(I3
S'|'
p380
NNNI9
I1
I0
tp381
bS'inception'
p382
tp383
Rp384
sg69
g11
(g15
S"\xd5\x13\xea'\xd1\x07\xea?"
p385
tp386
Rp387
sg73
g11
(g12
(S'S2'
p388
I0
I1
tp389
Rp390
(I3
S'|'
p391
NNNI2
I1
I0
tp392
bS'RF'
p393
tp394
Rp395
sg82
I3
sg162
g368
sg83
g84
sg85
g11
(g15
S'\x1c\xfc\x05\xa8su\xe9?'
p396
tp397
Rp398
sg89
g90
sg91
g92
sbag4
(g5
g6
Ntp399
Rp400
(dp401
g10
g11
(g15
S'\x00\x00\x00\x00\x00\x00\xf8\xff'
p402
tp403
Rp404
sg154
g11
(g15
S'\x00\x00\x00\x00\x00\x00 @'
p405
tp406
Rp407
sg99
g160
sg30
g31
sg32
(dp408
g154
g407
sg162
g11
(g15
S'\xa2pUI\x98l\xed?'
p409
tp410
Rp411
sg99
g160
ssg50
g11
(g12
(S'S3'
p412
I0
I1
tp413
Rp414
(I3
S'|'
p415
NNNI3
I1
I0
tp416
bS'PCA'
p417
tp418
Rp419
sg59
F0.2
sg60
g11
(g12
(S'S3'
p420
I0
I1
tp421
Rp422
(I3
S'|'
p423
NNNI3
I1
I0
tp424
bS'VGG'
p425
tp426
Rp427
sg69
g11
(g15
S'\x9f\xd5\xd3\xbe*\xa6\xe9?'
p428
tp429
Rp430
sg73
g11
(g12
(S'S2'
p431
I0
I1
tp432
Rp433
(I3
S'|'
p434
NNNI2
I1
I0
tp435
bS'RF'
p436
tp437
Rp438
sg82
I3
sg162
g411
sg83
g84
sg85
g11
(g15
S'\xad\x7f\x00Ntt\xed?'
p439
tp440
Rp441
sg89
g90
sg91
g92
sbag4
(g5
g6
Ntp442
Rp443
(dp444
g10
g11
(g15
S'\x00\x00\x00\x00\x00\x00\xf8\xff'
p445
tp446
Rp447
sg154
g11
(g15
S'\x00\x00\x00\x00\x00\xc0p@'
p448
tp449
Rp450
sg99
g160
sg30
g31
sg32
(dp451
g154
g450
sg162
g11
(g15
S'5\x87\x8fzo.\xd9?'
p452
tp453
Rp454
sg99
g160
sg38
g11
(g24
S'\x03\x00\x00\x00\x00\x00\x00\x00'
p455
tp456
Rp457
ssg50
g11
(g12
(S'S3'
p458
I0
I1
tp459
Rp460
(I3
S'|'
p461
NNNI3
I1
I0
tp462
bS'PCA'
p463
tp464
Rp465
sg59
F0.2
sg60
g11
(g12
(S'S8'
p466
I0
I1
tp467
Rp468
(I3
S'|'
p469
NNNI8
I1
I0
tp470
bS'haralick'
p471
tp472
Rp473
sg38
g457
sg69
g11
(g15
S'\xb9\xe0\xcd\xf1~n\xe6?'
p474
tp475
Rp476
sg73
g11
(g12
(S'S2'
p477
I0
I1
tp478
Rp479
(I3
S'|'
p480
NNNI2
I1
I0
tp481
bS'RF'
p482
tp483
Rp484
sg82
I3
sg162
g454
sg83
g84
sg85
g11
(g15
S'\xfb\x08|-0\xa2\xec?'
p485
tp486
Rp487
sg89
g90
sg91
g92
sbag4
(g5
g6
Ntp488
Rp489
(dp490
g10
g11
(g15
S'\x00\x00\x00\x00\x00\x00\xf8\xff'
p491
tp492
Rp493
sg154
g11
(g15
S'\x00\x00\x00\x00\x00\x00D@'
p494
tp495
Rp496
sg99
g107
sg30
g31
sg32
(dp497
g154
g496
sg162
g11
(g15
S'\\\x1a\xe4\x0fx\xb5\xe4?'
p498
tp499
Rp500
sg99
g107
sg38
g11
(g24
S'\x02\x00\x00\x00\x00\x00\x00\x00'
p501
tp502
Rp503
ssg50
g11
(g12
(S'S3'
p504
I0
I1
tp505
Rp506
(I3
S'|'
p507
NNNI3
I1
I0
tp508
bS'PCA'
p509
tp510
Rp511
sg59
F0.2
sg60
g11
(g12
(S'S8'
p512
I0
I1
tp513
Rp514
(I3
S'|'
p515
NNNI8
I1
I0
tp516
bS'haralick'
p517
tp518
Rp519
sg38
g503
sg69
g11
(g15
S'08\xc8\xda\x8cm\xdd?'
p520
tp521
Rp522
sg73
g11
(g12
(S'S2'
p523
I0
I1
tp524
Rp525
(I3
S'|'
p526
NNNI2
I1
I0
tp527
bS'RF'
p528
tp529
Rp530
sg82
I3
sg162
g500
sg83
g84
sg85
g11
(g15
S'\xcf8\x81%P]\xed?'
p531
tp532
Rp533
sg89
g90
sg91
g92
sbag197
ag4
(g5
g6
Ntp534
Rp535
(dp536
g10
g11
(g15
S'\x00\x00\x00\x00\x00\x00\xf8\xff'
p537
tp538
Rp539
sg154
g11
(g15
S'\x00\x00\x00\x00\x00`i@'
p540
tp541
Rp542
sg30
g31
sg21
g11
(g24
S'\x05\x00\x00\x00\x00\x00\x00\x00'
p543
tp544
Rp545
sg32
(dp546
g154
g542
sg21
g545
sg42
g11
(g24
S'\x04\x00\x00\x00\x00\x00\x00\x00'
p547
tp548
Rp549
sg162
g11
(g15
S'\xfd+\xc8>\xfc4\xe6?'
p550
tp551
Rp552
ssg50
g11
(g12
(S'S6'
p553
I0
I1
tp554
Rp555
(I3
S'|'
p556
NNNI6
I1
I0
tp557
bS'ISOMAP'
p558
tp559
Rp560
sg59
F0.2
sg42
g549
sg60
g11
(g12
(S'S9'
p561
I0
I1
tp562
Rp563
(I3
S'|'
p564
NNNI9
I1
I0
tp565
bS'inception'
p566
tp567
Rp568
sg69
g11
(g15
S'k@e\xf5C\xa2\xef?'
p569
tp570
Rp571
sg73
g11
(g12
(S'S2'
p572
I0
I1
tp573
Rp574
(I3
S'|'
p575
NNNI2
I1
I0
tp576
bS'RF'
p577
tp578
Rp579
sg82
I3
sg162
g552
sg83
g84
sg85
g11
(g15
S'=\xb5\x86\x7fO^\xe9?'
p580
tp581
Rp582
sg89
g90
sg91
g92
sbag4
(g5
g6
Ntp583
Rp584
(dp585
g10
g11
(g15
S'\x00\x00\x00\x00\x00\x00\xf8\xff'
p586
tp587
Rp588
sg99
g107
sg30
g31
sg32
(dp589
g99
g107
sg34
g11
(g15
S'\xe9\x7f\xb6\xad\xec3L@'
p590
tp591
Rp592
sg38
g11
(g24
S'\x01\x00\x00\x00\x00\x00\x00\x00'
p593
tp594
Rp595
sg46
g11
(g15
S'\x04\xd7qm\x00\x1a\x1e@'
p596
tp597
Rp598
ssg50
g11
(g12
(S'S3'
p599
I0
I1
tp600
Rp601
(I3
S'|'
p602
NNNI3
I1
I0
tp603
bS'PCA'
p604
tp605
Rp606
sg59
F0.2
sg46
g598
sg60
g11
(g12
(S'S8'
p607
I0
I1
tp608
Rp609
(I3
S'|'
p610
NNNI8
I1
I0
tp611
bS'haralick'
p612
tp613
Rp614
sg34
g592
sg38
g595
sg69
g11
(g15
S'\x10\xf4m\xfbY3\xd1?'
p615
tp616
Rp617
sg73
g11
(g12
(S'S3'
p618
I0
I1
tp619
Rp620
(I3
S'|'
p621
NNNI3
I1
I0
tp622
bS'SVM'
p623
tp624
Rp625
sg82
I3
sg83
g84
sg85
g11
(g15
S';\xb9\xf6!\xf3\x89\xea?'
p626
tp627
Rp628
sg89
g90
sg91
g92
sbag4
(g5
g6
Ntp629
Rp630
(dp631
g10
g11
(g15
S'\x00\x00\x00\x00\x00\x00\xf8\xff'
p632
tp633
Rp634
sg154
g11
(g15
S'\x00\x00\x00\x00\x00\x00D@'
p635
tp636
Rp637
sg99
g160
sg30
g31
sg32
(dp638
g154
g637
sg162
g11
(g15
S",e1'\xa0?\xee?"
p639
tp640
Rp641
sg99
g160
ssg50
g11
(g12
(S'S3'
p642
I0
I1
tp643
Rp644
(I3
S'|'
p645
NNNI3
I1
I0
tp646
bS'PCA'
p647
tp648
Rp649
sg59
F0.2
sg60
g11
(g12
(S'S3'
p650
I0
I1
tp651
Rp652
(I3
S'|'
p653
NNNI3
I1
I0
tp654
bS'VGG'
p655
tp656
Rp657
sg69
g11
(g15
S'\x80\x8cux\xa8\x01\xdc?'
p658
tp659
Rp660
sg73
g11
(g12
(S'S2'
p661
I0
I1
tp662
Rp663
(I3
S'|'
p664
NNNI2
I1
I0
tp665
bS'RF'
p666
tp667
Rp668
sg82
I3
sg162
g641
sg83
g84
sg85
g11
(g15
S'\xd5\xb7\x82\x0f\xad\xba\xed?'
p669
tp670
Rp671
sg89
g90
sg91
g92
sbag4
(g5
g6
Ntp672
Rp673
(dp674
g10
g11
(g15
S'\x00\x00\x00\x00\x00\x00\xf8\xff'
p675
tp676
Rp677
sg21
g11
(g24
S'\x07\x00\x00\x00\x00\x00\x00\x00'
p678
tp679
Rp680
sg30
g31
sg32
(dp681
g21
g680
sg34
g11
(g15
S')\xd0\x81\xfa\xe0CU@'
p682
tp683
Rp684
sg38
g11
(g24
S'\x03\x00\x00\x00\x00\x00\x00\x00'
p685
tp686
Rp687
sg42
g11
(g24
S'\x02\x00\x00\x00\x00\x00\x00\x00'
p688
tp689
Rp690
sg46
g11
(g15
S'\xa1>B\x9f`\x98\x1c@'
p691
tp692
Rp693
ssg46
g693
sg50
g11
(g12
(S'S6'
p694
I0
I1
tp695
Rp696
(I3
S'|'
p697
NNNI6
I1
I0
tp698
bS'ISOMAP'
p699
tp700
Rp701
sg59
F0.2
sg42
g690
sg60
g11
(g12
(S'S8'
p702
I0
I1
tp703
Rp704
(I3
S'|'
p705
NNNI8
I1
I0
tp706
bS'haralick'
p707
tp708
Rp709
sg34
g684
sg38
g687
sg69
g11
(g15
S')(\xe0O\x8a\x84\xd2?'
p710
tp711
Rp712
sg73
g11
(g12
(S'S3'
p713
I0
I1
tp714
Rp715
(I3
S'|'
p716
NNNI3
I1
I0
tp717
bS'SVM'
p718
tp719
Rp720
sg82
I3
sg83
g84
sg85
g11
(g15
S'\x05\xf7\x83\xd2\xcf]\xeb?'
p721
tp722
Rp723
sg89
g90
sg91
g92
sbag4
(g5
g6
Ntp724
Rp725
(dp726
g10
g11
(g15
S'\x00\x00\x00\x00\x00\x00\xf8\xff'
p727
tp728
Rp729
sg21
g11
(g24
S'\x03\x00\x00\x00\x00\x00\x00\x00'
p730
tp731
Rp732
sg30
g31
sg32
(dp733
g21
g732
sg34
g11
(g15
S'\x8f\xd1\x1d\x03\xf3\xa0F@'
p734
tp735
Rp736
sg38
g11
(g24
S'\x01\x00\x00\x00\x00\x00\x00\x00'
p737
tp738
Rp739
sg42
g11
(g24
S'\x04\x00\x00\x00\x00\x00\x00\x00'
p740
tp741
Rp742
sg46
g11
(g15
S'fi\x13G\x87\x12\x1c@'
p743
tp744
Rp745
ssg46
g745
sg50
g11
(g12
(S'S6'
p746
I0
I1
tp747
Rp748
(I3
S'|'
p749
NNNI6
I1
I0
tp750
bS'ISOMAP'
p751
tp752
Rp753
sg59
F0.2
sg42
g742
sg60
g11
(g12
(S'S8'
p754
I0
I1
tp755
Rp756
(I3
S'|'
p757
NNNI8
I1
I0
tp758
bS'haralick'
p759
tp760
Rp761
sg34
g736
sg38
g739
sg69
g11
(g15
S'+P\xcd\x0b\xb9\x0f\xd1?'
p762
tp763
Rp764
sg73
g11
(g12
(S'S3'
p765
I0
I1
tp766
Rp767
(I3
S'|'
p768
NNNI3
I1
I0
tp769
bS'SVM'
p770
tp771
Rp772
sg82
I3
sg83
g84
sg85
g11
(g15
S'wI{\xb8\x81s\xec?'
p773
tp774
Rp775
sg89
g90
sg91
g92
sbag4
(g5
g6
Ntp776
Rp777
(dp778
g10
g11
(g15
S'\x00\x00\x00\x00\x00\x00\xf8\xff'
p779
tp780
Rp781
sg154
g11
(g15
S'\x00\x00\x00\x00\x00@R@'
p782
tp783
Rp784
sg30
g31
sg21
g11
(g24
S'\x05\x00\x00\x00\x00\x00\x00\x00'
p785
tp786
Rp787
sg32
(dp788
g154
g784
sg21
g787
sg42
g11
(g24
S'\x04\x00\x00\x00\x00\x00\x00\x00'
p789
tp790
Rp791
sg162
g11
(g15
S'\xee\xa7|\xe5\xb0(\xe7?'
p792
tp793
Rp794
ssg50
g11
(g12
(S'S6'
p795
I0
I1
tp796
Rp797
(I3
S'|'
p798
NNNI6
I1
I0
tp799
bS'ISOMAP'
p800
tp801
Rp802
sg59
F0.2
sg42
g791
sg60
g11
(g12
(S'S9'
p803
I0
I1
tp804
Rp805
(I3
S'|'
p806
NNNI9
I1
I0
tp807
bS'inception'
p808
tp809
Rp810
sg69
g11
(g15
S'\xfd\xcaWa\x04\xe5\xec?'
p811
tp812
Rp813
sg73
g11
(g12
(S'S2'
p814
I0
I1
tp815
Rp816
(I3
S'|'
p817
NNNI2
I1
I0
tp818
bS'RF'
p819
tp820
Rp821
sg82
I3
sg162
g794
sg83
g84
sg85
g11
(g15
S'\xbb\xf5\x85\n\xa1/\xe9?'
p822
tp823
Rp824
sg89
g90
sg91
g92
sbag4
(g5
g6
Ntp825
Rp826
(dp827
g10
g11
(g15
S'\x00\x00\x00\x00\x00\x00\xf8\xff'
p828
tp829
Rp830
sg21
g11
(g24
S'\x06\x00\x00\x00\x00\x00\x00\x00'
p831
tp832
Rp833
sg30
g31
sg32
(dp834
g21
g833
sg34
g11
(g15
S'\xb3x\xb96\xee\xb6S@'
p835
tp836
Rp837
sg42
g11
(g24
S'\x03\x00\x00\x00\x00\x00\x00\x00'
p838
tp839
Rp840
sg46
g11
(g15
S'7lx\xf8O\xee\x11@'
p841
tp842
Rp843
ssg46
g843
sg50
g11
(g12
(S'S6'
p844
I0
I1
tp845
Rp846
(I3
S'|'
p847
NNNI6
I1
I0
tp848
bS'ISOMAP'
p849
tp850
Rp851
sg59
F0.2
sg42
g840
sg60
g11
(g12
(S'S9'
p852
I0
I1
tp853
Rp854
(I3
S'|'
p855
NNNI9
I1
I0
tp856
bS'inception'
p857
tp858
Rp859
sg34
g837
sg69
g11
(g15
S'us\x81^\x0c\x7f\xd4?'
p860
tp861
Rp862
sg73
g11
(g12
(S'S3'
p863
I0
I1
tp864
Rp865
(I3
S'|'
p866
NNNI3
I1
I0
tp867
bS'SVM'
p868
tp869
Rp870
sg82
I3
sg83
g84
sg85
g11
(g15
S'\xbc.\xf3\xc4\x1f\xcf\xe3?'
p871
tp872
Rp873
sg89
g90
sg91
g92
sbag4
(g5
g6
Ntp874
Rp875
(dp876
g10
g11
(g15
S'\x00\x00\x00\x00\x00\x00\xf8\xff'
p877
tp878
Rp879
sg99
g160
sg30
g31
sg32
(dp880
g99
g160
sg34
g11
(g15
S'r\xf3\xc4E\x00\xbb@@'
p881
tp882
Rp883
sg46
g11
(g15
S'\xb8\x07\x1evW\xbd\x19@'
p884
tp885
Rp886
ssg50
g11
(g12
(S'S3'
p887
I0
I1
tp888
Rp889
(I3
S'|'
p890
NNNI3
I1
I0
tp891
bS'PCA'
p892
tp893
Rp894
sg59
F0.2
sg46
g886
sg60
g11
(g12
(S'S3'
p895
I0
I1
tp896
Rp897
(I3
S'|'
p898
NNNI3
I1
I0
tp899
bS'VGG'
p900
tp901
Rp902
sg34
g883
sg69
g11
(g15
S'A\x16\x10\x92\x81\xaf\xd0?'
p903
tp904
Rp905
sg73
g11
(g12
(S'S3'
p906
I0
I1
tp907
Rp908
(I3
S'|'
p909
NNNI3
I1
I0
tp910
bS'SVM'
p911
tp912
Rp913
sg82
I3
sg83
g84
sg85
g11
(g15
S'\x0b,\x81\xea\xaa\xd1\xec?'
p914
tp915
Rp916
sg89
g90
sg91
g92
sbag4
(g5
g6
Ntp917
Rp918
(dp919
g10
g11
(g15
S'\x00\x00\x00\x00\x00\x00\xf8\xff'
p920
tp921
Rp922
sg21
g11
(g24
S'\x05\x00\x00\x00\x00\x00\x00\x00'
p923
tp924
Rp925
sg30
g31
sg32
(dp926
g21
g925
sg34
g11
(g15
S'h\xca\xc4\xb9\x06=K@'
p927
tp928
Rp929
sg42
g11
(g24
S'\x02\x00\x00\x00\x00\x00\x00\x00'
p930
tp931
Rp932
sg46
g11
(g15
S'h\x820\xb4d\n\x14@'
p933
tp934
Rp935
ssg46
g935
sg50
g11
(g12
(S'S6'
p936
I0
I1
tp937
Rp938
(I3
S'|'
p939
NNNI6
I1
I0
tp940
bS'ISOMAP'
p941
tp942
Rp943
sg59
F0.2
sg42
g932
sg60
g11
(g12
(S'S9'
p944
I0
I1
tp945
Rp946
(I3
S'|'
p947
NNNI9
I1
I0
tp948
bS'inception'
p949
tp950
Rp951
sg34
g929
sg69
g11
(g15
S'\xab\x8e\x8db\xbeJ\xd4?'
p952
tp953
Rp954
sg73
g11
(g12
(S'S3'
p955
I0
I1
tp956
Rp957
(I3
S'|'
p958
NNNI3
I1
I0
tp959
bS'SVM'
p960
tp961
Rp962
sg82
I3
sg83
g84
sg85
g11
(g15
S'\xd13u\x9a\xc3\xe6\xe1?'
p963
tp964
Rp965
sg89
g90
sg91
g92
sbag4
(g5
g6
Ntp966
Rp967
(dp968
g10
g11
(g15
S'\x00\x00\x00\x00\x00\x00\xf8\xff'
p969
tp970
Rp971
sg99
g107
sg30
g31
sg32
(dp972
g99
g107
sg34
g11
(g15
S'J\xf9H\x0fbnR@'
p973
tp974
Rp975
sg46
g11
(g15
S'I%\xcc\xee\x7fU\xf6?'
p976
tp977
Rp978
ssg50
g11
(g12
(S'S3'
p979
I0
I1
tp980
Rp981
(I3
S'|'
p982
NNNI3
I1
I0
tp983
bS'PCA'
p984
tp985
Rp986
sg59
F0.2
sg46
g978
sg60
g11
(g12
(S'S9'
p987
I0
I1
tp988
Rp989
(I3
S'|'
p990
NNNI9
I1
I0
tp991
bS'inception'
p992
tp993
Rp994
sg34
g975
sg69
g11
(g15
S'a\x90^m\xdd\x88\xd4?'
p995
tp996
Rp997
sg73
g11
(g12
(S'S3'
p998
I0
I1
tp999
Rp1000
(I3
S'|'
p1001
NNNI3
I1
I0
tp1002
bS'SVM'
p1003
tp1004
Rp1005
sg82
I3
sg83
g84
sg85
g11
(g15
S'\x83\x9a\xfe\x8b\xed\xb9\xe8?'
p1006
tp1007
Rp1008
sg89
g90
sg91
g92
sbag4
(g5
g6
Ntp1009
Rp1010
(dp1011
g10
g11
(g15
S'\x00\x00\x00\x00\x00\x00\xf8\xff'
p1012
tp1013
Rp1014
sg99
g160
sg30
g31
sg32
(dp1015
g99
g160
sg34
g11
(g15
S'*\xc8VL8\x8dX@'
p1016
tp1017
Rp1018
sg46
g11
(g15
S'\x10\x11\xec\xd2\x0b\x93\x0c@'
p1019
tp1020
Rp1021
ssg50
g11
(g12
(S'S3'
p1022
I0
I1
tp1023
Rp1024
(I3
S'|'
p1025
NNNI3
I1
I0
tp1026
bS'PCA'
p1027
tp1028
Rp1029
sg59
F0.2
sg46
g1021
sg60
g11
(g12
(S'S3'
p1030
I0
I1
tp1031
Rp1032
(I3
S'|'
p1033
NNNI3
I1
I0
tp1034
bS'VGG'
p1035
tp1036
Rp1037
sg34
g1018
sg69
g11
(g15
S'\xf9$\x8aS\xdd\x04\xcf?'
p1038
tp1039
Rp1040
sg73
g11
(g12
(S'S3'
p1041
I0
I1
tp1042
Rp1043
(I3
S'|'
p1044
NNNI3
I1
I0
tp1045
bS'SVM'
p1046
tp1047
Rp1048
sg82
I3
sg83
g84
sg85
g11
(g15
S'\x0b,\x81\xea\xaa\xd1\xec?'
p1049
tp1050
Rp1051
sg89
g90
sg91
g92
sbag4
(g5
g6
Ntp1052
Rp1053
(dp1054
g10
g11
(g15
S'\x00\x00\x00\x00\x00\x00\xf8\xff'
p1055
tp1056
Rp1057
sg154
g11
(g15
S'\x00\x00\x00\x00\x00@R@'
p1058
tp1059
Rp1060
sg99
g160
sg30
g31
sg32
(dp1061
g154
g1060
sg162
g11
(g15
S'\xa6\xf7\x18M\xdb\xb7\xe3?'
p1062
tp1063
Rp1064
sg99
g160
sg38
g11
(g24
S'\x03\x00\x00\x00\x00\x00\x00\x00'
p1065
tp1066
Rp1067
ssg50
g11
(g12
(S'S3'
p1068
I0
I1
tp1069
Rp1070
(I3
S'|'
p1071
NNNI3
I1
I0
tp1072
bS'PCA'
p1073
tp1074
Rp1075
sg59
F0.2
sg60
g11
(g12
(S'S8'
p1076
I0
I1
tp1077
Rp1078
(I3
S'|'
p1079
NNNI8
I1
I0
tp1080
bS'haralick'
p1081
tp1082
Rp1083
sg38
g1067
sg69
g11
(g15
S'\xb4\xeb\xbd\xd2\xe0*\xe9?'
p1084
tp1085
Rp1086
sg73
g11
(g12
(S'S2'
p1087
I0
I1
tp1088
Rp1089
(I3
S'|'
p1090
NNNI2
I1
I0
tp1091
bS'RF'
p1092
tp1093
Rp1094
sg82
I3
sg162
g1064
sg83
g84
sg85
g11
(g15
S'\x97\xdd\xf9\xa6\x9c\xe7\xec?'
p1095
tp1096
Rp1097
sg89
g90
sg91
g92
sbag4
(g5
g6
Ntp1098
Rp1099
(dp1100
g10
g11
(g15
S'\x00\x00\x00\x00\x00\x00\xf8\xff'
p1101
tp1102
Rp1103
sg21
g11
(g24
S'\x06\x00\x00\x00\x00\x00\x00\x00'
p1104
tp1105
Rp1106
sg30
g31
sg32
(dp1107
g21
g1106
sg34
g11
(g15
S'~\xba\x81s\x83\xbe<@'
p1108
tp1109
Rp1110
sg42
g11
(g24
S'\x04\x00\x00\x00\x00\x00\x00\x00'
p1111
tp1112
Rp1113
sg46
g11
(g15
S',7\\\xcc.\xdc\x02@'
p1114
tp1115
Rp1116
ssg46
g1116
sg50
g11
(g12
(S'S6'
p1117
I0
I1
tp1118
Rp1119
(I3
S'|'
p1120
NNNI6
I1
I0
tp1121
bS'ISOMAP'
p1122
tp1123
Rp1124
sg59
F0.2
sg42
g1113
sg60
g11
(g12
(S'S3'
p1125
I0
I1
tp1126
Rp1127
(I3
S'|'
p1128
NNNI3
I1
I0
tp1129
bS'VGG'
p1130
tp1131
Rp1132
sg34
g1110
sg69
g11
(g15
S'\xf3Lc\r\x9c\xaf\xcf?'
p1133
tp1134
Rp1135
sg73
g11
(g12
(S'S3'
p1136
I0
I1
tp1137
Rp1138
(I3
S'|'
p1139
NNNI3
I1
I0
tp1140
bS'SVM'
p1141
tp1142
Rp1143
sg82
I3
sg83
g84
sg85
g11
(g15
S'\x83"|\xa3z\xb9\xed?'
p1144
tp1145
Rp1146
sg89
g90
sg91
g92
sbag4
(g5
g6
Ntp1147
Rp1148
(dp1149
g10
g11
(g15
S'\x00\x00\x00\x00\x00\x00\xf8\xff'
p1150
tp1151
Rp1152
sg21
g11
(g24
S'\x05\x00\x00\x00\x00\x00\x00\x00'
p1153
tp1154
Rp1155
sg30
g31
sg32
(dp1156
g21
g1155
sg34
g11
(g15
S'1J\xda\xc6\xb0\x90O@'
p1157
tp1158
Rp1159
sg42
g11
(g24
S'\x02\x00\x00\x00\x00\x00\x00\x00'
p1160
tp1161
Rp1162
sg46
g11
(g15
S'A4i\xa5\x0b\xc0\r@'
p1163
tp1164
Rp1165
ssg46
g1165
sg50
g11
(g12
(S'S6'
p1166
I0
I1
tp1167
Rp1168
(I3
S'|'
p1169
NNNI6
I1
I0
tp1170
bS'ISOMAP'
p1171
tp1172
Rp1173
sg59
F0.2
sg42
g1162
sg60
g11
(g12
(S'S9'
p1174
I0
I1
tp1175
Rp1176
(I3
S'|'
p1177
NNNI9
I1
I0
tp1178
bS'inception'
p1179
tp1180
Rp1181
sg34
g1159
sg69
g11
(g15
S'\xf9\xac\xd1\xc0\x04.\xd4?'
p1182
tp1183
Rp1184
sg73
g11
(g12
(S'S3'
p1185
I0
I1
tp1186
Rp1187
(I3
S'|'
p1188
NNNI3
I1
I0
tp1189
bS'SVM'
p1190
tp1191
Rp1192
sg82
I3
sg83
g84
sg85
g11
(g15
S'\xa1W\xef\x05m\xce\xe1?'
p1193
tp1194
Rp1195
sg89
g90
sg91
g92
sbag4
(g5
g6
Ntp1196
Rp1197
(dp1198
g10
g11
(g15
S'\x00\x00\x00\x00\x00\x00\xf8\xff'
p1199
tp1200
Rp1201
sg99
g160
sg30
g31
sg32
(dp1202
g99
g160
sg34
g11
(g15
S'\xb7\nP3f.W@'
p1203
tp1204
Rp1205
sg38
g11
(g24
S'\x02\x00\x00\x00\x00\x00\x00\x00'
p1206
tp1207
Rp1208
sg46
g11
(g15
S'_K\xdeg\x81t\xdb?'
p1209
tp1210
Rp1211
ssg50
g11
(g12
(S'S3'
p1212
I0
I1
tp1213
Rp1214
(I3
S'|'
p1215
NNNI3
I1
I0
tp1216
bS'PCA'
p1217
tp1218
Rp1219
sg59
F0.2
sg46
g1211
sg60
g11
(g12
(S'S8'
p1220
I0
I1
tp1221
Rp1222
(I3
S'|'
p1223
NNNI8
I1
I0
tp1224
bS'haralick'
p1225
tp1226
Rp1227
sg34
g1205
sg38
g1208
sg69
g11
(g15
S'I\xa3\x94RM\x14\xd3?'
p1228
tp1229
Rp1230
sg73
g11
(g12
(S'S3'
p1231
I0
I1
tp1232
Rp1233
(I3
S'|'
p1234
NNNI3
I1
I0
tp1235
bS'SVM'
p1236
tp1237
Rp1238
sg82
I3
sg83
g84
sg85
g11
(g15
S'h\xd8\x01\x87\xe1.\xec?'
p1239
tp1240
Rp1241
sg89
g90
sg91
g92
sbag4
(g5
g6
Ntp1242
Rp1243
(dp1244
g10
g11
(g15
S'\x00\x00\x00\x00\x00\x00\xf8\xff'
p1245
tp1246
Rp1247
sg154
g11
(g15
S'\x00\x00\x00\x00\x00@a@'
p1248
tp1249
Rp1250
sg30
g31
sg21
g11
(g24
S'\x07\x00\x00\x00\x00\x00\x00\x00'
p1251
tp1252
Rp1253
sg32
(dp1254
g154
g1250
sg21
g1253
sg42
g11
(g24
S'\x02\x00\x00\x00\x00\x00\x00\x00'
p1255
tp1256
Rp1257
sg162
g11
(g15
S'\xa7\xb56\x84\x99\x0e\xe6?'
p1258
tp1259
Rp1260
ssg50
g11
(g12
(S'S6'
p1261
I0
I1
tp1262
Rp1263
(I3
S'|'
p1264
NNNI6
I1
I0
tp1265
bS'ISOMAP'
p1266
tp1267
Rp1268
sg59
F0.2
sg42
g1257
sg60
g11
(g12
(S'S9'
p1269
I0
I1
tp1270
Rp1271
(I3
S'|'
p1272
NNNI9
I1
I0
tp1273
bS'inception'
p1274
tp1275
Rp1276
sg69
g11
(g15
S'7\\\xfe7\x0cz\xed?'
p1277
tp1278
Rp1279
sg73
g11
(g12
(S'S2'
p1280
I0
I1
tp1281
Rp1282
(I3
S'|'
p1283
NNNI2
I1
I0
tp1284
bS'RF'
p1285
tp1286
Rp1287
sg82
I3
sg162
g1260
sg83
g84
sg85
g11
(g15
S'\xd1\xe5\x00&\x9e\xd1\xe9?'
p1288
tp1289
Rp1290
sg89
g90
sg91
g92
sbag4
(g5
g6
Ntp1291
Rp1292
(dp1293
g10
g11
(g15
S'\x00\x00\x00\x00\x00\x00\xf8\xff'
p1294
tp1295
Rp1296
sg154
g11
(g15
S'\x00\x00\x00\x00\x00@R@'
p1297
tp1298
Rp1299
sg99
g107
sg30
g31
sg32
(dp1300
g154
g1299
sg162
g11
(g15
S'\xf9[\xb6\x94\nG\xe0?'
p1301
tp1302
Rp1303
sg99
g107
sg38
g11
(g24
S'\x02\x00\x00\x00\x00\x00\x00\x00'
p1304
tp1305
Rp1306
ssg50
g11
(g12
(S'S3'
p1307
I0
I1
tp1308
Rp1309
(I3
S'|'
p1310
NNNI3
I1
I0
tp1311
bS'PCA'
p1312
tp1313
Rp1314
sg59
F0.2
sg60
g11
(g12
(S'S8'
p1315
I0
I1
tp1316
Rp1317
(I3
S'|'
p1318
NNNI8
I1
I0
tp1319
bS'haralick'
p1320
tp1321
Rp1322
sg38
g1306
sg69
g11
(g15
S'dh9\xe7J\xdb\xd7?'
p1323
tp1324
Rp1325
sg73
g11
(g12
(S'S2'
p1326
I0
I1
tp1327
Rp1328
(I3
S'|'
p1329
NNNI2
I1
I0
tp1330
bS'RF'
p1331
tp1332
Rp1333
sg82
I3
sg162
g1303
sg83
g84
sg85
g11
(g15
S'\x8c\xc6\x7fv\x98\x8b\xed?'
p1334
tp1335
Rp1336
sg89
g90
sg91
g92
sbag4
(g5
g6
Ntp1337
Rp1338
(dp1339
g10
g11
(g15
S'\x00\x00\x00\x00\x00\x00\xf8\xff'
p1340
tp1341
Rp1342
sg21
g11
(g24
S'\x04\x00\x00\x00\x00\x00\x00\x00'
p1343
tp1344
Rp1345
sg30
g31
sg32
(dp1346
g21
g1345
sg34
g11
(g15
S'Ot\xef}t\x14U@'
p1347
tp1348
Rp1349
sg38
g11
(g24
S'\x03\x00\x00\x00\x00\x00\x00\x00'
p1350
tp1351
Rp1352
sg42
g11
(g24
S'\x03\x00\x00\x00\x00\x00\x00\x00'
p1353
tp1354
Rp1355
sg46
g11
(g15
S'\xb2t[\x16O\xa3\xf8?'
p1356
tp1357
Rp1358
ssg46
g1358
sg50
g11
(g12
(S'S6'
p1359
I0
I1
tp1360
Rp1361
(I3
S'|'
p1362
NNNI6
I1
I0
tp1363
bS'ISOMAP'
p1364
tp1365
Rp1366
sg59
F0.2
sg42
g1355
sg60
g11
(g12
(S'S8'
p1367
I0
I1
tp1368
Rp1369
(I3
S'|'
p1370
NNNI8
I1
I0
tp1371
bS'haralick'
p1372
tp1373
Rp1374
sg34
g1349
sg38
g1352
sg69
g11
(g15
S'\xc9\xbd\xd7\xd0\xff~\xd3?'
p1375
tp1376
Rp1377
sg73
g11
(g12
(S'S3'
p1378
I0
I1
tp1379
Rp1380
(I3
S'|'
p1381
NNNI3
I1
I0
tp1382
bS'SVM'
p1383
tp1384
Rp1385
sg82
I3
sg83
g84
sg85
g11
(g15
S']I\x05nj\xd2\xe9?'
p1386
tp1387
Rp1388
sg89
g90
sg91
g92
sbag4
(g5
g6
Ntp1389
Rp1390
(dp1391
g10
g11
(g15
S'\x00\x00\x00\x00\x00\x00\xf8\xff'
p1392
tp1393
Rp1394
sg154
g11
(g15
S'\x00\x00\x00\x00\x00@R@'
p1395
tp1396
Rp1397
sg99
g160
sg30
g31
sg32
(dp1398
g154
g1397
sg162
g11
(g15
S'P\xe4f\x86bq\xee?'
p1399
tp1400
Rp1401
sg99
g160
ssg50
g11
(g12
(S'S3'
p1402
I0
I1
tp1403
Rp1404
(I3
S'|'
p1405
NNNI3
I1
I0
tp1406
bS'PCA'
p1407
tp1408
Rp1409
sg59
F0.2
sg60
g11
(g12
(S'S3'
p1410
I0
I1
tp1411
Rp1412
(I3
S'|'
p1413
NNNI3
I1
I0
tp1414
bS'VGG'
p1415
tp1416
Rp1417
sg69
g11
(g15
S"\xcd\xfe\x99\x84%'\xdc?"
p1418
tp1419
Rp1420
sg73
g11
(g12
(S'S2'
p1421
I0
I1
tp1422
Rp1423
(I3
S'|'
p1424
NNNI2
I1
I0
tp1425
bS'RF'
p1426
tp1427
Rp1428
sg82
I3
sg162
g1401
sg83
g84
sg85
g11
(g15
S'\xb4\xfe\x018\xd1\xd1\xed?'
p1429
tp1430
Rp1431
sg89
g90
sg91
g92
sbag4
(g5
g6
Ntp1432
Rp1433
(dp1434
g10
g11
(g15
S'\x00\x00\x00\x00\x00\x00\xf8\xff'
p1435
tp1436
Rp1437
sg154
g11
(g15
S'\x00\x00\x00\x00\x00\xc0p@'
p1438
tp1439
Rp1440
sg30
g31
sg21
g11
(g24
S'\x07\x00\x00\x00\x00\x00\x00\x00'
p1441
tp1442
Rp1443
sg32
(dp1444
g154
g1440
sg21
g1443
sg42
g11
(g24
S'\x04\x00\x00\x00\x00\x00\x00\x00'
p1445
tp1446
Rp1447
sg162
g11
(g15
S'\x98|\x83\xbf\x8f\x0f\xe8?'
p1448
tp1449
Rp1450
ssg50
g11
(g12
(S'S6'
p1451
I0
I1
tp1452
Rp1453
(I3
S'|'
p1454
NNNI6
I1
I0
tp1455
bS'ISOMAP'
p1456
tp1457
Rp1458
sg59
F0.2
sg42
g1447
sg60
g11
(g12
(S'S9'
p1459
I0
I1
tp1460
Rp1461
(I3
S'|'
p1462
NNNI9
I1
I0
tp1463
bS'inception'
p1464
tp1465
Rp1466
sg69
g11
(g15
S'\x90r\xc3[\x00\x14\xe7?'
p1467
tp1468
Rp1469
sg73
g11
(g12
(S'S2'
p1470
I0
I1
tp1471
Rp1472
(I3
S'|'
p1473
NNNI2
I1
I0
tp1474
bS'RF'
p1475
tp1476
Rp1477
sg82
I3
sg162
g1450
sg83
g84
sg85
g11
(g15
S'\x95\xc9\x8e\xd5\xde\xbc\xe9?'
p1478
tp1479
Rp1480
sg89
g90
sg91
g92
sbag4
(g5
g6
Ntp1481
Rp1482
(dp1483
g10
g11
(g15
S'\x00\x00\x00\x00\x00\x00\xf8\xff'
p1484
tp1485
Rp1486
sg154
g11
(g15
S'\x00\x00\x00\x00\x00\x00D@'
p1487
tp1488
Rp1489
sg99
g107
sg30
g31
sg32
(dp1490
g154
g1489
sg162
g11
(g15
S'\x9a\xa3wm\xb8\x90\xef?'
p1491
tp1492
Rp1493
sg99
g107
ssg50
g11
(g12
(S'S3'
p1494
I0
I1
tp1495
Rp1496
(I3
S'|'
p1497
NNNI3
I1
I0
tp1498
bS'PCA'
p1499
tp1500
Rp1501
sg59
F0.2
sg60
g11
(g12
(S'S9'
p1502
I0
I1
tp1503
Rp1504
(I3
S'|'
p1505
NNNI9
I1
I0
tp1506
bS'inception'
p1507
tp1508
Rp1509
sg69
g11
(g15
S'K\xee\x98\xd7%u\xeb?'
p1510
tp1511
Rp1512
sg73
g11
(g12
(S'S2'
p1513
I0
I1
tp1514
Rp1515
(I3
S'|'
p1516
NNNI2
I1
I0
tp1517
bS'RF'
p1518
tp1519
Rp1520
sg82
I3
sg162
g1493
sg83
g84
sg85
g11
(g15
S'\xe4=\x03\xfb\xf3t\xeb?'
p1521
tp1522
Rp1523
sg89
g90
sg91
g92
sbag4
(g5
g6
Ntp1524
Rp1525
(dp1526
g10
g11
(g15
S'\x00\x00\x00\x00\x00\x00\xf8\xff'
p1527
tp1528
Rp1529
sg99
g160
sg30
g31
sg32
(dp1530
g99
g160
sg34
g11
(g15
S'8\xa2.OU\xa3\x1a@'
p1531
tp1532
Rp1533
sg46
g11
(g15
S'\xe0XG\xcd\xfc\x08\x1e@'
p1534
tp1535
Rp1536
ssg50
g11
(g12
(S'S3'
p1537
I0
I1
tp1538
Rp1539
(I3
S'|'
p1540
NNNI3
I1
I0
tp1541
bS'PCA'
p1542
tp1543
Rp1544
sg59
F0.2
sg46
g1536
sg60
g11
(g12
(S'S3'
p1545
I0
I1
tp1546
Rp1547
(I3
S'|'
p1548
NNNI3
I1
I0
tp1549
bS'VGG'
p1550
tp1551
Rp1552
sg34
g1533
sg69
g11
(g15
S'\xb0\x7f\x9d\xe8\xa1\xe7\xd0?'
p1553
tp1554
Rp1555
sg73
g11
(g12
(S'S3'
p1556
I0
I1
tp1557
Rp1558
(I3
S'|'
p1559
NNNI3
I1
I0
tp1560
bS'SVM'
p1561
tp1562
Rp1563
sg82
I3
sg83
g84
sg85
g11
(g15
S'\x0b,\x81\xea\xaa\xd1\xec?'
p1564
tp1565
Rp1566
sg89
g90
sg91
g92
sbag4
(g5
g6
Ntp1567
Rp1568
(dp1569
g10
g11
(g15
S'\x00\x00\x00\x00\x00\x00\xf8\xff'
p1570
tp1571
Rp1572
sg21
g11
(g24
S'\x07\x00\x00\x00\x00\x00\x00\x00'
p1573
tp1574
Rp1575
sg30
g31
sg32
(dp1576
g21
g1575
sg34
g11
(g15
S'wyx07\xfdX@'
p1577
tp1578
Rp1579
sg38
g11
(g24
S'\x03\x00\x00\x00\x00\x00\x00\x00'
p1580
tp1581
Rp1582
sg42
g11
(g24
S'\x03\x00\x00\x00\x00\x00\x00\x00'
p1583
tp1584
Rp1585
sg46
g11
(g15
S'\x19\xe0\x96E=|\xe4?'
p1586
tp1587
Rp1588
ssg46
g1588
sg50
g11
(g12
(S'S6'
p1589
I0
I1
tp1590
Rp1591
(I3
S'|'
p1592
NNNI6
I1
I0
tp1593
bS'ISOMAP'
p1594
tp1595
Rp1596
sg59
F0.2
sg42
g1585
sg60
g11
(g12
(S'S8'
p1597
I0
I1
tp1598
Rp1599
(I3
S'|'
p1600
NNNI8
I1
I0
tp1601
bS'haralick'
p1602
tp1603
Rp1604
sg34
g1579
sg38
g1582
sg69
g11
(g15
S'\xb1R\xd1\x0f\xf6\x90\xd2?'
p1605
tp1606
Rp1607
sg73
g11
(g12
(S'S3'
p1608
I0
I1
tp1609
Rp1610
(I3
S'|'
p1611
NNNI3
I1
I0
tp1612
bS'SVM'
p1613
tp1614
Rp1615
sg82
I3
sg83
g84
sg85
g11
(g15
S'\xa5\x15\x06\x1e\xbe\x8c\xea?'
p1616
tp1617
Rp1618
sg89
g90
sg91
g92
sbag4
(g5
g6
Ntp1619
Rp1620
(dp1621
g10
g11
(g15
S'\x00\x00\x00\x00\x00\x00\xf8\xff'
p1622
tp1623
Rp1624
sg154
g11
(g15
S'\x00\x00\x00\x00\x00@e@'
p1625
tp1626
Rp1627
sg30
g31
sg21
g11
(g24
S'\x04\x00\x00\x00\x00\x00\x00\x00'
p1628
tp1629
Rp1630
sg32
(dp1631
g154
g1627
sg21
g1630
sg38
g11
(g24
S'\x03\x00\x00\x00\x00\x00\x00\x00'
p1632
tp1633
Rp1634
sg42
g11
(g24
S'\x04\x00\x00\x00\x00\x00\x00\x00'
p1635
tp1636
Rp1637
sg162
g11
(g15
S'\xe3\xd4\xdb\xda\x98k\xd9?'
p1638
tp1639
Rp1640
ssg50
g11
(g12
(S'S6'
p1641
I0
I1
tp1642
Rp1643
(I3
S'|'
p1644
NNNI6
I1
I0
tp1645
bS'ISOMAP'
p1646
tp1647
Rp1648
sg59
F0.2
sg42
g1637
sg60
g11
(g12
(S'S8'
p1649
I0
I1
tp1650
Rp1651
(I3
S'|'
p1652
NNNI8
I1
I0
tp1653
bS'haralick'
p1654
tp1655
Rp1656
sg38
g1634
sg69
g11
(g15
S'\x1bU\xc0\xd3\xb29\xde?'
p1657
tp1658
Rp1659
sg73
g11
(g12
(S'S2'
p1660
I0
I1
tp1661
Rp1662
(I3
S'|'
p1663
NNNI2
I1
I0
tp1664
bS'RF'
p1665
tp1666
Rp1667
sg82
I3
sg162
g1640
sg83
g84
sg85
g11
(g15
S'\x19O\x86\xa7%\x01\xed?'
p1668
tp1669
Rp1670
sg89
g90
sg91
g92
sbag4
(g5
g6
Ntp1671
Rp1672
(dp1673
g10
g11
(g15
S'\x00\x00\x00\x00\x00\x00\xf8\xff'
p1674
tp1675
Rp1676
sg154
g11
(g15
S'\x00\x00\x00\x00\x00\x00 @'
p1677
tp1678
Rp1679
sg30
g31
sg21
g11
(g24
S'\x04\x00\x00\x00\x00\x00\x00\x00'
p1680
tp1681
Rp1682
sg32
(dp1683
g154
g1679
sg21
g1682
sg42
g11
(g24
S'\x03\x00\x00\x00\x00\x00\x00\x00'
p1684
tp1685
Rp1686
sg162
g11
(g15
S'\xb4\x89\xeeO;\x14\xd5?'
p1687
tp1688
Rp1689
ssg50
g11
(g12
(S'S6'
p1690
I0
I1
tp1691
Rp1692
(I3
S'|'
p1693
NNNI6
I1
I0
tp1694
bS'ISOMAP'
p1695
tp1696
Rp1697
sg59
F0.2
sg42
g1686
sg60
g11
(g12
(S'S9'
p1698
I0
I1
tp1699
Rp1700
(I3
S'|'
p1701
NNNI9
I1
I0
tp1702
bS'inception'
p1703
tp1704
Rp1705
sg69
g11
(g15
S'\x18\xac\x1a>\xa9@\xf2?'
p1706
tp1707
Rp1708
sg73
g11
(g12
(S'S2'
p1709
I0
I1
tp1710
Rp1711
(I3
S'|'
p1712
NNNI2
I1
I0
tp1713
bS'RF'
p1714
tp1715
Rp1716
sg82
I3
sg162
g1689
sg83
g84
sg85
g11
(g15
S'w\xac\xf6\xe6M\xfe\xe9?'
p1717
tp1718
Rp1719
sg89
g90
sg91
g92
sbag4
(g5
g6
Ntp1720
Rp1721
(dp1722
g10
g11
(g15
S'\x00\x00\x00\x00\x00\x00\xf8\xff'
p1723
tp1724
Rp1725
sg99
g107
sg30
g31
sg32
(dp1726
g99
g107
sg34
g11
(g15
S'j\xeb\x9d\x0e,\xd4E@'
p1727
tp1728
Rp1729
sg38
g11
(g24
S'\x03\x00\x00\x00\x00\x00\x00\x00'
p1730
tp1731
Rp1732
sg46
g11
(g15
S'\xe3\xf2\xe39\xc7\xcf\x1f@'
p1733
tp1734
Rp1735
ssg50
g11
(g12
(S'S3'
p1736
I0
I1
tp1737
Rp1738
(I3
S'|'
p1739
NNNI3
I1
I0
tp1740
bS'PCA'
p1741
tp1742
Rp1743
sg59
F0.2
sg46
g1735
sg60
g11
(g12
(S'S8'
p1744
I0
I1
tp1745
Rp1746
(I3
S'|'
p1747
NNNI8
I1
I0
tp1748
bS'haralick'
p1749
tp1750
Rp1751
sg34
g1729
sg38
g1732
sg69
g11
(g15
S'\x86\x00\xae\xd5\r\xcb\xd1?'
p1752
tp1753
Rp1754
sg73
g11
(g12
(S'S3'
p1755
I0
I1
tp1756
Rp1757
(I3
S'|'
p1758
NNNI3
I1
I0
tp1759
bS'SVM'
p1760
tp1761
Rp1762
sg82
I3
sg83
g84
sg85
g11
(g15
S'`~\x02\x86EF\xeb?'
p1763
tp1764
Rp1765
sg89
g90
sg91
g92
sbag4
(g5
g6
Ntp1766
Rp1767
(dp1768
g10
g11
(g15
S'\x00\x00\x00\x00\x00\x00\xf8\xff'
p1769
tp1770
Rp1771
sg154
g11
(g15
S'\x00\x00\x00\x00\x00@e@'
p1772
tp1773
Rp1774
sg30
g31
sg21
g11
(g24
S'\x04\x00\x00\x00\x00\x00\x00\x00'
p1775
tp1776
Rp1777
sg32
(dp1778
g154
g1774
sg21
g1777
sg42
g11
(g24
S'\x02\x00\x00\x00\x00\x00\x00\x00'
p1779
tp1780
Rp1781
sg162
g11
(g15
S'\xcbyC\xa9UE\xe5?'
p1782
tp1783
Rp1784
ssg50
g11
(g12
(S'S6'
p1785
I0
I1
tp1786
Rp1787
(I3
S'|'
p1788
NNNI6
I1
I0
tp1789
bS'ISOMAP'
p1790
tp1791
Rp1792
sg59
F0.2
sg42
g1781
sg60
g11
(g12
(S'S3'
p1793
I0
I1
tp1794
Rp1795
(I3
S'|'
p1796
NNNI3
I1
I0
tp1797
bS'VGG'
p1798
tp1799
Rp1800
sg69
g11
(g15
S'1y\t\xdf\x98\xc1\xd1?'
p1801
tp1802
Rp1803
sg73
g11
(g12
(S'S2'
p1804
I0
I1
tp1805
Rp1806
(I3
S'|'
p1807
NNNI2
I1
I0
tp1808
bS'RF'
p1809
tp1810
Rp1811
sg82
I3
sg162
g1784
sg83
g84
sg85
g11
(g15
S'\x9d\\\xfb\x90\xf9D\xed?'
p1812
tp1813
Rp1814
sg89
g90
sg91
g92
sbag4
(g5
g6
Ntp1815
Rp1816
(dp1817
g10
g11
(g15
S'\x00\x00\x00\x00\x00\x00\xf8\xff'
p1818
tp1819
Rp1820
sg99
g160
sg30
g31
sg32
(dp1821
g99
g160
sg34
g11
(g15
S':\x95\xff\x9d\x16\xc7Q@'
p1822
tp1823
Rp1824
sg46
g11
(g15
S",'\x11\xf9a\x04\x08@"
p1825
tp1826
Rp1827
ssg50
g11
(g12
(S'S3'
p1828
I0
I1
tp1829
Rp1830
(I3
S'|'
p1831
NNNI3
I1
I0
tp1832
bS'PCA'
p1833
tp1834
Rp1835
sg59
F0.2
sg46
g1827
sg60
g11
(g12
(S'S3'
p1836
I0
I1
tp1837
Rp1838
(I3
S'|'
p1839
NNNI3
I1
I0
tp1840
bS'VGG'
p1841
tp1842
Rp1843
sg34
g1824
sg69
g11
(g15
S'\xac\x91os\x8b\xbd\xce?'
p1844
tp1845
Rp1846
sg73
g11
(g12
(S'S3'
p1847
I0
I1
tp1848
Rp1849
(I3
S'|'
p1850
NNNI3
I1
I0
tp1851
bS'SVM'
p1852
tp1853
Rp1854
sg82
I3
sg83
g84
sg85
g11
(g15
S'\x0b,\x81\xea\xaa\xd1\xec?'
p1855
tp1856
Rp1857
sg89
g90
sg91
g92
sbag4
(g5
g6
Ntp1858
Rp1859
(dp1860
g10
g11
(g15
S'\x00\x00\x00\x00\x00\x00\xf8\xff'
p1861
tp1862
Rp1863
sg21
g11
(g24
S'\x07\x00\x00\x00\x00\x00\x00\x00'
p1864
tp1865
Rp1866
sg30
g31
sg32
(dp1867
g21
g1866
sg34
g11
(g15
S'\xee\x92YK[C6@'
p1868
tp1869
Rp1870
sg38
g11
(g24
S'\x01\x00\x00\x00\x00\x00\x00\x00'
p1871
tp1872
Rp1873
sg42
g11
(g24
S'\x02\x00\x00\x00\x00\x00\x00\x00'
p1874
tp1875
Rp1876
sg46
g11
(g15
S'\x15\x1c\xa0u0\xe5\xc9?'
p1877
tp1878
Rp1879
ssg46
g1879
sg50
g11
(g12
(S'S6'
p1880
I0
I1
tp1881
Rp1882
(I3
S'|'
p1883
NNNI6
I1
I0
tp1884
bS'ISOMAP'
p1885
tp1886
Rp1887
sg59
F0.2
sg42
g1876
sg60
g11
(g12
(S'S8'
p1888
I0
I1
tp1889
Rp1890
(I3
S'|'
p1891
NNNI8
I1
I0
tp1892
bS'haralick'
p1893
tp1894
Rp1895
sg34
g1870
sg38
g1873
sg69
g11
(g15
S'\xfd\x7fm\xfaY\x1b\xcd?'
p1896
tp1897
Rp1898
sg73
g11
(g12
(S'S3'
p1899
I0
I1
tp1900
Rp1901
(I3
S'|'
p1902
NNNI3
I1
I0
tp1903
bS'SVM'
p1904
tp1905
Rp1906
sg82
I3
sg83
g84
sg85
g11
(g15
S'\xa0X\x8b\xeeU\x19\xec?'
p1907
tp1908
Rp1909
sg89
g90
sg91
g92
sbag4
(g5
g6
Ntp1910
Rp1911
(dp1912
g10
g11
(g15
S'\x00\x00\x00\x00\x00\x00\xf8\xff'
p1913
tp1914
Rp1915
sg154
g11
(g15
S'\x00\x00\x00\x00\x00@a@'
p1916
tp1917
Rp1918
sg30
g31
sg21
g11
(g24
S'\x03\x00\x00\x00\x00\x00\x00\x00'
p1919
tp1920
Rp1921
sg32
(dp1922
g154
g1918
sg21
g1921
sg42
g11
(g24
S'\x03\x00\x00\x00\x00\x00\x00\x00'
p1923
tp1924
Rp1925
sg162
g11
(g15
S'\xe4\xc8mk\xe2\x9b\xe4?'
p1926
tp1927
Rp1928
ssg50
g11
(g12
(S'S6'
p1929
I0
I1
tp1930
Rp1931
(I3
S'|'
p1932
NNNI6
I1
I0
tp1933
bS'ISOMAP'
p1934
tp1935
Rp1936
sg59
F0.2
sg42
g1925
sg60
g11
(g12
(S'S3'
p1937
I0
I1
tp1938
Rp1939
(I3
S'|'
p1940
NNNI3
I1
I0
tp1941
bS'VGG'
p1942
tp1943
Rp1944
sg69
g11
(g15
S'\x99\x16\x8c\x1b\xc5s\xd6?'
p1945
tp1946
Rp1947
sg73
g11
(g12
(S'S2'
p1948
I0
I1
tp1949
Rp1950
(I3
S'|'
p1951
NNNI2
I1
I0
tp1952
bS'RF'
p1953
tp1954
Rp1955
sg82
I3
sg162
g1928
sg83
g84
sg85
g11
(g15
S'\xcf8\x81%P]\xed?'
p1956
tp1957
Rp1958
sg89
g90
sg91
g92
sbag4
(g5
g6
Ntp1959
Rp1960
(dp1961
g10
g11
(g15
S'\x00\x00\x00\x00\x00\x00\xf8\xff'
p1962
tp1963
Rp1964
sg21
g11
(g24
S'\x06\x00\x00\x00\x00\x00\x00\x00'
p1965
tp1966
Rp1967
sg30
g31
sg32
(dp1968
g21
g1967
sg34
g11
(g15
S'\xb1b\x99\xbe\xcd\x9e"@'
p1969
tp1970
Rp1971
sg38
g11
(g24
S'\x03\x00\x00\x00\x00\x00\x00\x00'
p1972
tp1973
Rp1974
sg42
g11
(g24
S'\x04\x00\x00\x00\x00\x00\x00\x00'
p1975
tp1976
Rp1977
sg46
g11
(g15
S'\xa9\xe8R\xb2\xbe\x1b\x06@'
p1978
tp1979
Rp1980
ssg46
g1980
sg50
g11
(g12
(S'S6'
p1981
I0
I1
tp1982
Rp1983
(I3
S'|'
p1984
NNNI6
I1
I0
tp1985
bS'ISOMAP'
p1986
tp1987
Rp1988
sg59
F0.2
sg42
g1977
sg60
g11
(g12
(S'S8'
p1989
I0
I1
tp1990
Rp1991
(I3
S'|'
p1992
NNNI8
I1
I0
tp1993
bS'haralick'
p1994
tp1995
Rp1996
sg34
g1971
sg38
g1974
sg69
g11
(g15
S'\x0f0\x01\xae\xe8\xb6\xd3?'
p1997
tp1998
Rp1999
sg73
g11
(g12
(S'S3'
p2000
I0
I1
tp2001
Rp2002
(I3
S'|'
p2003
NNNI3
I1
I0
tp2004
bS'SVM'
p2005
tp2006
Rp2007
sg82
I3
sg83
g84
sg85
g11
(g15
S'i"\x06Yc\x18\xeb?'
p2008
tp2009
Rp2010
sg89
g90
sg91
g92
sbag4
(g5
g6
Ntp2011
Rp2012
(dp2013
g10
g11
(g15
S'\x00\x00\x00\x00\x00\x00\xf8\xff'
p2014
tp2015
Rp2016
sg154
g11
(g15
S'\x00\x00\x00\x00\x00@e@'
p2017
tp2018
Rp2019
sg99
g107
sg30
g31
sg32
(dp2020
g154
g2019
sg162
g11
(g15
S'\xf1\xd6\xb3\x8b\x9d\x9b\xdd?'
p2021
tp2022
Rp2023
sg99
g107
ssg50
g11
(g12
(S'S3'
p2024
I0
I1
tp2025
Rp2026
(I3
S'|'
p2027
NNNI3
I1
I0
tp2028
bS'PCA'
p2029
tp2030
Rp2031
sg59
F0.2
sg60
g11
(g12
(S'S9'
p2032
I0
I1
tp2033
Rp2034
(I3
S'|'
p2035
NNNI9
I1
I0
tp2036
bS'inception'
p2037
tp2038
Rp2039
sg69
g11
(g15
S'\xc6;\x9f$\xb3\x9c\xe2?'
p2040
tp2041
Rp2042
sg73
g11
(g12
(S'S2'
p2043
I0
I1
tp2044
Rp2045
(I3
S'|'
p2046
NNNI2
I1
I0
tp2047
bS'RF'
p2048
tp2049
Rp2050
sg82
I3
sg162
g2023
sg83
g84
sg85
g11
(g15
S'GD\x83\x98\xc6\xba\xeb?'
p2051
tp2052
Rp2053
sg89
g90
sg91
g92
sbag4
(g5
g6
Ntp2054
Rp2055
(dp2056
g10
g11
(g15
S'\x00\x00\x00\x00\x00\x00\xf8\xff'
p2057
tp2058
Rp2059
sg154
g11
(g15
S'\x00\x00\x00\x00\x00@Z@'
p2060
tp2061
Rp2062
sg99
g107
sg30
g31
sg32
(dp2063
g154
g2062
sg162
g11
(g15
S'H\xe7\x1c"\x17\xfa\xe6?'
p2064
tp2065
Rp2066
sg99
g107
sg38
g11
(g24
S'\x01\x00\x00\x00\x00\x00\x00\x00'
p2067
tp2068
Rp2069
ssg50
g11
(g12
(S'S3'
p2070
I0
I1
tp2071
Rp2072
(I3
S'|'
p2073
NNNI3
I1
I0
tp2074
bS'PCA'
p2075
tp2076
Rp2077
sg59
F0.2
sg60
g11
(g12
(S'S8'
p2078
I0
I1
tp2079
Rp2080
(I3
S'|'
p2081
NNNI8
I1
I0
tp2082
bS'haralick'
p2083
tp2084
Rp2085
sg38
g2069
sg69
g11
(g15
S'\x9b\xaa|\xe3s\xa0\xe3?'
p2086
tp2087
Rp2088
sg73
g11
(g12
(S'S2'
p2089
I0
I1
tp2090
Rp2091
(I3
S'|'
p2092
NNNI2
I1
I0
tp2093
bS'RF'
p2094
tp2095
Rp2096
sg82
I3
sg162
g2066
sg83
g84
sg85
g11
(g15
S'\xb9\xbb|g9E\xec?'
p2097
tp2098
Rp2099
sg89
g90
sg91
g92
sbag4
(g5
g6
Ntp2100
Rp2101
(dp2102
g10
g11
(g15
S'\x00\x00\x00\x00\x00\x00\xf8\xff'
p2103
tp2104
Rp2105
sg99
g160
sg30
g31
sg32
(dp2106
g99
g160
sg34
g11
(g15
S'\x1f\x97wF"FH@'
p2107
tp2108
Rp2109
sg46
g11
(g15
S"\xd3'z\x1a\nB\xda?"
p2110
tp2111
Rp2112
ssg50
g11
(g12
(S'S3'
p2113
I0
I1
tp2114
Rp2115
(I3
S'|'
p2116
NNNI3
I1
I0
tp2117
bS'PCA'
p2118
tp2119
Rp2120
sg59
F0.2
sg46
g2112
sg60
g11
(g12
(S'S3'
p2121
I0
I1
tp2122
Rp2123
(I3
S'|'
p2124
NNNI3
I1
I0
tp2125
bS'VGG'
p2126
tp2127
Rp2128
sg34
g2109
sg69
g11
(g15
S'\xcf\xb4y\xd9r\xe5\xd2?'
p2129
tp2130
Rp2131
sg73
g11
(g12
(S'S3'
p2132
I0
I1
tp2133
Rp2134
(I3
S'|'
p2135
NNNI3
I1
I0
tp2136
bS'SVM'
p2137
tp2138
Rp2139
sg82
I3
sg83
g84
sg85
g11
(g15
S'\xad\x7f\x00Ntt\xed?'
p2140
tp2141
Rp2142
sg89
g90
sg91
g92
sbag4
(g5
g6
Ntp2143
Rp2144
(dp2145
g10
g11
(g15
S'\x00\x00\x00\x00\x00\x00\xf8\xff'
p2146
tp2147
Rp2148
sg154
g11
(g15
S'\x00\x00\x00\x00\x00`i@'
p2149
tp2150
Rp2151
sg30
g31
sg21
g11
(g24
S'\x04\x00\x00\x00\x00\x00\x00\x00'
p2152
tp2153
Rp2154
sg32
(dp2155
g154
g2151
sg21
g2154
sg38
g11
(g24
S'\x02\x00\x00\x00\x00\x00\x00\x00'
p2156
tp2157
Rp2158
sg42
g11
(g24
S'\x02\x00\x00\x00\x00\x00\x00\x00'
p2159
tp2160
Rp2161
sg162
g11
(g15
S'\xf8KCG\xa2*\xe8?'
p2162
tp2163
Rp2164
ssg50
g11
(g12
(S'S6'
p2165
I0
I1
tp2166
Rp2167
(I3
S'|'
p2168
NNNI6
I1
I0
tp2169
bS'ISOMAP'
p2170
tp2171
Rp2172
sg59
F0.2
sg42
g2161
sg60
g11
(g12
(S'S8'
p2173
I0
I1
tp2174
Rp2175
(I3
S'|'
p2176
NNNI8
I1
I0
tp2177
bS'haralick'
p2178
tp2179
Rp2180
sg38
g2158
sg69
g11
(g15
S'\x97\x7f\xd9?\xf0\xfa\xd8?'
p2181
tp2182
Rp2183
sg73
g11
(g12
(S'S2'
p2184
I0
I1
tp2185
Rp2186
(I3
S'|'
p2187
NNNI2
I1
I0
tp2188
bS'RF'
p2189
tp2190
Rp2191
sg82
I3
sg162
g2164
sg83
g84
sg85
g11
(g15
S'+\xe5\x01\xc2\x86\xba\xec?'
p2192
tp2193
Rp2194
sg89
g90
sg91
g92
sbag4
(g5
g6
Ntp2195
Rp2196
(dp2197
g10
g11
(g15
S'\x00\x00\x00\x00\x00\x00\xf8\xff'
p2198
tp2199
Rp2200
sg99
g160
sg30
g31
sg32
(dp2201
g99
g160
sg34
g11
(g15
S"\t\xcf'k\xee\xa0R@"
p2202
tp2203
Rp2204
sg38
g11
(g24
S'\x02\x00\x00\x00\x00\x00\x00\x00'
p2205
tp2206
Rp2207
sg46
g11
(g15
S'\xf4F\x04\x88\xd4%\x1e@'
p2208
tp2209
Rp2210
ssg50
g11
(g12
(S'S3'
p2211
I0
I1
tp2212
Rp2213
(I3
S'|'
p2214
NNNI3
I1
I0
tp2215
bS'PCA'
p2216
tp2217
Rp2218
sg59
F0.2
sg46
g2210
sg60
g11
(g12
(S'S8'
p2219
I0
I1
tp2220
Rp2221
(I3
S'|'
p2222
NNNI8
I1
I0
tp2223
bS'haralick'
p2224
tp2225
Rp2226
sg34
g2204
sg38
g2207
sg69
g11
(g15
S'=\x8e\xe4$,"\xd1?'
p2227
tp2228
Rp2229
sg73
g11
(g12
(S'S3'
p2230
I0
I1
tp2231
Rp2232
(I3
S'|'
p2233
NNNI3
I1
I0
tp2234
bS'SVM'
p2235
tp2236
Rp2237
sg82
I3
sg83
g84
sg85
g11
(g15
S'\x0bQ\x83\xd3kF\xec?'
p2238
tp2239
Rp2240
sg89
g90
sg91
g92
sbag4
(g5
g6
Ntp2241
Rp2242
(dp2243
g10
g11
(g15
S'\x00\x00\x00\x00\x00\x00\xf8\xff'
p2244
tp2245
Rp2246
sg21
g11
(g24
S'\x03\x00\x00\x00\x00\x00\x00\x00'
p2247
tp2248
Rp2249
sg30
g31
sg32
(dp2250
g21
g2249
sg34
g11
(g15
S']\xd7\xc2\x13\xc4\x8fX@'
p2251
tp2252
Rp2253
sg42
g11
(g24
S'\x02\x00\x00\x00\x00\x00\x00\x00'
p2254
tp2255
Rp2256
sg46
g11
(g15
S'\xa9\x08\xda\xd6\xe5\xc7\x1e@'
p2257
tp2258
Rp2259
ssg46
g2259
sg50
g11
(g12
(S'S6'
p2260
I0
I1
tp2261
Rp2262
(I3
S'|'
p2263
NNNI6
I1
I0
tp2264
bS'ISOMAP'
p2265
tp2266
Rp2267
sg59
F0.2
sg42
g2256
sg60
g11
(g12
(S'S3'
p2268
I0
I1
tp2269
Rp2270
(I3
S'|'
p2271
NNNI3
I1
I0
tp2272
bS'VGG'
p2273
tp2274
Rp2275
sg34
g2253
sg69
g11
(g15
S'{\xb23\xf3\x81B\xd4?'
p2276
tp2277
Rp2278
sg73
g11
(g12
(S'S3'
p2279
I0
I1
tp2280
Rp2281
(I3
S'|'
p2282
NNNI3
I1
I0
tp2283
bS'SVM'
p2284
tp2285
Rp2286
sg82
I3
sg83
g84
sg85
g11
(g15
S']\x0f\xfc\xca\x02\xe8\xec?'
p2287
tp2288
Rp2289
sg89
g90
sg91
g92
sbag4
(g5
g6
Ntp2290
Rp2291
(dp2292
g10
g11
(g15
S'\x00\x00\x00\x00\x00\x00\xf8\xff'
p2293
tp2294
Rp2295
sg21
g11
(g24
S'\x05\x00\x00\x00\x00\x00\x00\x00'
p2296
tp2297
Rp2298
sg30
g31
sg32
(dp2299
g21
g2298
sg34
g11
(g15
S'E\xfaG\x14\xddIB@'
p2300
tp2301
Rp2302
sg42
g11
(g24
S'\x03\x00\x00\x00\x00\x00\x00\x00'
p2303
tp2304
Rp2305
sg46
g11
(g15
S'\xaa\x1c\xb1\xbb2?\xf9?'
p2306
tp2307
Rp2308
ssg46
g2308
sg50
g11
(g12
(S'S6'
p2309
I0
I1
tp2310
Rp2311
(I3
S'|'
p2312
NNNI6
I1
I0
tp2313
bS'ISOMAP'
p2314
tp2315
Rp2316
sg59
F0.2
sg42
g2305
sg60
g11
(g12
(S'S9'
p2317
I0
I1
tp2318
Rp2319
(I3
S'|'
p2320
NNNI9
I1
I0
tp2321
bS'inception'
p2322
tp2323
Rp2324
sg34
g2302
sg69
g11
(g15
S'Dw\x04\xb5Qu\xd3?'
p2325
tp2326
Rp2327
sg73
g11
(g12
(S'S3'
p2328
I0
I1
tp2329
Rp2330
(I3
S'|'
p2331
NNNI3
I1
I0
tp2332
bS'SVM'
p2333
tp2334
Rp2335
sg82
I3
sg83
g84
sg85
g11
(g15
S'\xf9k\xf7[\xfc,\xe2?'
p2336
tp2337
Rp2338
sg89
g90
sg91
g92
sbag4
(g5
g6
Ntp2339
Rp2340
(dp2341
g10
g11
(g15
S'\x00\x00\x00\x00\x00\x00\xf8\xff'
p2342
tp2343
Rp2344
sg21
g11
(g24
S'\x05\x00\x00\x00\x00\x00\x00\x00'
p2345
tp2346
Rp2347
sg30
g31
sg32
(dp2348
g21
g2347
sg34
g11
(g15
S'\xb1c\x7f\xe4\xdeCQ@'
p2349
tp2350
Rp2351
sg38
g11
(g24
S'\x03\x00\x00\x00\x00\x00\x00\x00'
p2352
tp2353
Rp2354
sg42
g11
(g24
S'\x04\x00\x00\x00\x00\x00\x00\x00'
p2355
tp2356
Rp2357
sg46
g11
(g15
S'?`\x03\xf4}\xb9\xea?'
p2358
tp2359
Rp2360
ssg46
g2360
sg50
g11
(g12
(S'S6'
p2361
I0
I1
tp2362
Rp2363
(I3
S'|'
p2364
NNNI6
I1
I0
tp2365
bS'ISOMAP'
p2366
tp2367
Rp2368
sg59
F0.2
sg42
g2357
sg60
g11
(g12
(S'S8'
p2369
I0
I1
tp2370
Rp2371
(I3
S'|'
p2372
NNNI8
I1
I0
tp2373
bS'haralick'
p2374
tp2375
Rp2376
sg34
g2351
sg38
g2354
sg69
g11
(g15
S'0\r\xd3\xcd\x80\xa3\xd1?'
p2377
tp2378
Rp2379
sg73
g11
(g12
(S'S3'
p2380
I0
I1
tp2381
Rp2382
(I3
S'|'
p2383
NNNI3
I1
I0
tp2384
bS'SVM'
p2385
tp2386
Rp2387
sg82
I3
sg83
g84
sg85
g11
(g15
S'\xa3\xf0\x035\xfd\x17\xeb?'
p2388
tp2389
Rp2390
sg89
g90
sg91
g92
sbag4
(g5
g6
Ntp2391
Rp2392
(dp2393
g10
g11
(g15
S'\x00\x00\x00\x00\x00\x00\xf8\xff'
p2394
tp2395
Rp2396
sg21
g11
(g24
S'\x03\x00\x00\x00\x00\x00\x00\x00'
p2397
tp2398
Rp2399
sg30
g31
sg32
(dp2400
g21
g2399
sg34
g11
(g15
S'\xdb6\xb3\xeb4\xaeP@'
p2401
tp2402
Rp2403
sg38
g11
(g24
S'\x01\x00\x00\x00\x00\x00\x00\x00'
p2404
tp2405
Rp2406
sg42
g11
(g24
S'\x04\x00\x00\x00\x00\x00\x00\x00'
p2407
tp2408
Rp2409
sg46
g11
(g15
S'\xb7\xa0\xcf\xf1\xa3\xbe\x1a@'
p2410
tp2411
Rp2412
ssg46
g2412
sg50
g11
(g12
(S'S6'
p2413
I0
I1
tp2414
Rp2415
(I3
S'|'
p2416
NNNI6
I1
I0
tp2417
bS'ISOMAP'
p2418
tp2419
Rp2420
sg59
F0.2
sg42
g2409
sg60
g11
(g12
(S'S8'
p2421
I0
I1
tp2422
Rp2423
(I3
S'|'
p2424
NNNI8
I1
I0
tp2425
bS'haralick'
p2426
tp2427
Rp2428
sg34
g2403
sg38
g2406
sg69
g11
(g15
S'\xd9&\x1a9\x1e\xec\xd0?'
p2429
tp2430
Rp2431
sg73
g11
(g12
(S'S3'
p2432
I0
I1
tp2433
Rp2434
(I3
S'|'
p2435
NNNI3
I1
I0
tp2436
bS'SVM'
p2437
tp2438
Rp2439
sg82
I3
sg83
g84
sg85
g11
(g15
S'\xfb\x08|-0\xa2\xec?'
p2440
tp2441
Rp2442
sg89
g90
sg91
g92
sbag4
(g5
g6
Ntp2443
Rp2444
(dp2445
g10
g11
(g15
S'\x00\x00\x00\x00\x00\x00\xf8\xff'
p2446
tp2447
Rp2448
sg21
g11
(g24
S'\x04\x00\x00\x00\x00\x00\x00\x00'
p2449
tp2450
Rp2451
sg30
g31
sg32
(dp2452
g21
g2451
sg34
g11
(g15
S'\x00\xa8\x97\x16\x85\xd0M@'
p2453
tp2454
Rp2455
sg42
g11
(g24
S'\x03\x00\x00\x00\x00\x00\x00\x00'
p2456
tp2457
Rp2458
sg46
g11
(g15
S'\xa3\xe5\xf3e\x05\xbe\x19@'
p2459
tp2460
Rp2461
ssg46
g2461
sg50
g11
(g12
(S'S6'
p2462
I0
I1
tp2463
Rp2464
(I3
S'|'
p2465
NNNI6
I1
I0
tp2466
bS'ISOMAP'
p2467
tp2468
Rp2469
sg59
F0.2
sg42
g2458
sg60
g11
(g12
(S'S9'
p2470
I0
I1
tp2471
Rp2472
(I3
S'|'
p2473
NNNI9
I1
I0
tp2474
bS'inception'
p2475
tp2476
Rp2477
sg34
g2455
sg69
g11
(g15
S'\x11\xc7\xef\xaa\x05\xf1\xd3?'
p2478
tp2479
Rp2480
sg73
g11
(g12
(S'S3'
p2481
I0
I1
tp2482
Rp2483
(I3
S'|'
p2484
NNNI3
I1
I0
tp2485
bS'SVM'
p2486
tp2487
Rp2488
sg82
I3
sg83
g84
sg85
g11
(g15
S' \x93\xe2\x052)\xe6?'
p2489
tp2490
Rp2491
sg89
g90
sg91
g92
sbag4
(g5
g6
Ntp2492
Rp2493
(dp2494
g10
g11
(g15
S'\x00\x00\x00\x00\x00\x00\xf8\xff'
p2495
tp2496
Rp2497
sg99
g107
sg30
g31
sg32
(dp2498
g99
g107
sg34
g11
(g15
S'\x8b\xae\x8b\x12*\xdf)@'
p2499
tp2500
Rp2501
sg46
g11
(g15
S'\xa3n-\x15w\xbb\x07@'
p2502
tp2503
Rp2504
ssg50
g11
(g12
(S'S3'
p2505
I0
I1
tp2506
Rp2507
(I3
S'|'
p2508
NNNI3
I1
I0
tp2509
bS'PCA'
p2510
tp2511
Rp2512
sg59
F0.2
sg46
g2504
sg60
g11
(g12
(S'S3'
p2513
I0
I1
tp2514
Rp2515
(I3
S'|'
p2516
NNNI3
I1
I0
tp2517
bS'VGG'
p2518
tp2519
Rp2520
sg34
g2501
sg69
g11
(g15
S'\x14h\x0fEj\xe7\xce?'
p2521
tp2522
Rp2523
sg73
g11
(g12
(S'S3'
p2524
I0
I1
tp2525
Rp2526
(I3
S'|'
p2527
NNNI3
I1
I0
tp2528
bS'SVM'
p2529
tp2530
Rp2531
sg82
I3
sg83
g84
sg85
g11
(g15
S'\x0b,\x81\xea\xaa\xd1\xec?'
p2532
tp2533
Rp2534
sg89
g90
sg91
g92
sbag4
(g5
g6
Ntp2535
Rp2536
(dp2537
g10
g11
(g15
S'\x00\x00\x00\x00\x00\x00\xf8\xff'
p2538
tp2539
Rp2540
sg21
g11
(g24
S'\x03\x00\x00\x00\x00\x00\x00\x00'
p2541
tp2542
Rp2543
sg30
g31
sg32
(dp2544
g21
g2543
sg34
g11
(g15
S'\x81\xb7\x15\xd8\x06\xc5C@'
p2545
tp2546
Rp2547
sg38
g11
(g24
S'\x02\x00\x00\x00\x00\x00\x00\x00'
p2548
tp2549
Rp2550
sg42
g11
(g24
S'\x03\x00\x00\x00\x00\x00\x00\x00'
p2551
tp2552
Rp2553
sg46
g11
(g15
S'\xd4%\xb3\xf3\xdf\x9c\xf4?'
p2554
tp2555
Rp2556
ssg46
g2556
sg50
g11
(g12
(S'S6'
p2557
I0
I1
tp2558
Rp2559
(I3
S'|'
p2560
NNNI6
I1
I0
tp2561
bS'ISOMAP'
p2562
tp2563
Rp2564
sg59
F0.2
sg42
g2553
sg60
g11
(g12
(S'S8'
p2565
I0
I1
tp2566
Rp2567
(I3
S'|'
p2568
NNNI8
I1
I0
tp2569
bS'haralick'
p2570
tp2571
Rp2572
sg34
g2547
sg38
g2550
sg69
g11
(g15
S'\xc1S\x99I\xbbA\xd4?'
p2573
tp2574
Rp2575
sg73
g11
(g12
(S'S3'
p2576
I0
I1
tp2577
Rp2578
(I3
S'|'
p2579
NNNI3
I1
I0
tp2580
bS'SVM'
p2581
tp2582
Rp2583
sg82
I3
sg83
g84
sg85
g11
(g15
S'P\xe8\x86k\xe4\x8c\xeb?'
p2584
tp2585
Rp2586
sg89
g90
sg91
g92
sbag4
(g5
g6
Ntp2587
Rp2588
(dp2589
g10
g11
(g15
S'\x00\x00\x00\x00\x00\x00\xf8\xff'
p2590
tp2591
Rp2592
sg154
g11
(g15
S'\x00\x00\x00\x00\x00@Z@'
p2593
tp2594
Rp2595
sg30
g31
sg21
g11
(g24
S'\x07\x00\x00\x00\x00\x00\x00\x00'
p2596
tp2597
Rp2598
sg32
(dp2599
g154
g2595
sg21
g2598
sg42
g11
(g24
S'\x04\x00\x00\x00\x00\x00\x00\x00'
p2600
tp2601
Rp2602
sg162
g11
(g15
S'\n1\x1d\xcd\xaa"\xec?'
p2603
tp2604
Rp2605
ssg50
g11
(g12
(S'S6'
p2606
I0
I1
tp2607
Rp2608
(I3
S'|'
p2609
NNNI6
I1
I0
tp2610
bS'ISOMAP'
p2611
tp2612
Rp2613
sg59
F0.2
sg42
g2602
sg60
g11
(g12
(S'S9'
p2614
I0
I1
tp2615
Rp2616
(I3
S'|'
p2617
NNNI9
I1
I0
tp2618
bS'inception'
p2619
tp2620
Rp2621
sg69
g11
(g15
S'W\x036?~\xd1\xe6?'
p2622
tp2623
Rp2624
sg73
g11
(g12
(S'S2'
p2625
I0
I1
tp2626
Rp2627
(I3
S'|'
p2628
NNNI2
I1
I0
tp2629
bS'RF'
p2630
tp2631
Rp2632
sg82
I3
sg162
g2605
sg83
g84
sg85
g11
(g15
S'\xa5\xc7\x91\xa9\x98w\xea?'
p2633
tp2634
Rp2635
sg89
g90
sg91
g92
sbag4
(g5
g6
Ntp2636
Rp2637
(dp2638
g10
g11
(g15
S'\x00\x00\x00\x00\x00\x00\xf8\xff'
p2639
tp2640
Rp2641
sg154
g11
(g15
S'\x00\x00\x00\x00\x00`i@'
p2642
tp2643
Rp2644
sg99
g160
sg30
g31
sg32
(dp2645
g154
g2644
sg162
g11
(g15
S'\x1aw{\x12\xe6\xfc\xee?'
p2646
tp2647
Rp2648
sg99
g160
ssg50
g11
(g12
(S'S3'
p2649
I0
I1
tp2650
Rp2651
(I3
S'|'
p2652
NNNI3
I1
I0
tp2653
bS'PCA'
p2654
tp2655
Rp2656
sg59
F0.2
sg60
g11
(g12
(S'S9'
p2657
I0
I1
tp2658
Rp2659
(I3
S'|'
p2660
NNNI9
I1
I0
tp2661
bS'inception'
p2662
tp2663
Rp2664
sg69
g11
(g15
S'3\x989\x18\xe8\x02\xdc?'
p2665
tp2666
Rp2667
sg73
g11
(g12
(S'S2'
p2668
I0
I1
tp2669
Rp2670
(I3
S'|'
p2671
NNNI2
I1
I0
tp2672
bS'RF'
p2673
tp2674
Rp2675
sg82
I3
sg162
g2648
sg83
g84
sg85
g11
(g15
S'h\xfd\x03p\xa2\xa3\xeb?'
p2676
tp2677
Rp2678
sg89
g90
sg91
g92
sbag4
(g5
g6
Ntp2679
Rp2680
(dp2681
g10
g11
(g15
S'\x00\x00\x00\x00\x00\x00\xf8\xff'
p2682
tp2683
Rp2684
sg154
g11
(g15
S'\x00\x00\x00\x00\x00@R@'
p2685
tp2686
Rp2687
sg30
g31
sg21
g11
(g24
S'\x05\x00\x00\x00\x00\x00\x00\x00'
p2688
tp2689
Rp2690
sg32
(dp2691
g154
g2687
sg21
g2690
sg38
g11
(g24
S'\x03\x00\x00\x00\x00\x00\x00\x00'
p2692
tp2693
Rp2694
sg42
g11
(g24
S'\x03\x00\x00\x00\x00\x00\x00\x00'
p2695
tp2696
Rp2697
sg162
g11
(g15
S'\x87\xbat\x8ee?\xe1?'
p2698
tp2699
Rp2700
ssg50
g11
(g12
(S'S6'
p2701
I0
I1
tp2702
Rp2703
(I3
S'|'
p2704
NNNI6
I1
I0
tp2705
bS'ISOMAP'
p2706
tp2707
Rp2708
sg59
F0.2
sg42
g2697
sg60
g11
(g12
(S'S8'
p2709
I0
I1
tp2710
Rp2711
(I3
S'|'
p2712
NNNI8
I1
I0
tp2713
bS'haralick'
p2714
tp2715
Rp2716
sg38
g2694
sg69
g11
(g15
S'\x1b.A\xf8\x087\xde?'
p2717
tp2718
Rp2719
sg73
g11
(g12
(S'S2'
p2720
I0
I1
tp2721
Rp2722
(I3
S'|'
p2723
NNNI2
I1
I0
tp2724
bS'RF'
p2725
tp2726
Rp2727
sg82
I3
sg162
g2700
sg83
g84
sg85
g11
(g15
S'\x1bt\x88\x90\xe6u\xec?'
p2728
tp2729
Rp2730
sg89
g90
sg91
g92
sbag4
(g5
g6
Ntp2731
Rp2732
(dp2733
g10
g11
(g15
S'\x00\x00\x00\x00\x00\x00\xf8\xff'
p2734
tp2735
Rp2736
sg21
g11
(g24
S'\x03\x00\x00\x00\x00\x00\x00\x00'
p2737
tp2738
Rp2739
sg30
g31
sg32
(dp2740
g21
g2739
sg34
g11
(g15
S'.\xb8\x98\xed\x9a\xa3W@'
p2741
tp2742
Rp2743
sg42
g11
(g24
S'\x04\x00\x00\x00\x00\x00\x00\x00'
p2744
tp2745
Rp2746
sg46
g11
(g15
S'\x8bw\xcbU|\xd9\x1f@'
p2747
tp2748
Rp2749
ssg46
g2749
sg50
g11
(g12
(S'S6'
p2750
I0
I1
tp2751
Rp2752
(I3
S'|'
p2753
NNNI6
I1
I0
tp2754
bS'ISOMAP'
p2755
tp2756
Rp2757
sg59
F0.2
sg42
g2746
sg60
g11
(g12
(S'S3'
p2758
I0
I1
tp2759
Rp2760
(I3
S'|'
p2761
NNNI3
I1
I0
tp2762
bS'VGG'
p2763
tp2764
Rp2765
sg34
g2743
sg69
g11
(g15
S'\xb8\x91\xa2tS/\xcd?'
p2766
tp2767
Rp2768
sg73
g11
(g12
(S'S3'
p2769
I0
I1
tp2770
Rp2771
(I3
S'|'
p2772
NNNI3
I1
I0
tp2773
bS'SVM'
p2774
tp2775
Rp2776
sg82
I3
sg83
g84
sg85
g11
(g15
S'C\xd5|\xdd\x83\\\xed?'
p2777
tp2778
Rp2779
sg89
g90
sg91
g92
sbag4
(g5
g6
Ntp2780
Rp2781
(dp2782
g10
g11
(g15
S'\x00\x00\x00\x00\x00\x00\xf8\xff'
p2783
tp2784
Rp2785
sg154
g11
(g15
S'\x00\x00\x00\x00\x00`i@'
p2786
tp2787
Rp2788
sg30
g31
sg21
g11
(g24
S'\x03\x00\x00\x00\x00\x00\x00\x00'
p2789
tp2790
Rp2791
sg32
(dp2792
g154
g2788
sg21
g2791
sg42
g11
(g24
S'\x02\x00\x00\x00\x00\x00\x00\x00'
p2793
tp2794
Rp2795
sg162
g11
(g15
S'\x06\xe3\xb2\xcc\xf0N\xd4?'
p2796
tp2797
Rp2798
ssg50
g11
(g12
(S'S6'
p2799
I0
I1
tp2800
Rp2801
(I3
S'|'
p2802
NNNI6
I1
I0
tp2803
bS'ISOMAP'
p2804
tp2805
Rp2806
sg59
F0.2
sg42
g2795
sg60
g11
(g12
(S'S3'
p2807
I0
I1
tp2808
Rp2809
(I3
S'|'
p2810
NNNI3
I1
I0
tp2811
bS'VGG'
p2812
tp2813
Rp2814
sg69
g11
(g15
S'\xcd\x1fy\xc4\x1a\x97\xd6?'
p2815
tp2816
Rp2817
sg73
g11
(g12
(S'S2'
p2818
I0
I1
tp2819
Rp2820
(I3
S'|'
p2821
NNNI2
I1
I0
tp2822
bS'RF'
p2823
tp2824
Rp2825
sg82
I3
sg162
g2798
sg83
g84
sg85
g11
(g15
S'\xc5\x94}R2\x8b\xed?'
p2826
tp2827
Rp2828
sg89
g90
sg91
g92
sbag4
(g5
g6
Ntp2829
Rp2830
(dp2831
g10
g11
(g15
S'\x00\x00\x00\x00\x00\x00\xf8\xff'
p2832
tp2833
Rp2834
sg154
g11
(g15
S'\x00\x00\x00\x00\x00@a@'
p2835
tp2836
Rp2837
sg99
g160
sg30
g31
sg32
(dp2838
g154
g2837
sg162
g11
(g15
S'To\xa5}m\xfd\xee?'
p2839
tp2840
Rp2841
sg99
g160
ssg50
g11
(g12
(S'S3'
p2842
I0
I1
tp2843
Rp2844
(I3
S'|'
p2845
NNNI3
I1
I0
tp2846
bS'PCA'
p2847
tp2848
Rp2849
sg59
F0.2
sg60
g11
(g12
(S'S3'
p2850
I0
I1
tp2851
Rp2852
(I3
S'|'
p2853
NNNI3
I1
I0
tp2854
bS'VGG'
p2855
tp2856
Rp2857
sg69
g11
(g15
S'=\x95\xac\x96ER\xd6?'
p2858
tp2859
Rp2860
sg73
g11
(g12
(S'S2'
p2861
I0
I1
tp2862
Rp2863
(I3
S'|'
p2864
NNNI2
I1
I0
tp2865
bS'RF'
p2866
tp2867
Rp2868
sg82
I3
sg162
g2841
sg83
g84
sg85
g11
(g15
S'\xb4\xfe\x018\xd1\xd1\xed?'
p2869
tp2870
Rp2871
sg89
g90
sg91
g92
sbag4
(g5
g6
Ntp2872
Rp2873
(dp2874
g10
g11
(g15
S'\x00\x00\x00\x00\x00\x00\xf8\xff'
p2875
tp2876
Rp2877
sg154
g11
(g15
S'\x00\x00\x00\x00\x00@R@'
p2878
tp2879
Rp2880
sg99
g160
sg30
g31
sg32
(dp2881
g154
g2880
sg162
g11
(g15
S'\x0e\x03\xef\x11\xe4\xab\xee?'
p2882
tp2883
Rp2884
sg99
g160
ssg50
g11
(g12
(S'S3'
p2885
I0
I1
tp2886
Rp2887
(I3
S'|'
p2888
NNNI3
I1
I0
tp2889
bS'PCA'
p2890
tp2891
Rp2892
sg59
F0.2
sg60
g11
(g12
(S'S9'
p2893
I0
I1
tp2894
Rp2895
(I3
S'|'
p2896
NNNI9
I1
I0
tp2897
bS'inception'
p2898
tp2899
Rp2900
sg69
g11
(g15
S'\xe9\xf3#7\xa9\x16\xee?'
p2901
tp2902
Rp2903
sg73
g11
(g12
(S'S2'
p2904
I0
I1
tp2905
Rp2906
(I3
S'|'
p2907
NNNI2
I1
I0
tp2908
bS'RF'
p2909
tp2910
Rp2911
sg82
I3
sg162
g2884
sg83
g84
sg85
g11
(g15
S'\rv\x85\xbc,\xbb\xeb?'
p2912
tp2913
Rp2914
sg89
g90
sg91
g92
sbag4
(g5
g6
Ntp2915
Rp2916
(dp2917
g10
g11
(g15
S'\x00\x00\x00\x00\x00\x00\xf8\xff'
p2918
tp2919
Rp2920
sg21
g11
(g24
S'\x07\x00\x00\x00\x00\x00\x00\x00'
p2921
tp2922
Rp2923
sg30
g31
sg32
(dp2924
g21
g2923
sg34
g11
(g15
S'\xca\x92\xd5)\xa4BQ@'
p2925
tp2926
Rp2927
sg42
g11
(g24
S'\x04\x00\x00\x00\x00\x00\x00\x00'
p2928
tp2929
Rp2930
sg46
g11
(g15
S'\x813\x87N\x81\xc1\t@'
p2931
tp2932
Rp2933
ssg46
g2933
sg50
g11
(g12
(S'S6'
p2934
I0
I1
tp2935
Rp2936
(I3
S'|'
p2937
NNNI6
I1
I0
tp2938
bS'ISOMAP'
p2939
tp2940
Rp2941
sg59
F0.2
sg42
g2930
sg60
g11
(g12
(S'S3'
p2942
I0
I1
tp2943
Rp2944
(I3
S'|'
p2945
NNNI3
I1
I0
tp2946
bS'VGG'
p2947
tp2948
Rp2949
sg34
g2927
sg69
g11
(g15
S'\x073\xca\xdf\xfbB\xd0?'
p2950
tp2951
Rp2952
sg73
g11
(g12
(S'S3'
p2953
I0
I1
tp2954
Rp2955
(I3
S'|'
p2956
NNNI3
I1
I0
tp2957
bS'SVM'
p2958
tp2959
Rp2960
sg82
I3
sg83
g84
sg85
g11
(g15
S'\xc5\x94}R2\x8b\xed?'
p2961
tp2962
Rp2963
sg89
g90
sg91
g92
sbag4
(g5
g6
Ntp2964
Rp2965
(dp2966
g10
g11
(g15
S'\x00\x00\x00\x00\x00\x00\xf8\xff'
p2967
tp2968
Rp2969
sg154
g11
(g15
S'\x00\x00\x00\x00\x00@e@'
p2970
tp2971
Rp2972
sg30
g31
sg21
g11
(g24
S'\x05\x00\x00\x00\x00\x00\x00\x00'
p2973
tp2974
Rp2975
sg32
(dp2976
g154
g2972
sg21
g2975
sg38
g11
(g24
S'\x02\x00\x00\x00\x00\x00\x00\x00'
p2977
tp2978
Rp2979
sg42
g11
(g24
S'\x02\x00\x00\x00\x00\x00\x00\x00'
p2980
tp2981
Rp2982
sg162
g11
(g15
S'\x96=z\x97\x8d#\xe5?'
p2983
tp2984
Rp2985
ssg50
g11
(g12
(S'S6'
p2986
I0
I1
tp2987
Rp2988
(I3
S'|'
p2989
NNNI6
I1
I0
tp2990
bS'ISOMAP'
p2991
tp2992
Rp2993
sg59
F0.2
sg42
g2982
sg60
g11
(g12
(S'S8'
p2994
I0
I1
tp2995
Rp2996
(I3
S'|'
p2997
NNNI8
I1
I0
tp2998
bS'haralick'
p2999
tp3000
Rp3001
sg38
g2979
sg69
g11
(g15
S'\x89\x12\xe6\xd1\x11\xa4\xe4?'
p3002
tp3003
Rp3004
sg73
g11
(g12
(S'S2'
p3005
I0
I1
tp3006
Rp3007
(I3
S'|'
p3008
NNNI2
I1
I0
tp3009
bS'RF'
p3010
tp3011
Rp3012
sg82
I3
sg162
g2985
sg83
g84
sg85
g11
(g15
S'|\xa3z\xb9\x1d\\\xed?'
p3013
tp3014
Rp3015
sg89
g90
sg91
g92
sbasS'error_curve'
p3016
(lp3017
g72
ag136
ag184
ag184
ag184
ag184
ag184
ag184
ag233
ag233
ag233
ag233
ag233
ag233
ag233
ag233
ag233
ag233
ag233
ag233
ag233
ag233
ag233
ag233
ag233
ag233
ag233
ag233
ag233
ag233
ag233
ag233
ag233
ag233
ag233
ag233
ag233
ag233
ag233
ag233
ag233
ag233
ag233
ag233
ag233
ag233
ag233
ag233
ag233
ag233
ag233
ag233
ag233
ag233
ag233
ag233
ag233
ag233
ag233
ag233
ag233
asS'iters'
p3018
I51
sg30
g31
sS'results_loc'
p3019
S'/gpfs/u/home/CGHI/CGHIarch/barn/EP_project/results/'
p3020
sS'times'
p3021
(lp3022
F13.436211109161377
aF26.0847749710083
aF28.563231945037842
aF41.41130495071411
aF43.72975397109985
aF43.90841507911682
aF58.639617919921875
aF71.71643996238708
aF74.37042713165283
aF76.44880294799805
aF89.043790102005
aF89.47607612609863
aF102.3483099937439
aF115.09802198410034
aF116.18785810470581
aF116.76322507858276
aF116.92597699165344
aF117.49331092834473
aF117.6401801109314
aF117.80437207221985
aF131.30594301223755
aF131.90171003341675
aF132.4701120853424
aF145.10201692581177
aF146.70221996307373
aF159.9936990737915
aF172.7192690372467
aF173.42658400535583
aF176.06758999824524
aF176.53677701950073
aF176.70333003997803
aF189.41848611831665
aF203.36607599258423
aF203.9480321407318
aF216.6826000213623
aF218.48814511299133
aF218.64781212806702
aF231.53665804862976
aF233.14141392707825
aF246.13272905349731
aF247.62584114074707
aF261.11925411224365
aF261.2478930950165
aF275.4254231452942
aF287.9947280883789
aF288.5433580875397
aF289.1099679470062
aF301.7676339149475
aF314.49185609817505
aF315.0490801334381
aF315.2098059654236
aF327.8461890220642
aF329.2240629196167
aF331.16399812698364
aF344.5822880268097
aF345.14531993865967
aF347.1666340827942
aF348.4090759754181
aF349.174143075943
aF349.78298807144165
aF364.0129039287567
asS'data_loc'
p3023
g92
sS'run'
p3024
I5
sg89
S'random_MCMC'
p3025
sb.