(iprototypes.random_based_mcmc1
random_MCMC
p0
(dp1
S'best_pipelines'
p2
(lp3
ccopy_reg
_reconstructor
p4
(cprototypes.data_analytic_pipeline
image_classification_pipeline
p5
c__builtin__
object
p6
Ntp7
Rp8
(dp9
S'f1_score'
p10
cnumpy.core.multiarray
scalar
p11
(cnumpy
dtype
p12
(S'f8'
p13
I0
I1
tp14
Rp15
(I3
S'<'
p16
NNNI-1
I-1
I0
tp17
bS'\x00\x00\x00\x00\x00\x00\xf8\xff'
p18
tp19
Rp20
sS'n_estimators'
p21
g11
(g15
S'\x00\x00\x00\x00\x00@e@'
p22
tp23
Rp24
sS'data_name'
p25
S'bone'
p26
sS'n_neighbors'
p27
g11
(g12
(S'i8'
p28
I0
I1
tp29
Rp30
(I3
S'<'
p31
NNNI-1
I-1
I0
tp32
bS'\x07\x00\x00\x00\x00\x00\x00\x00'
p33
tp34
Rp35
sS'kwargs'
p36
(dp37
g21
g24
sg27
g35
sS'n_components'
p38
g11
(g30
S'\x03\x00\x00\x00\x00\x00\x00\x00'
p39
tp40
Rp41
sS'max_features'
p42
g11
(g15
S'\xcf\xe6\xe4\x19\xc0\xf6\xe7?'
p43
tp44
Rp45
ssS'dimensionality_reduction'
p46
g11
(g12
(S'S6'
p47
I0
I1
tp48
Rp49
(I3
S'|'
p50
NNNI6
I1
I0
tp51
bS'ISOMAP'
p52
tp53
Rp54
sS'test_size'
p55
F0.2
sg38
g41
sS'feature_extraction'
p56
g11
(g12
(S'S3'
p57
I0
I1
tp58
Rp59
(I3
S'|'
p60
NNNI3
I1
I0
tp61
bS'VGG'
p62
tp63
Rp64
sS'result'
p65
g11
(g15
S'\x97\x81"1\xc6-\xdf?'
p66
tp67
Rp68
sS'learning_algorithm'
p69
g11
(g12
(S'S2'
p70
I0
I1
tp71
Rp72
(I3
S'|'
p73
NNNI2
I1
I0
tp74
bS'RF'
p75
tp76
Rp77
sS'val_splits'
p78
I3
sg42
g45
sS'ml_type'
p79
S'validation'
p80
sS'accuracy'
p81
g11
(g15
S'\x95 O\t\xf2\x94\xe8?'
p82
tp83
Rp84
sS'type1'
p85
S'random1'
p86
sS'data_location'
p87
S'/gpfs/u/home/CGHI/CGHIarch/barn/EP_project/data/'
p88
sbag4
(g5
g6
Ntp89
Rp90
(dp91
g10
g11
(g15
S'\x00\x00\x00\x00\x00\x00\xf8\xff'
p92
tp93
Rp94
sg21
g11
(g15
S'\x00\x00\x00\x00\x00@R@'
p95
tp96
Rp97
sS'pca_whiten'
p98
g11
(g12
(S'b1'
p99
I0
I1
tp100
Rp101
(I3
S'|'
p102
NNNI-1
I-1
I0
tp103
bS'\x00'
p104
tp105
Rp106
sg25
g26
sg36
(dp107
g21
g97
sg42
g11
(g15
S'\xe8\x00\xe2\x0c\xabo\xe2?'
p108
tp109
Rp110
sg98
g106
sS'haralick_distance'
p111
g11
(g30
S'\x03\x00\x00\x00\x00\x00\x00\x00'
p112
tp113
Rp114
ssg46
g11
(g12
(S'S3'
p115
I0
I1
tp116
Rp117
(I3
S'|'
p118
NNNI3
I1
I0
tp119
bS'PCA'
p120
tp121
Rp122
sg55
F0.2
sg56
g11
(g12
(S'S8'
p123
I0
I1
tp124
Rp125
(I3
S'|'
p126
NNNI8
I1
I0
tp127
bS'haralick'
p128
tp129
Rp130
sg111
g114
sg65
g11
(g15
S'\x85\x8c\xd9>~\xdf\xd5?'
p131
tp132
Rp133
sg69
g11
(g12
(S'S2'
p134
I0
I1
tp135
Rp136
(I3
S'|'
p137
NNNI2
I1
I0
tp138
bS'RF'
p139
tp140
Rp141
sg78
I3
sg42
g110
sg79
g80
sg81
g11
(g15
S'\x1b\x03\xa61`\x1a\xeb?'
p142
tp143
Rp144
sg85
g86
sg87
g88
sbag4
(g5
g6
Ntp145
Rp146
(dp147
g10
g11
(g15
S'\x00\x00\x00\x00\x00\x00\xf8\xff'
p148
tp149
Rp150
sg21
g11
(g15
S'\x00\x00\x00\x00\x00@R@'
p151
tp152
Rp153
sg98
g11
(g101
S'\x01'
p154
tp155
Rp156
sg25
g26
sg36
(dp157
g21
g153
sg42
g11
(g15
S'\x9crT\xd6\xa3)\xe7?'
p158
tp159
Rp160
sg98
g156
sg111
g11
(g30
S'\x03\x00\x00\x00\x00\x00\x00\x00'
p161
tp162
Rp163
ssg46
g11
(g12
(S'S3'
p164
I0
I1
tp165
Rp166
(I3
S'|'
p167
NNNI3
I1
I0
tp168
bS'PCA'
p169
tp170
Rp171
sg55
F0.2
sg56
g11
(g12
(S'S8'
p172
I0
I1
tp173
Rp174
(I3
S'|'
p175
NNNI8
I1
I0
tp176
bS'haralick'
p177
tp178
Rp179
sg111
g163
sg65
g11
(g15
S'gOH\xdd\x7fr\xd5?'
p180
tp181
Rp182
sg69
g11
(g12
(S'S2'
p183
I0
I1
tp184
Rp185
(I3
S'|'
p186
NNNI2
I1
I0
tp187
bS'RF'
p188
tp189
Rp190
sg78
I3
sg42
g160
sg79
g80
sg81
g11
(g15
S'\x95\xf3g9\x7f\x96\xeb?'
p191
tp192
Rp193
sg85
g86
sg87
g88
sbasS'paths'
p194
(lp195
(lp196
S'VGG'
p197
aS'PCA'
p198
aS'SVM'
p199
aa(lp200
g197
ag198
aS'RF'
p201
aa(lp202
g197
aS'ISOMAP'
p203
ag199
aa(lp204
g197
ag203
ag201
aa(lp205
S'haralick'
p206
ag198
ag199
aa(lp207
g206
ag198
ag201
aa(lp208
g206
ag203
ag199
aa(lp209
g206
ag203
ag201
aa(lp210
S'inception'
p211
ag198
ag199
aa(lp212
g211
ag198
ag201
aa(lp213
g211
ag203
ag199
aa(lp214
g211
ag203
ag201
aasS'pipeline'
p215
(dp216
g27
(lp217
I3
aI4
aI5
aI6
aI7
asg98
(lp218
I01
aI00
asg21
cnumpy.core.multiarray
_reconstruct
p219
(cnumpy
ndarray
p220
(I0
tp221
S'b'
p222
tp223
Rp224
(I1
(I10
tp225
g15
I00
S'\x00\x00\x00\x00\x00\x00 @\x00\x00\x00\x00\x00\x00D@\x00\x00\x00\x00\x00@R@\x00\x00\x00\x00\x00@Z@\x00\x00\x00\x00\x00@a@\x00\x00\x00\x00\x00@e@\x00\x00\x00\x00\x00`i@\x00\x00\x00\x00\x00`m@\x00\x00\x00\x00\x00\xc0p@\x00\x00\x00\x00\x00\xc0r@'
p226
tp227
bsg46
(lp228
g198
ag203
asS'svm_gamma'
p229
g219
(g220
(I0
tp230
g222
tp231
Rp232
(I1
(I10
tp233
g15
I00
S"{\x14\xaeG\xe1z\x84?\x102Tv\x98\xba\xec?\xe7\xd5\xc4\xb3\xa2\x91\xfc?b\xc9/\x96\xfcb\x05@\xd2'}\xd2'}\x0c@!Ce\x87\xa9\xcb\x11@X\xf2\x8b%\xbfX\x15@\x90\xa1\xb2\xc3\xd4\xe5\x18@\xc8P\xd9a\xear\x1c@\x00\x00\x00\x00\x00\x00 @"
p234
tp235
bsg56
(lp236
g197
ag206
ag211
asg111
(lp237
I1
aI2
aI3
asg38
(lp238
I2
aI3
aI4
asg69
(lp239
g199
ag201
asg42
g219
(g220
(I0
tp240
g222
tp241
Rp242
(I1
(I5
tp243
g15
I00
S'333333\xd3?\x9a\x99\x99\x99\x99\x99\xd9?\x00\x00\x00\x00\x00\x00\xe0?433333\xe3?hfffff\xe6?'
p244
tp245
bsS'svm_C'
p246
g219
(g220
(I0
tp247
g222
tp248
Rp249
(I1
(I10
tp250
g15
I00
S'\x9a\x99\x99\x99\x99\x99\xb9?gfffff&@\xce\xcc\xcc\xcc\xccL6@43333\xb3@@\x01\x00\x00\x00\x00@F@\xce\xcc\xcc\xcc\xcc\xccK@\xcd\xcc\xcc\xcc\xcc\xacP@43333sS@\x9a\x99\x99\x99\x999V@\x00\x00\x00\x00\x00\x00Y@'
p251
tp252
bssS'pipelines'
p253
(lp254
g8
ag4
(g5
g6
Ntp255
Rp256
(dp257
g10
g11
(g15
S'\x00\x00\x00\x00\x00\x00\xf8\xff'
p258
tp259
Rp260
sg27
g11
(g30
S'\x06\x00\x00\x00\x00\x00\x00\x00'
p261
tp262
Rp263
sg25
g26
sg36
(dp264
g27
g263
sg246
g11
(g15
S'\x00\xc7\xb7z\x0e\x16\xdb?'
p265
tp266
Rp267
sg111
g11
(g30
S'\x02\x00\x00\x00\x00\x00\x00\x00'
p268
tp269
Rp270
sg38
g11
(g30
S'\x03\x00\x00\x00\x00\x00\x00\x00'
p271
tp272
Rp273
sg229
g11
(g15
S'"\xca:\x7f\xcaY\x05@'
p274
tp275
Rp276
ssg229
g276
sg46
g11
(g12
(S'S6'
p277
I0
I1
tp278
Rp279
(I3
S'|'
p280
NNNI6
I1
I0
tp281
bS'ISOMAP'
p282
tp283
Rp284
sg55
F0.2
sg38
g273
sg56
g11
(g12
(S'S8'
p285
I0
I1
tp286
Rp287
(I3
S'|'
p288
NNNI8
I1
I0
tp289
bS'haralick'
p290
tp291
Rp292
sg246
g267
sg111
g270
sg65
g11
(g15
S';\xd3^\xf4\xe3\xbd\xe0?'
p293
tp294
Rp295
sg69
g11
(g12
(S'S3'
p296
I0
I1
tp297
Rp298
(I3
S'|'
p299
NNNI3
I1
I0
tp300
bS'SVM'
p301
tp302
Rp303
sg78
I3
sg79
g80
sg81
g11
(g15
S'\x190\x8d\x01\xd3\x18\xe8?'
p304
tp305
Rp306
sg85
g86
sg87
g88
sbag4
(g5
g6
Ntp307
Rp308
(dp309
g10
g11
(g15
S'\x00\x00\x00\x00\x00\x00\xf8\xff'
p310
tp311
Rp312
sg21
g11
(g15
S'\x00\x00\x00\x00\x00\x00 @'
p313
tp314
Rp315
sg98
g106
sg25
g26
sg36
(dp316
g21
g315
sg42
g11
(g15
S'p@\xcc\nV\xf0\xe9?'
p317
tp318
Rp319
sg98
g106
sg111
g11
(g30
S'\x03\x00\x00\x00\x00\x00\x00\x00'
p320
tp321
Rp322
ssg46
g11
(g12
(S'S3'
p323
I0
I1
tp324
Rp325
(I3
S'|'
p326
NNNI3
I1
I0
tp327
bS'PCA'
p328
tp329
Rp330
sg55
F0.2
sg56
g11
(g12
(S'S8'
p331
I0
I1
tp332
Rp333
(I3
S'|'
p334
NNNI8
I1
I0
tp335
bS'haralick'
p336
tp337
Rp338
sg111
g322
sg65
g11
(g15
S'\xc3\x98c\xdb;\xcc\xf5?'
p339
tp340
Rp341
sg69
g11
(g12
(S'S2'
p342
I0
I1
tp343
Rp344
(I3
S'|'
p345
NNNI2
I1
I0
tp346
bS'RF'
p347
tp348
Rp349
sg78
I3
sg42
g319
sg79
g80
sg81
g11
(g15
S'#"""""\xea?'
p350
tp351
Rp352
sg85
g86
sg87
g88
sbag4
(g5
g6
Ntp353
Rp354
(dp355
g10
g11
(g15
S'\x00\x00\x00\x00\x00\x00\xf8\xff'
p356
tp357
Rp358
sg27
g11
(g30
S'\x06\x00\x00\x00\x00\x00\x00\x00'
p359
tp360
Rp361
sg25
g26
sg36
(dp362
g27
g361
sg246
g11
(g15
S'\x14\xc1*\x11p\x8a@@'
p363
tp364
Rp365
sg38
g11
(g30
S'\x02\x00\x00\x00\x00\x00\x00\x00'
p366
tp367
Rp368
sg229
g11
(g15
S'r\xb3\xf8C\x99\x97\x13@'
p369
tp370
Rp371
ssg229
g371
sg46
g11
(g12
(S'S6'
p372
I0
I1
tp373
Rp374
(I3
S'|'
p375
NNNI6
I1
I0
tp376
bS'ISOMAP'
p377
tp378
Rp379
sg55
F0.2
sg38
g368
sg56
g11
(g12
(S'S3'
p380
I0
I1
tp381
Rp382
(I3
S'|'
p383
NNNI3
I1
I0
tp384
bS'VGG'
p385
tp386
Rp387
sg246
g365
sg65
g11
(g15
S'\x11?\x17\x02gM\xe0?'
p388
tp389
Rp390
sg69
g11
(g12
(S'S3'
p391
I0
I1
tp392
Rp393
(I3
S'|'
p394
NNNI3
I1
I0
tp395
bS'SVM'
p396
tp397
Rp398
sg78
I3
sg79
g80
sg81
g11
(g15
S'\x08\x1f|\xf0\xc1\x07\xe7?'
p399
tp400
Rp401
sg85
g86
sg87
g88
sbag4
(g5
g6
Ntp402
Rp403
(dp404
g10
g11
(g15
S'\x00\x00\x00\x00\x00\x00\xf8\xff'
p405
tp406
Rp407
sg21
g11
(g15
S'\x00\x00\x00\x00\x00@e@'
p408
tp409
Rp410
sg98
g106
sg25
g26
sg36
(dp411
g21
g410
sg42
g11
(g15
S'^9\xabln!\xe2?'
p412
tp413
Rp414
sg98
g106
ssg46
g11
(g12
(S'S3'
p415
I0
I1
tp416
Rp417
(I3
S'|'
p418
NNNI3
I1
I0
tp419
bS'PCA'
p420
tp421
Rp422
sg55
F0.2
sg56
g11
(g12
(S'S9'
p423
I0
I1
tp424
Rp425
(I3
S'|'
p426
NNNI9
I1
I0
tp427
bS'inception'
p428
tp429
Rp430
sg65
g11
(g15
S'\x02e\xb83\x9d\x16\xe1?'
p431
tp432
Rp433
sg69
g11
(g12
(S'S2'
p434
I0
I1
tp435
Rp436
(I3
S'|'
p437
NNNI2
I1
I0
tp438
bS'RF'
p439
tp440
Rp441
sg78
I3
sg42
g414
sg79
g80
sg81
g11
(g15
S'\x95 O\t\xf2\x94\xe8?'
p442
tp443
Rp444
sg85
g86
sg87
g88
sbag4
(g5
g6
Ntp445
Rp446
(dp447
g10
g11
(g15
S'\x00\x00\x00\x00\x00\x00\xf8\xff'
p448
tp449
Rp450
sg21
g11
(g15
S'\x00\x00\x00\x00\x00`i@'
p451
tp452
Rp453
sg25
g26
sg27
g11
(g30
S'\x03\x00\x00\x00\x00\x00\x00\x00'
p454
tp455
Rp456
sg36
(dp457
g21
g453
sg27
g456
sg38
g11
(g30
S'\x04\x00\x00\x00\x00\x00\x00\x00'
p458
tp459
Rp460
sg42
g11
(g15
S'n\xd8\xdc\xbe\xeeG\xd4?'
p461
tp462
Rp463
ssg46
g11
(g12
(S'S6'
p464
I0
I1
tp465
Rp466
(I3
S'|'
p467
NNNI6
I1
I0
tp468
bS'ISOMAP'
p469
tp470
Rp471
sg55
F0.2
sg38
g460
sg56
g11
(g12
(S'S9'
p472
I0
I1
tp473
Rp474
(I3
S'|'
p475
NNNI9
I1
I0
tp476
bS'inception'
p477
tp478
Rp479
sg65
g11
(g15
S'{\\\xa5\xe6\xe8\xde\xf9?'
p480
tp481
Rp482
sg69
g11
(g12
(S'S2'
p483
I0
I1
tp484
Rp485
(I3
S'|'
p486
NNNI2
I1
I0
tp487
bS'RF'
p488
tp489
Rp490
sg78
I3
sg42
g463
sg79
g80
sg81
g11
(g15
S'\x98\xc6\x80i\x0c\x98\xe6?'
p491
tp492
Rp493
sg85
g86
sg87
g88
sbag4
(g5
g6
Ntp494
Rp495
(dp496
g10
g11
(g15
S'\x00\x00\x00\x00\x00\x00\xf8\xff'
p497
tp498
Rp499
sg21
g11
(g15
S'\x00\x00\x00\x00\x00\x00 @'
p500
tp501
Rp502
sg25
g26
sg27
g11
(g30
S'\x06\x00\x00\x00\x00\x00\x00\x00'
p503
tp504
Rp505
sg36
(dp506
g21
g502
sg27
g505
sg38
g11
(g30
S'\x02\x00\x00\x00\x00\x00\x00\x00'
p507
tp508
Rp509
sg42
g11
(g15
S'3P\xa2O\xae\xa7\xd6?'
p510
tp511
Rp512
ssg46
g11
(g12
(S'S6'
p513
I0
I1
tp514
Rp515
(I3
S'|'
p516
NNNI6
I1
I0
tp517
bS'ISOMAP'
p518
tp519
Rp520
sg55
F0.2
sg38
g509
sg56
g11
(g12
(S'S3'
p521
I0
I1
tp522
Rp523
(I3
S'|'
p524
NNNI3
I1
I0
tp525
bS'VGG'
p526
tp527
Rp528
sg65
g11
(g15
S"k\t\xe8\xc9f'\x04@"
p529
tp530
Rp531
sg69
g11
(g12
(S'S2'
p532
I0
I1
tp533
Rp534
(I3
S'|'
p535
NNNI2
I1
I0
tp536
bS'RF'
p537
tp538
Rp539
sg78
I3
sg42
g512
sg79
g80
sg81
g11
(g15
S'\x15\xb7Bq+\x14\xe7?'
p540
tp541
Rp542
sg85
g86
sg87
g88
sbag4
(g5
g6
Ntp543
Rp544
(dp545
g10
g11
(g15
S'\x00\x00\x00\x00\x00\x00\xf8\xff'
p546
tp547
Rp548
sg21
g11
(g15
S'\x00\x00\x00\x00\x00`m@'
p549
tp550
Rp551
sg25
g26
sg27
g11
(g30
S'\x07\x00\x00\x00\x00\x00\x00\x00'
p552
tp553
Rp554
sg36
(dp555
g21
g551
sg27
g554
sg38
g11
(g30
S'\x03\x00\x00\x00\x00\x00\x00\x00'
p556
tp557
Rp558
sg42
g11
(g15
S'\xc5u\xbd\x12\xa7%\xe9?'
p559
tp560
Rp561
ssg46
g11
(g12
(S'S6'
p562
I0
I1
tp563
Rp564
(I3
S'|'
p565
NNNI6
I1
I0
tp566
bS'ISOMAP'
p567
tp568
Rp569
sg55
F0.2
sg38
g558
sg56
g11
(g12
(S'S9'
p570
I0
I1
tp571
Rp572
(I3
S'|'
p573
NNNI9
I1
I0
tp574
bS'inception'
p575
tp576
Rp577
sg65
g11
(g15
S'7A\xb1@\xd2q\xe3?'
p578
tp579
Rp580
sg69
g11
(g12
(S'S2'
p581
I0
I1
tp582
Rp583
(I3
S'|'
p584
NNNI2
I1
I0
tp585
bS'RF'
p586
tp587
Rp588
sg78
I3
sg42
g561
sg79
g80
sg81
g11
(g15
S'%\xc8S\x82<%\xe8?'
p589
tp590
Rp591
sg85
g86
sg87
g88
sbag4
(g5
g6
Ntp592
Rp593
(dp594
g10
g11
(g15
S'\x00\x00\x00\x00\x00\x00\xf8\xff'
p595
tp596
Rp597
sg98
g106
sg25
g26
sg36
(dp598
g98
g106
sg246
g11
(g15
S'\x94~e\xa5\xcc;\xfe?'
p599
tp600
Rp601
sg229
g11
(g15
S'J\xdf\xcc\xb8\xf5\x9f\xf9?'
p602
tp603
Rp604
ssg46
g11
(g12
(S'S3'
p605
I0
I1
tp606
Rp607
(I3
S'|'
p608
NNNI3
I1
I0
tp609
bS'PCA'
p610
tp611
Rp612
sg55
F0.2
sg229
g604
sg56
g11
(g12
(S'S9'
p613
I0
I1
tp614
Rp615
(I3
S'|'
p616
NNNI9
I1
I0
tp617
bS'inception'
p618
tp619
Rp620
sg246
g601
sg65
g11
(g15
S'OkU\xa2\x8b\x90\xe5?'
p621
tp622
Rp623
sg69
g11
(g12
(S'S3'
p624
I0
I1
tp625
Rp626
(I3
S'|'
p627
NNNI3
I1
I0
tp628
bS'SVM'
p629
tp630
Rp631
sg78
I3
sg79
g80
sg81
g11
(g15
S'\x9bl\xb2\xc9&\x9b\xe4?'
p632
tp633
Rp634
sg85
g86
sg87
g88
sbag4
(g5
g6
Ntp635
Rp636
(dp637
g10
g11
(g15
S'\x00\x00\x00\x00\x00\x00\xf8\xff'
p638
tp639
Rp640
sg98
g156
sg25
g26
sg36
(dp641
g98
g156
sg246
g11
(g15
S'\x0ea\xed\x8a\xcd\x99T@'
p642
tp643
Rp644
sg229
g11
(g15
S'Q\x91\xf7Ar\xe6\x04@'
p645
tp646
Rp647
ssg46
g11
(g12
(S'S3'
p648
I0
I1
tp649
Rp650
(I3
S'|'
p651
NNNI3
I1
I0
tp652
bS'PCA'
p653
tp654
Rp655
sg55
F0.2
sg229
g647
sg56
g11
(g12
(S'S9'
p656
I0
I1
tp657
Rp658
(I3
S'|'
p659
NNNI9
I1
I0
tp660
bS'inception'
p661
tp662
Rp663
sg246
g644
sg65
g11
(g15
S'\x81\x08\xc6b\xef\x1c\xe1?'
p664
tp665
Rp666
sg69
g11
(g12
(S'S3'
p667
I0
I1
tp668
Rp669
(I3
S'|'
p670
NNNI3
I1
I0
tp671
bS'SVM'
p672
tp673
Rp674
sg78
I3
sg79
g80
sg81
g11
(g15
S'\x12\xe4)A\x9e\x12\xe4?'
p675
tp676
Rp677
sg85
g86
sg87
g88
sbag90
ag4
(g5
g6
Ntp678
Rp679
(dp680
g10
g11
(g15
S'\x00\x00\x00\x00\x00\x00\xf8\xff'
p681
tp682
Rp683
sg21
g11
(g15
S'\x00\x00\x00\x00\x00`i@'
p684
tp685
Rp686
sg98
g156
sg25
g26
sg36
(dp687
g21
g686
sg42
g11
(g15
S'\xd0g\x15I\x1a\r\xe7?'
p688
tp689
Rp690
sg98
g156
ssg46
g11
(g12
(S'S3'
p691
I0
I1
tp692
Rp693
(I3
S'|'
p694
NNNI3
I1
I0
tp695
bS'PCA'
p696
tp697
Rp698
sg55
F0.2
sg56
g11
(g12
(S'S3'
p699
I0
I1
tp700
Rp701
(I3
S'|'
p702
NNNI3
I1
I0
tp703
bS'VGG'
p704
tp705
Rp706
sg65
g11
(g15
S'\xad\xe2\xdb\xc5\xd3\xf5\xda?'
p707
tp708
Rp709
sg69
g11
(g12
(S'S2'
p710
I0
I1
tp711
Rp712
(I3
S'|'
p713
NNNI2
I1
I0
tp714
bS'RF'
p715
tp716
Rp717
sg78
I3
sg42
g690
sg79
g80
sg81
g11
(g15
S'\t\xf2\x94 O\t\xea?'
p718
tp719
Rp720
sg85
g86
sg87
g88
sbag146
ag4
(g5
g6
Ntp721
Rp722
(dp723
g10
g11
(g15
S'\x00\x00\x00\x00\x00\x00\xf8\xff'
p724
tp725
Rp726
sg21
g11
(g15
S'\x00\x00\x00\x00\x00\xc0r@'
p727
tp728
Rp729
sg98
g156
sg25
g26
sg36
(dp730
g21
g729
sg42
g11
(g15
S'p\xa7\x14\xba\xd2\xb5\xec?'
p731
tp732
Rp733
sg98
g156
ssg46
g11
(g12
(S'S3'
p734
I0
I1
tp735
Rp736
(I3
S'|'
p737
NNNI3
I1
I0
tp738
bS'PCA'
p739
tp740
Rp741
sg55
F0.2
sg56
g11
(g12
(S'S3'
p742
I0
I1
tp743
Rp744
(I3
S'|'
p745
NNNI3
I1
I0
tp746
bS'VGG'
p747
tp748
Rp749
sg65
g11
(g15
S'7Z\x07\xf3_\xcd\xda?'
p750
tp751
Rp752
sg69
g11
(g12
(S'S2'
p753
I0
I1
tp754
Rp755
(I3
S'|'
p756
NNNI2
I1
I0
tp757
bS'RF'
p758
tp759
Rp760
sg78
I3
sg42
g733
sg79
g80
sg81
g11
(g15
S'\t\xf2\x94 O\t\xea?'
p761
tp762
Rp763
sg85
g86
sg87
g88
sbag4
(g5
g6
Ntp764
Rp765
(dp766
g10
g11
(g15
S'\x00\x00\x00\x00\x00\x00\xf8\xff'
p767
tp768
Rp769
sg21
g11
(g15
S'\x00\x00\x00\x00\x00`i@'
p770
tp771
Rp772
sg25
g26
sg27
g11
(g30
S'\x05\x00\x00\x00\x00\x00\x00\x00'
p773
tp774
Rp775
sg36
(dp776
g21
g772
sg27
g775
sg111
g11
(g30
S'\x03\x00\x00\x00\x00\x00\x00\x00'
p777
tp778
Rp779
sg38
g11
(g30
S'\x04\x00\x00\x00\x00\x00\x00\x00'
p780
tp781
Rp782
sg42
g11
(g15
S'q\xdea\xf4\rn\xd7?'
p783
tp784
Rp785
ssg46
g11
(g12
(S'S6'
p786
I0
I1
tp787
Rp788
(I3
S'|'
p789
NNNI6
I1
I0
tp790
bS'ISOMAP'
p791
tp792
Rp793
sg55
F0.2
sg38
g782
sg56
g11
(g12
(S'S8'
p794
I0
I1
tp795
Rp796
(I3
S'|'
p797
NNNI8
I1
I0
tp798
bS'haralick'
p799
tp800
Rp801
sg111
g779
sg65
g11
(g15
S'\xef-\x02\x03\xbd\xa6\xde?'
p802
tp803
Rp804
sg69
g11
(g12
(S'S2'
p805
I0
I1
tp806
Rp807
(I3
S'|'
p808
NNNI2
I1
I0
tp809
bS'RF'
p810
tp811
Rp812
sg78
I3
sg42
g785
sg79
g80
sg81
g11
(g15
S'\x89[\xa1\xb8\x15\x8a\xeb?'
p813
tp814
Rp815
sg85
g86
sg87
g88
sbag4
(g5
g6
Ntp816
Rp817
(dp818
g10
g11
(g15
S'\x00\x00\x00\x00\x00\x00\xf8\xff'
p819
tp820
Rp821
sg21
g11
(g15
S'\x00\x00\x00\x00\x00\x00 @'
p822
tp823
Rp824
sg25
g26
sg27
g11
(g30
S'\x04\x00\x00\x00\x00\x00\x00\x00'
p825
tp826
Rp827
sg36
(dp828
g21
g824
sg27
g827
sg111
g11
(g30
S'\x02\x00\x00\x00\x00\x00\x00\x00'
p829
tp830
Rp831
sg38
g11
(g30
S'\x03\x00\x00\x00\x00\x00\x00\x00'
p832
tp833
Rp834
sg42
g11
(g15
S'q\x11\xa71\xc5\xd7\xe4?'
p835
tp836
Rp837
ssg46
g11
(g12
(S'S6'
p838
I0
I1
tp839
Rp840
(I3
S'|'
p841
NNNI6
I1
I0
tp842
bS'ISOMAP'
p843
tp844
Rp845
sg55
F0.2
sg38
g834
sg56
g11
(g12
(S'S8'
p846
I0
I1
tp847
Rp848
(I3
S'|'
p849
NNNI8
I1
I0
tp850
bS'haralick'
p851
tp852
Rp853
sg111
g831
sg65
g11
(g15
S'E\xe0\xb5!0\xf4\x07@'
p854
tp855
Rp856
sg69
g11
(g12
(S'S2'
p857
I0
I1
tp858
Rp859
(I3
S'|'
p860
NNNI2
I1
I0
tp861
bS'RF'
p862
tp863
Rp864
sg78
I3
sg42
g837
sg79
g80
sg81
g11
(g15
S'%\xc8S\x82<%\xe8?'
p865
tp866
Rp867
sg85
g86
sg87
g88
sbag4
(g5
g6
Ntp868
Rp869
(dp870
g10
g11
(g15
S'\x00\x00\x00\x00\x00\x00\xf8\xff'
p871
tp872
Rp873
sg27
g11
(g30
S'\x06\x00\x00\x00\x00\x00\x00\x00'
p874
tp875
Rp876
sg25
g26
sg36
(dp877
g27
g876
sg246
g11
(g15
S'D\xaa\x15\xf9\x06\x8cU@'
p878
tp879
Rp880
sg38
g11
(g30
S'\x02\x00\x00\x00\x00\x00\x00\x00'
p881
tp882
Rp883
sg229
g11
(g15
S'\xe0\xa0\x89\x8d\xa4\xd0\xb2?'
p884
tp885
Rp886
ssg229
g886
sg46
g11
(g12
(S'S6'
p887
I0
I1
tp888
Rp889
(I3
S'|'
p890
NNNI6
I1
I0
tp891
bS'ISOMAP'
p892
tp893
Rp894
sg55
F0.2
sg38
g883
sg56
g11
(g12
(S'S9'
p895
I0
I1
tp896
Rp897
(I3
S'|'
p898
NNNI9
I1
I0
tp899
bS'inception'
p900
tp901
Rp902
sg246
g880
sg65
g11
(g15
S'?i\x87\x90\xc89\xe0?'
p903
tp904
Rp905
sg69
g11
(g12
(S'S3'
p906
I0
I1
tp907
Rp908
(I3
S'|'
p909
NNNI3
I1
I0
tp910
bS'SVM'
p911
tp912
Rp913
sg78
I3
sg79
g80
sg81
g11
(g15
S'>\xf8\xe0\x83\x0f>\xe0?'
p914
tp915
Rp916
sg85
g86
sg87
g88
sbag4
(g5
g6
Ntp917
Rp918
(dp919
g10
g11
(g15
S'\x00\x00\x00\x00\x00\x00\xf8\xff'
p920
tp921
Rp922
sg21
g11
(g15
S'\x00\x00\x00\x00\x00@R@'
p923
tp924
Rp925
sg25
g26
sg27
g11
(g30
S'\x06\x00\x00\x00\x00\x00\x00\x00'
p926
tp927
Rp928
sg36
(dp929
g21
g925
sg27
g928
sg38
g11
(g30
S'\x04\x00\x00\x00\x00\x00\x00\x00'
p930
tp931
Rp932
sg42
g11
(g15
S'\xe4\xb7;c\xf1\x8a\xed?'
p933
tp934
Rp935
ssg46
g11
(g12
(S'S6'
p936
I0
I1
tp937
Rp938
(I3
S'|'
p939
NNNI6
I1
I0
tp940
bS'ISOMAP'
p941
tp942
Rp943
sg55
F0.2
sg38
g932
sg56
g11
(g12
(S'S9'
p944
I0
I1
tp945
Rp946
(I3
S'|'
p947
NNNI9
I1
I0
tp948
bS'inception'
p949
tp950
Rp951
sg65
g11
(g15
S'\xf3\x9fl\xb0\xf2\x91\xe3?'
p952
tp953
Rp954
sg69
g11
(g12
(S'S2'
p955
I0
I1
tp956
Rp957
(I3
S'|'
p958
NNNI2
I1
I0
tp959
bS'RF'
p960
tp961
Rp962
sg78
I3
sg42
g935
sg79
g80
sg81
g11
(g15
S'\x15\xb7Bq+\x14\xe7?'
p963
tp964
Rp965
sg85
g86
sg87
g88
sbag4
(g5
g6
Ntp966
Rp967
(dp968
g10
g11
(g15
S'\x00\x00\x00\x00\x00\x00\xf8\xff'
p969
tp970
Rp971
sg27
g11
(g30
S'\x03\x00\x00\x00\x00\x00\x00\x00'
p972
tp973
Rp974
sg25
g26
sg36
(dp975
g27
g974
sg246
g11
(g15
S'|\xbaW\x003\xe0,@'
p976
tp977
Rp978
sg111
g11
(g30
S'\x02\x00\x00\x00\x00\x00\x00\x00'
p979
tp980
Rp981
sg38
g11
(g30
S'\x04\x00\x00\x00\x00\x00\x00\x00'
p982
tp983
Rp984
sg229
g11
(g15
S'\xecRd\xfb%V\xf8?'
p985
tp986
Rp987
ssg229
g987
sg46
g11
(g12
(S'S6'
p988
I0
I1
tp989
Rp990
(I3
S'|'
p991
NNNI6
I1
I0
tp992
bS'ISOMAP'
p993
tp994
Rp995
sg55
F0.2
sg38
g984
sg56
g11
(g12
(S'S8'
p996
I0
I1
tp997
Rp998
(I3
S'|'
p999
NNNI8
I1
I0
tp1000
bS'haralick'
p1001
tp1002
Rp1003
sg246
g978
sg111
g981
sg65
g11
(g15
S'\x19h\xf6\xa5\xc0r\xe2?'
p1004
tp1005
Rp1006
sg69
g11
(g12
(S'S3'
p1007
I0
I1
tp1008
Rp1009
(I3
S'|'
p1010
NNNI3
I1
I0
tp1011
bS'SVM'
p1012
tp1013
Rp1014
sg78
I3
sg79
g80
sg81
g11
(g15
S'\xb0\xf6\rk\xdf\xb0\xe6?'
p1015
tp1016
Rp1017
sg85
g86
sg87
g88
sbag4
(g5
g6
Ntp1018
Rp1019
(dp1020
g10
g11
(g15
S'\x00\x00\x00\x00\x00\x00\xf8\xff'
p1021
tp1022
Rp1023
sg21
g11
(g15
S'\x00\x00\x00\x00\x00@R@'
p1024
tp1025
Rp1026
sg98
g156
sg25
g26
sg36
(dp1027
g21
g1026
sg42
g11
(g15
S'\x8b\xb4\x92j\xc9,\xe4?'
p1028
tp1029
Rp1030
sg98
g156
ssg46
g11
(g12
(S'S3'
p1031
I0
I1
tp1032
Rp1033
(I3
S'|'
p1034
NNNI3
I1
I0
tp1035
bS'PCA'
p1036
tp1037
Rp1038
sg55
F0.2
sg56
g11
(g12
(S'S9'
p1039
I0
I1
tp1040
Rp1041
(I3
S'|'
p1042
NNNI9
I1
I0
tp1043
bS'inception'
p1044
tp1045
Rp1046
sg65
g11
(g15
S'UD\x1em\x08]\xf0?'
p1047
tp1048
Rp1049
sg69
g11
(g12
(S'S2'
p1050
I0
I1
tp1051
Rp1052
(I3
S'|'
p1053
NNNI2
I1
I0
tp1054
bS'RF'
p1055
tp1056
Rp1057
sg78
I3
sg42
g1030
sg79
g80
sg81
g11
(g15
S'\x11\x11\x11\x11\x11\x11\xe9?'
p1058
tp1059
Rp1060
sg85
g86
sg87
g88
sbag4
(g5
g6
Ntp1061
Rp1062
(dp1063
g10
g11
(g15
S'\x00\x00\x00\x00\x00\x00\xf8\xff'
p1064
tp1065
Rp1066
sg27
g11
(g30
S'\x05\x00\x00\x00\x00\x00\x00\x00'
p1067
tp1068
Rp1069
sg25
g26
sg36
(dp1070
g27
g1069
sg246
g11
(g15
S'O\xd8jK\x06mS@'
p1071
tp1072
Rp1073
sg38
g11
(g30
S'\x02\x00\x00\x00\x00\x00\x00\x00'
p1074
tp1075
Rp1076
sg229
g11
(g15
S'\xda\xb79\xcb\xfe!\x03@'
p1077
tp1078
Rp1079
ssg229
g1079
sg46
g11
(g12
(S'S6'
p1080
I0
I1
tp1081
Rp1082
(I3
S'|'
p1083
NNNI6
I1
I0
tp1084
bS'ISOMAP'
p1085
tp1086
Rp1087
sg55
F0.2
sg38
g1076
sg56
g11
(g12
(S'S3'
p1088
I0
I1
tp1089
Rp1090
(I3
S'|'
p1091
NNNI3
I1
I0
tp1092
bS'VGG'
p1093
tp1094
Rp1095
sg246
g1073
sg65
g11
(g15
S'\x122\xd1x\xb0\x9b\xe4?'
p1096
tp1097
Rp1098
sg69
g11
(g12
(S'S3'
p1099
I0
I1
tp1100
Rp1101
(I3
S'|'
p1102
NNNI3
I1
I0
tp1103
bS'SVM'
p1104
tp1105
Rp1106
sg78
I3
sg79
g80
sg81
g11
(g15
S'\xa4^G\xeau\xa4\xe6?'
p1107
tp1108
Rp1109
sg85
g86
sg87
g88
sbag4
(g5
g6
Ntp1110
Rp1111
(dp1112
g10
g11
(g15
S'\x00\x00\x00\x00\x00\x00\xf8\xff'
p1113
tp1114
Rp1115
sg27
g11
(g30
S'\x04\x00\x00\x00\x00\x00\x00\x00'
p1116
tp1117
Rp1118
sg25
g26
sg36
(dp1119
g27
g1118
sg246
g11
(g15
S'i?\xf7\xb0}h7@'
p1120
tp1121
Rp1122
sg111
g11
(g30
S'\x01\x00\x00\x00\x00\x00\x00\x00'
p1123
tp1124
Rp1125
sg38
g11
(g30
S'\x03\x00\x00\x00\x00\x00\x00\x00'
p1126
tp1127
Rp1128
sg229
g11
(g15
S'\x9a\xb5p0\x0c\x16\x10@'
p1129
tp1130
Rp1131
ssg229
g1131
sg46
g11
(g12
(S'S6'
p1132
I0
I1
tp1133
Rp1134
(I3
S'|'
p1135
NNNI6
I1
I0
tp1136
bS'ISOMAP'
p1137
tp1138
Rp1139
sg55
F0.2
sg38
g1128
sg56
g11
(g12
(S'S8'
p1140
I0
I1
tp1141
Rp1142
(I3
S'|'
p1143
NNNI8
I1
I0
tp1144
bS'haralick'
p1145
tp1146
Rp1147
sg246
g1122
sg111
g1125
sg65
g11
(g15
S'\x87\xbb\xa8\x0c:\x8b\xe1?'
p1148
tp1149
Rp1150
sg69
g11
(g12
(S'S3'
p1151
I0
I1
tp1152
Rp1153
(I3
S'|'
p1154
NNNI3
I1
I0
tp1155
bS'SVM'
p1156
tp1157
Rp1158
sg78
I3
sg79
g80
sg81
g11
(g15
S'(n\x85\xe2V(\xe6?'
p1159
tp1160
Rp1161
sg85
g86
sg87
g88
sbag4
(g5
g6
Ntp1162
Rp1163
(dp1164
g10
g11
(g15
S'\x00\x00\x00\x00\x00\x00\xf8\xff'
p1165
tp1166
Rp1167
sg21
g11
(g15
S'\x00\x00\x00\x00\x00\x00 @'
p1168
tp1169
Rp1170
sg98
g156
sg25
g26
sg36
(dp1171
g21
g1170
sg42
g11
(g15
S'\x8c$\xf5\xfa\xcb\xa2\xe8?'
p1172
tp1173
Rp1174
sg98
g156
ssg46
g11
(g12
(S'S3'
p1175
I0
I1
tp1176
Rp1177
(I3
S'|'
p1178
NNNI3
I1
I0
tp1179
bS'PCA'
p1180
tp1181
Rp1182
sg55
F0.2
sg56
g11
(g12
(S'S9'
p1183
I0
I1
tp1184
Rp1185
(I3
S'|'
p1186
NNNI9
I1
I0
tp1187
bS'inception'
p1188
tp1189
Rp1190
sg65
g11
(g15
S'\xad\x9d\xe5\x84W\xdf\xff?'
p1191
tp1192
Rp1193
sg69
g11
(g12
(S'S2'
p1194
I0
I1
tp1195
Rp1196
(I3
S'|'
p1197
NNNI2
I1
I0
tp1198
bS'RF'
p1199
tp1200
Rp1201
sg78
I3
sg42
g1174
sg79
g80
sg81
g11
(g15
S'|\xf0\xc1\x07\x1f|\xe8?'
p1202
tp1203
Rp1204
sg85
g86
sg87
g88
sbag4
(g5
g6
Ntp1205
Rp1206
(dp1207
g10
g11
(g15
S'\x00\x00\x00\x00\x00\x00\xf8\xff'
p1208
tp1209
Rp1210
sg21
g11
(g15
S'\x00\x00\x00\x00\x00`i@'
p1211
tp1212
Rp1213
sg98
g156
sg25
g26
sg36
(dp1214
g21
g1213
sg42
g11
(g15
S'\xb9\xa1>\xc0\tX\xe1?'
p1215
tp1216
Rp1217
sg98
g156
ssg46
g11
(g12
(S'S3'
p1218
I0
I1
tp1219
Rp1220
(I3
S'|'
p1221
NNNI3
I1
I0
tp1222
bS'PCA'
p1223
tp1224
Rp1225
sg55
F0.2
sg56
g11
(g12
(S'S3'
p1226
I0
I1
tp1227
Rp1228
(I3
S'|'
p1229
NNNI3
I1
I0
tp1230
bS'VGG'
p1231
tp1232
Rp1233
sg65
g11
(g15
S'\xf4\xde\xaa#\x90Y\xdb?'
p1234
tp1235
Rp1236
sg69
g11
(g12
(S'S2'
p1237
I0
I1
tp1238
Rp1239
(I3
S'|'
p1240
NNNI2
I1
I0
tp1241
bS'RF'
p1242
tp1243
Rp1244
sg78
I3
sg42
g1217
sg79
g80
sg81
g11
(g15
S'\x91z\x1d\xa9\xd7\x91\xea?'
p1245
tp1246
Rp1247
sg85
g86
sg87
g88
sbag4
(g5
g6
Ntp1248
Rp1249
(dp1250
g10
g11
(g15
S'\x00\x00\x00\x00\x00\x00\xf8\xff'
p1251
tp1252
Rp1253
sg27
g11
(g30
S'\x06\x00\x00\x00\x00\x00\x00\x00'
p1254
tp1255
Rp1256
sg25
g26
sg36
(dp1257
g27
g1256
sg246
g11
(g15
S'\x8c\x11\xfc\xb2KUW@'
p1258
tp1259
Rp1260
sg111
g11
(g30
S'\x03\x00\x00\x00\x00\x00\x00\x00'
p1261
tp1262
Rp1263
sg38
g11
(g30
S'\x02\x00\x00\x00\x00\x00\x00\x00'
p1264
tp1265
Rp1266
sg229
g11
(g15
S'h\xbev%\xf4\x12\x0f@'
p1267
tp1268
Rp1269
ssg229
g1269
sg46
g11
(g12
(S'S6'
p1270
I0
I1
tp1271
Rp1272
(I3
S'|'
p1273
NNNI6
I1
I0
tp1274
bS'ISOMAP'
p1275
tp1276
Rp1277
sg55
F0.2
sg38
g1266
sg56
g11
(g12
(S'S8'
p1278
I0
I1
tp1279
Rp1280
(I3
S'|'
p1281
NNNI8
I1
I0
tp1282
bS'haralick'
p1283
tp1284
Rp1285
sg246
g1260
sg111
g1263
sg65
g11
(g15
S'\xdfW\xa5m\x13\xa3\xe0?'
p1286
tp1287
Rp1288
sg69
g11
(g12
(S'S3'
p1289
I0
I1
tp1290
Rp1291
(I3
S'|'
p1292
NNNI3
I1
I0
tp1293
bS'SVM'
p1294
tp1295
Rp1296
sg78
I3
sg79
g80
sg81
g11
(g15
S'\x98\xc6\x80i\x0c\x98\xe6?'
p1297
tp1298
Rp1299
sg85
g86
sg87
g88
sbag4
(g5
g6
Ntp1300
Rp1301
(dp1302
g10
g11
(g15
S'\x00\x00\x00\x00\x00\x00\xf8\xff'
p1303
tp1304
Rp1305
sg21
g11
(g15
S'\x00\x00\x00\x00\x00@e@'
p1306
tp1307
Rp1308
sg25
g26
sg27
g11
(g30
S'\x05\x00\x00\x00\x00\x00\x00\x00'
p1309
tp1310
Rp1311
sg36
(dp1312
g21
g1308
sg27
g1311
sg38
g11
(g30
S'\x02\x00\x00\x00\x00\x00\x00\x00'
p1313
tp1314
Rp1315
sg42
g11
(g15
S'\x07\x06\x18\xfeMk\xd3?'
p1316
tp1317
Rp1318
ssg46
g11
(g12
(S'S6'
p1319
I0
I1
tp1320
Rp1321
(I3
S'|'
p1322
NNNI6
I1
I0
tp1323
bS'ISOMAP'
p1324
tp1325
Rp1326
sg55
F0.2
sg38
g1315
sg56
g11
(g12
(S'S9'
p1327
I0
I1
tp1328
Rp1329
(I3
S'|'
p1330
NNNI9
I1
I0
tp1331
bS'inception'
p1332
tp1333
Rp1334
sg65
g11
(g15
S'\x040o\x85E\x7f\xf0?'
p1335
tp1336
Rp1337
sg69
g11
(g12
(S'S2'
p1338
I0
I1
tp1339
Rp1340
(I3
S'|'
p1341
NNNI2
I1
I0
tp1342
bS'RF'
p1343
tp1344
Rp1345
sg78
I3
sg42
g1318
sg79
g80
sg81
g11
(g15
S'\x15\xb7Bq+\x14\xe7?'
p1346
tp1347
Rp1348
sg85
g86
sg87
g88
sbag4
(g5
g6
Ntp1349
Rp1350
(dp1351
g10
g11
(g15
S'\x00\x00\x00\x00\x00\x00\xf8\xff'
p1352
tp1353
Rp1354
sg21
g11
(g15
S'\x00\x00\x00\x00\x00\xc0r@'
p1355
tp1356
Rp1357
sg98
g156
sg25
g26
sg36
(dp1358
g21
g1357
sg42
g11
(g15
S']p!\xfe\xff\xc8\xd4?'
p1359
tp1360
Rp1361
sg98
g156
ssg46
g11
(g12
(S'S3'
p1362
I0
I1
tp1363
Rp1364
(I3
S'|'
p1365
NNNI3
I1
I0
tp1366
bS'PCA'
p1367
tp1368
Rp1369
sg55
F0.2
sg56
g11
(g12
(S'S3'
p1370
I0
I1
tp1371
Rp1372
(I3
S'|'
p1373
NNNI3
I1
I0
tp1374
bS'VGG'
p1375
tp1376
Rp1377
sg65
g11
(g15
S'qtam\x85Z\xdb?'
p1378
tp1379
Rp1380
sg69
g11
(g12
(S'S2'
p1381
I0
I1
tp1382
Rp1383
(I3
S'|'
p1384
NNNI2
I1
I0
tp1385
bS'RF'
p1386
tp1387
Rp1388
sg78
I3
sg42
g1361
sg79
g80
sg81
g11
(g15
S'\xfdY\xce\x9f\xe5\xfc\xe9?'
p1389
tp1390
Rp1391
sg85
g86
sg87
g88
sbag4
(g5
g6
Ntp1392
Rp1393
(dp1394
g10
g11
(g15
S'\x00\x00\x00\x00\x00\x00\xf8\xff'
p1395
tp1396
Rp1397
sg21
g11
(g15
S'\x00\x00\x00\x00\x00\x00D@'
p1398
tp1399
Rp1400
sg25
g26
sg27
g11
(g30
S'\x06\x00\x00\x00\x00\x00\x00\x00'
p1401
tp1402
Rp1403
sg36
(dp1404
g21
g1400
sg27
g1403
sg111
g11
(g30
S'\x01\x00\x00\x00\x00\x00\x00\x00'
p1405
tp1406
Rp1407
sg38
g11
(g30
S'\x04\x00\x00\x00\x00\x00\x00\x00'
p1408
tp1409
Rp1410
sg42
g11
(g15
S'F{ej\x0c\xb2\xe5?'
p1411
tp1412
Rp1413
ssg46
g11
(g12
(S'S6'
p1414
I0
I1
tp1415
Rp1416
(I3
S'|'
p1417
NNNI6
I1
I0
tp1418
bS'ISOMAP'
p1419
tp1420
Rp1421
sg55
F0.2
sg38
g1410
sg56
g11
(g12
(S'S8'
p1422
I0
I1
tp1423
Rp1424
(I3
S'|'
p1425
NNNI8
I1
I0
tp1426
bS'haralick'
p1427
tp1428
Rp1429
sg111
g1407
sg65
g11
(g15
S'\xa0\x9a\x9a\xd4&\x17\xf8?'
p1430
tp1431
Rp1432
sg69
g11
(g12
(S'S2'
p1433
I0
I1
tp1434
Rp1435
(I3
S'|'
p1436
NNNI2
I1
I0
tp1437
bS'RF'
p1438
tp1439
Rp1440
sg78
I3
sg42
g1413
sg79
g80
sg81
g11
(g15
S'\r\x98\xc6\x80i\x0c\xe8?'
p1441
tp1442
Rp1443
sg85
g86
sg87
g88
sbag4
(g5
g6
Ntp1444
Rp1445
(dp1446
g10
g11
(g15
S'\x00\x00\x00\x00\x00\x00\xf8\xff'
p1447
tp1448
Rp1449
sg21
g11
(g15
S'\x00\x00\x00\x00\x00@e@'
p1450
tp1451
Rp1452
sg25
g26
sg27
g11
(g30
S'\x05\x00\x00\x00\x00\x00\x00\x00'
p1453
tp1454
Rp1455
sg36
(dp1456
g21
g1452
sg27
g1455
sg38
g11
(g30
S'\x03\x00\x00\x00\x00\x00\x00\x00'
p1457
tp1458
Rp1459
sg42
g11
(g15
S':\xf5$\x85\x06\xfa\xdd?'
p1460
tp1461
Rp1462
ssg46
g11
(g12
(S'S6'
p1463
I0
I1
tp1464
Rp1465
(I3
S'|'
p1466
NNNI6
I1
I0
tp1467
bS'ISOMAP'
p1468
tp1469
Rp1470
sg55
F0.2
sg38
g1459
sg56
g11
(g12
(S'S3'
p1471
I0
I1
tp1472
Rp1473
(I3
S'|'
p1474
NNNI3
I1
I0
tp1475
bS'VGG'
p1476
tp1477
Rp1478
sg65
g11
(g15
S'$\xe1\xef\x88\x8fY\xdf?'
p1479
tp1480
Rp1481
sg69
g11
(g12
(S'S2'
p1482
I0
I1
tp1483
Rp1484
(I3
S'|'
p1485
NNNI2
I1
I0
tp1486
bS'RF'
p1487
tp1488
Rp1489
sg78
I3
sg42
g1462
sg79
g80
sg81
g11
(g15
S'\xa1\xb8\x15\x8a[\xa1\xe8?'
p1490
tp1491
Rp1492
sg85
g86
sg87
g88
sbag4
(g5
g6
Ntp1493
Rp1494
(dp1495
g10
g11
(g15
S'\x00\x00\x00\x00\x00\x00\xf8\xff'
p1496
tp1497
Rp1498
sg21
g11
(g15
S'\x00\x00\x00\x00\x00@R@'
p1499
tp1500
Rp1501
sg98
g156
sg25
g26
sg36
(dp1502
g21
g1501
sg42
g11
(g15
S'\xa4\xe5GP!\xed\xec?'
p1503
tp1504
Rp1505
sg98
g156
sg111
g11
(g30
S'\x02\x00\x00\x00\x00\x00\x00\x00'
p1506
tp1507
Rp1508
ssg46
g11
(g12
(S'S3'
p1509
I0
I1
tp1510
Rp1511
(I3
S'|'
p1512
NNNI3
I1
I0
tp1513
bS'PCA'
p1514
tp1515
Rp1516
sg55
F0.2
sg56
g11
(g12
(S'S8'
p1517
I0
I1
tp1518
Rp1519
(I3
S'|'
p1520
NNNI8
I1
I0
tp1521
bS'haralick'
p1522
tp1523
Rp1524
sg111
g1508
sg65
g11
(g15
S'\xc1)\x95o*\xe3\x00@'
p1525
tp1526
Rp1527
sg69
g11
(g12
(S'S2'
p1528
I0
I1
tp1529
Rp1530
(I3
S'|'
p1531
NNNI2
I1
I0
tp1532
bS'RF'
p1533
tp1534
Rp1535
sg78
I3
sg42
g1505
sg79
g80
sg81
g11
(g15
S'\xac}\xc3\xda7\xac\xe5?'
p1536
tp1537
Rp1538
sg85
g86
sg87
g88
sbag4
(g5
g6
Ntp1539
Rp1540
(dp1541
g10
g11
(g15
S'\x00\x00\x00\x00\x00\x00\xf8\xff'
p1542
tp1543
Rp1544
sg21
g11
(g15
S'\x00\x00\x00\x00\x00@R@'
p1545
tp1546
Rp1547
sg98
g106
sg25
g26
sg36
(dp1548
g21
g1547
sg42
g11
(g15
S'=\x11Z0!A\xe7?'
p1549
tp1550
Rp1551
sg98
g106
ssg46
g11
(g12
(S'S3'
p1552
I0
I1
tp1553
Rp1554
(I3
S'|'
p1555
NNNI3
I1
I0
tp1556
bS'PCA'
p1557
tp1558
Rp1559
sg55
F0.2
sg56
g11
(g12
(S'S9'
p1560
I0
I1
tp1561
Rp1562
(I3
S'|'
p1563
NNNI9
I1
I0
tp1564
bS'inception'
p1565
tp1566
Rp1567
sg65
g11
(g15
S'\x9fL\x85\xf4\x01\xc7\xe0?'
p1568
tp1569
Rp1570
sg69
g11
(g12
(S'S2'
p1571
I0
I1
tp1572
Rp1573
(I3
S'|'
p1574
NNNI2
I1
I0
tp1575
bS'RF'
p1576
tp1577
Rp1578
sg78
I3
sg42
g1551
sg79
g80
sg81
g11
(g15
S'\x95 O\t\xf2\x94\xe8?'
p1579
tp1580
Rp1581
sg85
g86
sg87
g88
sbag4
(g5
g6
Ntp1582
Rp1583
(dp1584
g10
g11
(g15
S'\x00\x00\x00\x00\x00\x00\xf8\xff'
p1585
tp1586
Rp1587
sg27
g11
(g30
S'\x03\x00\x00\x00\x00\x00\x00\x00'
p1588
tp1589
Rp1590
sg25
g26
sg36
(dp1591
g27
g1590
sg246
g11
(g15
S'\xb8\xcc\xe5\x9c\xc0\x9bB@'
p1592
tp1593
Rp1594
sg38
g11
(g30
S'\x03\x00\x00\x00\x00\x00\x00\x00'
p1595
tp1596
Rp1597
sg229
g11
(g15
S'\xdf \x19%\xdd\x18\x11@'
p1598
tp1599
Rp1600
ssg229
g1600
sg46
g11
(g12
(S'S6'
p1601
I0
I1
tp1602
Rp1603
(I3
S'|'
p1604
NNNI6
I1
I0
tp1605
bS'ISOMAP'
p1606
tp1607
Rp1608
sg55
F0.2
sg38
g1597
sg56
g11
(g12
(S'S3'
p1609
I0
I1
tp1610
Rp1611
(I3
S'|'
p1612
NNNI3
I1
I0
tp1613
bS'VGG'
p1614
tp1615
Rp1616
sg246
g1594
sg65
g11
(g15
S'\xffJ\x1e\x95\x80\x86\xe0?'
p1617
tp1618
Rp1619
sg69
g11
(g12
(S'S3'
p1620
I0
I1
tp1621
Rp1622
(I3
S'|'
p1623
NNNI3
I1
I0
tp1624
bS'SVM'
p1625
tp1626
Rp1627
sg78
I3
sg79
g80
sg81
g11
(g15
S'\x08\x1f|\xf0\xc1\x07\xe7?'
p1628
tp1629
Rp1630
sg85
g86
sg87
g88
sbag4
(g5
g6
Ntp1631
Rp1632
(dp1633
g10
g11
(g15
S'\x00\x00\x00\x00\x00\x00\xf8\xff'
p1634
tp1635
Rp1636
sg27
g11
(g30
S'\x03\x00\x00\x00\x00\x00\x00\x00'
p1637
tp1638
Rp1639
sg25
g26
sg36
(dp1640
g27
g1639
sg246
g11
(g15
S"Z2@o'\xd8X@"
p1641
tp1642
Rp1643
sg111
g11
(g30
S'\x02\x00\x00\x00\x00\x00\x00\x00'
p1644
tp1645
Rp1646
sg38
g11
(g30
S'\x03\x00\x00\x00\x00\x00\x00\x00'
p1647
tp1648
Rp1649
sg229
g11
(g15
S'\xf1\x11i\xb4s\xb8\x17@'
p1650
tp1651
Rp1652
ssg229
g1652
sg46
g11
(g12
(S'S6'
p1653
I0
I1
tp1654
Rp1655
(I3
S'|'
p1656
NNNI6
I1
I0
tp1657
bS'ISOMAP'
p1658
tp1659
Rp1660
sg55
F0.2
sg38
g1649
sg56
g11
(g12
(S'S8'
p1661
I0
I1
tp1662
Rp1663
(I3
S'|'
p1664
NNNI8
I1
I0
tp1665
bS'haralick'
p1666
tp1667
Rp1668
sg246
g1643
sg111
g1646
sg65
g11
(g15
S'p\xe8\x95/\xc6;\xdf?'
p1669
tp1670
Rp1671
sg69
g11
(g12
(S'S3'
p1672
I0
I1
tp1673
Rp1674
(I3
S'|'
p1675
NNNI3
I1
I0
tp1676
bS'SVM'
p1677
tp1678
Rp1679
sg78
I3
sg79
g80
sg81
g11
(g15
S'\x99\x99\x99\x99\x99\x99\xe9?'
p1680
tp1681
Rp1682
sg85
g86
sg87
g88
sbag4
(g5
g6
Ntp1683
Rp1684
(dp1685
g10
g11
(g15
S'\x00\x00\x00\x00\x00\x00\xf8\xff'
p1686
tp1687
Rp1688
sg21
g11
(g15
S'\x00\x00\x00\x00\x00\xc0r@'
p1689
tp1690
Rp1691
sg25
g26
sg27
g11
(g30
S'\x04\x00\x00\x00\x00\x00\x00\x00'
p1692
tp1693
Rp1694
sg36
(dp1695
g21
g1691
sg27
g1694
sg111
g11
(g30
S'\x01\x00\x00\x00\x00\x00\x00\x00'
p1696
tp1697
Rp1698
sg38
g11
(g30
S'\x03\x00\x00\x00\x00\x00\x00\x00'
p1699
tp1700
Rp1701
sg42
g11
(g15
S'\x9e\x14SX\xee*\xef?'
p1702
tp1703
Rp1704
ssg46
g11
(g12
(S'S6'
p1705
I0
I1
tp1706
Rp1707
(I3
S'|'
p1708
NNNI6
I1
I0
tp1709
bS'ISOMAP'
p1710
tp1711
Rp1712
sg55
F0.2
sg38
g1701
sg56
g11
(g12
(S'S8'
p1713
I0
I1
tp1714
Rp1715
(I3
S'|'
p1716
NNNI8
I1
I0
tp1717
bS'haralick'
p1718
tp1719
Rp1720
sg111
g1698
sg65
g11
(g15
S'\xcdT\xb5\x1a\xfe\xf9\xef?'
p1721
tp1722
Rp1723
sg69
g11
(g12
(S'S2'
p1724
I0
I1
tp1725
Rp1726
(I3
S'|'
p1727
NNNI2
I1
I0
tp1728
bS'RF'
p1729
tp1730
Rp1731
sg78
I3
sg42
g1704
sg79
g80
sg81
g11
(g15
S'\x90\xa7\x04yJ\x90\xe7?'
p1732
tp1733
Rp1734
sg85
g86
sg87
g88
sbag4
(g5
g6
Ntp1735
Rp1736
(dp1737
g10
g11
(g15
S'\x00\x00\x00\x00\x00\x00\xf8\xff'
p1738
tp1739
Rp1740
sg21
g11
(g15
S'\x00\x00\x00\x00\x00@R@'
p1741
tp1742
Rp1743
sg98
g106
sg25
g26
sg36
(dp1744
g21
g1743
sg42
g11
(g15
S'\xfe5\xdd\x16*\x19\xed?'
p1745
tp1746
Rp1747
sg98
g106
sg111
g11
(g30
S'\x02\x00\x00\x00\x00\x00\x00\x00'
p1748
tp1749
Rp1750
ssg46
g11
(g12
(S'S3'
p1751
I0
I1
tp1752
Rp1753
(I3
S'|'
p1754
NNNI3
I1
I0
tp1755
bS'PCA'
p1756
tp1757
Rp1758
sg55
F0.2
sg56
g11
(g12
(S'S8'
p1759
I0
I1
tp1760
Rp1761
(I3
S'|'
p1762
NNNI8
I1
I0
tp1763
bS'haralick'
p1764
tp1765
Rp1766
sg111
g1750
sg65
g11
(g15
S'O\xee\xd5\xbe\xd3?\xfa?'
p1767
tp1768
Rp1769
sg69
g11
(g12
(S'S2'
p1770
I0
I1
tp1771
Rp1772
(I3
S'|'
p1773
NNNI2
I1
I0
tp1774
bS'RF'
p1775
tp1776
Rp1777
sg78
I3
sg42
g1747
sg79
g80
sg81
g11
(g15
S'\xac}\xc3\xda7\xac\xe5?'
p1778
tp1779
Rp1780
sg85
g86
sg87
g88
sbag4
(g5
g6
Ntp1781
Rp1782
(dp1783
g10
g11
(g15
S'\x00\x00\x00\x00\x00\x00\xf8\xff'
p1784
tp1785
Rp1786
sg98
g156
sg25
g26
sg36
(dp1787
g98
g156
sg246
g11
(g15
S'{\x99sx\xa1\xdd\x0c@'
p1788
tp1789
Rp1790
sg229
g11
(g15
S'<A),\x99\xe6\x0b@'
p1791
tp1792
Rp1793
ssg46
g11
(g12
(S'S3'
p1794
I0
I1
tp1795
Rp1796
(I3
S'|'
p1797
NNNI3
I1
I0
tp1798
bS'PCA'
p1799
tp1800
Rp1801
sg55
F0.2
sg229
g1793
sg56
g11
(g12
(S'S9'
p1802
I0
I1
tp1803
Rp1804
(I3
S'|'
p1805
NNNI9
I1
I0
tp1806
bS'inception'
p1807
tp1808
Rp1809
sg246
g1790
sg65
g11
(g15
S'\xebSg\x801\xfc\xe2?'
p1810
tp1811
Rp1812
sg69
g11
(g12
(S'S3'
p1813
I0
I1
tp1814
Rp1815
(I3
S'|'
p1816
NNNI3
I1
I0
tp1817
bS'SVM'
p1818
tp1819
Rp1820
sg78
I3
sg79
g80
sg81
g11
(g15
S'\x17]t\xd1E\x17\xe5?'
p1821
tp1822
Rp1823
sg85
g86
sg87
g88
sbag4
(g5
g6
Ntp1824
Rp1825
(dp1826
g10
g11
(g15
S'\x00\x00\x00\x00\x00\x00\xf8\xff'
p1827
tp1828
Rp1829
sg21
g11
(g15
S'\x00\x00\x00\x00\x00\x00 @'
p1830
tp1831
Rp1832
sg98
g156
sg25
g26
sg36
(dp1833
g21
g1832
sg42
g11
(g15
S'\xfe\xb2\x84\xa5Q\x01\xd5?'
p1834
tp1835
Rp1836
sg98
g156
sg111
g11
(g30
S'\x02\x00\x00\x00\x00\x00\x00\x00'
p1837
tp1838
Rp1839
ssg46
g11
(g12
(S'S3'
p1840
I0
I1
tp1841
Rp1842
(I3
S'|'
p1843
NNNI3
I1
I0
tp1844
bS'PCA'
p1845
tp1846
Rp1847
sg55
F0.2
sg56
g11
(g12
(S'S8'
p1848
I0
I1
tp1849
Rp1850
(I3
S'|'
p1851
NNNI8
I1
I0
tp1852
bS'haralick'
p1853
tp1854
Rp1855
sg111
g1839
sg65
g11
(g15
S'[\x12zt\xd5\x83\x14@'
p1856
tp1857
Rp1858
sg69
g11
(g12
(S'S2'
p1859
I0
I1
tp1860
Rp1861
(I3
S'|'
p1862
NNNI2
I1
I0
tp1863
bS'RF'
p1864
tp1865
Rp1866
sg78
I3
sg42
g1836
sg79
g80
sg81
g11
(g15
S'\xb4\x9c?\xcb\xf9\xb3\xe4?'
p1867
tp1868
Rp1869
sg85
g86
sg87
g88
sbag4
(g5
g6
Ntp1870
Rp1871
(dp1872
g10
g11
(g15
S'\x00\x00\x00\x00\x00\x00\xf8\xff'
p1873
tp1874
Rp1875
sg98
g106
sg25
g26
sg36
(dp1876
g98
g106
sg246
g11
(g15
S'&\xc6DQd\xf7M@'
p1877
tp1878
Rp1879
sg229
g11
(g15
S'\xbd\xda%\x91\x0eg\xd0?'
p1880
tp1881
Rp1882
ssg46
g11
(g12
(S'S3'
p1883
I0
I1
tp1884
Rp1885
(I3
S'|'
p1886
NNNI3
I1
I0
tp1887
bS'PCA'
p1888
tp1889
Rp1890
sg55
F0.2
sg229
g1882
sg56
g11
(g12
(S'S9'
p1891
I0
I1
tp1892
Rp1893
(I3
S'|'
p1894
NNNI9
I1
I0
tp1895
bS'inception'
p1896
tp1897
Rp1898
sg246
g1879
sg65
g11
(g15
S'\xbcXD4\x00\x11\xe2?'
p1899
tp1900
Rp1901
sg69
g11
(g12
(S'S3'
p1902
I0
I1
tp1903
Rp1904
(I3
S'|'
p1905
NNNI3
I1
I0
tp1906
bS'SVM'
p1907
tp1908
Rp1909
sg78
I3
sg79
g80
sg81
g11
(g15
S'\x87\xb5oX\xfb\x86\xe5?'
p1910
tp1911
Rp1912
sg85
g86
sg87
g88
sbag4
(g5
g6
Ntp1913
Rp1914
(dp1915
g10
g11
(g15
S'\x00\x00\x00\x00\x00\x00\xf8\xff'
p1916
tp1917
Rp1918
sg21
g11
(g15
S'\x00\x00\x00\x00\x00\xc0p@'
p1919
tp1920
Rp1921
sg98
g106
sg25
g26
sg36
(dp1922
g21
g1921
sg42
g11
(g15
S'\xec\xf5\x02V\n\x87\xe1?'
p1923
tp1924
Rp1925
sg98
g106
sg111
g11
(g30
S'\x02\x00\x00\x00\x00\x00\x00\x00'
p1926
tp1927
Rp1928
ssg46
g11
(g12
(S'S3'
p1929
I0
I1
tp1930
Rp1931
(I3
S'|'
p1932
NNNI3
I1
I0
tp1933
bS'PCA'
p1934
tp1935
Rp1936
sg55
F0.2
sg56
g11
(g12
(S'S8'
p1937
I0
I1
tp1938
Rp1939
(I3
S'|'
p1940
NNNI8
I1
I0
tp1941
bS'haralick'
p1942
tp1943
Rp1944
sg111
g1928
sg65
g11
(g15
S'\xda\xda_\xaa\x0f \xf3?'
p1945
tp1946
Rp1947
sg69
g11
(g12
(S'S2'
p1948
I0
I1
tp1949
Rp1950
(I3
S'|'
p1951
NNNI2
I1
I0
tp1952
bS'RF'
p1953
tp1954
Rp1955
sg78
I3
sg42
g1925
sg79
g80
sg81
g11
(g15
S'\xac}\xc3\xda7\xac\xe5?'
p1956
tp1957
Rp1958
sg85
g86
sg87
g88
sbag4
(g5
g6
Ntp1959
Rp1960
(dp1961
g10
g11
(g15
S'\x00\x00\x00\x00\x00\x00\xf8\xff'
p1962
tp1963
Rp1964
sg21
g11
(g15
S'\x00\x00\x00\x00\x00\xc0r@'
p1965
tp1966
Rp1967
sg98
g156
sg25
g26
sg36
(dp1968
g21
g1967
sg42
g11
(g15
S'U\xd51I\xee\x11\xd5?'
p1969
tp1970
Rp1971
sg98
g156
ssg46
g11
(g12
(S'S3'
p1972
I0
I1
tp1973
Rp1974
(I3
S'|'
p1975
NNNI3
I1
I0
tp1976
bS'PCA'
p1977
tp1978
Rp1979
sg55
F0.2
sg56
g11
(g12
(S'S3'
p1980
I0
I1
tp1981
Rp1982
(I3
S'|'
p1983
NNNI3
I1
I0
tp1984
bS'VGG'
p1985
tp1986
Rp1987
sg65
g11
(g15
S'\xcb\xddL\xed f\xda?'
p1988
tp1989
Rp1990
sg69
g11
(g12
(S'S2'
p1991
I0
I1
tp1992
Rp1993
(I3
S'|'
p1994
NNNI2
I1
I0
tp1995
bS'RF'
p1996
tp1997
Rp1998
sg78
I3
sg42
g1971
sg79
g80
sg81
g11
(g15
S'\x85\xe2V(n\x85\xea?'
p1999
tp2000
Rp2001
sg85
g86
sg87
g88
sbag4
(g5
g6
Ntp2002
Rp2003
(dp2004
g10
g11
(g15
S'\x00\x00\x00\x00\x00\x00\xf8\xff'
p2005
tp2006
Rp2007
sg98
g106
sg25
g26
sg36
(dp2008
g98
g106
sg246
g11
(g15
S'a\x88\x8f.r\x85T@'
p2009
tp2010
Rp2011
sg229
g11
(g15
S'\xf2\xfaF\xf3\xa0\xc0\x19@'
p2012
tp2013
Rp2014
ssg46
g11
(g12
(S'S3'
p2015
I0
I1
tp2016
Rp2017
(I3
S'|'
p2018
NNNI3
I1
I0
tp2019
bS'PCA'
p2020
tp2021
Rp2022
sg55
F0.2
sg229
g2014
sg56
g11
(g12
(S'S3'
p2023
I0
I1
tp2024
Rp2025
(I3
S'|'
p2026
NNNI3
I1
I0
tp2027
bS'VGG'
p2028
tp2029
Rp2030
sg246
g2011
sg65
g11
(g15
S'%\xe7F\x8d\xe6\xc9\xe0?'
p2031
tp2032
Rp2033
sg69
g11
(g12
(S'S3'
p2034
I0
I1
tp2035
Rp2036
(I3
S'|'
p2037
NNNI3
I1
I0
tp2038
bS'SVM'
p2039
tp2040
Rp2041
sg78
I3
sg79
g80
sg81
g11
(g15
S'\x05yJ\x90\xa7\x04\xe9?'
p2042
tp2043
Rp2044
sg85
g86
sg87
g88
sbag4
(g5
g6
Ntp2045
Rp2046
(dp2047
g10
g11
(g15
S'\x00\x00\x00\x00\x00\x00\xf8\xff'
p2048
tp2049
Rp2050
sg21
g11
(g15
S'\x00\x00\x00\x00\x00@e@'
p2051
tp2052
Rp2053
sg98
g106
sg25
g26
sg36
(dp2054
g21
g2053
sg42
g11
(g15
S'rq\xe7\x0e\x06\x93\xec?'
p2055
tp2056
Rp2057
sg98
g106
ssg46
g11
(g12
(S'S3'
p2058
I0
I1
tp2059
Rp2060
(I3
S'|'
p2061
NNNI3
I1
I0
tp2062
bS'PCA'
p2063
tp2064
Rp2065
sg55
F0.2
sg56
g11
(g12
(S'S9'
p2066
I0
I1
tp2067
Rp2068
(I3
S'|'
p2069
NNNI9
I1
I0
tp2070
bS'inception'
p2071
tp2072
Rp2073
sg65
g11
(g15
S'\x0b\n\xe1\xd1\n\x08\xe2?'
p2074
tp2075
Rp2076
sg69
g11
(g12
(S'S2'
p2077
I0
I1
tp2078
Rp2079
(I3
S'|'
p2080
NNNI2
I1
I0
tp2081
bS'RF'
p2082
tp2083
Rp2084
sg78
I3
sg42
g2057
sg79
g80
sg81
g11
(g15
S'\x15\xb7Bq+\x14\xe7?'
p2085
tp2086
Rp2087
sg85
g86
sg87
g88
sbag4
(g5
g6
Ntp2088
Rp2089
(dp2090
g10
g11
(g15
S'\x00\x00\x00\x00\x00\x00\xf8\xff'
p2091
tp2092
Rp2093
sg21
g11
(g15
S'\x00\x00\x00\x00\x00`i@'
p2094
tp2095
Rp2096
sg98
g156
sg25
g26
sg36
(dp2097
g21
g2096
sg42
g11
(g15
S'\xe6O\xa6\x9cZA\xe2?'
p2098
tp2099
Rp2100
sg98
g156
sg111
g11
(g30
S'\x01\x00\x00\x00\x00\x00\x00\x00'
p2101
tp2102
Rp2103
ssg46
g11
(g12
(S'S3'
p2104
I0
I1
tp2105
Rp2106
(I3
S'|'
p2107
NNNI3
I1
I0
tp2108
bS'PCA'
p2109
tp2110
Rp2111
sg55
F0.2
sg56
g11
(g12
(S'S8'
p2112
I0
I1
tp2113
Rp2114
(I3
S'|'
p2115
NNNI8
I1
I0
tp2116
bS'haralick'
p2117
tp2118
Rp2119
sg111
g2103
sg65
g11
(g15
S'\x12<\x03\xb7\x86\xd1\xf2?'
p2120
tp2121
Rp2122
sg69
g11
(g12
(S'S2'
p2123
I0
I1
tp2124
Rp2125
(I3
S'|'
p2126
NNNI2
I1
I0
tp2127
bS'RF'
p2128
tp2129
Rp2130
sg78
I3
sg42
g2100
sg79
g80
sg81
g11
(g15
S'\x1c\xd6\xbea\xed\x1b\xe6?'
p2131
tp2132
Rp2133
sg85
g86
sg87
g88
sbag4
(g5
g6
Ntp2134
Rp2135
(dp2136
g10
g11
(g15
S'\x00\x00\x00\x00\x00\x00\xf8\xff'
p2137
tp2138
Rp2139
sg98
g156
sg25
g26
sg36
(dp2140
g98
g156
sg246
g11
(g15
S'\xb2\x86\x7fL\xe2\x16A@'
p2141
tp2142
Rp2143
sg229
g11
(g15
S'\xd6P\xc3\xbc\xeb\xf7\t@'
p2144
tp2145
Rp2146
ssg46
g11
(g12
(S'S3'
p2147
I0
I1
tp2148
Rp2149
(I3
S'|'
p2150
NNNI3
I1
I0
tp2151
bS'PCA'
p2152
tp2153
Rp2154
sg55
F0.2
sg229
g2146
sg56
g11
(g12
(S'S3'
p2155
I0
I1
tp2156
Rp2157
(I3
S'|'
p2158
NNNI3
I1
I0
tp2159
bS'VGG'
p2160
tp2161
Rp2162
sg246
g2143
sg65
g11
(g15
S'\xa1H \x1c\xa6G\xe1?'
p2163
tp2164
Rp2165
sg69
g11
(g12
(S'S3'
p2166
I0
I1
tp2167
Rp2168
(I3
S'|'
p2169
NNNI3
I1
I0
tp2170
bS'SVM'
p2171
tp2172
Rp2173
sg78
I3
sg79
g80
sg81
g11
(g15
S'\x05yJ\x90\xa7\x04\xe9?'
p2174
tp2175
Rp2176
sg85
g86
sg87
g88
sbag4
(g5
g6
Ntp2177
Rp2178
(dp2179
g10
g11
(g15
S'\x00\x00\x00\x00\x00\x00\xf8\xff'
p2180
tp2181
Rp2182
sg21
g11
(g15
S'\x00\x00\x00\x00\x00@R@'
p2183
tp2184
Rp2185
sg98
g106
sg25
g26
sg36
(dp2186
g21
g2185
sg42
g11
(g15
S'\xb7\xf3\xad\x8e\xe5\x1c\xe6?'
p2187
tp2188
Rp2189
sg98
g106
ssg46
g11
(g12
(S'S3'
p2190
I0
I1
tp2191
Rp2192
(I3
S'|'
p2193
NNNI3
I1
I0
tp2194
bS'PCA'
p2195
tp2196
Rp2197
sg55
F0.2
sg56
g11
(g12
(S'S3'
p2198
I0
I1
tp2199
Rp2200
(I3
S'|'
p2201
NNNI3
I1
I0
tp2202
bS'VGG'
p2203
tp2204
Rp2205
sg65
g11
(g15
S'\x97\x88\xfb\xf7\xf5\xe4\xda?'
p2206
tp2207
Rp2208
sg69
g11
(g12
(S'S2'
p2209
I0
I1
tp2210
Rp2211
(I3
S'|'
p2212
NNNI2
I1
I0
tp2213
bS'RF'
p2214
tp2215
Rp2216
sg78
I3
sg42
g2189
sg79
g80
sg81
g11
(g15
S'\rk\xdf\xb0\xf6\r\xeb?'
p2217
tp2218
Rp2219
sg85
g86
sg87
g88
sbag4
(g5
g6
Ntp2220
Rp2221
(dp2222
g10
g11
(g15
S'\x00\x00\x00\x00\x00\x00\xf8\xff'
p2223
tp2224
Rp2225
sg21
g11
(g15
S'\x00\x00\x00\x00\x00\x00 @'
p2226
tp2227
Rp2228
sg98
g106
sg25
g26
sg36
(dp2229
g21
g2228
sg42
g11
(g15
S'\xba\xcd\xba+\x82\xfc\xe3?'
p2230
tp2231
Rp2232
sg98
g106
ssg46
g11
(g12
(S'S3'
p2233
I0
I1
tp2234
Rp2235
(I3
S'|'
p2236
NNNI3
I1
I0
tp2237
bS'PCA'
p2238
tp2239
Rp2240
sg55
F0.2
sg56
g11
(g12
(S'S3'
p2241
I0
I1
tp2242
Rp2243
(I3
S'|'
p2244
NNNI3
I1
I0
tp2245
bS'VGG'
p2246
tp2247
Rp2248
sg65
g11
(g15
S's`PR5<\xf7?'
p2249
tp2250
Rp2251
sg69
g11
(g12
(S'S2'
p2252
I0
I1
tp2253
Rp2254
(I3
S'|'
p2255
NNNI2
I1
I0
tp2256
bS'RF'
p2257
tp2258
Rp2259
sg78
I3
sg42
g2232
sg79
g80
sg81
g11
(g15
S'\x95 O\t\xf2\x94\xe8?'
p2260
tp2261
Rp2262
sg85
g86
sg87
g88
sbag4
(g5
g6
Ntp2263
Rp2264
(dp2265
g10
g11
(g15
S'\x00\x00\x00\x00\x00\x00\xf8\xff'
p2266
tp2267
Rp2268
sg21
g11
(g15
S'\x00\x00\x00\x00\x00`m@'
p2269
tp2270
Rp2271
sg25
g26
sg27
g11
(g30
S'\x06\x00\x00\x00\x00\x00\x00\x00'
p2272
tp2273
Rp2274
sg36
(dp2275
g21
g2271
sg27
g2274
sg38
g11
(g30
S'\x03\x00\x00\x00\x00\x00\x00\x00'
p2276
tp2277
Rp2278
sg42
g11
(g15
S'U\x95\x11`:!\xe2?'
p2279
tp2280
Rp2281
ssg46
g11
(g12
(S'S6'
p2282
I0
I1
tp2283
Rp2284
(I3
S'|'
p2285
NNNI6
I1
I0
tp2286
bS'ISOMAP'
p2287
tp2288
Rp2289
sg55
F0.2
sg38
g2278
sg56
g11
(g12
(S'S9'
p2290
I0
I1
tp2291
Rp2292
(I3
S'|'
p2293
NNNI9
I1
I0
tp2294
bS'inception'
p2295
tp2296
Rp2297
sg65
g11
(g15
S'\xad\xd4\xa64\xcfM\xe4?'
p2298
tp2299
Rp2300
sg69
g11
(g12
(S'S2'
p2301
I0
I1
tp2302
Rp2303
(I3
S'|'
p2304
NNNI2
I1
I0
tp2305
bS'RF'
p2306
tp2307
Rp2308
sg78
I3
sg42
g2281
sg79
g80
sg81
g11
(g15
S'\x90\xa7\x04yJ\x90\xe7?'
p2309
tp2310
Rp2311
sg85
g86
sg87
g88
sbag4
(g5
g6
Ntp2312
Rp2313
(dp2314
g10
g11
(g15
S'\x00\x00\x00\x00\x00\x00\xf8\xff'
p2315
tp2316
Rp2317
sg21
g11
(g15
S'\x00\x00\x00\x00\x00\x00 @'
p2318
tp2319
Rp2320
sg98
g106
sg25
g26
sg36
(dp2321
g21
g2320
sg42
g11
(g15
S'*\xa2B\x81\x89\x15\xe2?'
p2322
tp2323
Rp2324
sg98
g106
ssg46
g11
(g12
(S'S3'
p2325
I0
I1
tp2326
Rp2327
(I3
S'|'
p2328
NNNI3
I1
I0
tp2329
bS'PCA'
p2330
tp2331
Rp2332
sg55
F0.2
sg56
g11
(g12
(S'S3'
p2333
I0
I1
tp2334
Rp2335
(I3
S'|'
p2336
NNNI3
I1
I0
tp2337
bS'VGG'
p2338
tp2339
Rp2340
sg65
g11
(g15
S"e-'\xf6\x18~\xff?"
p2341
tp2342
Rp2343
sg69
g11
(g12
(S'S2'
p2344
I0
I1
tp2345
Rp2346
(I3
S'|'
p2347
NNNI2
I1
I0
tp2348
bS'RF'
p2349
tp2350
Rp2351
sg78
I3
sg42
g2324
sg79
g80
sg81
g11
(g15
S'yJ\x90\xa7\x04y\xea?'
p2352
tp2353
Rp2354
sg85
g86
sg87
g88
sbag4
(g5
g6
Ntp2355
Rp2356
(dp2357
g10
g11
(g15
S'\x00\x00\x00\x00\x00\x00\xf8\xff'
p2358
tp2359
Rp2360
sg21
g11
(g15
S'\x00\x00\x00\x00\x00@R@'
p2361
tp2362
Rp2363
sg98
g156
sg25
g26
sg36
(dp2364
g21
g2363
sg42
g11
(g15
S'\xc1\xd6\xa61I|\xd3?'
p2365
tp2366
Rp2367
sg98
g156
ssg46
g11
(g12
(S'S3'
p2368
I0
I1
tp2369
Rp2370
(I3
S'|'
p2371
NNNI3
I1
I0
tp2372
bS'PCA'
p2373
tp2374
Rp2375
sg55
F0.2
sg56
g11
(g12
(S'S3'
p2376
I0
I1
tp2377
Rp2378
(I3
S'|'
p2379
NNNI3
I1
I0
tp2380
bS'VGG'
p2381
tp2382
Rp2383
sg65
g11
(g15
S' \xc3\x8di\xd3m\xdc?'
p2384
tp2385
Rp2386
sg69
g11
(g12
(S'S2'
p2387
I0
I1
tp2388
Rp2389
(I3
S'|'
p2390
NNNI2
I1
I0
tp2391
bS'RF'
p2392
tp2393
Rp2394
sg78
I3
sg42
g2367
sg79
g80
sg81
g11
(g15
S'\t\xf2\x94 O\t\xea?'
p2395
tp2396
Rp2397
sg85
g86
sg87
g88
sbag4
(g5
g6
Ntp2398
Rp2399
(dp2400
g10
g11
(g15
S'\x00\x00\x00\x00\x00\x00\xf8\xff'
p2401
tp2402
Rp2403
sg21
g11
(g15
S'\x00\x00\x00\x00\x00@Z@'
p2404
tp2405
Rp2406
sg98
g156
sg25
g26
sg36
(dp2407
g21
g2406
sg42
g11
(g15
S'\x81\x0b\x17\\\xd8\x95\xe3?'
p2408
tp2409
Rp2410
sg98
g156
ssg46
g11
(g12
(S'S3'
p2411
I0
I1
tp2412
Rp2413
(I3
S'|'
p2414
NNNI3
I1
I0
tp2415
bS'PCA'
p2416
tp2417
Rp2418
sg55
F0.2
sg56
g11
(g12
(S'S9'
p2419
I0
I1
tp2420
Rp2421
(I3
S'|'
p2422
NNNI9
I1
I0
tp2423
bS'inception'
p2424
tp2425
Rp2426
sg65
g11
(g15
S'\xc8\xaa3^y\xc9\xe0?'
p2427
tp2428
Rp2429
sg69
g11
(g12
(S'S2'
p2430
I0
I1
tp2431
Rp2432
(I3
S'|'
p2433
NNNI2
I1
I0
tp2434
bS'RF'
p2435
tp2436
Rp2437
sg78
I3
sg42
g2410
sg79
g80
sg81
g11
(g15
S'\x95 O\t\xf2\x94\xe8?'
p2438
tp2439
Rp2440
sg85
g86
sg87
g88
sbag4
(g5
g6
Ntp2441
Rp2442
(dp2443
g10
g11
(g15
S'\x00\x00\x00\x00\x00\x00\xf8\xff'
p2444
tp2445
Rp2446
sg21
g11
(g15
S'\x00\x00\x00\x00\x00@a@'
p2447
tp2448
Rp2449
sg25
g26
sg27
g11
(g30
S'\x04\x00\x00\x00\x00\x00\x00\x00'
p2450
tp2451
Rp2452
sg36
(dp2453
g21
g2449
sg27
g2452
sg38
g11
(g30
S'\x03\x00\x00\x00\x00\x00\x00\x00'
p2454
tp2455
Rp2456
sg42
g11
(g15
S'\x1e\xb8M\xa3\x04Z\xea?'
p2457
tp2458
Rp2459
ssg46
g11
(g12
(S'S6'
p2460
I0
I1
tp2461
Rp2462
(I3
S'|'
p2463
NNNI6
I1
I0
tp2464
bS'ISOMAP'
p2465
tp2466
Rp2467
sg55
F0.2
sg38
g2456
sg56
g11
(g12
(S'S3'
p2468
I0
I1
tp2469
Rp2470
(I3
S'|'
p2471
NNNI3
I1
I0
tp2472
bS'VGG'
p2473
tp2474
Rp2475
sg65
g11
(g15
S'\xf3\x95\xbf\xa3\xb2\xd0\xf7?'
p2476
tp2477
Rp2478
sg69
g11
(g12
(S'S2'
p2479
I0
I1
tp2480
Rp2481
(I3
S'|'
p2482
NNNI2
I1
I0
tp2483
bS'RF'
p2484
tp2485
Rp2486
sg78
I3
sg42
g2459
sg79
g80
sg81
g11
(g15
S'\xa1\xb8\x15\x8a[\xa1\xe8?'
p2487
tp2488
Rp2489
sg85
g86
sg87
g88
sbag4
(g5
g6
Ntp2490
Rp2491
(dp2492
g10
g11
(g15
S'\x00\x00\x00\x00\x00\x00\xf8\xff'
p2493
tp2494
Rp2495
sg98
g156
sg25
g26
sg36
(dp2496
g98
g156
sg246
g11
(g15
S'X\xfa\x03;\xf6dF@'
p2497
tp2498
Rp2499
sg229
g11
(g15
S',\x85`y\xc7\x89\x1d@'
p2500
tp2501
Rp2502
ssg46
g11
(g12
(S'S3'
p2503
I0
I1
tp2504
Rp2505
(I3
S'|'
p2506
NNNI3
I1
I0
tp2507
bS'PCA'
p2508
tp2509
Rp2510
sg55
F0.2
sg229
g2502
sg56
g11
(g12
(S'S3'
p2511
I0
I1
tp2512
Rp2513
(I3
S'|'
p2514
NNNI3
I1
I0
tp2515
bS'VGG'
p2516
tp2517
Rp2518
sg246
g2499
sg65
g11
(g15
S'\xfb\x0b\xcf\x7f\x19\xdc\xe0?'
p2519
tp2520
Rp2521
sg69
g11
(g12
(S'S3'
p2522
I0
I1
tp2523
Rp2524
(I3
S'|'
p2525
NNNI3
I1
I0
tp2526
bS'SVM'
p2527
tp2528
Rp2529
sg78
I3
sg79
g80
sg81
g11
(g15
S'\x05yJ\x90\xa7\x04\xe9?'
p2530
tp2531
Rp2532
sg85
g86
sg87
g88
sbag4
(g5
g6
Ntp2533
Rp2534
(dp2535
g10
g11
(g15
S'\x00\x00\x00\x00\x00\x00\xf8\xff'
p2536
tp2537
Rp2538
sg21
g11
(g15
S'\x00\x00\x00\x00\x00\xc0p@'
p2539
tp2540
Rp2541
sg25
g26
sg27
g11
(g30
S'\x05\x00\x00\x00\x00\x00\x00\x00'
p2542
tp2543
Rp2544
sg36
(dp2545
g21
g2541
sg27
g2544
sg111
g11
(g30
S'\x03\x00\x00\x00\x00\x00\x00\x00'
p2546
tp2547
Rp2548
sg38
g11
(g30
S'\x03\x00\x00\x00\x00\x00\x00\x00'
p2549
tp2550
Rp2551
sg42
g11
(g15
S'\x06\xe6\x19\x92\x7f\xdb\xe0?'
p2552
tp2553
Rp2554
ssg46
g11
(g12
(S'S6'
p2555
I0
I1
tp2556
Rp2557
(I3
S'|'
p2558
NNNI6
I1
I0
tp2559
bS'ISOMAP'
p2560
tp2561
Rp2562
sg55
F0.2
sg38
g2551
sg56
g11
(g12
(S'S8'
p2563
I0
I1
tp2564
Rp2565
(I3
S'|'
p2566
NNNI8
I1
I0
tp2567
bS'haralick'
p2568
tp2569
Rp2570
sg111
g2548
sg65
g11
(g15
S'\x87\xe4\xff\x00\xb5=\xef?'
p2571
tp2572
Rp2573
sg69
g11
(g12
(S'S2'
p2574
I0
I1
tp2575
Rp2576
(I3
S'|'
p2577
NNNI2
I1
I0
tp2578
bS'RF'
p2579
tp2580
Rp2581
sg78
I3
sg42
g2554
sg79
g80
sg81
g11
(g15
S'\x07Lc\xc04\x06\xec?'
p2582
tp2583
Rp2584
sg85
g86
sg87
g88
sbag4
(g5
g6
Ntp2585
Rp2586
(dp2587
g10
g11
(g15
S'\x00\x00\x00\x00\x00\x00\xf8\xff'
p2588
tp2589
Rp2590
sg21
g11
(g15
S'\x00\x00\x00\x00\x00@e@'
p2591
tp2592
Rp2593
sg98
g106
sg25
g26
sg36
(dp2594
g21
g2593
sg42
g11
(g15
S'\x90\x8f$\x0b\xea\xf8\xe6?'
p2595
tp2596
Rp2597
sg98
g106
ssg46
g11
(g12
(S'S3'
p2598
I0
I1
tp2599
Rp2600
(I3
S'|'
p2601
NNNI3
I1
I0
tp2602
bS'PCA'
p2603
tp2604
Rp2605
sg55
F0.2
sg56
g11
(g12
(S'S3'
p2606
I0
I1
tp2607
Rp2608
(I3
S'|'
p2609
NNNI3
I1
I0
tp2610
bS'VGG'
p2611
tp2612
Rp2613
sg65
g11
(g15
S'\xab\xbf(\x1e\xa5\x0f\xdb?'
p2614
tp2615
Rp2616
sg69
g11
(g12
(S'S2'
p2617
I0
I1
tp2618
Rp2619
(I3
S'|'
p2620
NNNI2
I1
I0
tp2621
bS'RF'
p2622
tp2623
Rp2624
sg78
I3
sg42
g2597
sg79
g80
sg81
g11
(g15
S'\x8d\x01\xd3\x180\x8d\xe9?'
p2625
tp2626
Rp2627
sg85
g86
sg87
g88
sbag4
(g5
g6
Ntp2628
Rp2629
(dp2630
g10
g11
(g15
S'\x00\x00\x00\x00\x00\x00\xf8\xff'
p2631
tp2632
Rp2633
sg98
g156
sg25
g26
sg36
(dp2634
g98
g156
sg246
g11
(g15
S'\n\xd1\xbe\x8c\xb9\xecS@'
p2635
tp2636
Rp2637
sg229
g11
(g15
S'9nG\xb8\xe3\x1f\x19@'
p2638
tp2639
Rp2640
ssg46
g11
(g12
(S'S3'
p2641
I0
I1
tp2642
Rp2643
(I3
S'|'
p2644
NNNI3
I1
I0
tp2645
bS'PCA'
p2646
tp2647
Rp2648
sg55
F0.2
sg229
g2640
sg56
g11
(g12
(S'S3'
p2649
I0
I1
tp2650
Rp2651
(I3
S'|'
p2652
NNNI3
I1
I0
tp2653
bS'VGG'
p2654
tp2655
Rp2656
sg246
g2637
sg65
g11
(g15
S'\x84n\x8f\xcf\xa9\xd8\xe0?'
p2657
tp2658
Rp2659
sg69
g11
(g12
(S'S3'
p2660
I0
I1
tp2661
Rp2662
(I3
S'|'
p2663
NNNI3
I1
I0
tp2664
bS'SVM'
p2665
tp2666
Rp2667
sg78
I3
sg79
g80
sg81
g11
(g15
S'\x05yJ\x90\xa7\x04\xe9?'
p2668
tp2669
Rp2670
sg85
g86
sg87
g88
sbag4
(g5
g6
Ntp2671
Rp2672
(dp2673
g10
g11
(g15
S'\x00\x00\x00\x00\x00\x00\xf8\xff'
p2674
tp2675
Rp2676
sg21
g11
(g15
S'\x00\x00\x00\x00\x00@Z@'
p2677
tp2678
Rp2679
sg98
g156
sg25
g26
sg36
(dp2680
g21
g2679
sg42
g11
(g15
S'\xa6\x7f\xea\x8c^\xef\xed?'
p2681
tp2682
Rp2683
sg98
g156
ssg46
g11
(g12
(S'S3'
p2684
I0
I1
tp2685
Rp2686
(I3
S'|'
p2687
NNNI3
I1
I0
tp2688
bS'PCA'
p2689
tp2690
Rp2691
sg55
F0.2
sg56
g11
(g12
(S'S9'
p2692
I0
I1
tp2693
Rp2694
(I3
S'|'
p2695
NNNI9
I1
I0
tp2696
bS'inception'
p2697
tp2698
Rp2699
sg65
g11
(g15
S'\xb7\x9b\x13x\xfb\xb6\xe1?'
p2700
tp2701
Rp2702
sg69
g11
(g12
(S'S2'
p2703
I0
I1
tp2704
Rp2705
(I3
S'|'
p2706
NNNI2
I1
I0
tp2707
bS'RF'
p2708
tp2709
Rp2710
sg78
I3
sg42
g2683
sg79
g80
sg81
g11
(g15
S'\x95 O\t\xf2\x94\xe8?'
p2711
tp2712
Rp2713
sg85
g86
sg87
g88
sbag4
(g5
g6
Ntp2714
Rp2715
(dp2716
g10
g11
(g15
S'\x00\x00\x00\x00\x00\x00\xf8\xff'
p2717
tp2718
Rp2719
sg21
g11
(g15
S'\x00\x00\x00\x00\x00`m@'
p2720
tp2721
Rp2722
sg25
g26
sg27
g11
(g30
S'\x07\x00\x00\x00\x00\x00\x00\x00'
p2723
tp2724
Rp2725
sg36
(dp2726
g21
g2722
sg27
g2725
sg38
g11
(g30
S'\x03\x00\x00\x00\x00\x00\x00\x00'
p2727
tp2728
Rp2729
sg42
g11
(g15
S'\xe2~\xc7\xcb\xecr\xde?'
p2730
tp2731
Rp2732
ssg46
g11
(g12
(S'S6'
p2733
I0
I1
tp2734
Rp2735
(I3
S'|'
p2736
NNNI6
I1
I0
tp2737
bS'ISOMAP'
p2738
tp2739
Rp2740
sg55
F0.2
sg38
g2729
sg56
g11
(g12
(S'S3'
p2741
I0
I1
tp2742
Rp2743
(I3
S'|'
p2744
NNNI3
I1
I0
tp2745
bS'VGG'
p2746
tp2747
Rp2748
sg65
g11
(g15
S'=\x19\x97\x95\t\xcc\xdd?'
p2749
tp2750
Rp2751
sg69
g11
(g12
(S'S2'
p2752
I0
I1
tp2753
Rp2754
(I3
S'|'
p2755
NNNI2
I1
I0
tp2756
bS'RF'
p2757
tp2758
Rp2759
sg78
I3
sg42
g2732
sg79
g80
sg81
g11
(g15
S'\x84\x0f>\xf8\xe0\x83\xe7?'
p2760
tp2761
Rp2762
sg85
g86
sg87
g88
sbag4
(g5
g6
Ntp2763
Rp2764
(dp2765
g10
g11
(g15
S'\x00\x00\x00\x00\x00\x00\xf8\xff'
p2766
tp2767
Rp2768
sg27
g11
(g30
S'\x04\x00\x00\x00\x00\x00\x00\x00'
p2769
tp2770
Rp2771
sg25
g26
sg36
(dp2772
g27
g2771
sg246
g11
(g15
S'}8l\xb1\xc1f\x00@'
p2773
tp2774
Rp2775
sg38
g11
(g30
S'\x03\x00\x00\x00\x00\x00\x00\x00'
p2776
tp2777
Rp2778
sg229
g11
(g15
S'\xedz!\x9f\x81\x99\x1a@'
p2779
tp2780
Rp2781
ssg229
g2781
sg46
g11
(g12
(S'S6'
p2782
I0
I1
tp2783
Rp2784
(I3
S'|'
p2785
NNNI6
I1
I0
tp2786
bS'ISOMAP'
p2787
tp2788
Rp2789
sg55
F0.2
sg38
g2778
sg56
g11
(g12
(S'S9'
p2790
I0
I1
tp2791
Rp2792
(I3
S'|'
p2793
NNNI9
I1
I0
tp2794
bS'inception'
p2795
tp2796
Rp2797
sg246
g2775
sg65
g11
(g15
S'\xf2$\x1c)\x97\xe8\xe2?'
p2798
tp2799
Rp2800
sg69
g11
(g12
(S'S3'
p2801
I0
I1
tp2802
Rp2803
(I3
S'|'
p2804
NNNI3
I1
I0
tp2805
bS'SVM'
p2806
tp2807
Rp2808
sg78
I3
sg79
g80
sg81
g11
(g15
S'\x91z\x1d\xa9\xd7\x91\xe2?'
p2809
tp2810
Rp2811
sg85
g86
sg87
g88
sbag4
(g5
g6
Ntp2812
Rp2813
(dp2814
g10
g11
(g15
S'\x00\x00\x00\x00\x00\x00\xf8\xff'
p2815
tp2816
Rp2817
sg98
g156
sg25
g26
sg36
(dp2818
g98
g156
sg246
g11
(g15
S'\xad\xa3\x05?\x07\xb5G@'
p2819
tp2820
Rp2821
sg229
g11
(g15
S'bD\xfa@\r\xfb\x0e@'
p2822
tp2823
Rp2824
ssg46
g11
(g12
(S'S3'
p2825
I0
I1
tp2826
Rp2827
(I3
S'|'
p2828
NNNI3
I1
I0
tp2829
bS'PCA'
p2830
tp2831
Rp2832
sg55
F0.2
sg229
g2824
sg56
g11
(g12
(S'S9'
p2833
I0
I1
tp2834
Rp2835
(I3
S'|'
p2836
NNNI9
I1
I0
tp2837
bS'inception'
p2838
tp2839
Rp2840
sg246
g2821
sg65
g11
(g15
S's\xcb3\xb9\xd2\xe4\xe0?'
p2841
tp2842
Rp2843
sg69
g11
(g12
(S'S3'
p2844
I0
I1
tp2845
Rp2846
(I3
S'|'
p2847
NNNI3
I1
I0
tp2848
bS'SVM'
p2849
tp2850
Rp2851
sg78
I3
sg79
g80
sg81
g11
(g15
S'\x8e\xd4\xebH\xbd\x8e\xe4?'
p2852
tp2853
Rp2854
sg85
g86
sg87
g88
sbag4
(g5
g6
Ntp2855
Rp2856
(dp2857
g10
g11
(g15
S'\x00\x00\x00\x00\x00\x00\xf8\xff'
p2858
tp2859
Rp2860
sg98
g156
sg25
g26
sg36
(dp2861
g98
g156
sg246
g11
(g15
S'\x13?\x17\xca\xc0\x0f8@'
p2862
tp2863
Rp2864
sg229
g11
(g15
S'\xb6\xd2\x91\x109\x1f\x0f@'
p2865
tp2866
Rp2867
ssg46
g11
(g12
(S'S3'
p2868
I0
I1
tp2869
Rp2870
(I3
S'|'
p2871
NNNI3
I1
I0
tp2872
bS'PCA'
p2873
tp2874
Rp2875
sg55
F0.2
sg229
g2867
sg56
g11
(g12
(S'S3'
p2876
I0
I1
tp2877
Rp2878
(I3
S'|'
p2879
NNNI3
I1
I0
tp2880
bS'VGG'
p2881
tp2882
Rp2883
sg246
g2864
sg65
g11
(g15
S'\x8b<Y\x84\xa0\xf1\xe0?'
p2884
tp2885
Rp2886
sg69
g11
(g12
(S'S3'
p2887
I0
I1
tp2888
Rp2889
(I3
S'|'
p2890
NNNI3
I1
I0
tp2891
bS'SVM'
p2892
tp2893
Rp2894
sg78
I3
sg79
g80
sg81
g11
(g15
S'\x05yJ\x90\xa7\x04\xe9?'
p2895
tp2896
Rp2897
sg85
g86
sg87
g88
sbag4
(g5
g6
Ntp2898
Rp2899
(dp2900
g10
g11
(g15
S'\x00\x00\x00\x00\x00\x00\xf8\xff'
p2901
tp2902
Rp2903
sg98
g106
sg25
g26
sg36
(dp2904
g98
g106
sg246
g11
(g15
S'\xca\xfaa\xe7\xff\x01G@'
p2905
tp2906
Rp2907
sg111
g11
(g30
S'\x03\x00\x00\x00\x00\x00\x00\x00'
p2908
tp2909
Rp2910
sg229
g11
(g15
S'\xff\xf7\xe6\x17\nk\x1e@'
p2911
tp2912
Rp2913
ssg46
g11
(g12
(S'S3'
p2914
I0
I1
tp2915
Rp2916
(I3
S'|'
p2917
NNNI3
I1
I0
tp2918
bS'PCA'
p2919
tp2920
Rp2921
sg55
F0.2
sg229
g2913
sg56
g11
(g12
(S'S8'
p2922
I0
I1
tp2923
Rp2924
(I3
S'|'
p2925
NNNI8
I1
I0
tp2926
bS'haralick'
p2927
tp2928
Rp2929
sg246
g2907
sg111
g2910
sg65
g11
(g15
S"\xa5\xb2\x19\xa2'?\xdf?"
p2930
tp2931
Rp2932
sg69
g11
(g12
(S'S3'
p2933
I0
I1
tp2934
Rp2935
(I3
S'|'
p2936
NNNI3
I1
I0
tp2937
bS'SVM'
p2938
tp2939
Rp2940
sg78
I3
sg79
g80
sg81
g11
(g15
S'\x9bl\xb2\xc9&\x9b\xe4?'
p2941
tp2942
Rp2943
sg85
g86
sg87
g88
sbag4
(g5
g6
Ntp2944
Rp2945
(dp2946
g10
g11
(g15
S'\x00\x00\x00\x00\x00\x00\xf8\xff'
p2947
tp2948
Rp2949
sg98
g156
sg25
g26
sg36
(dp2950
g98
g156
sg246
g11
(g15
S'\xc5\xeb\xb2\x01%\x16;@'
p2951
tp2952
Rp2953
sg229
g11
(g15
S'Y\xb5\xed\xbb@]\x19@'
p2954
tp2955
Rp2956
ssg46
g11
(g12
(S'S3'
p2957
I0
I1
tp2958
Rp2959
(I3
S'|'
p2960
NNNI3
I1
I0
tp2961
bS'PCA'
p2962
tp2963
Rp2964
sg55
F0.2
sg229
g2956
sg56
g11
(g12
(S'S3'
p2965
I0
I1
tp2966
Rp2967
(I3
S'|'
p2968
NNNI3
I1
I0
tp2969
bS'VGG'
p2970
tp2971
Rp2972
sg246
g2953
sg65
g11
(g15
S'Pz\x8b\xbc%\xcf\xe0?'
p2973
tp2974
Rp2975
sg69
g11
(g12
(S'S3'
p2976
I0
I1
tp2977
Rp2978
(I3
S'|'
p2979
NNNI3
I1
I0
tp2980
bS'SVM'
p2981
tp2982
Rp2983
sg78
I3
sg79
g80
sg81
g11
(g15
S'\x05yJ\x90\xa7\x04\xe9?'
p2984
tp2985
Rp2986
sg85
g86
sg87
g88
sbag4
(g5
g6
Ntp2987
Rp2988
(dp2989
g10
g11
(g15
S'\x00\x00\x00\x00\x00\x00\xf8\xff'
p2990
tp2991
Rp2992
sg21
g11
(g15
S'\x00\x00\x00\x00\x00`i@'
p2993
tp2994
Rp2995
sg25
g26
sg27
g11
(g30
S'\x04\x00\x00\x00\x00\x00\x00\x00'
p2996
tp2997
Rp2998
sg36
(dp2999
g21
g2995
sg27
g2998
sg38
g11
(g30
S'\x02\x00\x00\x00\x00\x00\x00\x00'
p3000
tp3001
Rp3002
sg42
g11
(g15
S'\xd1\xc2\xb1H\x88\t\xe7?'
p3003
tp3004
Rp3005
ssg46
g11
(g12
(S'S6'
p3006
I0
I1
tp3007
Rp3008
(I3
S'|'
p3009
NNNI6
I1
I0
tp3010
bS'ISOMAP'
p3011
tp3012
Rp3013
sg55
F0.2
sg38
g3002
sg56
g11
(g12
(S'S3'
p3014
I0
I1
tp3015
Rp3016
(I3
S'|'
p3017
NNNI3
I1
I0
tp3018
bS'VGG'
p3019
tp3020
Rp3021
sg65
g11
(g15
S'\xeb\x06\x97\xc9M\xee\xe3?'
p3022
tp3023
Rp3024
sg69
g11
(g12
(S'S2'
p3025
I0
I1
tp3026
Rp3027
(I3
S'|'
p3028
NNNI2
I1
I0
tp3029
bS'RF'
p3030
tp3031
Rp3032
sg78
I3
sg42
g3005
sg79
g80
sg81
g11
(g15
S'\x90\xa7\x04yJ\x90\xe7?'
p3033
tp3034
Rp3035
sg85
g86
sg87
g88
sbag4
(g5
g6
Ntp3036
Rp3037
(dp3038
g10
g11
(g15
S'\x00\x00\x00\x00\x00\x00\xf8\xff'
p3039
tp3040
Rp3041
sg27
g11
(g30
S'\x05\x00\x00\x00\x00\x00\x00\x00'
p3042
tp3043
Rp3044
sg25
g26
sg36
(dp3045
g27
g3044
sg246
g11
(g15
S'\xc5\xb9IR:,Q@'
p3046
tp3047
Rp3048
sg38
g11
(g30
S'\x03\x00\x00\x00\x00\x00\x00\x00'
p3049
tp3050
Rp3051
sg229
g11
(g15
S'\x04\x9b\xab}\x82*\x1f@'
p3052
tp3053
Rp3054
ssg229
g3054
sg46
g11
(g12
(S'S6'
p3055
I0
I1
tp3056
Rp3057
(I3
S'|'
p3058
NNNI6
I1
I0
tp3059
bS'ISOMAP'
p3060
tp3061
Rp3062
sg55
F0.2
sg38
g3051
sg56
g11
(g12
(S'S3'
p3063
I0
I1
tp3064
Rp3065
(I3
S'|'
p3066
NNNI3
I1
I0
tp3067
bS'VGG'
p3068
tp3069
Rp3070
sg246
g3048
sg65
g11
(g15
S'\x03N\x05\xd8\x1d\xb9\xe5?'
p3071
tp3072
Rp3073
sg69
g11
(g12
(S'S3'
p3074
I0
I1
tp3075
Rp3076
(I3
S'|'
p3077
NNNI3
I1
I0
tp3078
bS'SVM'
p3079
tp3080
Rp3081
sg78
I3
sg79
g80
sg81
g11
(g15
S'\x88\x88\x88\x88\x88\x88\xe8?'
p3082
tp3083
Rp3084
sg85
g86
sg87
g88
sbag4
(g5
g6
Ntp3085
Rp3086
(dp3087
g10
g11
(g15
S'\x00\x00\x00\x00\x00\x00\xf8\xff'
p3088
tp3089
Rp3090
sg21
g11
(g15
S'\x00\x00\x00\x00\x00@a@'
p3091
tp3092
Rp3093
sg98
g106
sg25
g26
sg36
(dp3094
g21
g3093
sg42
g11
(g15
S'^\xae\x117\xdc\x88\xe7?'
p3095
tp3096
Rp3097
sg98
g106
sg111
g11
(g30
S'\x01\x00\x00\x00\x00\x00\x00\x00'
p3098
tp3099
Rp3100
ssg46
g11
(g12
(S'S3'
p3101
I0
I1
tp3102
Rp3103
(I3
S'|'
p3104
NNNI3
I1
I0
tp3105
bS'PCA'
p3106
tp3107
Rp3108
sg55
F0.2
sg56
g11
(g12
(S'S8'
p3109
I0
I1
tp3110
Rp3111
(I3
S'|'
p3112
NNNI8
I1
I0
tp3113
bS'haralick'
p3114
tp3115
Rp3116
sg111
g3100
sg65
g11
(g15
S'\xcd\xcf\xbdx\xf1R\x01@'
p3117
tp3118
Rp3119
sg69
g11
(g12
(S'S2'
p3120
I0
I1
tp3121
Rp3122
(I3
S'|'
p3123
NNNI2
I1
I0
tp3124
bS'RF'
p3125
tp3126
Rp3127
sg78
I3
sg42
g3097
sg79
g80
sg81
g11
(g15
S'\x1c\xd6\xbea\xed\x1b\xe6?'
p3128
tp3129
Rp3130
sg85
g86
sg87
g88
sbasS'error_curve'
p3131
(lp3132
g68
ag68
ag68
ag68
ag68
ag68
ag68
ag68
ag68
ag68
ag133
ag133
ag182
ag182
ag182
ag182
ag182
ag182
ag182
ag182
ag182
ag182
ag182
ag182
ag182
ag182
ag182
ag182
ag182
ag182
ag182
ag182
ag182
ag182
ag182
ag182
ag182
ag182
ag182
ag182
ag182
ag182
ag182
ag182
ag182
ag182
ag182
ag182
ag182
ag182
ag182
ag182
ag182
ag182
ag182
ag182
ag182
ag182
ag182
ag182
ag182
ag182
ag182
ag182
ag182
asS'iters'
p3133
I51
sg25
g26
sS'results_loc'
p3134
S'/gpfs/u/home/CGHI/CGHIarch/barn/EP_project/results/'
p3135
sS'times'
p3136
(lp3137
F1.2726061344146729
aF6.014429092407227
aF10.83294415473938
aF10.880897045135498
aF12.142039060592651
aF13.650331020355225
aF13.755198001861572
aF15.4998459815979
aF15.533029079437256
aF15.56545114517212
aF20.8581120967865
aF22.37147307395935
aF27.633533000946045
aF29.91122603416443
aF36.139883041381836
aF40.92707300186157
aF40.97417402267456
aF41.54610204696655
aF46.28004717826843
aF46.83884906768799
aF46.88575601577759
aF51.52570915222168
aF51.616310119628906
aF53.11752009391785
aF57.885756969451904
aF59.15145516395569
aF61.350414991378784
aF66.34896302223206
aF67.61367011070251
aF72.83592414855957
aF73.39655804634094
aF73.44366717338562
aF78.15403199195862
aF85.00346112251282
aF90.2662661075592
aF90.29964399337769
aF95.10171604156494
aF95.13397407531738
aF101.79033303260803
aF103.98285412788391
aF104.01812505722046
aF105.28418898582458
aF111.47124195098877
aF111.50660514831543
aF112.0713460445404
aF112.16350317001343
aF113.90393114089966
aF113.99676203727722
aF114.56005811691284
aF115.35193014144897
aF116.44500303268433
aF116.48013997077942
aF123.15817594528198
aF124.42364311218262
aF124.4585931301117
aF125.2526261806488
aF126.98526406288147
aF127.03230500221252
aF127.06496810913086
aF127.09911894798279
aF131.8723499774933
aF131.9075939655304
aF133.4090220928192
aF133.45662117004395
aF139.45531797409058
asS'data_loc'
p3138
g88
sS'run'
p3139
I4
sg85
S'random_MCMC'
p3140
sb.