(iprototypes.random_based_mcmc1
random_MCMC
p0
(dp1
S'best_pipelines'
p2
(lp3
ccopy_reg
_reconstructor
p4
(cprototypes.data_analytic_pipeline
image_classification_pipeline
p5
c__builtin__
object
p6
Ntp7
Rp8
(dp9
S'f1_score'
p10
cnumpy.core.multiarray
scalar
p11
(cnumpy
dtype
p12
(S'f8'
p13
I0
I1
tp14
Rp15
(I3
S'<'
p16
NNNI-1
I-1
I0
tp17
bS'\x00\x00\x00\x00\x00\x00\xf8\xff'
p18
tp19
Rp20
sS'pca_whiten'
p21
g11
(g12
(S'b1'
p22
I0
I1
tp23
Rp24
(I3
S'|'
p25
NNNI-1
I-1
I0
tp26
bS'\x00'
p27
tp28
Rp29
sS'data_name'
p30
S'bone'
p31
sS'kwargs'
p32
(dp33
g21
g29
sS'svm_C'
p34
g11
(g15
S'\x9bt\x12>P\xcfR@'
p35
tp36
Rp37
sS'svm_gamma'
p38
g11
(g15
S'0\xda\x1f\xfcV\xa0\x0c@'
p39
tp40
Rp41
ssS'dimensionality_reduction'
p42
g11
(g12
(S'S3'
p43
I0
I1
tp44
Rp45
(I3
S'|'
p46
NNNI3
I1
I0
tp47
bS'PCA'
p48
tp49
Rp50
sS'test_size'
p51
F0.2
sg38
g41
sS'feature_extraction'
p52
g11
(g12
(S'S3'
p53
I0
I1
tp54
Rp55
(I3
S'|'
p56
NNNI3
I1
I0
tp57
bS'VGG'
p58
tp59
Rp60
sg34
g37
sS'result'
p61
g11
(g15
S'\x90uH\xed\x12\xea\xe0?'
p62
tp63
Rp64
sS'learning_algorithm'
p65
g11
(g12
(S'S3'
p66
I0
I1
tp67
Rp68
(I3
S'|'
p69
NNNI3
I1
I0
tp70
bS'SVM'
p71
tp72
Rp73
sS'val_splits'
p74
I3
sS'ml_type'
p75
S'validation'
p76
sS'accuracy'
p77
g11
(g15
S'\x05yJ\x90\xa7\x04\xe9?'
p78
tp79
Rp80
sS'type1'
p81
S'random1'
p82
sS'data_location'
p83
S'/gpfs/u/home/CGHI/CGHIarch/barn/EP_project/data/'
p84
sbag4
(g5
g6
Ntp85
Rp86
(dp87
g10
g11
(g15
S'\x00\x00\x00\x00\x00\x00\xf8\xff'
p88
tp89
Rp90
sg21
g11
(g24
S'\x01'
p91
tp92
Rp93
sg30
g31
sg32
(dp94
g21
g93
sg34
g11
(g15
S"'r5\xe85\xd6Q@"
p95
tp96
Rp97
sg38
g11
(g15
S'\x84\n\x8d2\x93\xbe\x12@'
p98
tp99
Rp100
ssg42
g11
(g12
(S'S3'
p101
I0
I1
tp102
Rp103
(I3
S'|'
p104
NNNI3
I1
I0
tp105
bS'PCA'
p106
tp107
Rp108
sg51
F0.2
sg38
g100
sg52
g11
(g12
(S'S3'
p109
I0
I1
tp110
Rp111
(I3
S'|'
p112
NNNI3
I1
I0
tp113
bS'VGG'
p114
tp115
Rp116
sg34
g97
sg61
g11
(g15
S'\x11F\xf6c\t\xd1\xe0?'
p117
tp118
Rp119
sg65
g11
(g12
(S'S3'
p120
I0
I1
tp121
Rp122
(I3
S'|'
p123
NNNI3
I1
I0
tp124
bS'SVM'
p125
tp126
Rp127
sg74
I3
sg75
g76
sg77
g11
(g15
S'\x05yJ\x90\xa7\x04\xe9?'
p128
tp129
Rp130
sg81
g82
sg83
g84
sbag4
(g5
g6
Ntp131
Rp132
(dp133
g10
g11
(g15
S'\x00\x00\x00\x00\x00\x00\xf8\xff'
p134
tp135
Rp136
sS'n_neighbors'
p137
g11
(g12
(S'i8'
p138
I0
I1
tp139
Rp140
(I3
S'<'
p141
NNNI-1
I-1
I0
tp142
bS'\x07\x00\x00\x00\x00\x00\x00\x00'
p143
tp144
Rp145
sg30
g31
sg32
(dp146
g137
g145
sg34
g11
(g15
S'\x18\xeai\xbe)\xc2F@'
p147
tp148
Rp149
sS'haralick_distance'
p150
g11
(g140
S'\x01\x00\x00\x00\x00\x00\x00\x00'
p151
tp152
Rp153
sS'n_components'
p154
g11
(g140
S'\x04\x00\x00\x00\x00\x00\x00\x00'
p155
tp156
Rp157
sg38
g11
(g15
S'1\x1eqH\x19\x88\x06@'
p158
tp159
Rp160
ssg38
g160
sg42
g11
(g12
(S'S6'
p161
I0
I1
tp162
Rp163
(I3
S'|'
p164
NNNI6
I1
I0
tp165
bS'ISOMAP'
p166
tp167
Rp168
sg51
F0.2
sg154
g157
sg52
g11
(g12
(S'S8'
p169
I0
I1
tp170
Rp171
(I3
S'|'
p172
NNNI8
I1
I0
tp173
bS'haralick'
p174
tp175
Rp176
sg34
g149
sg150
g153
sg61
g11
(g15
S'WRDk\xdc\x13\xe0?'
p177
tp178
Rp179
sg65
g11
(g12
(S'S3'
p180
I0
I1
tp181
Rp182
(I3
S'|'
p183
NNNI3
I1
I0
tp184
bS'SVM'
p185
tp186
Rp187
sg74
I3
sg75
g76
sg77
g11
(g15
S'\r\x98\xc6\x80i\x0c\xe8?'
p188
tp189
Rp190
sg81
g82
sg83
g84
sbag4
(g5
g6
Ntp191
Rp192
(dp193
g10
g11
(g15
S'\x00\x00\x00\x00\x00\x00\xf8\xff'
p194
tp195
Rp196
sS'n_estimators'
p197
g11
(g15
S'\x00\x00\x00\x00\x00\xc0r@'
p198
tp199
Rp200
sg21
g93
sg30
g31
sg32
(dp201
g197
g200
sS'max_features'
p202
g11
(g15
S'\x9c\xdc\x94\x13\xf8\xd7\xdd?'
p203
tp204
Rp205
sg21
g93
ssg42
g11
(g12
(S'S3'
p206
I0
I1
tp207
Rp208
(I3
S'|'
p209
NNNI3
I1
I0
tp210
bS'PCA'
p211
tp212
Rp213
sg51
F0.2
sg52
g11
(g12
(S'S3'
p214
I0
I1
tp215
Rp216
(I3
S'|'
p217
NNNI3
I1
I0
tp218
bS'VGG'
p219
tp220
Rp221
sg61
g11
(g15
S'\xf4\xde\x95)\xa2!\xdb?'
p222
tp223
Rp224
sg65
g11
(g12
(S'S2'
p225
I0
I1
tp226
Rp227
(I3
S'|'
p228
NNNI2
I1
I0
tp229
bS'RF'
p230
tp231
Rp232
sg74
I3
sg202
g205
sg75
g76
sg77
g11
(g15
S'\x91z\x1d\xa9\xd7\x91\xea?'
p233
tp234
Rp235
sg81
g82
sg83
g84
sbag4
(g5
g6
Ntp236
Rp237
(dp238
g10
g11
(g15
S'\x00\x00\x00\x00\x00\x00\xf8\xff'
p239
tp240
Rp241
sg197
g11
(g15
S'\x00\x00\x00\x00\x00`m@'
p242
tp243
Rp244
sg21
g29
sg30
g31
sg32
(dp245
g197
g244
sg202
g11
(g15
S'\x94 E\x87\x88G\xea?'
p246
tp247
Rp248
sg21
g29
sg150
g11
(g140
S'\x03\x00\x00\x00\x00\x00\x00\x00'
p249
tp250
Rp251
ssg42
g11
(g12
(S'S3'
p252
I0
I1
tp253
Rp254
(I3
S'|'
p255
NNNI3
I1
I0
tp256
bS'PCA'
p257
tp258
Rp259
sg51
F0.2
sg52
g11
(g12
(S'S8'
p260
I0
I1
tp261
Rp262
(I3
S'|'
p263
NNNI8
I1
I0
tp264
bS'haralick'
p265
tp266
Rp267
sg150
g251
sg61
g11
(g15
S'Tm\xb8\xc65\xd7\xd6?'
p268
tp269
Rp270
sg65
g11
(g12
(S'S2'
p271
I0
I1
tp272
Rp273
(I3
S'|'
p274
NNNI2
I1
I0
tp275
bS'RF'
p276
tp277
Rp278
sg74
I3
sg202
g248
sg75
g76
sg77
g11
(g15
S'\x95\xf3g9\x7f\x96\xeb?'
p279
tp280
Rp281
sg81
g82
sg83
g84
sbasS'paths'
p282
(lp283
(lp284
S'VGG'
p285
aS'PCA'
p286
aS'SVM'
p287
aa(lp288
g285
ag286
aS'RF'
p289
aa(lp290
g285
aS'ISOMAP'
p291
ag287
aa(lp292
g285
ag291
ag289
aa(lp293
S'haralick'
p294
ag286
ag287
aa(lp295
g294
ag286
ag289
aa(lp296
g294
ag291
ag287
aa(lp297
g294
ag291
ag289
aa(lp298
S'inception'
p299
ag286
ag287
aa(lp300
g299
ag286
ag289
aa(lp301
g299
ag291
ag287
aa(lp302
g299
ag291
ag289
aasS'pipeline'
p303
(dp304
g137
(lp305
I3
aI4
aI5
aI6
aI7
asg21
(lp306
I01
aI00
asg197
cnumpy.core.multiarray
_reconstruct
p307
(cnumpy
ndarray
p308
(I0
tp309
S'b'
p310
tp311
Rp312
(I1
(I10
tp313
g15
I00
S'\x00\x00\x00\x00\x00\x00 @\x00\x00\x00\x00\x00\x00D@\x00\x00\x00\x00\x00@R@\x00\x00\x00\x00\x00@Z@\x00\x00\x00\x00\x00@a@\x00\x00\x00\x00\x00@e@\x00\x00\x00\x00\x00`i@\x00\x00\x00\x00\x00`m@\x00\x00\x00\x00\x00\xc0p@\x00\x00\x00\x00\x00\xc0r@'
p314
tp315
bsg42
(lp316
g286
ag291
asg38
g307
(g308
(I0
tp317
g310
tp318
Rp319
(I1
(I10
tp320
g15
I00
S"{\x14\xaeG\xe1z\x84?\x102Tv\x98\xba\xec?\xe7\xd5\xc4\xb3\xa2\x91\xfc?b\xc9/\x96\xfcb\x05@\xd2'}\xd2'}\x0c@!Ce\x87\xa9\xcb\x11@X\xf2\x8b%\xbfX\x15@\x90\xa1\xb2\xc3\xd4\xe5\x18@\xc8P\xd9a\xear\x1c@\x00\x00\x00\x00\x00\x00 @"
p321
tp322
bsg52
(lp323
g285
ag294
ag299
asg150
(lp324
I1
aI2
aI3
asg154
(lp325
I2
aI3
aI4
asg65
(lp326
g287
ag289
asg202
g307
(g308
(I0
tp327
g310
tp328
Rp329
(I1
(I5
tp330
g15
I00
S'333333\xd3?\x9a\x99\x99\x99\x99\x99\xd9?\x00\x00\x00\x00\x00\x00\xe0?433333\xe3?hfffff\xe6?'
p331
tp332
bsg34
g307
(g308
(I0
tp333
g310
tp334
Rp335
(I1
(I10
tp336
g15
I00
S'\x9a\x99\x99\x99\x99\x99\xb9?gfffff&@\xce\xcc\xcc\xcc\xccL6@43333\xb3@@\x01\x00\x00\x00\x00@F@\xce\xcc\xcc\xcc\xcc\xccK@\xcd\xcc\xcc\xcc\xcc\xacP@43333sS@\x9a\x99\x99\x99\x999V@\x00\x00\x00\x00\x00\x00Y@'
p337
tp338
bssS'pipelines'
p339
(lp340
g8
ag86
ag132
ag192
ag4
(g5
g6
Ntp341
Rp342
(dp343
g10
g11
(g15
S'\x00\x00\x00\x00\x00\x00\xf8\xff'
p344
tp345
Rp346
sg137
g11
(g140
S'\x04\x00\x00\x00\x00\x00\x00\x00'
p347
tp348
Rp349
sg30
g31
sg32
(dp350
g137
g349
sg34
g11
(g15
S'}\xcd\xe4\x8b\xd3\x12X@'
p351
tp352
Rp353
sg150
g11
(g140
S'\x02\x00\x00\x00\x00\x00\x00\x00'
p354
tp355
Rp356
sg154
g11
(g140
S'\x04\x00\x00\x00\x00\x00\x00\x00'
p357
tp358
Rp359
sg38
g11
(g15
S'\x91\xeal6\x84m\n@'
p360
tp361
Rp362
ssg38
g362
sg42
g11
(g12
(S'S6'
p363
I0
I1
tp364
Rp365
(I3
S'|'
p366
NNNI6
I1
I0
tp367
bS'ISOMAP'
p368
tp369
Rp370
sg51
F0.2
sg154
g359
sg52
g11
(g12
(S'S8'
p371
I0
I1
tp372
Rp373
(I3
S'|'
p374
NNNI8
I1
I0
tp375
bS'haralick'
p376
tp377
Rp378
sg34
g353
sg150
g356
sg61
g11
(g15
S'`\xe9\x16\x81@v\xdf?'
p379
tp380
Rp381
sg65
g11
(g12
(S'S3'
p382
I0
I1
tp383
Rp384
(I3
S'|'
p385
NNNI3
I1
I0
tp386
bS'SVM'
p387
tp388
Rp389
sg74
I3
sg75
g76
sg77
g11
(g15
S'4\x06Lc\xc04\xe6?'
p390
tp391
Rp392
sg81
g82
sg83
g84
sbag4
(g5
g6
Ntp393
Rp394
(dp395
g10
g11
(g15
S'\x00\x00\x00\x00\x00\x00\xf8\xff'
p396
tp397
Rp398
sg137
g11
(g140
S'\x06\x00\x00\x00\x00\x00\x00\x00'
p399
tp400
Rp401
sg30
g31
sg32
(dp402
g137
g401
sg34
g11
(g15
S'\xa7dm\xcf\x95H6@'
p403
tp404
Rp405
sg154
g11
(g140
S'\x03\x00\x00\x00\x00\x00\x00\x00'
p406
tp407
Rp408
sg38
g11
(g15
S'\xa4\xe2F\xa3\xc2\xc5\xfe?'
p409
tp410
Rp411
ssg38
g411
sg42
g11
(g12
(S'S6'
p412
I0
I1
tp413
Rp414
(I3
S'|'
p415
NNNI6
I1
I0
tp416
bS'ISOMAP'
p417
tp418
Rp419
sg51
F0.2
sg154
g408
sg52
g11
(g12
(S'S9'
p420
I0
I1
tp421
Rp422
(I3
S'|'
p423
NNNI9
I1
I0
tp424
bS'inception'
p425
tp426
Rp427
sg34
g405
sg61
g11
(g15
S'\xa3\xfe\xadZ\xd8\xe3\xe3?'
p428
tp429
Rp430
sg65
g11
(g12
(S'S3'
p431
I0
I1
tp432
Rp433
(I3
S'|'
p434
NNNI3
I1
I0
tp435
bS'SVM'
p436
tp437
Rp438
sg74
I3
sg75
g76
sg77
g11
(g15
S'\x1a\x03\xa61`\x1a\xe3?'
p439
tp440
Rp441
sg81
g82
sg83
g84
sbag4
(g5
g6
Ntp442
Rp443
(dp444
g10
g11
(g15
S'\x00\x00\x00\x00\x00\x00\xf8\xff'
p445
tp446
Rp447
sg21
g93
sg30
g31
sg32
(dp448
g21
g93
sg34
g11
(g15
S'O\x85%\xfa\xd7x@@'
p449
tp450
Rp451
sg150
g11
(g140
S'\x03\x00\x00\x00\x00\x00\x00\x00'
p452
tp453
Rp454
sg38
g11
(g15
S'\xa1\xba\x0f\x15\xba\xc7\x13@'
p455
tp456
Rp457
ssg42
g11
(g12
(S'S3'
p458
I0
I1
tp459
Rp460
(I3
S'|'
p461
NNNI3
I1
I0
tp462
bS'PCA'
p463
tp464
Rp465
sg51
F0.2
sg38
g457
sg52
g11
(g12
(S'S8'
p466
I0
I1
tp467
Rp468
(I3
S'|'
p469
NNNI8
I1
I0
tp470
bS'haralick'
p471
tp472
Rp473
sg34
g451
sg150
g454
sg61
g11
(g15
S'P\x9a\xe5\xd2/\x19\xe0?'
p474
tp475
Rp476
sg65
g11
(g12
(S'S3'
p477
I0
I1
tp478
Rp479
(I3
S'|'
p480
NNNI3
I1
I0
tp481
bS'SVM'
p482
tp483
Rp484
sg74
I3
sg75
g76
sg77
g11
(g15
S'\x9bl\xb2\xc9&\x9b\xe4?'
p485
tp486
Rp487
sg81
g82
sg83
g84
sbag4
(g5
g6
Ntp488
Rp489
(dp490
g10
g11
(g15
S'\x00\x00\x00\x00\x00\x00\xf8\xff'
p491
tp492
Rp493
sg197
g11
(g15
S'\x00\x00\x00\x00\x00@R@'
p494
tp495
Rp496
sg30
g31
sg137
g11
(g140
S'\x06\x00\x00\x00\x00\x00\x00\x00'
p497
tp498
Rp499
sg32
(dp500
g197
g496
sg137
g499
sg150
g11
(g140
S'\x03\x00\x00\x00\x00\x00\x00\x00'
p501
tp502
Rp503
sg154
g11
(g140
S'\x03\x00\x00\x00\x00\x00\x00\x00'
p504
tp505
Rp506
sg202
g11
(g15
S'\xc4\xef\xd4\xf1\xfc\xe6\xdd?'
p507
tp508
Rp509
ssg42
g11
(g12
(S'S6'
p510
I0
I1
tp511
Rp512
(I3
S'|'
p513
NNNI6
I1
I0
tp514
bS'ISOMAP'
p515
tp516
Rp517
sg51
F0.2
sg154
g506
sg52
g11
(g12
(S'S8'
p518
I0
I1
tp519
Rp520
(I3
S'|'
p521
NNNI8
I1
I0
tp522
bS'haralick'
p523
tp524
Rp525
sg150
g503
sg61
g11
(g15
S'`"\x90\t\xe9\xba\xdc?'
p526
tp527
Rp528
sg65
g11
(g12
(S'S2'
p529
I0
I1
tp530
Rp531
(I3
S'|'
p532
NNNI2
I1
I0
tp533
bS'RF'
p534
tp535
Rp536
sg74
I3
sg202
g509
sg75
g76
sg77
g11
(g15
S'\x8d\x01\xd3\x180\x8d\xe9?'
p537
tp538
Rp539
sg81
g82
sg83
g84
sbag4
(g5
g6
Ntp540
Rp541
(dp542
g10
g11
(g15
S'\x00\x00\x00\x00\x00\x00\xf8\xff'
p543
tp544
Rp545
sg21
g93
sg30
g31
sg32
(dp546
g21
g93
sg34
g11
(g15
S'Xg*$N\x07F@'
p547
tp548
Rp549
sg38
g11
(g15
S'\xf8\xc3k\xeaF`\x1d@'
p550
tp551
Rp552
ssg42
g11
(g12
(S'S3'
p553
I0
I1
tp554
Rp555
(I3
S'|'
p556
NNNI3
I1
I0
tp557
bS'PCA'
p558
tp559
Rp560
sg51
F0.2
sg38
g552
sg52
g11
(g12
(S'S9'
p561
I0
I1
tp562
Rp563
(I3
S'|'
p564
NNNI9
I1
I0
tp565
bS'inception'
p566
tp567
Rp568
sg34
g549
sg61
g11
(g15
S'\xb3\n\xd4\x93d\xb4\xe0?'
p569
tp570
Rp571
sg65
g11
(g12
(S'S3'
p572
I0
I1
tp573
Rp574
(I3
S'|'
p575
NNNI3
I1
I0
tp576
bS'SVM'
p577
tp578
Rp579
sg74
I3
sg75
g76
sg77
g11
(g15
S'{\x1d\xa9\xd7\x91z\xe5?'
p580
tp581
Rp582
sg81
g82
sg83
g84
sbag4
(g5
g6
Ntp583
Rp584
(dp585
g10
g11
(g15
S'\x00\x00\x00\x00\x00\x00\xf8\xff'
p586
tp587
Rp588
sg197
g11
(g15
S'\x00\x00\x00\x00\x00@Z@'
p589
tp590
Rp591
sg21
g29
sg30
g31
sg32
(dp592
g197
g591
sg202
g11
(g15
S'\xdcNQ\x9c\x11\xb4\xdc?'
p593
tp594
Rp595
sg21
g29
ssg42
g11
(g12
(S'S3'
p596
I0
I1
tp597
Rp598
(I3
S'|'
p599
NNNI3
I1
I0
tp600
bS'PCA'
p601
tp602
Rp603
sg51
F0.2
sg52
g11
(g12
(S'S9'
p604
I0
I1
tp605
Rp606
(I3
S'|'
p607
NNNI9
I1
I0
tp608
bS'inception'
p609
tp610
Rp611
sg61
g11
(g15
S'\xa3\xa5\xbf\xa7S\xf9\xe0?'
p612
tp613
Rp614
sg65
g11
(g12
(S'S2'
p615
I0
I1
tp616
Rp617
(I3
S'|'
p618
NNNI2
I1
I0
tp619
bS'RF'
p620
tp621
Rp622
sg74
I3
sg202
g595
sg75
g76
sg77
g11
(g15
S'\x11\x11\x11\x11\x11\x11\xe9?'
p623
tp624
Rp625
sg81
g82
sg83
g84
sbag4
(g5
g6
Ntp626
Rp627
(dp628
g10
g11
(g15
S'\x00\x00\x00\x00\x00\x00\xf8\xff'
p629
tp630
Rp631
sg137
g11
(g140
S'\x06\x00\x00\x00\x00\x00\x00\x00'
p632
tp633
Rp634
sg30
g31
sg32
(dp635
g137
g634
sg34
g11
(g15
S'\x9e\xa0\xa7,\xfc\xeaC@'
p636
tp637
Rp638
sg154
g11
(g140
S'\x03\x00\x00\x00\x00\x00\x00\x00'
p639
tp640
Rp641
sg38
g11
(g15
S'*\xaa\xe4ah\xe4\x19@'
p642
tp643
Rp644
ssg38
g644
sg42
g11
(g12
(S'S6'
p645
I0
I1
tp646
Rp647
(I3
S'|'
p648
NNNI6
I1
I0
tp649
bS'ISOMAP'
p650
tp651
Rp652
sg51
F0.2
sg154
g641
sg52
g11
(g12
(S'S3'
p653
I0
I1
tp654
Rp655
(I3
S'|'
p656
NNNI3
I1
I0
tp657
bS'VGG'
p658
tp659
Rp660
sg34
g638
sg61
g11
(g15
S'\xb8\xf9V\x1bB\xd5\xe1?'
p661
tp662
Rp663
sg65
g11
(g12
(S'S3'
p664
I0
I1
tp665
Rp666
(I3
S'|'
p667
NNNI3
I1
I0
tp668
bS'SVM'
p669
tp670
Rp671
sg74
I3
sg75
g76
sg77
g11
(g15
S'\x9d?\xcb\xf9\xb3\x9c\xe7?'
p672
tp673
Rp674
sg81
g82
sg83
g84
sbag4
(g5
g6
Ntp675
Rp676
(dp677
g10
g11
(g15
S'\x00\x00\x00\x00\x00\x00\xf8\xff'
p678
tp679
Rp680
sg197
g11
(g15
S'\x00\x00\x00\x00\x00`m@'
p681
tp682
Rp683
sg30
g31
sg137
g11
(g140
S'\x05\x00\x00\x00\x00\x00\x00\x00'
p684
tp685
Rp686
sg32
(dp687
g197
g683
sg137
g686
sg154
g11
(g140
S'\x03\x00\x00\x00\x00\x00\x00\x00'
p688
tp689
Rp690
sg202
g11
(g15
S'\x9a\\[\xf6pC\xed?'
p691
tp692
Rp693
ssg42
g11
(g12
(S'S6'
p694
I0
I1
tp695
Rp696
(I3
S'|'
p697
NNNI6
I1
I0
tp698
bS'ISOMAP'
p699
tp700
Rp701
sg51
F0.2
sg154
g690
sg52
g11
(g12
(S'S3'
p702
I0
I1
tp703
Rp704
(I3
S'|'
p705
NNNI3
I1
I0
tp706
bS'VGG'
p707
tp708
Rp709
sg61
g11
(g15
S'Uu\x1d\x19!\x1e\xe0?'
p710
tp711
Rp712
sg65
g11
(g12
(S'S2'
p713
I0
I1
tp714
Rp715
(I3
S'|'
p716
NNNI2
I1
I0
tp717
bS'RF'
p718
tp719
Rp720
sg74
I3
sg202
g693
sg75
g76
sg77
g11
(g15
S'\xa51`\x1a\x03\xa6\xe9?'
p721
tp722
Rp723
sg81
g82
sg83
g84
sbag4
(g5
g6
Ntp724
Rp725
(dp726
g10
g11
(g15
S'\x00\x00\x00\x00\x00\x00\xf8\xff'
p727
tp728
Rp729
sg197
g11
(g15
S'\x00\x00\x00\x00\x00@a@'
p730
tp731
Rp732
sg21
g29
sg30
g31
sg32
(dp733
g197
g732
sg202
g11
(g15
S'[\x15\xbb\xb8N\x8b\xe3?'
p734
tp735
Rp736
sg21
g29
ssg42
g11
(g12
(S'S3'
p737
I0
I1
tp738
Rp739
(I3
S'|'
p740
NNNI3
I1
I0
tp741
bS'PCA'
p742
tp743
Rp744
sg51
F0.2
sg52
g11
(g12
(S'S3'
p745
I0
I1
tp746
Rp747
(I3
S'|'
p748
NNNI3
I1
I0
tp749
bS'VGG'
p750
tp751
Rp752
sg61
g11
(g15
S'\xeb\x88\x96\xd0K\r\xdc?'
p753
tp754
Rp755
sg65
g11
(g12
(S'S2'
p756
I0
I1
tp757
Rp758
(I3
S'|'
p759
NNNI2
I1
I0
tp760
bS'RF'
p761
tp762
Rp763
sg74
I3
sg202
g736
sg75
g76
sg77
g11
(g15
S'\x15\x8a[\xa1\xb8\x15\xea?'
p764
tp765
Rp766
sg81
g82
sg83
g84
sbag4
(g5
g6
Ntp767
Rp768
(dp769
g10
g11
(g15
S'\x00\x00\x00\x00\x00\x00\xf8\xff'
p770
tp771
Rp772
sg197
g11
(g15
S'\x00\x00\x00\x00\x00@R@'
p773
tp774
Rp775
sg30
g31
sg137
g11
(g140
S'\x03\x00\x00\x00\x00\x00\x00\x00'
p776
tp777
Rp778
sg32
(dp779
g197
g775
sg137
g778
sg150
g11
(g140
S'\x01\x00\x00\x00\x00\x00\x00\x00'
p780
tp781
Rp782
sg154
g11
(g140
S'\x02\x00\x00\x00\x00\x00\x00\x00'
p783
tp784
Rp785
sg202
g11
(g15
S'H\xd2\x04\x9b{x\xe7?'
p786
tp787
Rp788
ssg42
g11
(g12
(S'S6'
p789
I0
I1
tp790
Rp791
(I3
S'|'
p792
NNNI6
I1
I0
tp793
bS'ISOMAP'
p794
tp795
Rp796
sg51
F0.2
sg154
g785
sg52
g11
(g12
(S'S8'
p797
I0
I1
tp798
Rp799
(I3
S'|'
p800
NNNI8
I1
I0
tp801
bS'haralick'
p802
tp803
Rp804
sg150
g782
sg61
g11
(g15
S'\xa0?\xe9"~\x0b\x04@'
p805
tp806
Rp807
sg65
g11
(g12
(S'S2'
p808
I0
I1
tp809
Rp810
(I3
S'|'
p811
NNNI2
I1
I0
tp812
bS'RF'
p813
tp814
Rp815
sg74
I3
sg202
g788
sg75
g76
sg77
g11
(g15
S'\x9d?\xcb\xf9\xb3\x9c\xe7?'
p816
tp817
Rp818
sg81
g82
sg83
g84
sbag4
(g5
g6
Ntp819
Rp820
(dp821
g10
g11
(g15
S'\x00\x00\x00\x00\x00\x00\xf8\xff'
p822
tp823
Rp824
sg197
g11
(g15
S'\x00\x00\x00\x00\x00@a@'
p825
tp826
Rp827
sg30
g31
sg137
g11
(g140
S'\x07\x00\x00\x00\x00\x00\x00\x00'
p828
tp829
Rp830
sg32
(dp831
g197
g827
sg137
g830
sg154
g11
(g140
S'\x02\x00\x00\x00\x00\x00\x00\x00'
p832
tp833
Rp834
sg202
g11
(g15
S':\x00\x82\xd3\xc5?\xe3?'
p835
tp836
Rp837
ssg42
g11
(g12
(S'S6'
p838
I0
I1
tp839
Rp840
(I3
S'|'
p841
NNNI6
I1
I0
tp842
bS'ISOMAP'
p843
tp844
Rp845
sg51
F0.2
sg154
g834
sg52
g11
(g12
(S'S9'
p846
I0
I1
tp847
Rp848
(I3
S'|'
p849
NNNI9
I1
I0
tp850
bS'inception'
p851
tp852
Rp853
sg61
g11
(g15
S'i9a\xd58\x97\xf9?'
p854
tp855
Rp856
sg65
g11
(g12
(S'S2'
p857
I0
I1
tp858
Rp859
(I3
S'|'
p860
NNNI2
I1
I0
tp861
bS'RF'
p862
tp863
Rp864
sg74
I3
sg202
g837
sg75
g76
sg77
g11
(g15
S' O\t\xf2\x94 \xe7?'
p865
tp866
Rp867
sg81
g82
sg83
g84
sbag237
ag4
(g5
g6
Ntp868
Rp869
(dp870
g10
g11
(g15
S'\x00\x00\x00\x00\x00\x00\xf8\xff'
p871
tp872
Rp873
sg21
g29
sg30
g31
sg32
(dp874
g21
g29
sg34
g11
(g15
S'"?\xc3K\xed\xb1\n@'
p875
tp876
Rp877
sg38
g11
(g15
S'E\x1b]^\xfb3\xbc?'
p878
tp879
Rp880
ssg42
g11
(g12
(S'S3'
p881
I0
I1
tp882
Rp883
(I3
S'|'
p884
NNNI3
I1
I0
tp885
bS'PCA'
p886
tp887
Rp888
sg51
F0.2
sg38
g880
sg52
g11
(g12
(S'S3'
p889
I0
I1
tp890
Rp891
(I3
S'|'
p892
NNNI3
I1
I0
tp893
bS'VGG'
p894
tp895
Rp896
sg34
g877
sg61
g11
(g15
S'N$R<\xe6\xc0\xe0?'
p897
tp898
Rp899
sg65
g11
(g12
(S'S3'
p900
I0
I1
tp901
Rp902
(I3
S'|'
p903
NNNI3
I1
I0
tp904
bS'SVM'
p905
tp906
Rp907
sg74
I3
sg75
g76
sg77
g11
(g15
S'\xecH\xbd\x8e\xd4\xeb\xe8?'
p908
tp909
Rp910
sg81
g82
sg83
g84
sbag4
(g5
g6
Ntp911
Rp912
(dp913
g10
g11
(g15
S'\x00\x00\x00\x00\x00\x00\xf8\xff'
p914
tp915
Rp916
sg197
g11
(g15
S'\x00\x00\x00\x00\x00@Z@'
p917
tp918
Rp919
sg30
g31
sg137
g11
(g140
S'\x07\x00\x00\x00\x00\x00\x00\x00'
p920
tp921
Rp922
sg32
(dp923
g197
g919
sg137
g922
sg154
g11
(g140
S'\x04\x00\x00\x00\x00\x00\x00\x00'
p924
tp925
Rp926
sg202
g11
(g15
S'\x00\x0c\x86\xdf\t*\xe7?'
p927
tp928
Rp929
ssg42
g11
(g12
(S'S6'
p930
I0
I1
tp931
Rp932
(I3
S'|'
p933
NNNI6
I1
I0
tp934
bS'ISOMAP'
p935
tp936
Rp937
sg51
F0.2
sg154
g926
sg52
g11
(g12
(S'S9'
p938
I0
I1
tp939
Rp940
(I3
S'|'
p941
NNNI9
I1
I0
tp942
bS'inception'
p943
tp944
Rp945
sg61
g11
(g15
S'\xc5\xf3\xd2\xff4,\xf1?'
p946
tp947
Rp948
sg65
g11
(g12
(S'S2'
p949
I0
I1
tp950
Rp951
(I3
S'|'
p952
NNNI2
I1
I0
tp953
bS'RF'
p954
tp955
Rp956
sg74
I3
sg202
g929
sg75
g76
sg77
g11
(g15
S'%\xc8S\x82<%\xe8?'
p957
tp958
Rp959
sg81
g82
sg83
g84
sbag4
(g5
g6
Ntp960
Rp961
(dp962
g10
g11
(g15
S'\x00\x00\x00\x00\x00\x00\xf8\xff'
p963
tp964
Rp965
sg197
g11
(g15
S'\x00\x00\x00\x00\x00\x00 @'
p966
tp967
Rp968
sg21
g93
sg30
g31
sg32
(dp969
g197
g968
sg202
g11
(g15
S'W\x92\xc1\xd71\x89\xe7?'
p970
tp971
Rp972
sg21
g93
sg150
g11
(g140
S'\x02\x00\x00\x00\x00\x00\x00\x00'
p973
tp974
Rp975
ssg42
g11
(g12
(S'S3'
p976
I0
I1
tp977
Rp978
(I3
S'|'
p979
NNNI3
I1
I0
tp980
bS'PCA'
p981
tp982
Rp983
sg51
F0.2
sg52
g11
(g12
(S'S8'
p984
I0
I1
tp985
Rp986
(I3
S'|'
p987
NNNI8
I1
I0
tp988
bS'haralick'
p989
tp990
Rp991
sg150
g975
sg61
g11
(g15
S'g\x8b\xb4 oF\x10@'
p992
tp993
Rp994
sg65
g11
(g12
(S'S2'
p995
I0
I1
tp996
Rp997
(I3
S'|'
p998
NNNI2
I1
I0
tp999
bS'RF'
p1000
tp1001
Rp1002
sg74
I3
sg202
g972
sg75
g76
sg77
g11
(g15
S'\xa4^G\xeau\xa4\xe6?'
p1003
tp1004
Rp1005
sg81
g82
sg83
g84
sbag4
(g5
g6
Ntp1006
Rp1007
(dp1008
g10
g11
(g15
S'\x00\x00\x00\x00\x00\x00\xf8\xff'
p1009
tp1010
Rp1011
sg197
g11
(g15
S'\x00\x00\x00\x00\x00@a@'
p1012
tp1013
Rp1014
sg30
g31
sg137
g11
(g140
S'\x04\x00\x00\x00\x00\x00\x00\x00'
p1015
tp1016
Rp1017
sg32
(dp1018
g197
g1014
sg137
g1017
sg150
g11
(g140
S'\x03\x00\x00\x00\x00\x00\x00\x00'
p1019
tp1020
Rp1021
sg154
g11
(g140
S'\x02\x00\x00\x00\x00\x00\x00\x00'
p1022
tp1023
Rp1024
sg202
g11
(g15
S"'\xe0\x07!LC\xe1?"
p1025
tp1026
Rp1027
ssg42
g11
(g12
(S'S6'
p1028
I0
I1
tp1029
Rp1030
(I3
S'|'
p1031
NNNI6
I1
I0
tp1032
bS'ISOMAP'
p1033
tp1034
Rp1035
sg51
F0.2
sg154
g1024
sg52
g11
(g12
(S'S8'
p1036
I0
I1
tp1037
Rp1038
(I3
S'|'
p1039
NNNI8
I1
I0
tp1040
bS'haralick'
p1041
tp1042
Rp1043
sg150
g1021
sg61
g11
(g15
S'\xa8c\xe6\xcfz\xe6\xee?'
p1044
tp1045
Rp1046
sg65
g11
(g12
(S'S2'
p1047
I0
I1
tp1048
Rp1049
(I3
S'|'
p1050
NNNI2
I1
I0
tp1051
bS'RF'
p1052
tp1053
Rp1054
sg74
I3
sg202
g1027
sg75
g76
sg77
g11
(g15
S'\x99\x99\x99\x99\x99\x99\xe9?'
p1055
tp1056
Rp1057
sg81
g82
sg83
g84
sbag4
(g5
g6
Ntp1058
Rp1059
(dp1060
g10
g11
(g15
S'\x00\x00\x00\x00\x00\x00\xf8\xff'
p1061
tp1062
Rp1063
sg137
g11
(g140
S'\x06\x00\x00\x00\x00\x00\x00\x00'
p1064
tp1065
Rp1066
sg30
g31
sg32
(dp1067
g137
g1066
sg34
g11
(g15
S'#F\xd4\xc3\xf6\xb0>@'
p1068
tp1069
Rp1070
sg154
g11
(g140
S'\x04\x00\x00\x00\x00\x00\x00\x00'
p1071
tp1072
Rp1073
sg38
g11
(g15
S"}\xc1'q8\xbe\xe0?"
p1074
tp1075
Rp1076
ssg38
g1076
sg42
g11
(g12
(S'S6'
p1077
I0
I1
tp1078
Rp1079
(I3
S'|'
p1080
NNNI6
I1
I0
tp1081
bS'ISOMAP'
p1082
tp1083
Rp1084
sg51
F0.2
sg154
g1073
sg52
g11
(g12
(S'S9'
p1085
I0
I1
tp1086
Rp1087
(I3
S'|'
p1088
NNNI9
I1
I0
tp1089
bS'inception'
p1090
tp1091
Rp1092
sg34
g1070
sg61
g11
(g15
S'\xda\xaf\x96!\xd7\x9c\xe2?'
p1093
tp1094
Rp1095
sg65
g11
(g12
(S'S3'
p1096
I0
I1
tp1097
Rp1098
(I3
S'|'
p1099
NNNI3
I1
I0
tp1100
bS'SVM'
p1101
tp1102
Rp1103
sg74
I3
sg75
g76
sg77
g11
(g15
S'\x8f\xd4\xebH\xbd\x8e\xe4?'
p1104
tp1105
Rp1106
sg81
g82
sg83
g84
sbag4
(g5
g6
Ntp1107
Rp1108
(dp1109
g10
g11
(g15
S'\x00\x00\x00\x00\x00\x00\xf8\xff'
p1110
tp1111
Rp1112
sg137
g11
(g140
S'\x04\x00\x00\x00\x00\x00\x00\x00'
p1113
tp1114
Rp1115
sg30
g31
sg32
(dp1116
g137
g1115
sg34
g11
(g15
S'u1\xabGa\x02\xf4?'
p1117
tp1118
Rp1119
sg154
g11
(g140
S'\x02\x00\x00\x00\x00\x00\x00\x00'
p1120
tp1121
Rp1122
sg38
g11
(g15
S'\x9a\xa8c\xdb\xf1\xa0\x0f@'
p1123
tp1124
Rp1125
ssg38
g1125
sg42
g11
(g12
(S'S6'
p1126
I0
I1
tp1127
Rp1128
(I3
S'|'
p1129
NNNI6
I1
I0
tp1130
bS'ISOMAP'
p1131
tp1132
Rp1133
sg51
F0.2
sg154
g1122
sg52
g11
(g12
(S'S3'
p1134
I0
I1
tp1135
Rp1136
(I3
S'|'
p1137
NNNI3
I1
I0
tp1138
bS'VGG'
p1139
tp1140
Rp1141
sg34
g1119
sg61
g11
(g15
S'ug\x15\x91\x85\xa8\xdf?'
p1142
tp1143
Rp1144
sg65
g11
(g12
(S'S3'
p1145
I0
I1
tp1146
Rp1147
(I3
S'|'
p1148
NNNI3
I1
I0
tp1149
bS'SVM'
p1150
tp1151
Rp1152
sg74
I3
sg75
g76
sg77
g11
(g15
S'\r\x98\xc6\x80i\x0c\xe8?'
p1153
tp1154
Rp1155
sg81
g82
sg83
g84
sbag4
(g5
g6
Ntp1156
Rp1157
(dp1158
g10
g11
(g15
S'\x00\x00\x00\x00\x00\x00\xf8\xff'
p1159
tp1160
Rp1161
sg21
g29
sg30
g31
sg32
(dp1162
g21
g29
sg34
g11
(g15
S'=\xe4\xf8\xe5\xa1[X@'
p1163
tp1164
Rp1165
sg38
g11
(g15
S'\xb73\xc8\xbcJt\x0c@'
p1166
tp1167
Rp1168
ssg42
g11
(g12
(S'S3'
p1169
I0
I1
tp1170
Rp1171
(I3
S'|'
p1172
NNNI3
I1
I0
tp1173
bS'PCA'
p1174
tp1175
Rp1176
sg51
F0.2
sg38
g1168
sg52
g11
(g12
(S'S3'
p1177
I0
I1
tp1178
Rp1179
(I3
S'|'
p1180
NNNI3
I1
I0
tp1181
bS'VGG'
p1182
tp1183
Rp1184
sg34
g1165
sg61
g11
(g15
S'[e\r\xe1\x82\xd3\xe0?'
p1185
tp1186
Rp1187
sg65
g11
(g12
(S'S3'
p1188
I0
I1
tp1189
Rp1190
(I3
S'|'
p1191
NNNI3
I1
I0
tp1192
bS'SVM'
p1193
tp1194
Rp1195
sg74
I3
sg75
g76
sg77
g11
(g15
S'\x05yJ\x90\xa7\x04\xe9?'
p1196
tp1197
Rp1198
sg81
g82
sg83
g84
sbag4
(g5
g6
Ntp1199
Rp1200
(dp1201
g10
g11
(g15
S'\x00\x00\x00\x00\x00\x00\xf8\xff'
p1202
tp1203
Rp1204
sg21
g29
sg30
g31
sg32
(dp1205
g21
g29
sg34
g11
(g15
S'\xa6\xf4\xc2\xe65\rF@'
p1206
tp1207
Rp1208
sg38
g11
(g15
S'X\xed\x13\xd4\x0c\xe6\xd8?'
p1209
tp1210
Rp1211
ssg42
g11
(g12
(S'S3'
p1212
I0
I1
tp1213
Rp1214
(I3
S'|'
p1215
NNNI3
I1
I0
tp1216
bS'PCA'
p1217
tp1218
Rp1219
sg51
F0.2
sg38
g1211
sg52
g11
(g12
(S'S9'
p1220
I0
I1
tp1221
Rp1222
(I3
S'|'
p1223
NNNI9
I1
I0
tp1224
bS'inception'
p1225
tp1226
Rp1227
sg34
g1208
sg61
g11
(g15
S'\xd0P\x14\xb9\xc6\xd5\xe2?'
p1228
tp1229
Rp1230
sg65
g11
(g12
(S'S3'
p1231
I0
I1
tp1232
Rp1233
(I3
S'|'
p1234
NNNI3
I1
I0
tp1235
bS'SVM'
p1236
tp1237
Rp1238
sg74
I3
sg75
g76
sg77
g11
(g15
S'\x93M6\xd9d\x93\xe5?'
p1239
tp1240
Rp1241
sg81
g82
sg83
g84
sbag4
(g5
g6
Ntp1242
Rp1243
(dp1244
g10
g11
(g15
S'\x00\x00\x00\x00\x00\x00\xf8\xff'
p1245
tp1246
Rp1247
sg197
g11
(g15
S'\x00\x00\x00\x00\x00\x00 @'
p1248
tp1249
Rp1250
sg30
g31
sg137
g11
(g140
S'\x06\x00\x00\x00\x00\x00\x00\x00'
p1251
tp1252
Rp1253
sg32
(dp1254
g197
g1250
sg137
g1253
sg154
g11
(g140
S'\x02\x00\x00\x00\x00\x00\x00\x00'
p1255
tp1256
Rp1257
sg202
g11
(g15
S'f_A"\x19\xd7\xe5?'
p1258
tp1259
Rp1260
ssg42
g11
(g12
(S'S6'
p1261
I0
I1
tp1262
Rp1263
(I3
S'|'
p1264
NNNI6
I1
I0
tp1265
bS'ISOMAP'
p1266
tp1267
Rp1268
sg51
F0.2
sg154
g1257
sg52
g11
(g12
(S'S3'
p1269
I0
I1
tp1270
Rp1271
(I3
S'|'
p1272
NNNI3
I1
I0
tp1273
bS'VGG'
p1274
tp1275
Rp1276
sg61
g11
(g15
S'\x8b\x1c,\xb6L\xd0\x08@'
p1277
tp1278
Rp1279
sg65
g11
(g12
(S'S2'
p1280
I0
I1
tp1281
Rp1282
(I3
S'|'
p1283
NNNI2
I1
I0
tp1284
bS'RF'
p1285
tp1286
Rp1287
sg74
I3
sg202
g1260
sg75
g76
sg77
g11
(g15
S'\x88\x88\x88\x88\x88\x88\xe8?'
p1288
tp1289
Rp1290
sg81
g82
sg83
g84
sbag4
(g5
g6
Ntp1291
Rp1292
(dp1293
g10
g11
(g15
S'\x00\x00\x00\x00\x00\x00\xf8\xff'
p1294
tp1295
Rp1296
sg197
g11
(g15
S'\x00\x00\x00\x00\x00@Z@'
p1297
tp1298
Rp1299
sg30
g31
sg137
g11
(g140
S'\x07\x00\x00\x00\x00\x00\x00\x00'
p1300
tp1301
Rp1302
sg32
(dp1303
g197
g1299
sg137
g1302
sg154
g11
(g140
S'\x04\x00\x00\x00\x00\x00\x00\x00'
p1304
tp1305
Rp1306
sg202
g11
(g15
S'\x84\x0c(\xd8K\x05\xd9?'
p1307
tp1308
Rp1309
ssg42
g11
(g12
(S'S6'
p1310
I0
I1
tp1311
Rp1312
(I3
S'|'
p1313
NNNI6
I1
I0
tp1314
bS'ISOMAP'
p1315
tp1316
Rp1317
sg51
F0.2
sg154
g1306
sg52
g11
(g12
(S'S9'
p1318
I0
I1
tp1319
Rp1320
(I3
S'|'
p1321
NNNI9
I1
I0
tp1322
bS'inception'
p1323
tp1324
Rp1325
sg61
g11
(g15
S'\x1d\xdaux\xe8}\xe4?'
p1326
tp1327
Rp1328
sg65
g11
(g12
(S'S2'
p1329
I0
I1
tp1330
Rp1331
(I3
S'|'
p1332
NNNI2
I1
I0
tp1333
bS'RF'
p1334
tp1335
Rp1336
sg74
I3
sg202
g1309
sg75
g76
sg77
g11
(g15
S'\x9d?\xcb\xf9\xb3\x9c\xe7?'
p1337
tp1338
Rp1339
sg81
g82
sg83
g84
sbag4
(g5
g6
Ntp1340
Rp1341
(dp1342
g10
g11
(g15
S'\x00\x00\x00\x00\x00\x00\xf8\xff'
p1343
tp1344
Rp1345
sg197
g11
(g15
S'\x00\x00\x00\x00\x00\xc0r@'
p1346
tp1347
Rp1348
sg30
g31
sg137
g11
(g140
S'\x05\x00\x00\x00\x00\x00\x00\x00'
p1349
tp1350
Rp1351
sg32
(dp1352
g197
g1348
sg137
g1351
sg154
g11
(g140
S'\x04\x00\x00\x00\x00\x00\x00\x00'
p1353
tp1354
Rp1355
sg202
g11
(g15
S'`\x8b\x82\x1c\x88/\xdc?'
p1356
tp1357
Rp1358
ssg42
g11
(g12
(S'S6'
p1359
I0
I1
tp1360
Rp1361
(I3
S'|'
p1362
NNNI6
I1
I0
tp1363
bS'ISOMAP'
p1364
tp1365
Rp1366
sg51
F0.2
sg154
g1355
sg52
g11
(g12
(S'S9'
p1367
I0
I1
tp1368
Rp1369
(I3
S'|'
p1370
NNNI9
I1
I0
tp1371
bS'inception'
p1372
tp1373
Rp1374
sg61
g11
(g15
S'nH\xe3\xac\xef\xbb\xe3?'
p1375
tp1376
Rp1377
sg65
g11
(g12
(S'S2'
p1378
I0
I1
tp1379
Rp1380
(I3
S'|'
p1381
NNNI2
I1
I0
tp1382
bS'RF'
p1383
tp1384
Rp1385
sg74
I3
sg202
g1358
sg75
g76
sg77
g11
(g15
S'\x15\xb7Bq+\x14\xe7?'
p1386
tp1387
Rp1388
sg81
g82
sg83
g84
sbag4
(g5
g6
Ntp1389
Rp1390
(dp1391
g10
g11
(g15
S'\x00\x00\x00\x00\x00\x00\xf8\xff'
p1392
tp1393
Rp1394
sg21
g29
sg30
g31
sg32
(dp1395
g21
g29
sg34
g11
(g15
S'\x84\xa2V\x1eP\xa1*@'
p1396
tp1397
Rp1398
sg38
g11
(g15
S'E\x88\x01\x8a.\xae\xf3?'
p1399
tp1400
Rp1401
ssg42
g11
(g12
(S'S3'
p1402
I0
I1
tp1403
Rp1404
(I3
S'|'
p1405
NNNI3
I1
I0
tp1406
bS'PCA'
p1407
tp1408
Rp1409
sg51
F0.2
sg38
g1401
sg52
g11
(g12
(S'S3'
p1410
I0
I1
tp1411
Rp1412
(I3
S'|'
p1413
NNNI3
I1
I0
tp1414
bS'VGG'
p1415
tp1416
Rp1417
sg34
g1398
sg61
g11
(g15
S'\xc7\xc2#\xcf!\xed\xe1?'
p1418
tp1419
Rp1420
sg65
g11
(g12
(S'S3'
p1421
I0
I1
tp1422
Rp1423
(I3
S'|'
p1424
NNNI3
I1
I0
tp1425
bS'SVM'
p1426
tp1427
Rp1428
sg74
I3
sg75
g76
sg77
g11
(g15
S'\x88\x88\x88\x88\x88\x88\xe8?'
p1429
tp1430
Rp1431
sg81
g82
sg83
g84
sbag4
(g5
g6
Ntp1432
Rp1433
(dp1434
g10
g11
(g15
S'\x00\x00\x00\x00\x00\x00\xf8\xff'
p1435
tp1436
Rp1437
sg21
g29
sg30
g31
sg32
(dp1438
g21
g29
sg34
g11
(g15
S"\x1fuU\xe5\xd4\xf2'@"
p1439
tp1440
Rp1441
sg150
g11
(g140
S'\x02\x00\x00\x00\x00\x00\x00\x00'
p1442
tp1443
Rp1444
sg38
g11
(g15
S'*U\x97\xe9\x16\x8e\xdb?'
p1445
tp1446
Rp1447
ssg42
g11
(g12
(S'S3'
p1448
I0
I1
tp1449
Rp1450
(I3
S'|'
p1451
NNNI3
I1
I0
tp1452
bS'PCA'
p1453
tp1454
Rp1455
sg51
F0.2
sg38
g1447
sg52
g11
(g12
(S'S8'
p1456
I0
I1
tp1457
Rp1458
(I3
S'|'
p1459
NNNI8
I1
I0
tp1460
bS'haralick'
p1461
tp1462
Rp1463
sg34
g1441
sg150
g1444
sg61
g11
(g15
S'[\x9b\xe4\xdb\x1d\x83\xdf?'
p1464
tp1465
Rp1466
sg65
g11
(g12
(S'S3'
p1467
I0
I1
tp1468
Rp1469
(I3
S'|'
p1470
NNNI3
I1
I0
tp1471
bS'SVM'
p1472
tp1473
Rp1474
sg74
I3
sg75
g76
sg77
g11
(g15
S'\x87\xb5oX\xfb\x86\xe5?'
p1475
tp1476
Rp1477
sg81
g82
sg83
g84
sbag4
(g5
g6
Ntp1478
Rp1479
(dp1480
g10
g11
(g15
S'\x00\x00\x00\x00\x00\x00\xf8\xff'
p1481
tp1482
Rp1483
sg137
g11
(g140
S'\x04\x00\x00\x00\x00\x00\x00\x00'
p1484
tp1485
Rp1486
sg30
g31
sg32
(dp1487
g137
g1486
sg34
g11
(g15
S'\x7f\xea_\xad{ W@'
p1488
tp1489
Rp1490
sg154
g11
(g140
S'\x02\x00\x00\x00\x00\x00\x00\x00'
p1491
tp1492
Rp1493
sg38
g11
(g15
S']\xc4U\xe1<\xfe\xf0?'
p1494
tp1495
Rp1496
ssg38
g1496
sg42
g11
(g12
(S'S6'
p1497
I0
I1
tp1498
Rp1499
(I3
S'|'
p1500
NNNI6
I1
I0
tp1501
bS'ISOMAP'
p1502
tp1503
Rp1504
sg51
F0.2
sg154
g1493
sg52
g11
(g12
(S'S3'
p1505
I0
I1
tp1506
Rp1507
(I3
S'|'
p1508
NNNI3
I1
I0
tp1509
bS'VGG'
p1510
tp1511
Rp1512
sg34
g1490
sg61
g11
(g15
S'%/t\xac\x04\xf1\xdf?'
p1513
tp1514
Rp1515
sg65
g11
(g12
(S'S3'
p1516
I0
I1
tp1517
Rp1518
(I3
S'|'
p1519
NNNI3
I1
I0
tp1520
bS'SVM'
p1521
tp1522
Rp1523
sg74
I3
sg75
g76
sg77
g11
(g15
S'\x1c\xd6\xbea\xed\x1b\xe6?'
p1524
tp1525
Rp1526
sg81
g82
sg83
g84
sbag4
(g5
g6
Ntp1527
Rp1528
(dp1529
g10
g11
(g15
S'\x00\x00\x00\x00\x00\x00\xf8\xff'
p1530
tp1531
Rp1532
sg197
g11
(g15
S'\x00\x00\x00\x00\x00\x00 @'
p1533
tp1534
Rp1535
sg30
g31
sg137
g11
(g140
S'\x06\x00\x00\x00\x00\x00\x00\x00'
p1536
tp1537
Rp1538
sg32
(dp1539
g197
g1535
sg137
g1538
sg154
g11
(g140
S'\x03\x00\x00\x00\x00\x00\x00\x00'
p1540
tp1541
Rp1542
sg202
g11
(g15
S'\xe5r>\x9fH^\xd5?'
p1543
tp1544
Rp1545
ssg42
g11
(g12
(S'S6'
p1546
I0
I1
tp1547
Rp1548
(I3
S'|'
p1549
NNNI6
I1
I0
tp1550
bS'ISOMAP'
p1551
tp1552
Rp1553
sg51
F0.2
sg154
g1542
sg52
g11
(g12
(S'S3'
p1554
I0
I1
tp1555
Rp1556
(I3
S'|'
p1557
NNNI3
I1
I0
tp1558
bS'VGG'
p1559
tp1560
Rp1561
sg61
g11
(g15
S';\xd5#\xba\x0e\xaf\xf6?'
p1562
tp1563
Rp1564
sg65
g11
(g12
(S'S2'
p1565
I0
I1
tp1566
Rp1567
(I3
S'|'
p1568
NNNI2
I1
I0
tp1569
bS'RF'
p1570
tp1571
Rp1572
sg74
I3
sg202
g1545
sg75
g76
sg77
g11
(g15
S'\x9d\x12\xe4)A\x9e\xea?'
p1573
tp1574
Rp1575
sg81
g82
sg83
g84
sbag4
(g5
g6
Ntp1576
Rp1577
(dp1578
g10
g11
(g15
S'\x00\x00\x00\x00\x00\x00\xf8\xff'
p1579
tp1580
Rp1581
sg197
g11
(g15
S'\x00\x00\x00\x00\x00`m@'
p1582
tp1583
Rp1584
sg21
g93
sg30
g31
sg32
(dp1585
g197
g1584
sg202
g11
(g15
S'b\xab\x11kX\x06\xe7?'
p1586
tp1587
Rp1588
sg21
g93
ssg42
g11
(g12
(S'S3'
p1589
I0
I1
tp1590
Rp1591
(I3
S'|'
p1592
NNNI3
I1
I0
tp1593
bS'PCA'
p1594
tp1595
Rp1596
sg51
F0.2
sg52
g11
(g12
(S'S3'
p1597
I0
I1
tp1598
Rp1599
(I3
S'|'
p1600
NNNI3
I1
I0
tp1601
bS'VGG'
p1602
tp1603
Rp1604
sg61
g11
(g15
S')\xafT\x7f\x9b\xeb\xda?'
p1605
tp1606
Rp1607
sg65
g11
(g12
(S'S2'
p1608
I0
I1
tp1609
Rp1610
(I3
S'|'
p1611
NNNI2
I1
I0
tp1612
bS'RF'
p1613
tp1614
Rp1615
sg74
I3
sg202
g1588
sg75
g76
sg77
g11
(g15
S'\x91z\x1d\xa9\xd7\x91\xea?'
p1616
tp1617
Rp1618
sg81
g82
sg83
g84
sbag4
(g5
g6
Ntp1619
Rp1620
(dp1621
g10
g11
(g15
S'\x00\x00\x00\x00\x00\x00\xf8\xff'
p1622
tp1623
Rp1624
sg137
g11
(g140
S'\x06\x00\x00\x00\x00\x00\x00\x00'
p1625
tp1626
Rp1627
sg30
g31
sg32
(dp1628
g137
g1627
sg34
g11
(g15
S"\xc13M\xe6\xb6',@"
p1629
tp1630
Rp1631
sg154
g11
(g140
S'\x03\x00\x00\x00\x00\x00\x00\x00'
p1632
tp1633
Rp1634
sg38
g11
(g15
S'\xcc\xbd\x98\x1eq\x83\x0b@'
p1635
tp1636
Rp1637
ssg38
g1637
sg42
g11
(g12
(S'S6'
p1638
I0
I1
tp1639
Rp1640
(I3
S'|'
p1641
NNNI6
I1
I0
tp1642
bS'ISOMAP'
p1643
tp1644
Rp1645
sg51
F0.2
sg154
g1634
sg52
g11
(g12
(S'S9'
p1646
I0
I1
tp1647
Rp1648
(I3
S'|'
p1649
NNNI9
I1
I0
tp1650
bS'inception'
p1651
tp1652
Rp1653
sg34
g1631
sg61
g11
(g15
S'\x1d\x98\xe5\x1b\xb2Q\xe4?'
p1654
tp1655
Rp1656
sg65
g11
(g12
(S'S3'
p1657
I0
I1
tp1658
Rp1659
(I3
S'|'
p1660
NNNI3
I1
I0
tp1661
bS'SVM'
p1662
tp1663
Rp1664
sg74
I3
sg75
g76
sg77
g11
(g15
S'\x1a\x03\xa61`\x1a\xe3?'
p1665
tp1666
Rp1667
sg81
g82
sg83
g84
sbag4
(g5
g6
Ntp1668
Rp1669
(dp1670
g10
g11
(g15
S'\x00\x00\x00\x00\x00\x00\xf8\xff'
p1671
tp1672
Rp1673
sg137
g11
(g140
S'\x06\x00\x00\x00\x00\x00\x00\x00'
p1674
tp1675
Rp1676
sg30
g31
sg32
(dp1677
g137
g1676
sg34
g11
(g15
S'}\r\xb21w=W@'
p1678
tp1679
Rp1680
sg154
g11
(g140
S'\x03\x00\x00\x00\x00\x00\x00\x00'
p1681
tp1682
Rp1683
sg38
g11
(g15
S'\xcb\xda\xb10n\xe3\x1c@'
p1684
tp1685
Rp1686
ssg38
g1686
sg42
g11
(g12
(S'S6'
p1687
I0
I1
tp1688
Rp1689
(I3
S'|'
p1690
NNNI6
I1
I0
tp1691
bS'ISOMAP'
p1692
tp1693
Rp1694
sg51
F0.2
sg154
g1683
sg52
g11
(g12
(S'S3'
p1695
I0
I1
tp1696
Rp1697
(I3
S'|'
p1698
NNNI3
I1
I0
tp1699
bS'VGG'
p1700
tp1701
Rp1702
sg34
g1680
sg61
g11
(g15
S'\xb3$1\xf6/\x9c\xe1?'
p1703
tp1704
Rp1705
sg65
g11
(g12
(S'S3'
p1706
I0
I1
tp1707
Rp1708
(I3
S'|'
p1709
NNNI3
I1
I0
tp1710
bS'SVM'
p1711
tp1712
Rp1713
sg74
I3
sg75
g76
sg77
g11
(g15
S'\x9d?\xcb\xf9\xb3\x9c\xe7?'
p1714
tp1715
Rp1716
sg81
g82
sg83
g84
sbag4
(g5
g6
Ntp1717
Rp1718
(dp1719
g10
g11
(g15
S'\x00\x00\x00\x00\x00\x00\xf8\xff'
p1720
tp1721
Rp1722
sg197
g11
(g15
S'\x00\x00\x00\x00\x00\x00D@'
p1723
tp1724
Rp1725
sg21
g29
sg30
g31
sg32
(dp1726
g197
g1725
sg202
g11
(g15
S'\x90\xe4\xd430\xd3\xe7?'
p1727
tp1728
Rp1729
sg21
g29
ssg42
g11
(g12
(S'S3'
p1730
I0
I1
tp1731
Rp1732
(I3
S'|'
p1733
NNNI3
I1
I0
tp1734
bS'PCA'
p1735
tp1736
Rp1737
sg51
F0.2
sg52
g11
(g12
(S'S3'
p1738
I0
I1
tp1739
Rp1740
(I3
S'|'
p1741
NNNI3
I1
I0
tp1742
bS'VGG'
p1743
tp1744
Rp1745
sg61
g11
(g15
S'1\xd80\xc8\xa8\xc4\xd9?'
p1746
tp1747
Rp1748
sg65
g11
(g12
(S'S2'
p1749
I0
I1
tp1750
Rp1751
(I3
S'|'
p1752
NNNI2
I1
I0
tp1753
bS'RF'
p1754
tp1755
Rp1756
sg74
I3
sg202
g1729
sg75
g76
sg77
g11
(g15
S'\xfdY\xce\x9f\xe5\xfc\xe9?'
p1757
tp1758
Rp1759
sg81
g82
sg83
g84
sbag4
(g5
g6
Ntp1760
Rp1761
(dp1762
g10
g11
(g15
S'\x00\x00\x00\x00\x00\x00\xf8\xff'
p1763
tp1764
Rp1765
sg137
g11
(g140
S'\x05\x00\x00\x00\x00\x00\x00\x00'
p1766
tp1767
Rp1768
sg30
g31
sg32
(dp1769
g137
g1768
sg34
g11
(g15
S'\x8bF\x14\xb1P^T@'
p1770
tp1771
Rp1772
sg150
g11
(g140
S'\x03\x00\x00\x00\x00\x00\x00\x00'
p1773
tp1774
Rp1775
sg154
g11
(g140
S'\x02\x00\x00\x00\x00\x00\x00\x00'
p1776
tp1777
Rp1778
sg38
g11
(g15
S'\x93\x96\xa11\x05\x04\x19@'
p1779
tp1780
Rp1781
ssg38
g1781
sg42
g11
(g12
(S'S6'
p1782
I0
I1
tp1783
Rp1784
(I3
S'|'
p1785
NNNI6
I1
I0
tp1786
bS'ISOMAP'
p1787
tp1788
Rp1789
sg51
F0.2
sg154
g1778
sg52
g11
(g12
(S'S8'
p1790
I0
I1
tp1791
Rp1792
(I3
S'|'
p1793
NNNI8
I1
I0
tp1794
bS'haralick'
p1795
tp1796
Rp1797
sg34
g1772
sg150
g1775
sg61
g11
(g15
S'\xcb\xa4\x89\xfa\x98\x0c\xe0?'
p1798
tp1799
Rp1800
sg65
g11
(g12
(S'S3'
p1801
I0
I1
tp1802
Rp1803
(I3
S'|'
p1804
NNNI3
I1
I0
tp1805
bS'SVM'
p1806
tp1807
Rp1808
sg74
I3
sg75
g76
sg77
g11
(g15
S'\r\x98\xc6\x80i\x0c\xe8?'
p1809
tp1810
Rp1811
sg81
g82
sg83
g84
sbag4
(g5
g6
Ntp1812
Rp1813
(dp1814
g10
g11
(g15
S'\x00\x00\x00\x00\x00\x00\xf8\xff'
p1815
tp1816
Rp1817
sg21
g29
sg30
g31
sg32
(dp1818
g21
g29
sg34
g11
(g15
S'w\xd9\xb6\xf2\xaf)P@'
p1819
tp1820
Rp1821
sg150
g11
(g140
S'\x02\x00\x00\x00\x00\x00\x00\x00'
p1822
tp1823
Rp1824
sg38
g11
(g15
S'\x88\xbe\xcen\xcf4\xd2?'
p1825
tp1826
Rp1827
ssg42
g11
(g12
(S'S3'
p1828
I0
I1
tp1829
Rp1830
(I3
S'|'
p1831
NNNI3
I1
I0
tp1832
bS'PCA'
p1833
tp1834
Rp1835
sg51
F0.2
sg38
g1827
sg52
g11
(g12
(S'S8'
p1836
I0
I1
tp1837
Rp1838
(I3
S'|'
p1839
NNNI8
I1
I0
tp1840
bS'haralick'
p1841
tp1842
Rp1843
sg34
g1821
sg150
g1824
sg61
g11
(g15
S'\xad\x85R\xdd\xa8/\xde?'
p1844
tp1845
Rp1846
sg65
g11
(g12
(S'S3'
p1847
I0
I1
tp1848
Rp1849
(I3
S'|'
p1850
NNNI3
I1
I0
tp1851
bS'SVM'
p1852
tp1853
Rp1854
sg74
I3
sg75
g76
sg77
g11
(g15
S'\x87\xb5oX\xfb\x86\xe5?'
p1855
tp1856
Rp1857
sg81
g82
sg83
g84
sbag4
(g5
g6
Ntp1858
Rp1859
(dp1860
g10
g11
(g15
S'\x00\x00\x00\x00\x00\x00\xf8\xff'
p1861
tp1862
Rp1863
sg197
g11
(g15
S'\x00\x00\x00\x00\x00@a@'
p1864
tp1865
Rp1866
sg30
g31
sg137
g11
(g140
S'\x04\x00\x00\x00\x00\x00\x00\x00'
p1867
tp1868
Rp1869
sg32
(dp1870
g197
g1866
sg137
g1869
sg150
g11
(g140
S'\x03\x00\x00\x00\x00\x00\x00\x00'
p1871
tp1872
Rp1873
sg154
g11
(g140
S'\x03\x00\x00\x00\x00\x00\x00\x00'
p1874
tp1875
Rp1876
sg202
g11
(g15
S'gO\xd8\x88\x90\xaf\xe6?'
p1877
tp1878
Rp1879
ssg42
g11
(g12
(S'S6'
p1880
I0
I1
tp1881
Rp1882
(I3
S'|'
p1883
NNNI6
I1
I0
tp1884
bS'ISOMAP'
p1885
tp1886
Rp1887
sg51
F0.2
sg154
g1876
sg52
g11
(g12
(S'S8'
p1888
I0
I1
tp1889
Rp1890
(I3
S'|'
p1891
NNNI8
I1
I0
tp1892
bS'haralick'
p1893
tp1894
Rp1895
sg150
g1873
sg61
g11
(g15
S'\x00\xc5k\xad!\xaf\xde?'
p1896
tp1897
Rp1898
sg65
g11
(g12
(S'S2'
p1899
I0
I1
tp1900
Rp1901
(I3
S'|'
p1902
NNNI2
I1
I0
tp1903
bS'RF'
p1904
tp1905
Rp1906
sg74
I3
sg202
g1879
sg75
g76
sg77
g11
(g15
S'\rk\xdf\xb0\xf6\r\xeb?'
p1907
tp1908
Rp1909
sg81
g82
sg83
g84
sbag4
(g5
g6
Ntp1910
Rp1911
(dp1912
g10
g11
(g15
S'\x00\x00\x00\x00\x00\x00\xf8\xff'
p1913
tp1914
Rp1915
sg21
g29
sg30
g31
sg32
(dp1916
g21
g29
sg34
g11
(g15
S'\xf3\xc9=+[t-@'
p1917
tp1918
Rp1919
sg38
g11
(g15
S'R>3\xbd\x83\x90\x1c@'
p1920
tp1921
Rp1922
ssg42
g11
(g12
(S'S3'
p1923
I0
I1
tp1924
Rp1925
(I3
S'|'
p1926
NNNI3
I1
I0
tp1927
bS'PCA'
p1928
tp1929
Rp1930
sg51
F0.2
sg38
g1922
sg52
g11
(g12
(S'S9'
p1931
I0
I1
tp1932
Rp1933
(I3
S'|'
p1934
NNNI9
I1
I0
tp1935
bS'inception'
p1936
tp1937
Rp1938
sg34
g1919
sg61
g11
(g15
S'\x83\x89D@\xa8\xcf\xe0?'
p1939
tp1940
Rp1941
sg65
g11
(g12
(S'S3'
p1942
I0
I1
tp1943
Rp1944
(I3
S'|'
p1945
NNNI3
I1
I0
tp1946
bS'SVM'
p1947
tp1948
Rp1949
sg74
I3
sg75
g76
sg77
g11
(g15
S'\xff,\xe7\xcfr\xfe\xe4?'
p1950
tp1951
Rp1952
sg81
g82
sg83
g84
sbag4
(g5
g6
Ntp1953
Rp1954
(dp1955
g10
g11
(g15
S'\x00\x00\x00\x00\x00\x00\xf8\xff'
p1956
tp1957
Rp1958
sg21
g29
sg30
g31
sg32
(dp1959
g21
g29
sg34
g11
(g15
S'\x12C\x00\x17`1W@'
p1960
tp1961
Rp1962
sg150
g11
(g140
S'\x03\x00\x00\x00\x00\x00\x00\x00'
p1963
tp1964
Rp1965
sg38
g11
(g15
S'\xaf\x80 i\x8d\xe0\xed?'
p1966
tp1967
Rp1968
ssg42
g11
(g12
(S'S3'
p1969
I0
I1
tp1970
Rp1971
(I3
S'|'
p1972
NNNI3
I1
I0
tp1973
bS'PCA'
p1974
tp1975
Rp1976
sg51
F0.2
sg38
g1968
sg52
g11
(g12
(S'S8'
p1977
I0
I1
tp1978
Rp1979
(I3
S'|'
p1980
NNNI8
I1
I0
tp1981
bS'haralick'
p1982
tp1983
Rp1984
sg34
g1962
sg150
g1965
sg61
g11
(g15
S'5\xd0\xbc\xb1#\xf7\xde?'
p1985
tp1986
Rp1987
sg65
g11
(g12
(S'S3'
p1988
I0
I1
tp1989
Rp1990
(I3
S'|'
p1991
NNNI3
I1
I0
tp1992
bS'SVM'
p1993
tp1994
Rp1995
sg74
I3
sg75
g76
sg77
g11
(g15
S'\x93M6\xd9d\x93\xe5?'
p1996
tp1997
Rp1998
sg81
g82
sg83
g84
sbag4
(g5
g6
Ntp1999
Rp2000
(dp2001
g10
g11
(g15
S'\x00\x00\x00\x00\x00\x00\xf8\xff'
p2002
tp2003
Rp2004
sg21
g93
sg30
g31
sg32
(dp2005
g21
g93
sg34
g11
(g15
S'k\xa2\xb5\n\x88k9@'
p2006
tp2007
Rp2008
sg150
g11
(g140
S'\x01\x00\x00\x00\x00\x00\x00\x00'
p2009
tp2010
Rp2011
sg38
g11
(g15
S'\xb9j%x\\G\x14@'
p2012
tp2013
Rp2014
ssg42
g11
(g12
(S'S3'
p2015
I0
I1
tp2016
Rp2017
(I3
S'|'
p2018
NNNI3
I1
I0
tp2019
bS'PCA'
p2020
tp2021
Rp2022
sg51
F0.2
sg38
g2014
sg52
g11
(g12
(S'S8'
p2023
I0
I1
tp2024
Rp2025
(I3
S'|'
p2026
NNNI8
I1
I0
tp2027
bS'haralick'
p2028
tp2029
Rp2030
sg34
g2008
sg150
g2011
sg61
g11
(g15
S'\xc9\xec\x85\x0c\x86\xaa\xdd?'
p2031
tp2032
Rp2033
sg65
g11
(g12
(S'S3'
p2034
I0
I1
tp2035
Rp2036
(I3
S'|'
p2037
NNNI3
I1
I0
tp2038
bS'SVM'
p2039
tp2040
Rp2041
sg74
I3
sg75
g76
sg77
g11
(g15
S'0\x8d\x01\xd3\x180\xe5?'
p2042
tp2043
Rp2044
sg81
g82
sg83
g84
sbag4
(g5
g6
Ntp2045
Rp2046
(dp2047
g10
g11
(g15
S'\x00\x00\x00\x00\x00\x00\xf8\xff'
p2048
tp2049
Rp2050
sg21
g93
sg30
g31
sg32
(dp2051
g21
g93
sg34
g11
(g15
S';\xcd\xf4Z\xc4\xf8W@'
p2052
tp2053
Rp2054
sg38
g11
(g15
S'\xffs\x9c(\xb5\x95\x1a@'
p2055
tp2056
Rp2057
ssg42
g11
(g12
(S'S3'
p2058
I0
I1
tp2059
Rp2060
(I3
S'|'
p2061
NNNI3
I1
I0
tp2062
bS'PCA'
p2063
tp2064
Rp2065
sg51
F0.2
sg38
g2057
sg52
g11
(g12
(S'S9'
p2066
I0
I1
tp2067
Rp2068
(I3
S'|'
p2069
NNNI9
I1
I0
tp2070
bS'inception'
p2071
tp2072
Rp2073
sg34
g2054
sg61
g11
(g15
S'\x07gH\x07\x8b\xf5\xe1?'
p2074
tp2075
Rp2076
sg65
g11
(g12
(S'S3'
p2077
I0
I1
tp2078
Rp2079
(I3
S'|'
p2080
NNNI3
I1
I0
tp2081
bS'SVM'
p2082
tp2083
Rp2084
sg74
I3
sg75
g76
sg77
g11
(g15
S'{\x1d\xa9\xd7\x91z\xe5?'
p2085
tp2086
Rp2087
sg81
g82
sg83
g84
sbag4
(g5
g6
Ntp2088
Rp2089
(dp2090
g10
g11
(g15
S'\x00\x00\x00\x00\x00\x00\xf8\xff'
p2091
tp2092
Rp2093
sg21
g29
sg30
g31
sg32
(dp2094
g21
g29
sg34
g11
(g15
S'\xf8\x17\xf3\xf5<u>@'
p2095
tp2096
Rp2097
sg38
g11
(g15
S'4[\x0c\x0c\xaf\xe9\x1c@'
p2098
tp2099
Rp2100
ssg42
g11
(g12
(S'S3'
p2101
I0
I1
tp2102
Rp2103
(I3
S'|'
p2104
NNNI3
I1
I0
tp2105
bS'PCA'
p2106
tp2107
Rp2108
sg51
F0.2
sg38
g2100
sg52
g11
(g12
(S'S3'
p2109
I0
I1
tp2110
Rp2111
(I3
S'|'
p2112
NNNI3
I1
I0
tp2113
bS'VGG'
p2114
tp2115
Rp2116
sg34
g2097
sg61
g11
(g15
S'\x147J\x9f\xdf\xdd\xe0?'
p2117
tp2118
Rp2119
sg65
g11
(g12
(S'S3'
p2120
I0
I1
tp2121
Rp2122
(I3
S'|'
p2123
NNNI3
I1
I0
tp2124
bS'SVM'
p2125
tp2126
Rp2127
sg74
I3
sg75
g76
sg77
g11
(g15
S'\x05yJ\x90\xa7\x04\xe9?'
p2128
tp2129
Rp2130
sg81
g82
sg83
g84
sbag4
(g5
g6
Ntp2131
Rp2132
(dp2133
g10
g11
(g15
S'\x00\x00\x00\x00\x00\x00\xf8\xff'
p2134
tp2135
Rp2136
sg197
g11
(g15
S'\x00\x00\x00\x00\x00\xc0r@'
p2137
tp2138
Rp2139
sg30
g31
sg137
g11
(g140
S'\x06\x00\x00\x00\x00\x00\x00\x00'
p2140
tp2141
Rp2142
sg32
(dp2143
g197
g2139
sg137
g2142
sg154
g11
(g140
S'\x03\x00\x00\x00\x00\x00\x00\x00'
p2144
tp2145
Rp2146
sg202
g11
(g15
S'\xc6\x87R\x86\xf6g\xed?'
p2147
tp2148
Rp2149
ssg42
g11
(g12
(S'S6'
p2150
I0
I1
tp2151
Rp2152
(I3
S'|'
p2153
NNNI6
I1
I0
tp2154
bS'ISOMAP'
p2155
tp2156
Rp2157
sg51
F0.2
sg154
g2146
sg52
g11
(g12
(S'S9'
p2158
I0
I1
tp2159
Rp2160
(I3
S'|'
p2161
NNNI9
I1
I0
tp2162
bS'inception'
p2163
tp2164
Rp2165
sg61
g11
(g15
S'\xa8A\x9a<=f\xe4?'
p2166
tp2167
Rp2168
sg65
g11
(g12
(S'S2'
p2169
I0
I1
tp2170
Rp2171
(I3
S'|'
p2172
NNNI2
I1
I0
tp2173
bS'RF'
p2174
tp2175
Rp2176
sg74
I3
sg202
g2149
sg75
g76
sg77
g11
(g15
S'\x08\x1f|\xf0\xc1\x07\xe7?'
p2177
tp2178
Rp2179
sg81
g82
sg83
g84
sbag4
(g5
g6
Ntp2180
Rp2181
(dp2182
g10
g11
(g15
S'\x00\x00\x00\x00\x00\x00\xf8\xff'
p2183
tp2184
Rp2185
sg197
g11
(g15
S'\x00\x00\x00\x00\x00\x00 @'
p2186
tp2187
Rp2188
sg21
g29
sg30
g31
sg32
(dp2189
g197
g2188
sg202
g11
(g15
S'\xaa5\xddH\x00Y\xd5?'
p2190
tp2191
Rp2192
sg21
g29
ssg42
g11
(g12
(S'S3'
p2193
I0
I1
tp2194
Rp2195
(I3
S'|'
p2196
NNNI3
I1
I0
tp2197
bS'PCA'
p2198
tp2199
Rp2200
sg51
F0.2
sg52
g11
(g12
(S'S3'
p2201
I0
I1
tp2202
Rp2203
(I3
S'|'
p2204
NNNI3
I1
I0
tp2205
bS'VGG'
p2206
tp2207
Rp2208
sg61
g11
(g15
S'KS\xccCn\x14\xf7?'
p2209
tp2210
Rp2211
sg65
g11
(g12
(S'S2'
p2212
I0
I1
tp2213
Rp2214
(I3
S'|'
p2215
NNNI2
I1
I0
tp2216
bS'RF'
p2217
tp2218
Rp2219
sg74
I3
sg202
g2192
sg75
g76
sg77
g11
(g15
S'\x85\xe2V(n\x85\xea?'
p2220
tp2221
Rp2222
sg81
g82
sg83
g84
sbag4
(g5
g6
Ntp2223
Rp2224
(dp2225
g10
g11
(g15
S'\x00\x00\x00\x00\x00\x00\xf8\xff'
p2226
tp2227
Rp2228
sg137
g11
(g140
S'\x07\x00\x00\x00\x00\x00\x00\x00'
p2229
tp2230
Rp2231
sg30
g31
sg32
(dp2232
g137
g2231
sg34
g11
(g15
S"\xbf\x17f\xba\xaf'3@"
p2233
tp2234
Rp2235
sg150
g11
(g140
S'\x01\x00\x00\x00\x00\x00\x00\x00'
p2236
tp2237
Rp2238
sg154
g11
(g140
S'\x02\x00\x00\x00\x00\x00\x00\x00'
p2239
tp2240
Rp2241
sg38
g11
(g15
S'\xe9]\xf1\x00vy\x15@'
p2242
tp2243
Rp2244
ssg38
g2244
sg42
g11
(g12
(S'S6'
p2245
I0
I1
tp2246
Rp2247
(I3
S'|'
p2248
NNNI6
I1
I0
tp2249
bS'ISOMAP'
p2250
tp2251
Rp2252
sg51
F0.2
sg154
g2241
sg52
g11
(g12
(S'S8'
p2253
I0
I1
tp2254
Rp2255
(I3
S'|'
p2256
NNNI8
I1
I0
tp2257
bS'haralick'
p2258
tp2259
Rp2260
sg34
g2235
sg150
g2238
sg61
g11
(g15
S'\r\xb5k\xfa]]\xde?'
p2261
tp2262
Rp2263
sg65
g11
(g12
(S'S3'
p2264
I0
I1
tp2265
Rp2266
(I3
S'|'
p2267
NNNI3
I1
I0
tp2268
bS'SVM'
p2269
tp2270
Rp2271
sg74
I3
sg75
g76
sg77
g11
(g15
S'\x190\x8d\x01\xd3\x18\xe8?'
p2272
tp2273
Rp2274
sg81
g82
sg83
g84
sbag4
(g5
g6
Ntp2275
Rp2276
(dp2277
g10
g11
(g15
S'\x00\x00\x00\x00\x00\x00\xf8\xff'
p2278
tp2279
Rp2280
sg197
g11
(g15
S'\x00\x00\x00\x00\x00\x00D@'
p2281
tp2282
Rp2283
sg30
g31
sg137
g11
(g140
S'\x07\x00\x00\x00\x00\x00\x00\x00'
p2284
tp2285
Rp2286
sg32
(dp2287
g197
g2283
sg137
g2286
sg150
g11
(g140
S'\x02\x00\x00\x00\x00\x00\x00\x00'
p2288
tp2289
Rp2290
sg154
g11
(g140
S'\x02\x00\x00\x00\x00\x00\x00\x00'
p2291
tp2292
Rp2293
sg202
g11
(g15
S'\xdc\x1f\x1f\xedQ\xa8\xe5?'
p2294
tp2295
Rp2296
ssg42
g11
(g12
(S'S6'
p2297
I0
I1
tp2298
Rp2299
(I3
S'|'
p2300
NNNI6
I1
I0
tp2301
bS'ISOMAP'
p2302
tp2303
Rp2304
sg51
F0.2
sg154
g2293
sg52
g11
(g12
(S'S8'
p2305
I0
I1
tp2306
Rp2307
(I3
S'|'
p2308
NNNI8
I1
I0
tp2309
bS'haralick'
p2310
tp2311
Rp2312
sg150
g2290
sg61
g11
(g15
S'\x81\xdd\xe6\xdbz\xee\x03@'
p2313
tp2314
Rp2315
sg65
g11
(g12
(S'S2'
p2316
I0
I1
tp2317
Rp2318
(I3
S'|'
p2319
NNNI2
I1
I0
tp2320
bS'RF'
p2321
tp2322
Rp2323
sg74
I3
sg202
g2296
sg75
g76
sg77
g11
(g15
S'\x8b[\xa1\xb8\x15\x8a\xeb?'
p2324
tp2325
Rp2326
sg81
g82
sg83
g84
sbag4
(g5
g6
Ntp2327
Rp2328
(dp2329
g10
g11
(g15
S'\x00\x00\x00\x00\x00\x00\xf8\xff'
p2330
tp2331
Rp2332
sg197
g11
(g15
S'\x00\x00\x00\x00\x00@Z@'
p2333
tp2334
Rp2335
sg21
g93
sg30
g31
sg32
(dp2336
g197
g2335
sg202
g11
(g15
S'\xad\x9a\xa6\x96\xfa,\xe1?'
p2337
tp2338
Rp2339
sg21
g93
ssg42
g11
(g12
(S'S3'
p2340
I0
I1
tp2341
Rp2342
(I3
S'|'
p2343
NNNI3
I1
I0
tp2344
bS'PCA'
p2345
tp2346
Rp2347
sg51
F0.2
sg52
g11
(g12
(S'S3'
p2348
I0
I1
tp2349
Rp2350
(I3
S'|'
p2351
NNNI3
I1
I0
tp2352
bS'VGG'
p2353
tp2354
Rp2355
sg61
g11
(g15
S'\x8d+b\xe7\xc4)\xdb?'
p2356
tp2357
Rp2358
sg65
g11
(g12
(S'S2'
p2359
I0
I1
tp2360
Rp2361
(I3
S'|'
p2362
NNNI2
I1
I0
tp2363
bS'RF'
p2364
tp2365
Rp2366
sg74
I3
sg202
g2339
sg75
g76
sg77
g11
(g15
S'\x05yJ\x90\xa7\x04\xe9?'
p2367
tp2368
Rp2369
sg81
g82
sg83
g84
sbag4
(g5
g6
Ntp2370
Rp2371
(dp2372
g10
g11
(g15
S'\x00\x00\x00\x00\x00\x00\xf8\xff'
p2373
tp2374
Rp2375
sg197
g11
(g15
S'\x00\x00\x00\x00\x00@Z@'
p2376
tp2377
Rp2378
sg21
g93
sg30
g31
sg32
(dp2379
g197
g2378
sg202
g11
(g15
S'\xc9\x13C\x11\xe2\x10\xd5?'
p2380
tp2381
Rp2382
sg21
g93
ssg42
g11
(g12
(S'S3'
p2383
I0
I1
tp2384
Rp2385
(I3
S'|'
p2386
NNNI3
I1
I0
tp2387
bS'PCA'
p2388
tp2389
Rp2390
sg51
F0.2
sg52
g11
(g12
(S'S9'
p2391
I0
I1
tp2392
Rp2393
(I3
S'|'
p2394
NNNI9
I1
I0
tp2395
bS'inception'
p2396
tp2397
Rp2398
sg61
g11
(g15
S'\xdb\t\xbe\xe1<4\xe0?'
p2399
tp2400
Rp2401
sg65
g11
(g12
(S'S2'
p2402
I0
I1
tp2403
Rp2404
(I3
S'|'
p2405
NNNI2
I1
I0
tp2406
bS'RF'
p2407
tp2408
Rp2409
sg74
I3
sg202
g2382
sg75
g76
sg77
g11
(g15
S'\x190\x8d\x01\xd3\x18\xe8?'
p2410
tp2411
Rp2412
sg81
g82
sg83
g84
sbag4
(g5
g6
Ntp2413
Rp2414
(dp2415
g10
g11
(g15
S'\x00\x00\x00\x00\x00\x00\xf8\xff'
p2416
tp2417
Rp2418
sg21
g29
sg30
g31
sg32
(dp2419
g21
g29
sg34
g11
(g15
S'\xbce[\\\xe3\xceB@'
p2420
tp2421
Rp2422
sg38
g11
(g15
S'\xd3T\x96\xd6y\x88\x1a@'
p2423
tp2424
Rp2425
ssg42
g11
(g12
(S'S3'
p2426
I0
I1
tp2427
Rp2428
(I3
S'|'
p2429
NNNI3
I1
I0
tp2430
bS'PCA'
p2431
tp2432
Rp2433
sg51
F0.2
sg38
g2425
sg52
g11
(g12
(S'S9'
p2434
I0
I1
tp2435
Rp2436
(I3
S'|'
p2437
NNNI9
I1
I0
tp2438
bS'inception'
p2439
tp2440
Rp2441
sg34
g2422
sg61
g11
(g15
S'!\xe2|\x8dL\xfe\xe0?'
p2442
tp2443
Rp2444
sg65
g11
(g12
(S'S3'
p2445
I0
I1
tp2446
Rp2447
(I3
S'|'
p2448
NNNI3
I1
I0
tp2449
bS'SVM'
p2450
tp2451
Rp2452
sg74
I3
sg75
g76
sg77
g11
(g15
S'{\x1d\xa9\xd7\x91z\xe5?'
p2453
tp2454
Rp2455
sg81
g82
sg83
g84
sbag4
(g5
g6
Ntp2456
Rp2457
(dp2458
g10
g11
(g15
S'\x00\x00\x00\x00\x00\x00\xf8\xff'
p2459
tp2460
Rp2461
sg197
g11
(g15
S'\x00\x00\x00\x00\x00@Z@'
p2462
tp2463
Rp2464
sg21
g29
sg30
g31
sg32
(dp2465
g197
g2464
sg202
g11
(g15
S'\xc8m\xb7\xd8\xc0\xb5\xee?'
p2466
tp2467
Rp2468
sg21
g29
ssg42
g11
(g12
(S'S3'
p2469
I0
I1
tp2470
Rp2471
(I3
S'|'
p2472
NNNI3
I1
I0
tp2473
bS'PCA'
p2474
tp2475
Rp2476
sg51
F0.2
sg52
g11
(g12
(S'S9'
p2477
I0
I1
tp2478
Rp2479
(I3
S'|'
p2480
NNNI9
I1
I0
tp2481
bS'inception'
p2482
tp2483
Rp2484
sg61
g11
(g15
S'\xb8Cf!\xd9\x0f\xe1?'
p2485
tp2486
Rp2487
sg65
g11
(g12
(S'S2'
p2488
I0
I1
tp2489
Rp2490
(I3
S'|'
p2491
NNNI2
I1
I0
tp2492
bS'RF'
p2493
tp2494
Rp2495
sg74
I3
sg202
g2468
sg75
g76
sg77
g11
(g15
S'\x15\xb7Bq+\x14\xe7?'
p2496
tp2497
Rp2498
sg81
g82
sg83
g84
sbag4
(g5
g6
Ntp2499
Rp2500
(dp2501
g10
g11
(g15
S'\x00\x00\x00\x00\x00\x00\xf8\xff'
p2502
tp2503
Rp2504
sg137
g11
(g140
S'\x06\x00\x00\x00\x00\x00\x00\x00'
p2505
tp2506
Rp2507
sg30
g31
sg32
(dp2508
g137
g2507
sg34
g11
(g15
S'\x8e]WbU\x83V@'
p2509
tp2510
Rp2511
sg154
g11
(g140
S'\x04\x00\x00\x00\x00\x00\x00\x00'
p2512
tp2513
Rp2514
sg38
g11
(g15
S'\x02:\x17\xa7\xa6\xcf\x10@'
p2515
tp2516
Rp2517
ssg38
g2517
sg42
g11
(g12
(S'S6'
p2518
I0
I1
tp2519
Rp2520
(I3
S'|'
p2521
NNNI6
I1
I0
tp2522
bS'ISOMAP'
p2523
tp2524
Rp2525
sg51
F0.2
sg154
g2514
sg52
g11
(g12
(S'S3'
p2526
I0
I1
tp2527
Rp2528
(I3
S'|'
p2529
NNNI3
I1
I0
tp2530
bS'VGG'
p2531
tp2532
Rp2533
sg34
g2511
sg61
g11
(g15
S'[C`\xcb\xcf\x1b\xe5?'
p2534
tp2535
Rp2536
sg65
g11
(g12
(S'S3'
p2537
I0
I1
tp2538
Rp2539
(I3
S'|'
p2540
NNNI3
I1
I0
tp2541
bS'SVM'
p2542
tp2543
Rp2544
sg74
I3
sg75
g76
sg77
g11
(g15
S'\x11\x11\x11\x11\x11\x11\xe9?'
p2545
tp2546
Rp2547
sg81
g82
sg83
g84
sbag4
(g5
g6
Ntp2548
Rp2549
(dp2550
g10
g11
(g15
S'\x00\x00\x00\x00\x00\x00\xf8\xff'
p2551
tp2552
Rp2553
sg137
g11
(g140
S'\x06\x00\x00\x00\x00\x00\x00\x00'
p2554
tp2555
Rp2556
sg30
g31
sg32
(dp2557
g137
g2556
sg34
g11
(g15
S'\x856F&O\x9dP@'
p2558
tp2559
Rp2560
sg154
g11
(g140
S'\x03\x00\x00\x00\x00\x00\x00\x00'
p2561
tp2562
Rp2563
sg38
g11
(g15
S'\xbfCwn\x19\r\x1b@'
p2564
tp2565
Rp2566
ssg38
g2566
sg42
g11
(g12
(S'S6'
p2567
I0
I1
tp2568
Rp2569
(I3
S'|'
p2570
NNNI6
I1
I0
tp2571
bS'ISOMAP'
p2572
tp2573
Rp2574
sg51
F0.2
sg154
g2563
sg52
g11
(g12
(S'S9'
p2575
I0
I1
tp2576
Rp2577
(I3
S'|'
p2578
NNNI9
I1
I0
tp2579
bS'inception'
p2580
tp2581
Rp2582
sg34
g2560
sg61
g11
(g15
S'ud\xbaI\xd7\xa6\xe3?'
p2583
tp2584
Rp2585
sg65
g11
(g12
(S'S3'
p2586
I0
I1
tp2587
Rp2588
(I3
S'|'
p2589
NNNI3
I1
I0
tp2590
bS'SVM'
p2591
tp2592
Rp2593
sg74
I3
sg75
g76
sg77
g11
(g15
S'\x1c\xd6\xbea\xed\x1b\xe6?'
p2594
tp2595
Rp2596
sg81
g82
sg83
g84
sbag4
(g5
g6
Ntp2597
Rp2598
(dp2599
g10
g11
(g15
S'\x00\x00\x00\x00\x00\x00\xf8\xff'
p2600
tp2601
Rp2602
sg21
g29
sg30
g31
sg32
(dp2603
g21
g29
sg34
g11
(g15
S',@\xab\x84\x99FT@'
p2604
tp2605
Rp2606
sg38
g11
(g15
S'\x1d\x1c\x9eN*\xbe\x1b@'
p2607
tp2608
Rp2609
ssg42
g11
(g12
(S'S3'
p2610
I0
I1
tp2611
Rp2612
(I3
S'|'
p2613
NNNI3
I1
I0
tp2614
bS'PCA'
p2615
tp2616
Rp2617
sg51
F0.2
sg38
g2609
sg52
g11
(g12
(S'S9'
p2618
I0
I1
tp2619
Rp2620
(I3
S'|'
p2621
NNNI9
I1
I0
tp2622
bS'inception'
p2623
tp2624
Rp2625
sg34
g2606
sg61
g11
(g15
S'\xe0\x98IQ\xabC\xe1?'
p2626
tp2627
Rp2628
sg65
g11
(g12
(S'S3'
p2629
I0
I1
tp2630
Rp2631
(I3
S'|'
p2632
NNNI3
I1
I0
tp2633
bS'SVM'
p2634
tp2635
Rp2636
sg74
I3
sg75
g76
sg77
g11
(g15
S'{\x1d\xa9\xd7\x91z\xe5?'
p2637
tp2638
Rp2639
sg81
g82
sg83
g84
sbag4
(g5
g6
Ntp2640
Rp2641
(dp2642
g10
g11
(g15
S'\x00\x00\x00\x00\x00\x00\xf8\xff'
p2643
tp2644
Rp2645
sg197
g11
(g15
S'\x00\x00\x00\x00\x00\x00 @'
p2646
tp2647
Rp2648
sg30
g31
sg137
g11
(g140
S'\x05\x00\x00\x00\x00\x00\x00\x00'
p2649
tp2650
Rp2651
sg32
(dp2652
g197
g2648
sg137
g2651
sg154
g11
(g140
S'\x03\x00\x00\x00\x00\x00\x00\x00'
p2653
tp2654
Rp2655
sg202
g11
(g15
S';4=[]h\xd8?'
p2656
tp2657
Rp2658
ssg42
g11
(g12
(S'S6'
p2659
I0
I1
tp2660
Rp2661
(I3
S'|'
p2662
NNNI6
I1
I0
tp2663
bS'ISOMAP'
p2664
tp2665
Rp2666
sg51
F0.2
sg154
g2655
sg52
g11
(g12
(S'S3'
p2667
I0
I1
tp2668
Rp2669
(I3
S'|'
p2670
NNNI3
I1
I0
tp2671
bS'VGG'
p2672
tp2673
Rp2674
sg61
g11
(g15
S'\xf9\xe5{RE\xcc\x03@'
p2675
tp2676
Rp2677
sg65
g11
(g12
(S'S2'
p2678
I0
I1
tp2679
Rp2680
(I3
S'|'
p2681
NNNI2
I1
I0
tp2682
bS'RF'
p2683
tp2684
Rp2685
sg74
I3
sg202
g2658
sg75
g76
sg77
g11
(g15
S'\x190\x8d\x01\xd3\x18\xe8?'
p2686
tp2687
Rp2688
sg81
g82
sg83
g84
sbag4
(g5
g6
Ntp2689
Rp2690
(dp2691
g10
g11
(g15
S'\x00\x00\x00\x00\x00\x00\xf8\xff'
p2692
tp2693
Rp2694
sg21
g29
sg30
g31
sg32
(dp2695
g21
g29
sg34
g11
(g15
S'\xd7\x9d\xca\n\x12\x1dC@'
p2696
tp2697
Rp2698
sg150
g11
(g140
S'\x03\x00\x00\x00\x00\x00\x00\x00'
p2699
tp2700
Rp2701
sg38
g11
(g15
S'\x14\n\xdf\x83fu\x17@'
p2702
tp2703
Rp2704
ssg42
g11
(g12
(S'S3'
p2705
I0
I1
tp2706
Rp2707
(I3
S'|'
p2708
NNNI3
I1
I0
tp2709
bS'PCA'
p2710
tp2711
Rp2712
sg51
F0.2
sg38
g2704
sg52
g11
(g12
(S'S8'
p2713
I0
I1
tp2714
Rp2715
(I3
S'|'
p2716
NNNI8
I1
I0
tp2717
bS'haralick'
p2718
tp2719
Rp2720
sg34
g2698
sg150
g2701
sg61
g11
(g15
S'\xb5\xe0\x82{\xd9U\xe0?'
p2721
tp2722
Rp2723
sg65
g11
(g12
(S'S3'
p2724
I0
I1
tp2725
Rp2726
(I3
S'|'
p2727
NNNI3
I1
I0
tp2728
bS'SVM'
p2729
tp2730
Rp2731
sg74
I3
sg75
g76
sg77
g11
(g15
S'\x9bl\xb2\xc9&\x9b\xe4?'
p2732
tp2733
Rp2734
sg81
g82
sg83
g84
sbag4
(g5
g6
Ntp2735
Rp2736
(dp2737
g10
g11
(g15
S'\x00\x00\x00\x00\x00\x00\xf8\xff'
p2738
tp2739
Rp2740
sg21
g93
sg30
g31
sg32
(dp2741
g21
g93
sg34
g11
(g15
S'\xc8\xdd\xdf\xb4\x9b\x80E@'
p2742
tp2743
Rp2744
sg150
g11
(g140
S'\x03\x00\x00\x00\x00\x00\x00\x00'
p2745
tp2746
Rp2747
sg38
g11
(g15
S'\xe2\x1b\xa9nd\xae\x14@'
p2748
tp2749
Rp2750
ssg42
g11
(g12
(S'S3'
p2751
I0
I1
tp2752
Rp2753
(I3
S'|'
p2754
NNNI3
I1
I0
tp2755
bS'PCA'
p2756
tp2757
Rp2758
sg51
F0.2
sg38
g2750
sg52
g11
(g12
(S'S8'
p2759
I0
I1
tp2760
Rp2761
(I3
S'|'
p2762
NNNI8
I1
I0
tp2763
bS'haralick'
p2764
tp2765
Rp2766
sg34
g2744
sg150
g2747
sg61
g11
(g15
S'mm\x16b/V\xdf?'
p2767
tp2768
Rp2769
sg65
g11
(g12
(S'S3'
p2770
I0
I1
tp2771
Rp2772
(I3
S'|'
p2773
NNNI3
I1
I0
tp2774
bS'SVM'
p2775
tp2776
Rp2777
sg74
I3
sg75
g76
sg77
g11
(g15
S'\x9bl\xb2\xc9&\x9b\xe4?'
p2778
tp2779
Rp2780
sg81
g82
sg83
g84
sbag4
(g5
g6
Ntp2781
Rp2782
(dp2783
g10
g11
(g15
S'\x00\x00\x00\x00\x00\x00\xf8\xff'
p2784
tp2785
Rp2786
sg137
g11
(g140
S'\x06\x00\x00\x00\x00\x00\x00\x00'
p2787
tp2788
Rp2789
sg30
g31
sg32
(dp2790
g137
g2789
sg34
g11
(g15
S'\x1a\x0c\x03LT]-@'
p2791
tp2792
Rp2793
sg154
g11
(g140
S'\x03\x00\x00\x00\x00\x00\x00\x00'
p2794
tp2795
Rp2796
sg38
g11
(g15
S'\xbd\xf5\xd3\r\t\xc1\t@'
p2797
tp2798
Rp2799
ssg38
g2799
sg42
g11
(g12
(S'S6'
p2800
I0
I1
tp2801
Rp2802
(I3
S'|'
p2803
NNNI6
I1
I0
tp2804
bS'ISOMAP'
p2805
tp2806
Rp2807
sg51
F0.2
sg154
g2796
sg52
g11
(g12
(S'S3'
p2808
I0
I1
tp2809
Rp2810
(I3
S'|'
p2811
NNNI3
I1
I0
tp2812
bS'VGG'
p2813
tp2814
Rp2815
sg34
g2793
sg61
g11
(g15
S'W\x87\xe6\x94Q\xdb\xe5?'
p2816
tp2817
Rp2818
sg65
g11
(g12
(S'S3'
p2819
I0
I1
tp2820
Rp2821
(I3
S'|'
p2822
NNNI3
I1
I0
tp2823
bS'SVM'
p2824
tp2825
Rp2826
sg74
I3
sg75
g76
sg77
g11
(g15
S'\xadP\xdc\n\xc5\xad\xe8?'
p2827
tp2828
Rp2829
sg81
g82
sg83
g84
sbag4
(g5
g6
Ntp2830
Rp2831
(dp2832
g10
g11
(g15
S'\x00\x00\x00\x00\x00\x00\xf8\xff'
p2833
tp2834
Rp2835
sg21
g93
sg30
g31
sg32
(dp2836
g21
g93
sg34
g11
(g15
S'\xaa\x80\xd1\xd2\xbf\xb2H@'
p2837
tp2838
Rp2839
sg38
g11
(g15
S'\x9b]\x8b1}\x9c\x1e@'
p2840
tp2841
Rp2842
ssg42
g11
(g12
(S'S3'
p2843
I0
I1
tp2844
Rp2845
(I3
S'|'
p2846
NNNI3
I1
I0
tp2847
bS'PCA'
p2848
tp2849
Rp2850
sg51
F0.2
sg38
g2842
sg52
g11
(g12
(S'S3'
p2851
I0
I1
tp2852
Rp2853
(I3
S'|'
p2854
NNNI3
I1
I0
tp2855
bS'VGG'
p2856
tp2857
Rp2858
sg34
g2839
sg61
g11
(g15
S'@k\xe0I\t\xd6\xe0?'
p2859
tp2860
Rp2861
sg65
g11
(g12
(S'S3'
p2862
I0
I1
tp2863
Rp2864
(I3
S'|'
p2865
NNNI3
I1
I0
tp2866
bS'SVM'
p2867
tp2868
Rp2869
sg74
I3
sg75
g76
sg77
g11
(g15
S'\x05yJ\x90\xa7\x04\xe9?'
p2870
tp2871
Rp2872
sg81
g82
sg83
g84
sbag4
(g5
g6
Ntp2873
Rp2874
(dp2875
g10
g11
(g15
S'\x00\x00\x00\x00\x00\x00\xf8\xff'
p2876
tp2877
Rp2878
sg197
g11
(g15
S'\x00\x00\x00\x00\x00@R@'
p2879
tp2880
Rp2881
sg30
g31
sg137
g11
(g140
S'\x03\x00\x00\x00\x00\x00\x00\x00'
p2882
tp2883
Rp2884
sg32
(dp2885
g197
g2881
sg137
g2884
sg150
g11
(g140
S'\x01\x00\x00\x00\x00\x00\x00\x00'
p2886
tp2887
Rp2888
sg154
g11
(g140
S'\x04\x00\x00\x00\x00\x00\x00\x00'
p2889
tp2890
Rp2891
sg202
g11
(g15
S'6\x17j"\xcb\x81\xe8?'
p2892
tp2893
Rp2894
ssg42
g11
(g12
(S'S6'
p2895
I0
I1
tp2896
Rp2897
(I3
S'|'
p2898
NNNI6
I1
I0
tp2899
bS'ISOMAP'
p2900
tp2901
Rp2902
sg51
F0.2
sg154
g2891
sg52
g11
(g12
(S'S8'
p2903
I0
I1
tp2904
Rp2905
(I3
S'|'
p2906
NNNI8
I1
I0
tp2907
bS'haralick'
p2908
tp2909
Rp2910
sg150
g2888
sg61
g11
(g15
S'k\xff\x852t\xd3\xef?'
p2911
tp2912
Rp2913
sg65
g11
(g12
(S'S2'
p2914
I0
I1
tp2915
Rp2916
(I3
S'|'
p2917
NNNI2
I1
I0
tp2918
bS'RF'
p2919
tp2920
Rp2921
sg74
I3
sg202
g2894
sg75
g76
sg77
g11
(g15
S' O\t\xf2\x94 \xe7?'
p2922
tp2923
Rp2924
sg81
g82
sg83
g84
sbag4
(g5
g6
Ntp2925
Rp2926
(dp2927
g10
g11
(g15
S'\x00\x00\x00\x00\x00\x00\xf8\xff'
p2928
tp2929
Rp2930
sg197
g11
(g15
S'\x00\x00\x00\x00\x00\x00 @'
p2931
tp2932
Rp2933
sg21
g29
sg30
g31
sg32
(dp2934
g197
g2933
sg202
g11
(g15
S'\x0c\xdf\n\xf4\xea\xb2\xe9?'
p2935
tp2936
Rp2937
sg21
g29
sg150
g11
(g140
S'\x02\x00\x00\x00\x00\x00\x00\x00'
p2938
tp2939
Rp2940
ssg42
g11
(g12
(S'S3'
p2941
I0
I1
tp2942
Rp2943
(I3
S'|'
p2944
NNNI3
I1
I0
tp2945
bS'PCA'
p2946
tp2947
Rp2948
sg51
F0.2
sg52
g11
(g12
(S'S8'
p2949
I0
I1
tp2950
Rp2951
(I3
S'|'
p2952
NNNI8
I1
I0
tp2953
bS'haralick'
p2954
tp2955
Rp2956
sg150
g2940
sg61
g11
(g15
S'%\x8fU<9\x8d\x10@'
p2957
tp2958
Rp2959
sg65
g11
(g12
(S'S2'
p2960
I0
I1
tp2961
Rp2962
(I3
S'|'
p2963
NNNI2
I1
I0
tp2964
bS'RF'
p2965
tp2966
Rp2967
sg74
I3
sg202
g2937
sg75
g76
sg77
g11
(g15
S'(n\x85\xe2V(\xe6?'
p2968
tp2969
Rp2970
sg81
g82
sg83
g84
sbag4
(g5
g6
Ntp2971
Rp2972
(dp2973
g10
g11
(g15
S'\x00\x00\x00\x00\x00\x00\xf8\xff'
p2974
tp2975
Rp2976
sg137
g11
(g140
S'\x07\x00\x00\x00\x00\x00\x00\x00'
p2977
tp2978
Rp2979
sg30
g31
sg32
(dp2980
g137
g2979
sg34
g11
(g15
S'\xb7\x8d\x9f\x80\xc9z6@'
p2981
tp2982
Rp2983
sg150
g11
(g140
S'\x01\x00\x00\x00\x00\x00\x00\x00'
p2984
tp2985
Rp2986
sg154
g11
(g140
S'\x02\x00\x00\x00\x00\x00\x00\x00'
p2987
tp2988
Rp2989
sg38
g11
(g15
S'\x98\x1bB~\x0f\xb5\x07@'
p2990
tp2991
Rp2992
ssg38
g2992
sg42
g11
(g12
(S'S6'
p2993
I0
I1
tp2994
Rp2995
(I3
S'|'
p2996
NNNI6
I1
I0
tp2997
bS'ISOMAP'
p2998
tp2999
Rp3000
sg51
F0.2
sg154
g2989
sg52
g11
(g12
(S'S8'
p3001
I0
I1
tp3002
Rp3003
(I3
S'|'
p3004
NNNI8
I1
I0
tp3005
bS'haralick'
p3006
tp3007
Rp3008
sg34
g2983
sg150
g2986
sg61
g11
(g15
S'`\n\x97\xc1\x0b$\xde?'
p3009
tp3010
Rp3011
sg65
g11
(g12
(S'S3'
p3012
I0
I1
tp3013
Rp3014
(I3
S'|'
p3015
NNNI3
I1
I0
tp3016
bS'SVM'
p3017
tp3018
Rp3019
sg74
I3
sg75
g76
sg77
g11
(g15
S'\x190\x8d\x01\xd3\x18\xe8?'
p3020
tp3021
Rp3022
sg81
g82
sg83
g84
sbag4
(g5
g6
Ntp3023
Rp3024
(dp3025
g10
g11
(g15
S'\x00\x00\x00\x00\x00\x00\xf8\xff'
p3026
tp3027
Rp3028
sg197
g11
(g15
S'\x00\x00\x00\x00\x00\x00 @'
p3029
tp3030
Rp3031
sg30
g31
sg137
g11
(g140
S'\x05\x00\x00\x00\x00\x00\x00\x00'
p3032
tp3033
Rp3034
sg32
(dp3035
g197
g3031
sg137
g3034
sg150
g11
(g140
S'\x02\x00\x00\x00\x00\x00\x00\x00'
p3036
tp3037
Rp3038
sg154
g11
(g140
S'\x02\x00\x00\x00\x00\x00\x00\x00'
p3039
tp3040
Rp3041
sg202
g11
(g15
S'\xf8\xb9\xa3.\x0f\xb2\xe3?'
p3042
tp3043
Rp3044
ssg42
g11
(g12
(S'S6'
p3045
I0
I1
tp3046
Rp3047
(I3
S'|'
p3048
NNNI6
I1
I0
tp3049
bS'ISOMAP'
p3050
tp3051
Rp3052
sg51
F0.2
sg154
g3041
sg52
g11
(g12
(S'S8'
p3053
I0
I1
tp3054
Rp3055
(I3
S'|'
p3056
NNNI8
I1
I0
tp3057
bS'haralick'
p3058
tp3059
Rp3060
sg150
g3038
sg61
g11
(g15
S'\xe3\t;\xb0i\xd2\xf7?'
p3061
tp3062
Rp3063
sg65
g11
(g12
(S'S2'
p3064
I0
I1
tp3065
Rp3066
(I3
S'|'
p3067
NNNI2
I1
I0
tp3068
bS'RF'
p3069
tp3070
Rp3071
sg74
I3
sg202
g3044
sg75
g76
sg77
g11
(g15
S'\x84\x0f>\xf8\xe0\x83\xe7?'
p3072
tp3073
Rp3074
sg81
g82
sg83
g84
sbag4
(g5
g6
Ntp3075
Rp3076
(dp3077
g10
g11
(g15
S'\x00\x00\x00\x00\x00\x00\xf8\xff'
p3078
tp3079
Rp3080
sg137
g11
(g140
S'\x04\x00\x00\x00\x00\x00\x00\x00'
p3081
tp3082
Rp3083
sg30
g31
sg32
(dp3084
g137
g3083
sg34
g11
(g15
S'\xb2\xbc!\xd7\xb8\x88#@'
p3085
tp3086
Rp3087
sg150
g11
(g140
S'\x01\x00\x00\x00\x00\x00\x00\x00'
p3088
tp3089
Rp3090
sg154
g11
(g140
S'\x03\x00\x00\x00\x00\x00\x00\x00'
p3091
tp3092
Rp3093
sg38
g11
(g15
S'X\xef\xcc:\xd3T\x14@'
p3094
tp3095
Rp3096
ssg38
g3096
sg42
g11
(g12
(S'S6'
p3097
I0
I1
tp3098
Rp3099
(I3
S'|'
p3100
NNNI6
I1
I0
tp3101
bS'ISOMAP'
p3102
tp3103
Rp3104
sg51
F0.2
sg154
g3093
sg52
g11
(g12
(S'S8'
p3105
I0
I1
tp3106
Rp3107
(I3
S'|'
p3108
NNNI8
I1
I0
tp3109
bS'haralick'
p3110
tp3111
Rp3112
sg34
g3087
sg150
g3090
sg61
g11
(g15
S'\xfa\xea\x9a\xe3\xb5\x9c\xe0?'
p3113
tp3114
Rp3115
sg65
g11
(g12
(S'S3'
p3116
I0
I1
tp3117
Rp3118
(I3
S'|'
p3119
NNNI3
I1
I0
tp3120
bS'SVM'
p3121
tp3122
Rp3123
sg74
I3
sg75
g76
sg77
g11
(g15
S'(n\x85\xe2V(\xe6?'
p3124
tp3125
Rp3126
sg81
g82
sg83
g84
sbag4
(g5
g6
Ntp3127
Rp3128
(dp3129
g10
g11
(g15
S'\x00\x00\x00\x00\x00\x00\xf8\xff'
p3130
tp3131
Rp3132
sg137
g11
(g140
S'\x04\x00\x00\x00\x00\x00\x00\x00'
p3133
tp3134
Rp3135
sg30
g31
sg32
(dp3136
g137
g3135
sg34
g11
(g15
S'\x00"\xd1\xf8\xb4\x85W@'
p3137
tp3138
Rp3139
sg154
g11
(g140
S'\x04\x00\x00\x00\x00\x00\x00\x00'
p3140
tp3141
Rp3142
sg38
g11
(g15
S'\x9a|\x9f\x98\xc4\x8e\x15@'
p3143
tp3144
Rp3145
ssg38
g3145
sg42
g11
(g12
(S'S6'
p3146
I0
I1
tp3147
Rp3148
(I3
S'|'
p3149
NNNI6
I1
I0
tp3150
bS'ISOMAP'
p3151
tp3152
Rp3153
sg51
F0.2
sg154
g3142
sg52
g11
(g12
(S'S3'
p3154
I0
I1
tp3155
Rp3156
(I3
S'|'
p3157
NNNI3
I1
I0
tp3158
bS'VGG'
p3159
tp3160
Rp3161
sg34
g3139
sg61
g11
(g15
S"'\xd1S\xe9s\x86\xe0?"
p3162
tp3163
Rp3164
sg65
g11
(g12
(S'S3'
p3165
I0
I1
tp3166
Rp3167
(I3
S'|'
p3168
NNNI3
I1
I0
tp3169
bS'SVM'
p3170
tp3171
Rp3172
sg74
I3
sg75
g76
sg77
g11
(g15
S'\x08\x1f|\xf0\xc1\x07\xe7?'
p3173
tp3174
Rp3175
sg81
g82
sg83
g84
sbag4
(g5
g6
Ntp3176
Rp3177
(dp3178
g10
g11
(g15
S'\x00\x00\x00\x00\x00\x00\xf8\xff'
p3179
tp3180
Rp3181
sg197
g11
(g15
S'\x00\x00\x00\x00\x00@e@'
p3182
tp3183
Rp3184
sg21
g29
sg30
g31
sg32
(dp3185
g197
g3184
sg202
g11
(g15
S'\x08\xae\x1e\xe9!T\xe0?'
p3186
tp3187
Rp3188
sg21
g29
ssg42
g11
(g12
(S'S3'
p3189
I0
I1
tp3190
Rp3191
(I3
S'|'
p3192
NNNI3
I1
I0
tp3193
bS'PCA'
p3194
tp3195
Rp3196
sg51
F0.2
sg52
g11
(g12
(S'S9'
p3197
I0
I1
tp3198
Rp3199
(I3
S'|'
p3200
NNNI9
I1
I0
tp3201
bS'inception'
p3202
tp3203
Rp3204
sg61
g11
(g15
S'\xccp\xe3\x0c\xc7#\xe1?'
p3205
tp3206
Rp3207
sg65
g11
(g12
(S'S2'
p3208
I0
I1
tp3209
Rp3210
(I3
S'|'
p3211
NNNI2
I1
I0
tp3212
bS'RF'
p3213
tp3214
Rp3215
sg74
I3
sg202
g3188
sg75
g76
sg77
g11
(g15
S'\x190\x8d\x01\xd3\x18\xe8?'
p3216
tp3217
Rp3218
sg81
g82
sg83
g84
sbag4
(g5
g6
Ntp3219
Rp3220
(dp3221
g10
g11
(g15
S'\x00\x00\x00\x00\x00\x00\xf8\xff'
p3222
tp3223
Rp3224
sg197
g11
(g15
S'\x00\x00\x00\x00\x00\x00D@'
p3225
tp3226
Rp3227
sg21
g29
sg30
g31
sg32
(dp3228
g197
g3227
sg202
g11
(g15
S'R\xabc\xf8\x19\xca\xe1?'
p3229
tp3230
Rp3231
sg21
g29
ssg42
g11
(g12
(S'S3'
p3232
I0
I1
tp3233
Rp3234
(I3
S'|'
p3235
NNNI3
I1
I0
tp3236
bS'PCA'
p3237
tp3238
Rp3239
sg51
F0.2
sg52
g11
(g12
(S'S9'
p3240
I0
I1
tp3241
Rp3242
(I3
S'|'
p3243
NNNI9
I1
I0
tp3244
bS'inception'
p3245
tp3246
Rp3247
sg61
g11
(g15
S'\xf4\x17B\x8f2@\xe0?'
p3248
tp3249
Rp3250
sg65
g11
(g12
(S'S2'
p3251
I0
I1
tp3252
Rp3253
(I3
S'|'
p3254
NNNI2
I1
I0
tp3255
bS'RF'
p3256
tp3257
Rp3258
sg74
I3
sg202
g3231
sg75
g76
sg77
g11
(g15
S'\x88\x88\x88\x88\x88\x88\xe8?'
p3259
tp3260
Rp3261
sg81
g82
sg83
g84
sbag4
(g5
g6
Ntp3262
Rp3263
(dp3264
g10
g11
(g15
S'\x00\x00\x00\x00\x00\x00\xf8\xff'
p3265
tp3266
Rp3267
sg197
g11
(g15
S'\x00\x00\x00\x00\x00@Z@'
p3268
tp3269
Rp3270
sg21
g29
sg30
g31
sg32
(dp3271
g197
g3270
sg202
g11
(g15
S'xn\xd4C\xff\xc9\xe6?'
p3272
tp3273
Rp3274
sg21
g29
sg150
g11
(g140
S'\x02\x00\x00\x00\x00\x00\x00\x00'
p3275
tp3276
Rp3277
ssg42
g11
(g12
(S'S3'
p3278
I0
I1
tp3279
Rp3280
(I3
S'|'
p3281
NNNI3
I1
I0
tp3282
bS'PCA'
p3283
tp3284
Rp3285
sg51
F0.2
sg52
g11
(g12
(S'S8'
p3286
I0
I1
tp3287
Rp3288
(I3
S'|'
p3289
NNNI8
I1
I0
tp3290
bS'haralick'
p3291
tp3292
Rp3293
sg150
g3277
sg61
g11
(g15
S'\xf7\xf0\x86_\xee\x8f\xf9?'
p3294
tp3295
Rp3296
sg65
g11
(g12
(S'S2'
p3297
I0
I1
tp3298
Rp3299
(I3
S'|'
p3300
NNNI2
I1
I0
tp3301
bS'RF'
p3302
tp3303
Rp3304
sg74
I3
sg202
g3274
sg75
g76
sg77
g11
(g15
S'\x9c?\xcb\xf9\xb3\x9c\xe7?'
p3305
tp3306
Rp3307
sg81
g82
sg83
g84
sbasS'error_curve'
p3308
(lp3309
g64
ag119
ag179
ag224
ag224
ag224
ag224
ag224
ag224
ag224
ag224
ag224
ag224
ag224
ag224
ag270
ag270
ag270
ag270
ag270
ag270
ag270
ag270
ag270
ag270
ag270
ag270
ag270
ag270
ag270
ag270
ag270
ag270
ag270
ag270
ag270
ag270
ag270
ag270
ag270
ag270
ag270
ag270
ag270
ag270
ag270
ag270
ag270
ag270
ag270
ag270
ag270
ag270
ag270
ag270
ag270
ag270
ag270
ag270
ag270
ag270
ag270
ag270
ag270
ag270
ag270
ag270
ag270
asS'iters'
p3310
I51
sg30
g31
sS'results_loc'
p3311
S'/gpfs/u/home/CGHI/CGHIarch/barn/EP_project/results/'
p3312
sS'times'
p3313
(lp3314
F0.03971600532531738
aF0.07894086837768555
aF5.3808019161224365
aF7.593599796295166
aF12.368782997131348
aF12.415875911712646
aF17.216949939727783
aF22.53296685218811
aF22.566468000411987
aF23.360152006149292
aF23.408156871795654
aF25.160576820373535
aF26.202462911605835
aF31.399590969085693
aF32.4435977935791
aF38.91595697402954
aF38.95066499710083
aF39.75912880897522
aF44.599408864974976
aF50.56490087509155
aF50.61250591278076
aF50.65909790992737
aF50.693856954574585
aF50.72567796707153
aF50.83165097236633
aF51.64105677604675
aF53.85627484321594
aF53.89133882522583
aF58.689288854599
aF58.736506938934326
aF58.84233498573303
aF60.595704793930054
aF60.64349889755249
aF60.69105291366577
aF61.019298791885376
aF65.80298185348511
aF70.54968094825745
aF76.43618392944336
aF76.46979689598083
aF81.2386109828949
aF85.95858788490295
aF85.99226093292236
aF86.02710485458374
aF88.24387979507446
aF88.3363127708435
aF92.99610090255737
aF98.12897777557373
aF98.92296981811523
aF99.71069097518921
aF99.7437469959259
aF100.5377938747406
aF100.58562397956848
aF100.63229584693909
aF100.66487979888916
aF100.76936292648315
aF106.15463995933533
aF111.50411891937256
aF111.55203890800476
aF111.58676791191101
aF117.33736300468445
aF122.39302396774292
aF127.69216299057007
aF133.2353048324585
aF138.418842792511
aF138.46786379814148
aF139.73074984550476
aF140.0605869293213
aF145.69315695762634
asS'data_loc'
p3315
g84
sS'run'
p3316
I2
sg81
S'random_MCMC'
p3317
sb.