(iprototypes.random_based_mcmc1
random_MCMC
p0
(dp1
S'best_pipelines'
p2
(lp3
ccopy_reg
_reconstructor
p4
(cprototypes.data_analytic_pipeline
image_classification_pipeline
p5
c__builtin__
object
p6
Ntp7
Rp8
(dp9
S'f1_score'
p10
cnumpy.core.multiarray
scalar
p11
(cnumpy
dtype
p12
(S'f8'
p13
I0
I1
tp14
Rp15
(I3
S'<'
p16
NNNI-1
I-1
I0
tp17
bS'\x00\x00\x00\x00\x00\x00\xf8\xff'
p18
tp19
Rp20
sS'n_neighbors'
p21
g11
(g12
(S'i8'
p22
I0
I1
tp23
Rp24
(I3
S'<'
p25
NNNI-1
I-1
I0
tp26
bS'\x03\x00\x00\x00\x00\x00\x00\x00'
p27
tp28
Rp29
sS'data_name'
p30
S'brain'
p31
sS'kwargs'
p32
(dp33
g21
g29
sS'svm_C'
p34
g11
(g15
S'aM\x1a\x03\xb0\x93T@'
p35
tp36
Rp37
sS'n_components'
p38
g11
(g24
S'\x04\x00\x00\x00\x00\x00\x00\x00'
p39
tp40
Rp41
sS'svm_gamma'
p42
g11
(g15
S'<\xd2e2\xf6\xdc\xf0?'
p43
tp44
Rp45
ssg42
g45
sS'dimensionality_reduction'
p46
g11
(g12
(S'S6'
p47
I0
I1
tp48
Rp49
(I3
S'|'
p50
NNNI6
I1
I0
tp51
bS'ISOMAP'
p52
tp53
Rp54
sS'test_size'
p55
F0.2
sg38
g41
sS'feature_extraction'
p56
g11
(g12
(S'S3'
p57
I0
I1
tp58
Rp59
(I3
S'|'
p60
NNNI3
I1
I0
tp61
bS'VGG'
p62
tp63
Rp64
sg34
g37
sS'result'
p65
g11
(g15
S'\x83\xa3(\xe4\x97\xd9\xe0?'
p66
tp67
Rp68
sS'learning_algorithm'
p69
g11
(g12
(S'S3'
p70
I0
I1
tp71
Rp72
(I3
S'|'
p73
NNNI3
I1
I0
tp74
bS'SVM'
p75
tp76
Rp77
sS'val_splits'
p78
I3
sS'ml_type'
p79
S'validation'
p80
sS'accuracy'
p81
g11
(g15
S'\xdf\x89]\xb9\x13V\xe8?'
p82
tp83
Rp84
sS'type1'
p85
S'random1'
p86
sS'data_location'
p87
S'/gpfs/u/home/CGHI/CGHIarch/barn/EP_project/data/'
p88
sbag4
(g5
g6
Ntp89
Rp90
(dp91
g10
g11
(g15
S'\x00\x00\x00\x00\x00\x00\xf8\xff'
p92
tp93
Rp94
sg21
g11
(g24
S'\x04\x00\x00\x00\x00\x00\x00\x00'
p95
tp96
Rp97
sg30
g31
sg32
(dp98
g21
g97
sg34
g11
(g15
S'G\xf9W\xb5\x8d\xa9\xfe?'
p99
tp100
Rp101
sg38
g11
(g24
S'\x03\x00\x00\x00\x00\x00\x00\x00'
p102
tp103
Rp104
sg42
g11
(g15
S'\xa9#{\x904\xaa\xc3?'
p105
tp106
Rp107
ssg42
g107
sg46
g11
(g12
(S'S6'
p108
I0
I1
tp109
Rp110
(I3
S'|'
p111
NNNI6
I1
I0
tp112
bS'ISOMAP'
p113
tp114
Rp115
sg55
F0.2
sg38
g104
sg56
g11
(g12
(S'S3'
p116
I0
I1
tp117
Rp118
(I3
S'|'
p119
NNNI3
I1
I0
tp120
bS'VGG'
p121
tp122
Rp123
sg34
g101
sg65
g11
(g15
S'\xffQ\x9a\x8eE\x7f\xde?'
p124
tp125
Rp126
sg69
g11
(g12
(S'S3'
p127
I0
I1
tp128
Rp129
(I3
S'|'
p130
NNNI3
I1
I0
tp131
bS'SVM'
p132
tp133
Rp134
sg78
I3
sg79
g80
sg81
g11
(g15
S"()\x9blF'\xe8?"
p135
tp136
Rp137
sg85
g86
sg87
g88
sbag4
(g5
g6
Ntp138
Rp139
(dp140
g10
g11
(g15
S'\x00\x00\x00\x00\x00\x00\xf8\xff'
p141
tp142
Rp143
sS'n_estimators'
p144
g11
(g15
S'\x00\x00\x00\x00\x00@e@'
p145
tp146
Rp147
sS'pca_whiten'
p148
g11
(g12
(S'b1'
p149
I0
I1
tp150
Rp151
(I3
S'|'
p152
NNNI-1
I-1
I0
tp153
bS'\x00'
p154
tp155
Rp156
sg30
g31
sg32
(dp157
g144
g147
sS'max_features'
p158
g11
(g15
S'\xfa6\xc9\x8az>\xe4?'
p159
tp160
Rp161
sg148
g156
ssg46
g11
(g12
(S'S3'
p162
I0
I1
tp163
Rp164
(I3
S'|'
p165
NNNI3
I1
I0
tp166
bS'PCA'
p167
tp168
Rp169
sg55
F0.2
sg56
g11
(g12
(S'S3'
p170
I0
I1
tp171
Rp172
(I3
S'|'
p173
NNNI3
I1
I0
tp174
bS'VGG'
p175
tp176
Rp177
sg65
g11
(g15
S'\x8b\xd9\x10\x1fPa\xda?'
p178
tp179
Rp180
sg69
g11
(g12
(S'S2'
p181
I0
I1
tp182
Rp183
(I3
S'|'
p184
NNNI2
I1
I0
tp185
bS'RF'
p186
tp187
Rp188
sg78
I3
sg158
g161
sg79
g80
sg81
g11
(g15
S'\xc5\x06\xcc\x80\x7f\xcf\xea?'
p189
tp190
Rp191
sg85
g86
sg87
g88
sbag4
(g5
g6
Ntp192
Rp193
(dp194
g10
g11
(g15
S'\x00\x00\x00\x00\x00\x00\xf8\xff'
p195
tp196
Rp197
sg144
g11
(g15
S'\x00\x00\x00\x00\x00@e@'
p198
tp199
Rp200
sg148
g156
sg30
g31
sg32
(dp201
g144
g200
sg158
g11
(g15
S'\xe0\xaa\xc6\xf5\xee\xfe\xec?'
p202
tp203
Rp204
sg148
g156
ssg46
g11
(g12
(S'S3'
p205
I0
I1
tp206
Rp207
(I3
S'|'
p208
NNNI3
I1
I0
tp209
bS'PCA'
p210
tp211
Rp212
sg55
F0.2
sg56
g11
(g12
(S'S3'
p213
I0
I1
tp214
Rp215
(I3
S'|'
p216
NNNI3
I1
I0
tp217
bS'VGG'
p218
tp219
Rp220
sg65
g11
(g15
S'0\xed\x178,\x19\xda?'
p221
tp222
Rp223
sg69
g11
(g12
(S'S2'
p224
I0
I1
tp225
Rp226
(I3
S'|'
p227
NNNI2
I1
I0
tp228
bS'RF'
p229
tp230
Rp231
sg78
I3
sg158
g204
sg79
g80
sg81
g11
(g15
S'\x8c\x82\x1b\xf2\x05\x80\xea?'
p232
tp233
Rp234
sg85
g86
sg87
g88
sbasS'paths'
p235
(lp236
(lp237
S'VGG'
p238
aS'PCA'
p239
aS'SVM'
p240
aa(lp241
g238
ag239
aS'RF'
p242
aa(lp243
g238
aS'ISOMAP'
p244
ag240
aa(lp245
g238
ag244
ag242
aa(lp246
S'haralick'
p247
ag239
ag240
aa(lp248
g247
ag239
ag242
aa(lp249
g247
ag244
ag240
aa(lp250
g247
ag244
ag242
aa(lp251
S'inception'
p252
ag239
ag240
aa(lp253
g252
ag239
ag242
aa(lp254
g252
ag244
ag240
aa(lp255
g252
ag244
ag242
aasS'pipeline'
p256
(dp257
g21
(lp258
I3
aI4
aI5
aI6
aI7
asg148
(lp259
I01
aI00
asg144
cnumpy.core.multiarray
_reconstruct
p260
(cnumpy
ndarray
p261
(I0
tp262
S'b'
p263
tp264
Rp265
(I1
(I10
tp266
g15
I00
S'\x00\x00\x00\x00\x00\x00 @\x00\x00\x00\x00\x00\x00D@\x00\x00\x00\x00\x00@R@\x00\x00\x00\x00\x00@Z@\x00\x00\x00\x00\x00@a@\x00\x00\x00\x00\x00@e@\x00\x00\x00\x00\x00`i@\x00\x00\x00\x00\x00`m@\x00\x00\x00\x00\x00\xc0p@\x00\x00\x00\x00\x00\xc0r@'
p267
tp268
bsg46
(lp269
g239
ag244
asg42
g260
(g261
(I0
tp270
g263
tp271
Rp272
(I1
(I10
tp273
g15
I00
S"{\x14\xaeG\xe1z\x84?\x102Tv\x98\xba\xec?\xe7\xd5\xc4\xb3\xa2\x91\xfc?b\xc9/\x96\xfcb\x05@\xd2'}\xd2'}\x0c@!Ce\x87\xa9\xcb\x11@X\xf2\x8b%\xbfX\x15@\x90\xa1\xb2\xc3\xd4\xe5\x18@\xc8P\xd9a\xear\x1c@\x00\x00\x00\x00\x00\x00 @"
p274
tp275
bsg56
(lp276
g238
ag247
ag252
asS'haralick_distance'
p277
(lp278
I1
aI2
aI3
asg38
(lp279
I2
aI3
aI4
asg69
(lp280
g240
ag242
asg158
g260
(g261
(I0
tp281
g263
tp282
Rp283
(I1
(I5
tp284
g15
I00
S'333333\xd3?\x9a\x99\x99\x99\x99\x99\xd9?\x00\x00\x00\x00\x00\x00\xe0?433333\xe3?hfffff\xe6?'
p285
tp286
bsg34
g260
(g261
(I0
tp287
g263
tp288
Rp289
(I1
(I10
tp290
g15
I00
S'\x9a\x99\x99\x99\x99\x99\xb9?gfffff&@\xce\xcc\xcc\xcc\xccL6@43333\xb3@@\x01\x00\x00\x00\x00@F@\xce\xcc\xcc\xcc\xcc\xccK@\xcd\xcc\xcc\xcc\xcc\xacP@43333sS@\x9a\x99\x99\x99\x999V@\x00\x00\x00\x00\x00\x00Y@'
p291
tp292
bssS'pipelines'
p293
(lp294
g8
ag4
(g5
g6
Ntp295
Rp296
(dp297
g10
g11
(g15
S'\x00\x00\x00\x00\x00\x00\xf8\xff'
p298
tp299
Rp300
sg144
g11
(g15
S'\x00\x00\x00\x00\x00@e@'
p301
tp302
Rp303
sg148
g11
(g151
S'\x01'
p304
tp305
Rp306
sg30
g31
sg32
(dp307
g144
g303
sg158
g11
(g15
S"\x1a\xa5\xc1'\xb9U\xe3?"
p308
tp309
Rp310
sg148
g306
ssg46
g11
(g12
(S'S3'
p311
I0
I1
tp312
Rp313
(I3
S'|'
p314
NNNI3
I1
I0
tp315
bS'PCA'
p316
tp317
Rp318
sg55
F0.2
sg56
g11
(g12
(S'S9'
p319
I0
I1
tp320
Rp321
(I3
S'|'
p322
NNNI9
I1
I0
tp323
bS'inception'
p324
tp325
Rp326
sg65
g11
(g15
S'w3}-\x185\xe5?'
p327
tp328
Rp329
sg69
g11
(g12
(S'S2'
p330
I0
I1
tp331
Rp332
(I3
S'|'
p333
NNNI2
I1
I0
tp334
bS'RF'
p335
tp336
Rp337
sg78
I3
sg158
g310
sg79
g80
sg81
g11
(g15
S'i\x9a\xe5>\xcc\x84\xe8?'
p338
tp339
Rp340
sg85
g86
sg87
g88
sbag4
(g5
g6
Ntp341
Rp342
(dp343
g10
g11
(g15
S'\x00\x00\x00\x00\x00\x00\xf8\xff'
p344
tp345
Rp346
sg144
g11
(g15
S'\x00\x00\x00\x00\x00@R@'
p347
tp348
Rp349
sg30
g31
sg21
g11
(g24
S'\x05\x00\x00\x00\x00\x00\x00\x00'
p350
tp351
Rp352
sg32
(dp353
g144
g349
sg21
g352
sg277
g11
(g24
S'\x03\x00\x00\x00\x00\x00\x00\x00'
p354
tp355
Rp356
sg38
g11
(g24
S'\x02\x00\x00\x00\x00\x00\x00\x00'
p357
tp358
Rp359
sg158
g11
(g15
S't\\\xc5\xeb\xf9\x1a\xe0?'
p360
tp361
Rp362
ssg46
g11
(g12
(S'S6'
p363
I0
I1
tp364
Rp365
(I3
S'|'
p366
NNNI6
I1
I0
tp367
bS'ISOMAP'
p368
tp369
Rp370
sg55
F0.2
sg38
g359
sg56
g11
(g12
(S'S8'
p371
I0
I1
tp372
Rp373
(I3
S'|'
p374
NNNI8
I1
I0
tp375
bS'haralick'
p376
tp377
Rp378
sg277
g356
sg65
g11
(g15
S'_}\xcaXT)\xed?'
p379
tp380
Rp381
sg69
g11
(g12
(S'S2'
p382
I0
I1
tp383
Rp384
(I3
S'|'
p385
NNNI2
I1
I0
tp386
bS'RF'
p387
tp388
Rp389
sg78
I3
sg158
g362
sg79
g80
sg81
g11
(g15
S'Dq\xb1)\xf2P\xea?'
p390
tp391
Rp392
sg85
g86
sg87
g88
sbag4
(g5
g6
Ntp393
Rp394
(dp395
g10
g11
(g15
S'\x00\x00\x00\x00\x00\x00\xf8\xff'
p396
tp397
Rp398
sg21
g11
(g24
S'\x06\x00\x00\x00\x00\x00\x00\x00'
p399
tp400
Rp401
sg30
g31
sg32
(dp402
g21
g401
sg34
g11
(g15
S'\x1c\xde\xe31y\x05E@'
p403
tp404
Rp405
sg38
g11
(g24
S'\x02\x00\x00\x00\x00\x00\x00\x00'
p406
tp407
Rp408
sg42
g11
(g15
S'\x90F\xdfP\x1e\xb2\x0b@'
p409
tp410
Rp411
ssg42
g411
sg46
g11
(g12
(S'S6'
p412
I0
I1
tp413
Rp414
(I3
S'|'
p415
NNNI6
I1
I0
tp416
bS'ISOMAP'
p417
tp418
Rp419
sg55
F0.2
sg38
g408
sg56
g11
(g12
(S'S9'
p420
I0
I1
tp421
Rp422
(I3
S'|'
p423
NNNI9
I1
I0
tp424
bS'inception'
p425
tp426
Rp427
sg34
g405
sg65
g11
(g15
S'\x93\x8a\x1esW(\xe8?'
p428
tp429
Rp430
sg69
g11
(g12
(S'S3'
p431
I0
I1
tp432
Rp433
(I3
S'|'
p434
NNNI3
I1
I0
tp435
bS'SVM'
p436
tp437
Rp438
sg78
I3
sg79
g80
sg81
g11
(g15
S'-\x90\xb8<`\x06\xe3?'
p439
tp440
Rp441
sg85
g86
sg87
g88
sbag4
(g5
g6
Ntp442
Rp443
(dp444
g10
g11
(g15
S'\x00\x00\x00\x00\x00\x00\xf8\xff'
p445
tp446
Rp447
sg144
g11
(g15
S'\x00\x00\x00\x00\x00\xc0r@'
p448
tp449
Rp450
sg30
g31
sg21
g11
(g24
S'\x06\x00\x00\x00\x00\x00\x00\x00'
p451
tp452
Rp453
sg32
(dp454
g144
g450
sg21
g453
sg277
g11
(g24
S'\x02\x00\x00\x00\x00\x00\x00\x00'
p455
tp456
Rp457
sg38
g11
(g24
S'\x04\x00\x00\x00\x00\x00\x00\x00'
p458
tp459
Rp460
sg158
g11
(g15
S'\xdd\xe5\t\x9f\xfd\x97\xe5?'
p461
tp462
Rp463
ssg46
g11
(g12
(S'S6'
p464
I0
I1
tp465
Rp466
(I3
S'|'
p467
NNNI6
I1
I0
tp468
bS'ISOMAP'
p469
tp470
Rp471
sg55
F0.2
sg38
g460
sg56
g11
(g12
(S'S8'
p472
I0
I1
tp473
Rp474
(I3
S'|'
p475
NNNI8
I1
I0
tp476
bS'haralick'
p477
tp478
Rp479
sg277
g457
sg65
g11
(g15
S'\x07\x1c\xd5\xd9\xc5\xad\xe7?'
p480
tp481
Rp482
sg69
g11
(g12
(S'S2'
p483
I0
I1
tp484
Rp485
(I3
S'|'
p486
NNNI2
I1
I0
tp487
bS'RF'
p488
tp489
Rp490
sg78
I3
sg158
g463
sg79
g80
sg81
g11
(g15
S'\xc3\x88\xd3\xe8\x8ad\xe9?'
p491
tp492
Rp493
sg85
g86
sg87
g88
sbag4
(g5
g6
Ntp494
Rp495
(dp496
g10
g11
(g15
S'\x00\x00\x00\x00\x00\x00\xf8\xff'
p497
tp498
Rp499
sg144
g11
(g15
S'\x00\x00\x00\x00\x00@R@'
p500
tp501
Rp502
sg148
g306
sg30
g31
sg32
(dp503
g144
g502
sg158
g11
(g15
S'y\x8b\xf5\xd1\xed\x86\xe1?'
p504
tp505
Rp506
sg148
g306
ssg46
g11
(g12
(S'S3'
p507
I0
I1
tp508
Rp509
(I3
S'|'
p510
NNNI3
I1
I0
tp511
bS'PCA'
p512
tp513
Rp514
sg55
F0.2
sg56
g11
(g12
(S'S9'
p515
I0
I1
tp516
Rp517
(I3
S'|'
p518
NNNI9
I1
I0
tp519
bS'inception'
p520
tp521
Rp522
sg65
g11
(g15
S'm2\xb9\xb0\xf3|\xe4?'
p523
tp524
Rp525
sg69
g11
(g12
(S'S2'
p526
I0
I1
tp527
Rp528
(I3
S'|'
p529
NNNI2
I1
I0
tp530
bS'RF'
p531
tp532
Rp533
sg78
I3
sg158
g506
sg79
g80
sg81
g11
(g15
S'\xbf\xe9=g\x80e\xe8?'
p534
tp535
Rp536
sg85
g86
sg87
g88
sbag90
ag4
(g5
g6
Ntp537
Rp538
(dp539
g10
g11
(g15
S'\x00\x00\x00\x00\x00\x00\xf8\xff'
p540
tp541
Rp542
sg21
g11
(g24
S'\x06\x00\x00\x00\x00\x00\x00\x00'
p543
tp544
Rp545
sg30
g31
sg32
(dp546
g21
g545
sg34
g11
(g15
S'\x1d\x8e\x16\xc0\x0c\x87\x1a@'
p547
tp548
Rp549
sg38
g11
(g24
S'\x04\x00\x00\x00\x00\x00\x00\x00'
p550
tp551
Rp552
sg42
g11
(g15
S'\xdb\x8b\x1b\xca\xfc\x9f\x14@'
p553
tp554
Rp555
ssg42
g555
sg46
g11
(g12
(S'S6'
p556
I0
I1
tp557
Rp558
(I3
S'|'
p559
NNNI6
I1
I0
tp560
bS'ISOMAP'
p561
tp562
Rp563
sg55
F0.2
sg38
g552
sg56
g11
(g12
(S'S9'
p564
I0
I1
tp565
Rp566
(I3
S'|'
p567
NNNI9
I1
I0
tp568
bS'inception'
p569
tp570
Rp571
sg34
g549
sg65
g11
(g15
S';QV\xddH\x8a\xe4?'
p572
tp573
Rp574
sg69
g11
(g12
(S'S3'
p575
I0
I1
tp576
Rp577
(I3
S'|'
p578
NNNI3
I1
I0
tp579
bS'SVM'
p580
tp581
Rp582
sg78
I3
sg79
g80
sg81
g11
(g15
S'@@+\x94\xc9\xa0\xe4?'
p583
tp584
Rp585
sg85
g86
sg87
g88
sbag4
(g5
g6
Ntp586
Rp587
(dp588
g10
g11
(g15
S'\x00\x00\x00\x00\x00\x00\xf8\xff'
p589
tp590
Rp591
sg144
g11
(g15
S'\x00\x00\x00\x00\x00@Z@'
p592
tp593
Rp594
sg30
g31
sg21
g11
(g24
S'\x06\x00\x00\x00\x00\x00\x00\x00'
p595
tp596
Rp597
sg32
(dp598
g144
g594
sg21
g597
sg277
g11
(g24
S'\x02\x00\x00\x00\x00\x00\x00\x00'
p599
tp600
Rp601
sg38
g11
(g24
S'\x03\x00\x00\x00\x00\x00\x00\x00'
p602
tp603
Rp604
sg158
g11
(g15
S'\xaa\x8a\x18\x85\xa3\xe9\xd4?'
p605
tp606
Rp607
ssg46
g11
(g12
(S'S6'
p608
I0
I1
tp609
Rp610
(I3
S'|'
p611
NNNI6
I1
I0
tp612
bS'ISOMAP'
p613
tp614
Rp615
sg55
F0.2
sg38
g604
sg56
g11
(g12
(S'S8'
p616
I0
I1
tp617
Rp618
(I3
S'|'
p619
NNNI8
I1
I0
tp620
bS'haralick'
p621
tp622
Rp623
sg277
g601
sg65
g11
(g15
S'\xf0\xb8i\xcf\xab\x9d\xe9?'
p624
tp625
Rp626
sg69
g11
(g12
(S'S2'
p627
I0
I1
tp628
Rp629
(I3
S'|'
p630
NNNI2
I1
I0
tp631
bS'RF'
p632
tp633
Rp634
sg78
I3
sg158
g607
sg79
g80
sg81
g11
(g15
S'\xf4Xq\xf2\xa2d\xe9?'
p635
tp636
Rp637
sg85
g86
sg87
g88
sbag4
(g5
g6
Ntp638
Rp639
(dp640
g10
g11
(g15
S'\x00\x00\x00\x00\x00\x00\xf8\xff'
p641
tp642
Rp643
sg148
g306
sg30
g31
sg32
(dp644
g148
g306
sg34
g11
(g15
S'\x02\xbe\xd7\xec\xc4-%@'
p645
tp646
Rp647
sg277
g11
(g24
S'\x01\x00\x00\x00\x00\x00\x00\x00'
p648
tp649
Rp650
sg42
g11
(g15
S'\xa7\x95\xfe\xbf\xa0\xb5\xe7?'
p651
tp652
Rp653
ssg46
g11
(g12
(S'S3'
p654
I0
I1
tp655
Rp656
(I3
S'|'
p657
NNNI3
I1
I0
tp658
bS'PCA'
p659
tp660
Rp661
sg55
F0.2
sg42
g653
sg56
g11
(g12
(S'S8'
p662
I0
I1
tp663
Rp664
(I3
S'|'
p665
NNNI8
I1
I0
tp666
bS'haralick'
p667
tp668
Rp669
sg34
g647
sg277
g650
sg65
g11
(g15
S'`EyM\x10\xda\xde?'
p670
tp671
Rp672
sg69
g11
(g12
(S'S3'
p673
I0
I1
tp674
Rp675
(I3
S'|'
p676
NNNI3
I1
I0
tp677
bS'SVM'
p678
tp679
Rp680
sg78
I3
sg79
g80
sg81
g11
(g15
S'\xfd\xa7\x8cc\xd2\x9b\xe6?'
p681
tp682
Rp683
sg85
g86
sg87
g88
sbag4
(g5
g6
Ntp684
Rp685
(dp686
g10
g11
(g15
S'\x00\x00\x00\x00\x00\x00\xf8\xff'
p687
tp688
Rp689
sg148
g156
sg30
g31
sg32
(dp690
g148
g156
sg34
g11
(g15
S'\xdb[Rgm\x1eB@'
p691
tp692
Rp693
sg42
g11
(g15
S'\xb9uf(I\x88\x17@'
p694
tp695
Rp696
ssg46
g11
(g12
(S'S3'
p697
I0
I1
tp698
Rp699
(I3
S'|'
p700
NNNI3
I1
I0
tp701
bS'PCA'
p702
tp703
Rp704
sg55
F0.2
sg42
g696
sg56
g11
(g12
(S'S3'
p705
I0
I1
tp706
Rp707
(I3
S'|'
p708
NNNI3
I1
I0
tp709
bS'VGG'
p710
tp711
Rp712
sg34
g693
sg65
g11
(g15
S'O:f\xc8rf\xe7?'
p713
tp714
Rp715
sg69
g11
(g12
(S'S3'
p716
I0
I1
tp717
Rp718
(I3
S'|'
p719
NNNI3
I1
I0
tp720
bS'SVM'
p721
tp722
Rp723
sg78
I3
sg79
g80
sg81
g11
(g15
S'\xa3\x19\x0c\xfe/@\xe5?'
p724
tp725
Rp726
sg85
g86
sg87
g88
sbag4
(g5
g6
Ntp727
Rp728
(dp729
g10
g11
(g15
S'\x00\x00\x00\x00\x00\x00\xf8\xff'
p730
tp731
Rp732
sg144
g11
(g15
S'\x00\x00\x00\x00\x00\xc0r@'
p733
tp734
Rp735
sg30
g31
sg21
g11
(g24
S'\x06\x00\x00\x00\x00\x00\x00\x00'
p736
tp737
Rp738
sg32
(dp739
g144
g735
sg21
g738
sg277
g11
(g24
S'\x02\x00\x00\x00\x00\x00\x00\x00'
p740
tp741
Rp742
sg38
g11
(g24
S'\x02\x00\x00\x00\x00\x00\x00\x00'
p743
tp744
Rp745
sg158
g11
(g15
S'\xaaS\xb7xvf\xe3?'
p746
tp747
Rp748
ssg46
g11
(g12
(S'S6'
p749
I0
I1
tp750
Rp751
(I3
S'|'
p752
NNNI6
I1
I0
tp753
bS'ISOMAP'
p754
tp755
Rp756
sg55
F0.2
sg38
g745
sg56
g11
(g12
(S'S8'
p757
I0
I1
tp758
Rp759
(I3
S'|'
p760
NNNI8
I1
I0
tp761
bS'haralick'
p762
tp763
Rp764
sg277
g742
sg65
g11
(g15
S'\xe1\xb2\xdb\x15W\xb5\xe8?'
p765
tp766
Rp767
sg69
g11
(g12
(S'S2'
p768
I0
I1
tp769
Rp770
(I3
S'|'
p771
NNNI2
I1
I0
tp772
bS'RF'
p773
tp774
Rp775
sg78
I3
sg158
g748
sg79
g80
sg81
g11
(g15
S'\x00\xe9$8%t\xe9?'
p776
tp777
Rp778
sg85
g86
sg87
g88
sbag4
(g5
g6
Ntp779
Rp780
(dp781
g10
g11
(g15
S'\x00\x00\x00\x00\x00\x00\xf8\xff'
p782
tp783
Rp784
sg148
g156
sg30
g31
sg32
(dp785
g148
g156
sg34
g11
(g15
S'9,\xc4\x08\x82\xc1\x13@'
p786
tp787
Rp788
sg42
g11
(g15
S'\x94r\x1d\xc4dF\x1d@'
p789
tp790
Rp791
ssg46
g11
(g12
(S'S3'
p792
I0
I1
tp793
Rp794
(I3
S'|'
p795
NNNI3
I1
I0
tp796
bS'PCA'
p797
tp798
Rp799
sg55
F0.2
sg42
g791
sg56
g11
(g12
(S'S3'
p800
I0
I1
tp801
Rp802
(I3
S'|'
p803
NNNI3
I1
I0
tp804
bS'VGG'
p805
tp806
Rp807
sg34
g788
sg65
g11
(g15
S'\x8dLf\xdaD\xee\xe8?'
p808
tp809
Rp810
sg69
g11
(g12
(S'S3'
p811
I0
I1
tp812
Rp813
(I3
S'|'
p814
NNNI3
I1
I0
tp815
bS'SVM'
p816
tp817
Rp818
sg78
I3
sg79
g80
sg81
g11
(g15
S'w\xb2\xe4\x9b_\x92\xe4?'
p819
tp820
Rp821
sg85
g86
sg87
g88
sbag4
(g5
g6
Ntp822
Rp823
(dp824
g10
g11
(g15
S'\x00\x00\x00\x00\x00\x00\xf8\xff'
p825
tp826
Rp827
sg144
g11
(g15
S'\x00\x00\x00\x00\x00@Z@'
p828
tp829
Rp830
sg148
g156
sg30
g31
sg32
(dp831
g144
g830
sg158
g11
(g15
S"\xd5\x8eYD'[\xe4?"
p832
tp833
Rp834
sg148
g156
ssg46
g11
(g12
(S'S3'
p835
I0
I1
tp836
Rp837
(I3
S'|'
p838
NNNI3
I1
I0
tp839
bS'PCA'
p840
tp841
Rp842
sg55
F0.2
sg56
g11
(g12
(S'S9'
p843
I0
I1
tp844
Rp845
(I3
S'|'
p846
NNNI9
I1
I0
tp847
bS'inception'
p848
tp849
Rp850
sg65
g11
(g15
S'\x88\x03\xec\x94;3\xe7?'
p851
tp852
Rp853
sg69
g11
(g12
(S'S2'
p854
I0
I1
tp855
Rp856
(I3
S'|'
p857
NNNI2
I1
I0
tp858
bS'RF'
p859
tp860
Rp861
sg78
I3
sg158
g834
sg79
g80
sg81
g11
(g15
S' \xa9\xe2\xa5\xb7U\xe8?'
p862
tp863
Rp864
sg85
g86
sg87
g88
sbag4
(g5
g6
Ntp865
Rp866
(dp867
g10
g11
(g15
S'\x00\x00\x00\x00\x00\x00\xf8\xff'
p868
tp869
Rp870
sg148
g306
sg30
g31
sg32
(dp871
g148
g306
sg34
g11
(g15
S'f\xf5^\xa2\xba.A@'
p872
tp873
Rp874
sg277
g11
(g24
S'\x02\x00\x00\x00\x00\x00\x00\x00'
p875
tp876
Rp877
sg42
g11
(g15
S'5T\xcf\xf8\x05v\x12@'
p878
tp879
Rp880
ssg46
g11
(g12
(S'S3'
p881
I0
I1
tp882
Rp883
(I3
S'|'
p884
NNNI3
I1
I0
tp885
bS'PCA'
p886
tp887
Rp888
sg55
F0.2
sg42
g880
sg56
g11
(g12
(S'S8'
p889
I0
I1
tp890
Rp891
(I3
S'|'
p892
NNNI8
I1
I0
tp893
bS'haralick'
p894
tp895
Rp896
sg34
g874
sg277
g877
sg65
g11
(g15
S'\xdc\x86\x93\xc9A\x94\xe0?'
p897
tp898
Rp899
sg69
g11
(g12
(S'S3'
p900
I0
I1
tp901
Rp902
(I3
S'|'
p903
NNNI3
I1
I0
tp904
bS'SVM'
p905
tp906
Rp907
sg78
I3
sg79
g80
sg81
g11
(g15
S'I\xf2A\x11;\xd0\xe4?'
p908
tp909
Rp910
sg85
g86
sg87
g88
sbag4
(g5
g6
Ntp911
Rp912
(dp913
g10
g11
(g15
S'\x00\x00\x00\x00\x00\x00\xf8\xff'
p914
tp915
Rp916
sg21
g11
(g24
S'\x05\x00\x00\x00\x00\x00\x00\x00'
p917
tp918
Rp919
sg30
g31
sg32
(dp920
g21
g919
sg34
g11
(g15
S'\x16\xb5\xa8\xe7<\xf7<@'
p921
tp922
Rp923
sg38
g11
(g24
S'\x03\x00\x00\x00\x00\x00\x00\x00'
p924
tp925
Rp926
sg42
g11
(g15
S'\x15\xcb\xa7<\xef\x12\x14@'
p927
tp928
Rp929
ssg42
g929
sg46
g11
(g12
(S'S6'
p930
I0
I1
tp931
Rp932
(I3
S'|'
p933
NNNI6
I1
I0
tp934
bS'ISOMAP'
p935
tp936
Rp937
sg55
F0.2
sg38
g926
sg56
g11
(g12
(S'S3'
p938
I0
I1
tp939
Rp940
(I3
S'|'
p941
NNNI3
I1
I0
tp942
bS'VGG'
p943
tp944
Rp945
sg34
g923
sg65
g11
(g15
S'w\xce\xd1\xe5\x18|\xe1?'
p946
tp947
Rp948
sg69
g11
(g12
(S'S3'
p949
I0
I1
tp950
Rp951
(I3
S'|'
p952
NNNI3
I1
I0
tp953
bS'SVM'
p954
tp955
Rp956
sg78
I3
sg79
g80
sg81
g11
(g15
S'\xc9G\x93\xf6\x1f\x17\xe8?'
p957
tp958
Rp959
sg85
g86
sg87
g88
sbag4
(g5
g6
Ntp960
Rp961
(dp962
g10
g11
(g15
S'\x00\x00\x00\x00\x00\x00\xf8\xff'
p963
tp964
Rp965
sg144
g11
(g15
S'\x00\x00\x00\x00\x00`m@'
p966
tp967
Rp968
sg148
g156
sg30
g31
sg32
(dp969
g144
g968
sg158
g11
(g15
S'\xb29\xf073\xd3\xde?'
p970
tp971
Rp972
sg148
g156
ssg46
g11
(g12
(S'S3'
p973
I0
I1
tp974
Rp975
(I3
S'|'
p976
NNNI3
I1
I0
tp977
bS'PCA'
p978
tp979
Rp980
sg55
F0.2
sg56
g11
(g12
(S'S9'
p981
I0
I1
tp982
Rp983
(I3
S'|'
p984
NNNI9
I1
I0
tp985
bS'inception'
p986
tp987
Rp988
sg65
g11
(g15
S'\x9d\x00\xab\xe4\x91f\xe1?'
p989
tp990
Rp991
sg69
g11
(g12
(S'S2'
p992
I0
I1
tp993
Rp994
(I3
S'|'
p995
NNNI2
I1
I0
tp996
bS'RF'
p997
tp998
Rp999
sg78
I3
sg158
g972
sg79
g80
sg81
g11
(g15
S'\xa5\xc9\xd6\xdb{F\xe8?'
p1000
tp1001
Rp1002
sg85
g86
sg87
g88
sbag139
ag4
(g5
g6
Ntp1003
Rp1004
(dp1005
g10
g11
(g15
S'\x00\x00\x00\x00\x00\x00\xf8\xff'
p1006
tp1007
Rp1008
sg148
g156
sg30
g31
sg32
(dp1009
g148
g156
sg34
g11
(g15
S';\xb0\xb7\xd9\xb2\xefA@'
p1010
tp1011
Rp1012
sg277
g11
(g24
S'\x03\x00\x00\x00\x00\x00\x00\x00'
p1013
tp1014
Rp1015
sg42
g11
(g15
S']#`ku\xcb\x12@'
p1016
tp1017
Rp1018
ssg46
g11
(g12
(S'S3'
p1019
I0
I1
tp1020
Rp1021
(I3
S'|'
p1022
NNNI3
I1
I0
tp1023
bS'PCA'
p1024
tp1025
Rp1026
sg55
F0.2
sg42
g1018
sg56
g11
(g12
(S'S8'
p1027
I0
I1
tp1028
Rp1029
(I3
S'|'
p1030
NNNI8
I1
I0
tp1031
bS'haralick'
p1032
tp1033
Rp1034
sg34
g1012
sg277
g1015
sg65
g11
(g15
S'\x8d4\xdb@\x9bx\xe0?'
p1035
tp1036
Rp1037
sg69
g11
(g12
(S'S3'
p1038
I0
I1
tp1039
Rp1040
(I3
S'|'
p1041
NNNI3
I1
I0
tp1042
bS'SVM'
p1043
tp1044
Rp1045
sg78
I3
sg79
g80
sg81
g11
(g15
S'%C%D\xac\xb1\xe4?'
p1046
tp1047
Rp1048
sg85
g86
sg87
g88
sbag4
(g5
g6
Ntp1049
Rp1050
(dp1051
g10
g11
(g15
S'\x00\x00\x00\x00\x00\x00\xf8\xff'
p1052
tp1053
Rp1054
sg144
g11
(g15
S'\x00\x00\x00\x00\x00@e@'
p1055
tp1056
Rp1057
sg30
g31
sg21
g11
(g24
S'\x06\x00\x00\x00\x00\x00\x00\x00'
p1058
tp1059
Rp1060
sg32
(dp1061
g144
g1057
sg21
g1060
sg277
g11
(g24
S'\x01\x00\x00\x00\x00\x00\x00\x00'
p1062
tp1063
Rp1064
sg38
g11
(g24
S'\x02\x00\x00\x00\x00\x00\x00\x00'
p1065
tp1066
Rp1067
sg158
g11
(g15
S"\xd41\x1d'\xf8z\xef?"
p1068
tp1069
Rp1070
ssg46
g11
(g12
(S'S6'
p1071
I0
I1
tp1072
Rp1073
(I3
S'|'
p1074
NNNI6
I1
I0
tp1075
bS'ISOMAP'
p1076
tp1077
Rp1078
sg55
F0.2
sg38
g1067
sg56
g11
(g12
(S'S8'
p1079
I0
I1
tp1080
Rp1081
(I3
S'|'
p1082
NNNI8
I1
I0
tp1083
bS'haralick'
p1084
tp1085
Rp1086
sg277
g1064
sg65
g11
(g15
S'\x16\xdf\x11\xe5\xcc1\x01@'
p1087
tp1088
Rp1089
sg69
g11
(g12
(S'S2'
p1090
I0
I1
tp1091
Rp1092
(I3
S'|'
p1093
NNNI2
I1
I0
tp1094
bS'RF'
p1095
tp1096
Rp1097
sg78
I3
sg158
g1070
sg79
g80
sg81
g11
(g15
S'\xe3\xdf\xde\xd5\x7f:\xe7?'
p1098
tp1099
Rp1100
sg85
g86
sg87
g88
sbag4
(g5
g6
Ntp1101
Rp1102
(dp1103
g10
g11
(g15
S'\x00\x00\x00\x00\x00\x00\xf8\xff'
p1104
tp1105
Rp1106
sg148
g306
sg30
g31
sg32
(dp1107
g148
g306
sg34
g11
(g15
S'\r\x975\xf5\xfe\xd1:@'
p1108
tp1109
Rp1110
sg42
g11
(g15
S'\xd5\x1f\x8a\xa3#\xb6\xee?'
p1111
tp1112
Rp1113
ssg46
g11
(g12
(S'S3'
p1114
I0
I1
tp1115
Rp1116
(I3
S'|'
p1117
NNNI3
I1
I0
tp1118
bS'PCA'
p1119
tp1120
Rp1121
sg55
F0.2
sg42
g1113
sg56
g11
(g12
(S'S9'
p1122
I0
I1
tp1123
Rp1124
(I3
S'|'
p1125
NNNI9
I1
I0
tp1126
bS'inception'
p1127
tp1128
Rp1129
sg34
g1110
sg65
g11
(g15
S'\x19\x01\xbd4~^\xe3?'
p1130
tp1131
Rp1132
sg69
g11
(g12
(S'S3'
p1133
I0
I1
tp1134
Rp1135
(I3
S'|'
p1136
NNNI3
I1
I0
tp1137
bS'SVM'
p1138
tp1139
Rp1140
sg78
I3
sg79
g80
sg81
g11
(g15
S'b\xf5;y(\x1f\xe5?'
p1141
tp1142
Rp1143
sg85
g86
sg87
g88
sbag4
(g5
g6
Ntp1144
Rp1145
(dp1146
g10
g11
(g15
S'\x00\x00\x00\x00\x00\x00\xf8\xff'
p1147
tp1148
Rp1149
sg148
g156
sg30
g31
sg32
(dp1150
g148
g156
sg34
g11
(g15
S'\xc3A\x8cT\xe7\xefV@'
p1151
tp1152
Rp1153
sg277
g11
(g24
S'\x02\x00\x00\x00\x00\x00\x00\x00'
p1154
tp1155
Rp1156
sg42
g11
(g15
S'\xa5D\xb4\x1c\xac\xd9\x01@'
p1157
tp1158
Rp1159
ssg46
g11
(g12
(S'S3'
p1160
I0
I1
tp1161
Rp1162
(I3
S'|'
p1163
NNNI3
I1
I0
tp1164
bS'PCA'
p1165
tp1166
Rp1167
sg55
F0.2
sg42
g1159
sg56
g11
(g12
(S'S8'
p1168
I0
I1
tp1169
Rp1170
(I3
S'|'
p1171
NNNI8
I1
I0
tp1172
bS'haralick'
p1173
tp1174
Rp1175
sg34
g1153
sg277
g1156
sg65
g11
(g15
S'\xfb\xf0F\xbc\x08\xa1\xe0?'
p1176
tp1177
Rp1178
sg69
g11
(g12
(S'S3'
p1179
I0
I1
tp1180
Rp1181
(I3
S'|'
p1182
NNNI3
I1
I0
tp1183
bS'SVM'
p1184
tp1185
Rp1186
sg78
I3
sg79
g80
sg81
g11
(g15
S'\xedxC\x9cE\x8d\xe5?'
p1187
tp1188
Rp1189
sg85
g86
sg87
g88
sbag4
(g5
g6
Ntp1190
Rp1191
(dp1192
g10
g11
(g15
S'\x00\x00\x00\x00\x00\x00\xf8\xff'
p1193
tp1194
Rp1195
sg144
g11
(g15
S'\x00\x00\x00\x00\x00`m@'
p1196
tp1197
Rp1198
sg30
g31
sg21
g11
(g24
S'\x07\x00\x00\x00\x00\x00\x00\x00'
p1199
tp1200
Rp1201
sg32
(dp1202
g144
g1198
sg21
g1201
sg277
g11
(g24
S'\x01\x00\x00\x00\x00\x00\x00\x00'
p1203
tp1204
Rp1205
sg38
g11
(g24
S'\x03\x00\x00\x00\x00\x00\x00\x00'
p1206
tp1207
Rp1208
sg158
g11
(g15
S'\xbc.Kg\xe7\x85\xdf?'
p1209
tp1210
Rp1211
ssg46
g11
(g12
(S'S6'
p1212
I0
I1
tp1213
Rp1214
(I3
S'|'
p1215
NNNI6
I1
I0
tp1216
bS'ISOMAP'
p1217
tp1218
Rp1219
sg55
F0.2
sg38
g1208
sg56
g11
(g12
(S'S8'
p1220
I0
I1
tp1221
Rp1222
(I3
S'|'
p1223
NNNI8
I1
I0
tp1224
bS'haralick'
p1225
tp1226
Rp1227
sg277
g1205
sg65
g11
(g15
S'\x13$\x94\x01\xd4(\xf1?'
p1228
tp1229
Rp1230
sg69
g11
(g12
(S'S2'
p1231
I0
I1
tp1232
Rp1233
(I3
S'|'
p1234
NNNI2
I1
I0
tp1235
bS'RF'
p1236
tp1237
Rp1238
sg78
I3
sg158
g1211
sg79
g80
sg81
g11
(g15
S'\x18\xd6/\tO%\xe9?'
p1239
tp1240
Rp1241
sg85
g86
sg87
g88
sbag4
(g5
g6
Ntp1242
Rp1243
(dp1244
g10
g11
(g15
S'\x00\x00\x00\x00\x00\x00\xf8\xff'
p1245
tp1246
Rp1247
sg148
g306
sg30
g31
sg32
(dp1248
g148
g306
sg34
g11
(g15
S'B\xa9\xd4\x89UJ\x18@'
p1249
tp1250
Rp1251
sg42
g11
(g15
S"'O\xca\xce\xa4 \x08@"
p1252
tp1253
Rp1254
ssg46
g11
(g12
(S'S3'
p1255
I0
I1
tp1256
Rp1257
(I3
S'|'
p1258
NNNI3
I1
I0
tp1259
bS'PCA'
p1260
tp1261
Rp1262
sg55
F0.2
sg42
g1254
sg56
g11
(g12
(S'S3'
p1263
I0
I1
tp1264
Rp1265
(I3
S'|'
p1266
NNNI3
I1
I0
tp1267
bS'VGG'
p1268
tp1269
Rp1270
sg34
g1251
sg65
g11
(g15
S'\xf4R\xb0\x1b\xd6\xa1\xe3?'
p1271
tp1272
Rp1273
sg69
g11
(g12
(S'S3'
p1274
I0
I1
tp1275
Rp1276
(I3
S'|'
p1277
NNNI3
I1
I0
tp1278
bS'SVM'
p1279
tp1280
Rp1281
sg78
I3
sg79
g80
sg81
g11
(g15
S'\x8d\xad\xf3\xd0\xe2)\xe7?'
p1282
tp1283
Rp1284
sg85
g86
sg87
g88
sbag4
(g5
g6
Ntp1285
Rp1286
(dp1287
g10
g11
(g15
S'\x00\x00\x00\x00\x00\x00\xf8\xff'
p1288
tp1289
Rp1290
sg144
g11
(g15
S'\x00\x00\x00\x00\x00`i@'
p1291
tp1292
Rp1293
sg148
g156
sg30
g31
sg32
(dp1294
g144
g1293
sg158
g11
(g15
S'X\x15t\xdd\xcf\x9e\xe7?'
p1295
tp1296
Rp1297
sg148
g156
sg277
g11
(g24
S'\x03\x00\x00\x00\x00\x00\x00\x00'
p1298
tp1299
Rp1300
ssg46
g11
(g12
(S'S3'
p1301
I0
I1
tp1302
Rp1303
(I3
S'|'
p1304
NNNI3
I1
I0
tp1305
bS'PCA'
p1306
tp1307
Rp1308
sg55
F0.2
sg56
g11
(g12
(S'S8'
p1309
I0
I1
tp1310
Rp1311
(I3
S'|'
p1312
NNNI8
I1
I0
tp1313
bS'haralick'
p1314
tp1315
Rp1316
sg277
g1300
sg65
g11
(g15
S'\x0b\xddD\x8b:9\x01@'
p1317
tp1318
Rp1319
sg69
g11
(g12
(S'S2'
p1320
I0
I1
tp1321
Rp1322
(I3
S'|'
p1323
NNNI2
I1
I0
tp1324
bS'RF'
p1325
tp1326
Rp1327
sg78
I3
sg158
g1297
sg79
g80
sg81
g11
(g15
S'\x94\x8a\xcaK\x1a~\xe6?'
p1328
tp1329
Rp1330
sg85
g86
sg87
g88
sbag4
(g5
g6
Ntp1331
Rp1332
(dp1333
g10
g11
(g15
S'\x00\x00\x00\x00\x00\x00\xf8\xff'
p1334
tp1335
Rp1336
sg144
g11
(g15
S'\x00\x00\x00\x00\x00\xc0r@'
p1337
tp1338
Rp1339
sg30
g31
sg21
g11
(g24
S'\x03\x00\x00\x00\x00\x00\x00\x00'
p1340
tp1341
Rp1342
sg32
(dp1343
g144
g1339
sg21
g1342
sg38
g11
(g24
S'\x04\x00\x00\x00\x00\x00\x00\x00'
p1344
tp1345
Rp1346
sg158
g11
(g15
S'^*\xd0\x96\xf5\xad\xd6?'
p1347
tp1348
Rp1349
ssg46
g11
(g12
(S'S6'
p1350
I0
I1
tp1351
Rp1352
(I3
S'|'
p1353
NNNI6
I1
I0
tp1354
bS'ISOMAP'
p1355
tp1356
Rp1357
sg55
F0.2
sg38
g1346
sg56
g11
(g12
(S'S3'
p1358
I0
I1
tp1359
Rp1360
(I3
S'|'
p1361
NNNI3
I1
I0
tp1362
bS'VGG'
p1363
tp1364
Rp1365
sg65
g11
(g15
S'\x1caK\xe6K%\xe9?'
p1366
tp1367
Rp1368
sg69
g11
(g12
(S'S2'
p1369
I0
I1
tp1370
Rp1371
(I3
S'|'
p1372
NNNI2
I1
I0
tp1373
bS'RF'
p1374
tp1375
Rp1376
sg78
I3
sg158
g1349
sg79
g80
sg81
g11
(g15
S"\xad\xb3?'\xa03\xe9?"
p1377
tp1378
Rp1379
sg85
g86
sg87
g88
sbag4
(g5
g6
Ntp1380
Rp1381
(dp1382
g10
g11
(g15
S'\x00\x00\x00\x00\x00\x00\xf8\xff'
p1383
tp1384
Rp1385
sg144
g11
(g15
S'\x00\x00\x00\x00\x00@a@'
p1386
tp1387
Rp1388
sg148
g306
sg30
g31
sg32
(dp1389
g144
g1388
sg158
g11
(g15
S'\xca\xf3\x0f\nm\r\xee?'
p1390
tp1391
Rp1392
sg148
g306
ssg46
g11
(g12
(S'S3'
p1393
I0
I1
tp1394
Rp1395
(I3
S'|'
p1396
NNNI3
I1
I0
tp1397
bS'PCA'
p1398
tp1399
Rp1400
sg55
F0.2
sg56
g11
(g12
(S'S9'
p1401
I0
I1
tp1402
Rp1403
(I3
S'|'
p1404
NNNI9
I1
I0
tp1405
bS'inception'
p1406
tp1407
Rp1408
sg65
g11
(g15
S'P\xc2\xee\xca\xe9\xfe\xe6?'
p1409
tp1410
Rp1411
sg69
g11
(g12
(S'S2'
p1412
I0
I1
tp1413
Rp1414
(I3
S'|'
p1415
NNNI2
I1
I0
tp1416
bS'RF'
p1417
tp1418
Rp1419
sg78
I3
sg158
g1392
sg79
g80
sg81
g11
(g15
S'\xb3W\x8e\x19\x0e6\xe8?'
p1420
tp1421
Rp1422
sg85
g86
sg87
g88
sbag4
(g5
g6
Ntp1423
Rp1424
(dp1425
g10
g11
(g15
S'\x00\x00\x00\x00\x00\x00\xf8\xff'
p1426
tp1427
Rp1428
sg21
g11
(g24
S'\x03\x00\x00\x00\x00\x00\x00\x00'
p1429
tp1430
Rp1431
sg30
g31
sg32
(dp1432
g21
g1431
sg34
g11
(g15
S'\x7f$5f\x1c\x05K@'
p1433
tp1434
Rp1435
sg277
g11
(g24
S'\x03\x00\x00\x00\x00\x00\x00\x00'
p1436
tp1437
Rp1438
sg38
g11
(g24
S'\x02\x00\x00\x00\x00\x00\x00\x00'
p1439
tp1440
Rp1441
sg42
g11
(g15
S'[\xc4\x1f\xe2\xf3\x03\x05@'
p1442
tp1443
Rp1444
ssg42
g1444
sg46
g11
(g12
(S'S6'
p1445
I0
I1
tp1446
Rp1447
(I3
S'|'
p1448
NNNI6
I1
I0
tp1449
bS'ISOMAP'
p1450
tp1451
Rp1452
sg55
F0.2
sg38
g1441
sg56
g11
(g12
(S'S8'
p1453
I0
I1
tp1454
Rp1455
(I3
S'|'
p1456
NNNI8
I1
I0
tp1457
bS'haralick'
p1458
tp1459
Rp1460
sg34
g1435
sg277
g1438
sg65
g11
(g15
S'7\xdd\x160Wf\xe4?'
p1461
tp1462
Rp1463
sg69
g11
(g12
(S'S3'
p1464
I0
I1
tp1465
Rp1466
(I3
S'|'
p1467
NNNI3
I1
I0
tp1468
bS'SVM'
p1469
tp1470
Rp1471
sg78
I3
sg79
g80
sg81
g11
(g15
S'\x8d\xaf\xef\xd8\xd2I\xe7?'
p1472
tp1473
Rp1474
sg85
g86
sg87
g88
sbag4
(g5
g6
Ntp1475
Rp1476
(dp1477
g10
g11
(g15
S'\x00\x00\x00\x00\x00\x00\xf8\xff'
p1478
tp1479
Rp1480
sg21
g11
(g24
S'\x03\x00\x00\x00\x00\x00\x00\x00'
p1481
tp1482
Rp1483
sg30
g31
sg32
(dp1484
g21
g1483
sg34
g11
(g15
S'\x04\xac\xf0\xe5\xe7aX@'
p1485
tp1486
Rp1487
sg38
g11
(g24
S'\x02\x00\x00\x00\x00\x00\x00\x00'
p1488
tp1489
Rp1490
sg42
g11
(g15
S'\x98\x0c\xc8\xf9. \x07@'
p1491
tp1492
Rp1493
ssg42
g1493
sg46
g11
(g12
(S'S6'
p1494
I0
I1
tp1495
Rp1496
(I3
S'|'
p1497
NNNI6
I1
I0
tp1498
bS'ISOMAP'
p1499
tp1500
Rp1501
sg55
F0.2
sg38
g1490
sg56
g11
(g12
(S'S9'
p1502
I0
I1
tp1503
Rp1504
(I3
S'|'
p1505
NNNI9
I1
I0
tp1506
bS'inception'
p1507
tp1508
Rp1509
sg34
g1487
sg65
g11
(g15
S'\x13\x90\x0e\xb7\xa3\x91\xe8?'
p1510
tp1511
Rp1512
sg69
g11
(g12
(S'S3'
p1513
I0
I1
tp1514
Rp1515
(I3
S'|'
p1516
NNNI3
I1
I0
tp1517
bS'SVM'
p1518
tp1519
Rp1520
sg78
I3
sg79
g80
sg81
g11
(g15
S'\x01\xea\x88\xc9j\xe4\xe2?'
p1521
tp1522
Rp1523
sg85
g86
sg87
g88
sbag193
ag4
(g5
g6
Ntp1524
Rp1525
(dp1526
g10
g11
(g15
S'\x00\x00\x00\x00\x00\x00\xf8\xff'
p1527
tp1528
Rp1529
sg144
g11
(g15
S'\x00\x00\x00\x00\x00`m@'
p1530
tp1531
Rp1532
sg30
g31
sg21
g11
(g24
S'\x07\x00\x00\x00\x00\x00\x00\x00'
p1533
tp1534
Rp1535
sg32
(dp1536
g144
g1532
sg21
g1535
sg277
g11
(g24
S'\x01\x00\x00\x00\x00\x00\x00\x00'
p1537
tp1538
Rp1539
sg38
g11
(g24
S'\x04\x00\x00\x00\x00\x00\x00\x00'
p1540
tp1541
Rp1542
sg158
g11
(g15
S'\xdcM\x1e\xdd\x89\r\xd7?'
p1543
tp1544
Rp1545
ssg46
g11
(g12
(S'S6'
p1546
I0
I1
tp1547
Rp1548
(I3
S'|'
p1549
NNNI6
I1
I0
tp1550
bS'ISOMAP'
p1551
tp1552
Rp1553
sg55
F0.2
sg38
g1542
sg56
g11
(g12
(S'S8'
p1554
I0
I1
tp1555
Rp1556
(I3
S'|'
p1557
NNNI8
I1
I0
tp1558
bS'haralick'
p1559
tp1560
Rp1561
sg277
g1539
sg65
g11
(g15
S'9\xeb\xdf\x1a\xb5\xd1\xe7?'
p1562
tp1563
Rp1564
sg69
g11
(g12
(S'S2'
p1565
I0
I1
tp1566
Rp1567
(I3
S'|'
p1568
NNNI2
I1
I0
tp1569
bS'RF'
p1570
tp1571
Rp1572
sg78
I3
sg158
g1545
sg79
g80
sg81
g11
(g15
S'X1\x8bD\x11\xe5\xe8?'
p1573
tp1574
Rp1575
sg85
g86
sg87
g88
sbag4
(g5
g6
Ntp1576
Rp1577
(dp1578
g10
g11
(g15
S'\x00\x00\x00\x00\x00\x00\xf8\xff'
p1579
tp1580
Rp1581
sg148
g306
sg30
g31
sg32
(dp1582
g148
g306
sg34
g11
(g15
S'\xd0\xed\xaf\x8b\xd4\x97P@'
p1583
tp1584
Rp1585
sg42
g11
(g15
S'\x94\xac_\x9a\xd3\xc6\x16@'
p1586
tp1587
Rp1588
ssg46
g11
(g12
(S'S3'
p1589
I0
I1
tp1590
Rp1591
(I3
S'|'
p1592
NNNI3
I1
I0
tp1593
bS'PCA'
p1594
tp1595
Rp1596
sg55
F0.2
sg42
g1588
sg56
g11
(g12
(S'S9'
p1597
I0
I1
tp1598
Rp1599
(I3
S'|'
p1600
NNNI9
I1
I0
tp1601
bS'inception'
p1602
tp1603
Rp1604
sg34
g1585
sg65
g11
(g15
S'G\xd4\xeft2\xab\xe3?'
p1605
tp1606
Rp1607
sg69
g11
(g12
(S'S3'
p1608
I0
I1
tp1609
Rp1610
(I3
S'|'
p1611
NNNI3
I1
I0
tp1612
bS'SVM'
p1613
tp1614
Rp1615
sg78
I3
sg79
g80
sg81
g11
(g15
S'\x1c\x17.k\xef]\xe5?'
p1616
tp1617
Rp1618
sg85
g86
sg87
g88
sbag4
(g5
g6
Ntp1619
Rp1620
(dp1621
g10
g11
(g15
S'\x00\x00\x00\x00\x00\x00\xf8\xff'
p1622
tp1623
Rp1624
sg144
g11
(g15
S'\x00\x00\x00\x00\x00\x00 @'
p1625
tp1626
Rp1627
sg148
g156
sg30
g31
sg32
(dp1628
g144
g1627
sg158
g11
(g15
S'(x\x94A\xb7\xa1\xe5?'
p1629
tp1630
Rp1631
sg148
g156
ssg46
g11
(g12
(S'S3'
p1632
I0
I1
tp1633
Rp1634
(I3
S'|'
p1635
NNNI3
I1
I0
tp1636
bS'PCA'
p1637
tp1638
Rp1639
sg55
F0.2
sg56
g11
(g12
(S'S3'
p1640
I0
I1
tp1641
Rp1642
(I3
S'|'
p1643
NNNI3
I1
I0
tp1644
bS'VGG'
p1645
tp1646
Rp1647
sg65
g11
(g15
S';\x9f\xfb\xbd\x12\xce\xfa?'
p1648
tp1649
Rp1650
sg69
g11
(g12
(S'S2'
p1651
I0
I1
tp1652
Rp1653
(I3
S'|'
p1654
NNNI2
I1
I0
tp1655
bS'RF'
p1656
tp1657
Rp1658
sg78
I3
sg158
g1631
sg79
g80
sg81
g11
(g15
S'T\xc5\x1a\x91\xe1b\xe9?'
p1659
tp1660
Rp1661
sg85
g86
sg87
g88
sbag4
(g5
g6
Ntp1662
Rp1663
(dp1664
g10
g11
(g15
S'\x00\x00\x00\x00\x00\x00\xf8\xff'
p1665
tp1666
Rp1667
sg144
g11
(g15
S'\x00\x00\x00\x00\x00\xc0p@'
p1668
tp1669
Rp1670
sg148
g156
sg30
g31
sg32
(dp1671
g144
g1670
sg158
g11
(g15
S'\x9e\xb3\x9a/JL\xeb?'
p1672
tp1673
Rp1674
sg148
g156
ssg46
g11
(g12
(S'S3'
p1675
I0
I1
tp1676
Rp1677
(I3
S'|'
p1678
NNNI3
I1
I0
tp1679
bS'PCA'
p1680
tp1681
Rp1682
sg55
F0.2
sg56
g11
(g12
(S'S3'
p1683
I0
I1
tp1684
Rp1685
(I3
S'|'
p1686
NNNI3
I1
I0
tp1687
bS'VGG'
p1688
tp1689
Rp1690
sg65
g11
(g15
S'\xfb\x93H\xa1I \xda?'
p1691
tp1692
Rp1693
sg69
g11
(g12
(S'S2'
p1694
I0
I1
tp1695
Rp1696
(I3
S'|'
p1697
NNNI2
I1
I0
tp1698
bS'RF'
p1699
tp1700
Rp1701
sg78
I3
sg158
g1674
sg79
g80
sg81
g11
(g15
S'\x1d3\xc3mL\x80\xea?'
p1702
tp1703
Rp1704
sg85
g86
sg87
g88
sbag4
(g5
g6
Ntp1705
Rp1706
(dp1707
g10
g11
(g15
S'\x00\x00\x00\x00\x00\x00\xf8\xff'
p1708
tp1709
Rp1710
sg144
g11
(g15
S'\x00\x00\x00\x00\x00@e@'
p1711
tp1712
Rp1713
sg148
g306
sg30
g31
sg32
(dp1714
g144
g1713
sg158
g11
(g15
S'Xj\x8e<k\xcc\xdc?'
p1715
tp1716
Rp1717
sg148
g306
ssg46
g11
(g12
(S'S3'
p1718
I0
I1
tp1719
Rp1720
(I3
S'|'
p1721
NNNI3
I1
I0
tp1722
bS'PCA'
p1723
tp1724
Rp1725
sg55
F0.2
sg56
g11
(g12
(S'S9'
p1726
I0
I1
tp1727
Rp1728
(I3
S'|'
p1729
NNNI9
I1
I0
tp1730
bS'inception'
p1731
tp1732
Rp1733
sg65
g11
(g15
S'\xe7V\x8b\xcdf\xf6\xe0?'
p1734
tp1735
Rp1736
sg69
g11
(g12
(S'S2'
p1737
I0
I1
tp1738
Rp1739
(I3
S'|'
p1740
NNNI2
I1
I0
tp1741
bS'RF'
p1742
tp1743
Rp1744
sg78
I3
sg158
g1717
sg79
g80
sg81
g11
(g15
S'\x8c\x19\xa0]he\xe8?'
p1745
tp1746
Rp1747
sg85
g86
sg87
g88
sbag4
(g5
g6
Ntp1748
Rp1749
(dp1750
g10
g11
(g15
S'\x00\x00\x00\x00\x00\x00\xf8\xff'
p1751
tp1752
Rp1753
sg144
g11
(g15
S'\x00\x00\x00\x00\x00@e@'
p1754
tp1755
Rp1756
sg148
g156
sg30
g31
sg32
(dp1757
g144
g1756
sg158
g11
(g15
S'\x12\xe0<\xf1\x10\x9e\xd7?'
p1758
tp1759
Rp1760
sg148
g156
ssg46
g11
(g12
(S'S3'
p1761
I0
I1
tp1762
Rp1763
(I3
S'|'
p1764
NNNI3
I1
I0
tp1765
bS'PCA'
p1766
tp1767
Rp1768
sg55
F0.2
sg56
g11
(g12
(S'S3'
p1769
I0
I1
tp1770
Rp1771
(I3
S'|'
p1772
NNNI3
I1
I0
tp1773
bS'VGG'
p1774
tp1775
Rp1776
sg65
g11
(g15
S'\x0bQ,\x8a\xc0-\xda?'
p1777
tp1778
Rp1779
sg69
g11
(g12
(S'S2'
p1780
I0
I1
tp1781
Rp1782
(I3
S'|'
p1783
NNNI2
I1
I0
tp1784
bS'RF'
p1785
tp1786
Rp1787
sg78
I3
sg158
g1760
sg79
g80
sg81
g11
(g15
S'\x99\x11\xd13\x90\x7f\xea?'
p1788
tp1789
Rp1790
sg85
g86
sg87
g88
sbag4
(g5
g6
Ntp1791
Rp1792
(dp1793
g10
g11
(g15
S'\x00\x00\x00\x00\x00\x00\xf8\xff'
p1794
tp1795
Rp1796
sg144
g11
(g15
S'\x00\x00\x00\x00\x00\xc0p@'
p1797
tp1798
Rp1799
sg30
g31
sg21
g11
(g24
S'\x04\x00\x00\x00\x00\x00\x00\x00'
p1800
tp1801
Rp1802
sg32
(dp1803
g144
g1799
sg21
g1802
sg38
g11
(g24
S'\x04\x00\x00\x00\x00\x00\x00\x00'
p1804
tp1805
Rp1806
sg158
g11
(g15
S'\xf7{\xf2*\x96\x0f\xd9?'
p1807
tp1808
Rp1809
ssg46
g11
(g12
(S'S6'
p1810
I0
I1
tp1811
Rp1812
(I3
S'|'
p1813
NNNI6
I1
I0
tp1814
bS'ISOMAP'
p1815
tp1816
Rp1817
sg55
F0.2
sg38
g1806
sg56
g11
(g12
(S'S9'
p1818
I0
I1
tp1819
Rp1820
(I3
S'|'
p1821
NNNI9
I1
I0
tp1822
bS'inception'
p1823
tp1824
Rp1825
sg65
g11
(g15
S'\x9fl\xc1\xeb\xdd\x0e\xe8?'
p1826
tp1827
Rp1828
sg69
g11
(g12
(S'S2'
p1829
I0
I1
tp1830
Rp1831
(I3
S'|'
p1832
NNNI2
I1
I0
tp1833
bS'RF'
p1834
tp1835
Rp1836
sg78
I3
sg158
g1809
sg79
g80
sg81
g11
(g15
S'eW\xc5\xf1\xfd\xc9\xe6?'
p1837
tp1838
Rp1839
sg85
g86
sg87
g88
sbag4
(g5
g6
Ntp1840
Rp1841
(dp1842
g10
g11
(g15
S'\x00\x00\x00\x00\x00\x00\xf8\xff'
p1843
tp1844
Rp1845
sg21
g11
(g24
S'\x03\x00\x00\x00\x00\x00\x00\x00'
p1846
tp1847
Rp1848
sg30
g31
sg32
(dp1849
g21
g1848
sg34
g11
(g15
S'\xd2<l\xa5\xadWC@'
p1850
tp1851
Rp1852
sg277
g11
(g24
S'\x01\x00\x00\x00\x00\x00\x00\x00'
p1853
tp1854
Rp1855
sg38
g11
(g24
S'\x04\x00\x00\x00\x00\x00\x00\x00'
p1856
tp1857
Rp1858
sg42
g11
(g15
S'\x8f\x8e\x140\xcdd\x00@'
p1859
tp1860
Rp1861
ssg42
g1861
sg46
g11
(g12
(S'S6'
p1862
I0
I1
tp1863
Rp1864
(I3
S'|'
p1865
NNNI6
I1
I0
tp1866
bS'ISOMAP'
p1867
tp1868
Rp1869
sg55
F0.2
sg38
g1858
sg56
g11
(g12
(S'S8'
p1870
I0
I1
tp1871
Rp1872
(I3
S'|'
p1873
NNNI8
I1
I0
tp1874
bS'haralick'
p1875
tp1876
Rp1877
sg34
g1852
sg277
g1855
sg65
g11
(g15
S'\x11&\xdb<\x7fj\xe7?'
p1878
tp1879
Rp1880
sg69
g11
(g12
(S'S3'
p1881
I0
I1
tp1882
Rp1883
(I3
S'|'
p1884
NNNI3
I1
I0
tp1885
bS'SVM'
p1886
tp1887
Rp1888
sg78
I3
sg79
g80
sg81
g11
(g15
S'\xdf\x7f\x88Q\x9a\xa0\xe4?'
p1889
tp1890
Rp1891
sg85
g86
sg87
g88
sbag4
(g5
g6
Ntp1892
Rp1893
(dp1894
g10
g11
(g15
S'\x00\x00\x00\x00\x00\x00\xf8\xff'
p1895
tp1896
Rp1897
sg148
g156
sg30
g31
sg32
(dp1898
g148
g156
sg34
g11
(g15
S'\x94:\xb5\xc6\xda\xc8\x1f@'
p1899
tp1900
Rp1901
sg42
g11
(g15
S'=b&{\xeb\x91\x1c@'
p1902
tp1903
Rp1904
ssg46
g11
(g12
(S'S3'
p1905
I0
I1
tp1906
Rp1907
(I3
S'|'
p1908
NNNI3
I1
I0
tp1909
bS'PCA'
p1910
tp1911
Rp1912
sg55
F0.2
sg42
g1904
sg56
g11
(g12
(S'S3'
p1913
I0
I1
tp1914
Rp1915
(I3
S'|'
p1916
NNNI3
I1
I0
tp1917
bS'VGG'
p1918
tp1919
Rp1920
sg34
g1901
sg65
g11
(g15
S'\x19\xe0\x13-\x0bk\xe8?'
p1921
tp1922
Rp1923
sg69
g11
(g12
(S'S3'
p1924
I0
I1
tp1925
Rp1926
(I3
S'|'
p1927
NNNI3
I1
I0
tp1928
bS'SVM'
p1929
tp1930
Rp1931
sg78
I3
sg79
g80
sg81
g11
(g15
S'w\xb3\xe2\x9fW\xa2\xe4?'
p1932
tp1933
Rp1934
sg85
g86
sg87
g88
sbag4
(g5
g6
Ntp1935
Rp1936
(dp1937
g10
g11
(g15
S'\x00\x00\x00\x00\x00\x00\xf8\xff'
p1938
tp1939
Rp1940
sg144
g11
(g15
S'\x00\x00\x00\x00\x00\x00 @'
p1941
tp1942
Rp1943
sg148
g306
sg30
g31
sg32
(dp1944
g144
g1943
sg158
g11
(g15
S'\xc8\x18\x14O]\x81\xed?'
p1945
tp1946
Rp1947
sg148
g306
ssg46
g11
(g12
(S'S3'
p1948
I0
I1
tp1949
Rp1950
(I3
S'|'
p1951
NNNI3
I1
I0
tp1952
bS'PCA'
p1953
tp1954
Rp1955
sg55
F0.2
sg56
g11
(g12
(S'S3'
p1956
I0
I1
tp1957
Rp1958
(I3
S'|'
p1959
NNNI3
I1
I0
tp1960
bS'VGG'
p1961
tp1962
Rp1963
sg65
g11
(g15
S'\x030\xa2v\xae\x0c\xf6?'
p1964
tp1965
Rp1966
sg69
g11
(g12
(S'S2'
p1967
I0
I1
tp1968
Rp1969
(I3
S'|'
p1970
NNNI2
I1
I0
tp1971
bS'RF'
p1972
tp1973
Rp1974
sg78
I3
sg158
g1947
sg79
g80
sg81
g11
(g15
S'\x83\xb8\x19\xd6\xe0\x92\xe9?'
p1975
tp1976
Rp1977
sg85
g86
sg87
g88
sbag4
(g5
g6
Ntp1978
Rp1979
(dp1980
g10
g11
(g15
S'\x00\x00\x00\x00\x00\x00\xf8\xff'
p1981
tp1982
Rp1983
sg144
g11
(g15
S'\x00\x00\x00\x00\x00@Z@'
p1984
tp1985
Rp1986
sg148
g306
sg30
g31
sg32
(dp1987
g144
g1986
sg158
g11
(g15
S'\x8a\xa1Hiuz\xe7?'
p1988
tp1989
Rp1990
sg148
g306
ssg46
g11
(g12
(S'S3'
p1991
I0
I1
tp1992
Rp1993
(I3
S'|'
p1994
NNNI3
I1
I0
tp1995
bS'PCA'
p1996
tp1997
Rp1998
sg55
F0.2
sg56
g11
(g12
(S'S9'
p1999
I0
I1
tp2000
Rp2001
(I3
S'|'
p2002
NNNI9
I1
I0
tp2003
bS'inception'
p2004
tp2005
Rp2006
sg65
g11
(g15
S'\x15]\x0bXX\x1f\xe9?'
p2007
tp2008
Rp2009
sg69
g11
(g12
(S'S2'
p2010
I0
I1
tp2011
Rp2012
(I3
S'|'
p2013
NNNI2
I1
I0
tp2014
bS'RF'
p2015
tp2016
Rp2017
sg78
I3
sg158
g1990
sg79
g80
sg81
g11
(g15
S'P\xb8P\n\xd6E\xe8?'
p2018
tp2019
Rp2020
sg85
g86
sg87
g88
sbag4
(g5
g6
Ntp2021
Rp2022
(dp2023
g10
g11
(g15
S'\x00\x00\x00\x00\x00\x00\xf8\xff'
p2024
tp2025
Rp2026
sg148
g156
sg30
g31
sg32
(dp2027
g148
g156
sg34
g11
(g15
S'\x0fO*%\x16r<@'
p2028
tp2029
Rp2030
sg42
g11
(g15
S'\xb2G\xca\xa2\xb2S\xf4?'
p2031
tp2032
Rp2033
ssg46
g11
(g12
(S'S3'
p2034
I0
I1
tp2035
Rp2036
(I3
S'|'
p2037
NNNI3
I1
I0
tp2038
bS'PCA'
p2039
tp2040
Rp2041
sg55
F0.2
sg42
g2033
sg56
g11
(g12
(S'S3'
p2042
I0
I1
tp2043
Rp2044
(I3
S'|'
p2045
NNNI3
I1
I0
tp2046
bS'VGG'
p2047
tp2048
Rp2049
sg34
g2030
sg65
g11
(g15
S'8W\xea\xffk\x92\xe0?'
p2050
tp2051
Rp2052
sg69
g11
(g12
(S'S3'
p2053
I0
I1
tp2054
Rp2055
(I3
S'|'
p2056
NNNI3
I1
I0
tp2057
bS'SVM'
p2058
tp2059
Rp2060
sg78
I3
sg79
g80
sg81
g11
(g15
S'\xb7\xa0.\xef7\x13\xe9?'
p2061
tp2062
Rp2063
sg85
g86
sg87
g88
sbag4
(g5
g6
Ntp2064
Rp2065
(dp2066
g10
g11
(g15
S'\x00\x00\x00\x00\x00\x00\xf8\xff'
p2067
tp2068
Rp2069
sg21
g11
(g24
S'\x03\x00\x00\x00\x00\x00\x00\x00'
p2070
tp2071
Rp2072
sg30
g31
sg32
(dp2073
g21
g2072
sg34
g11
(g15
S'\xf6\xc3\xbf\xc3\xcf\x07X@'
p2074
tp2075
Rp2076
sg38
g11
(g24
S'\x02\x00\x00\x00\x00\x00\x00\x00'
p2077
tp2078
Rp2079
sg42
g11
(g15
S'e\n\x81\x1eE\xe4\x1c@'
p2080
tp2081
Rp2082
ssg42
g2082
sg46
g11
(g12
(S'S6'
p2083
I0
I1
tp2084
Rp2085
(I3
S'|'
p2086
NNNI6
I1
I0
tp2087
bS'ISOMAP'
p2088
tp2089
Rp2090
sg55
F0.2
sg38
g2079
sg56
g11
(g12
(S'S3'
p2091
I0
I1
tp2092
Rp2093
(I3
S'|'
p2094
NNNI3
I1
I0
tp2095
bS'VGG'
p2096
tp2097
Rp2098
sg34
g2076
sg65
g11
(g15
S'\x07\xb9tP/\xd1\xe2?'
p2099
tp2100
Rp2101
sg69
g11
(g12
(S'S3'
p2102
I0
I1
tp2103
Rp2104
(I3
S'|'
p2105
NNNI3
I1
I0
tp2106
bS'SVM'
p2107
tp2108
Rp2109
sg78
I3
sg79
g80
sg81
g11
(g15
S'\xebu\x863\xd2\xa9\xe7?'
p2110
tp2111
Rp2112
sg85
g86
sg87
g88
sbag4
(g5
g6
Ntp2113
Rp2114
(dp2115
g10
g11
(g15
S'\x00\x00\x00\x00\x00\x00\xf8\xff'
p2116
tp2117
Rp2118
sg144
g11
(g15
S'\x00\x00\x00\x00\x00@e@'
p2119
tp2120
Rp2121
sg30
g31
sg21
g11
(g24
S'\x03\x00\x00\x00\x00\x00\x00\x00'
p2122
tp2123
Rp2124
sg32
(dp2125
g144
g2121
sg21
g2124
sg38
g11
(g24
S'\x04\x00\x00\x00\x00\x00\x00\x00'
p2126
tp2127
Rp2128
sg158
g11
(g15
S'\xdc7A\x8f\x8f\x10\xd7?'
p2129
tp2130
Rp2131
ssg46
g11
(g12
(S'S6'
p2132
I0
I1
tp2133
Rp2134
(I3
S'|'
p2135
NNNI6
I1
I0
tp2136
bS'ISOMAP'
p2137
tp2138
Rp2139
sg55
F0.2
sg38
g2128
sg56
g11
(g12
(S'S9'
p2140
I0
I1
tp2141
Rp2142
(I3
S'|'
p2143
NNNI9
I1
I0
tp2144
bS'inception'
p2145
tp2146
Rp2147
sg65
g11
(g15
S'UK!|\x14\x07\xf6?'
p2148
tp2149
Rp2150
sg69
g11
(g12
(S'S2'
p2151
I0
I1
tp2152
Rp2153
(I3
S'|'
p2154
NNNI2
I1
I0
tp2155
bS'RF'
p2156
tp2157
Rp2158
sg78
I3
sg158
g2131
sg79
g80
sg81
g11
(g15
S'\x03\x84d\x10\xf3L\xe5?'
p2159
tp2160
Rp2161
sg85
g86
sg87
g88
sbag4
(g5
g6
Ntp2162
Rp2163
(dp2164
g10
g11
(g15
S'\x00\x00\x00\x00\x00\x00\xf8\xff'
p2165
tp2166
Rp2167
sg148
g306
sg30
g31
sg32
(dp2168
g148
g306
sg34
g11
(g15
S'\xd2\x08\xc1\x0fbzM@'
p2169
tp2170
Rp2171
sg42
g11
(g15
S'\x82\xe2\xb3\xa2\xc3U\x11@'
p2172
tp2173
Rp2174
ssg46
g11
(g12
(S'S3'
p2175
I0
I1
tp2176
Rp2177
(I3
S'|'
p2178
NNNI3
I1
I0
tp2179
bS'PCA'
p2180
tp2181
Rp2182
sg55
F0.2
sg42
g2174
sg56
g11
(g12
(S'S9'
p2183
I0
I1
tp2184
Rp2185
(I3
S'|'
p2186
NNNI9
I1
I0
tp2187
bS'inception'
p2188
tp2189
Rp2190
sg34
g2171
sg65
g11
(g15
S'7\xa1\x90hhp\xe3?'
p2191
tp2192
Rp2193
sg69
g11
(g12
(S'S3'
p2194
I0
I1
tp2195
Rp2196
(I3
S'|'
p2197
NNNI3
I1
I0
tp2198
bS'SVM'
p2199
tp2200
Rp2201
sg78
I3
sg79
g80
sg81
g11
(g15
S'U\x9c\xdc\xfd`\xbd\xe5?'
p2202
tp2203
Rp2204
sg85
g86
sg87
g88
sbag4
(g5
g6
Ntp2205
Rp2206
(dp2207
g10
g11
(g15
S'\x00\x00\x00\x00\x00\x00\xf8\xff'
p2208
tp2209
Rp2210
sg144
g11
(g15
S'\x00\x00\x00\x00\x00\xc0p@'
p2211
tp2212
Rp2213
sg30
g31
sg21
g11
(g24
S'\x06\x00\x00\x00\x00\x00\x00\x00'
p2214
tp2215
Rp2216
sg32
(dp2217
g144
g2213
sg21
g2216
sg38
g11
(g24
S'\x02\x00\x00\x00\x00\x00\x00\x00'
p2218
tp2219
Rp2220
sg158
g11
(g15
S'\x04S4\x18\xfb\x96\xef?'
p2221
tp2222
Rp2223
ssg46
g11
(g12
(S'S6'
p2224
I0
I1
tp2225
Rp2226
(I3
S'|'
p2227
NNNI6
I1
I0
tp2228
bS'ISOMAP'
p2229
tp2230
Rp2231
sg55
F0.2
sg38
g2220
sg56
g11
(g12
(S'S3'
p2232
I0
I1
tp2233
Rp2234
(I3
S'|'
p2235
NNNI3
I1
I0
tp2236
bS'VGG'
p2237
tp2238
Rp2239
sg65
g11
(g15
S'\xcb\x07D\xda\xf5\xdb\xe7?'
p2240
tp2241
Rp2242
sg69
g11
(g12
(S'S2'
p2243
I0
I1
tp2244
Rp2245
(I3
S'|'
p2246
NNNI2
I1
I0
tp2247
bS'RF'
p2248
tp2249
Rp2250
sg78
I3
sg158
g2223
sg79
g80
sg81
g11
(g15
S'\xa3>\xfd\xfcD\xd4\xe8?'
p2251
tp2252
Rp2253
sg85
g86
sg87
g88
sbag4
(g5
g6
Ntp2254
Rp2255
(dp2256
g10
g11
(g15
S'\x00\x00\x00\x00\x00\x00\xf8\xff'
p2257
tp2258
Rp2259
sg144
g11
(g15
S'\x00\x00\x00\x00\x00`i@'
p2260
tp2261
Rp2262
sg30
g31
sg21
g11
(g24
S'\x07\x00\x00\x00\x00\x00\x00\x00'
p2263
tp2264
Rp2265
sg32
(dp2266
g144
g2262
sg21
g2265
sg277
g11
(g24
S'\x02\x00\x00\x00\x00\x00\x00\x00'
p2267
tp2268
Rp2269
sg38
g11
(g24
S'\x02\x00\x00\x00\x00\x00\x00\x00'
p2270
tp2271
Rp2272
sg158
g11
(g15
S'\x94\x8d\x16\xfd\xc0\xde\xe7?'
p2273
tp2274
Rp2275
ssg46
g11
(g12
(S'S6'
p2276
I0
I1
tp2277
Rp2278
(I3
S'|'
p2279
NNNI6
I1
I0
tp2280
bS'ISOMAP'
p2281
tp2282
Rp2283
sg55
F0.2
sg38
g2272
sg56
g11
(g12
(S'S8'
p2284
I0
I1
tp2285
Rp2286
(I3
S'|'
p2287
NNNI8
I1
I0
tp2288
bS'haralick'
p2289
tp2290
Rp2291
sg277
g2269
sg65
g11
(g15
S'cE\t\xfc\x9f@\xe7?'
p2292
tp2293
Rp2294
sg69
g11
(g12
(S'S2'
p2295
I0
I1
tp2296
Rp2297
(I3
S'|'
p2298
NNNI2
I1
I0
tp2299
bS'RF'
p2300
tp2301
Rp2302
sg78
I3
sg158
g2275
sg79
g80
sg81
g11
(g15
S'{\xe6\x9b)pc\xe9?'
p2303
tp2304
Rp2305
sg85
g86
sg87
g88
sbag4
(g5
g6
Ntp2306
Rp2307
(dp2308
g10
g11
(g15
S'\x00\x00\x00\x00\x00\x00\xf8\xff'
p2309
tp2310
Rp2311
sg144
g11
(g15
S'\x00\x00\x00\x00\x00\x00D@'
p2312
tp2313
Rp2314
sg30
g31
sg21
g11
(g24
S'\x04\x00\x00\x00\x00\x00\x00\x00'
p2315
tp2316
Rp2317
sg32
(dp2318
g144
g2314
sg21
g2317
sg38
g11
(g24
S'\x03\x00\x00\x00\x00\x00\x00\x00'
p2319
tp2320
Rp2321
sg158
g11
(g15
S'E\xe9\x9ex\x91+\xde?'
p2322
tp2323
Rp2324
ssg46
g11
(g12
(S'S6'
p2325
I0
I1
tp2326
Rp2327
(I3
S'|'
p2328
NNNI6
I1
I0
tp2329
bS'ISOMAP'
p2330
tp2331
Rp2332
sg55
F0.2
sg38
g2321
sg56
g11
(g12
(S'S3'
p2333
I0
I1
tp2334
Rp2335
(I3
S'|'
p2336
NNNI3
I1
I0
tp2337
bS'VGG'
p2338
tp2339
Rp2340
sg65
g11
(g15
S'\x10\xf6\x9c\x10\'"\xef?'
p2341
tp2342
Rp2343
sg69
g11
(g12
(S'S2'
p2344
I0
I1
tp2345
Rp2346
(I3
S'|'
p2347
NNNI2
I1
I0
tp2348
bS'RF'
p2349
tp2350
Rp2351
sg78
I3
sg158
g2324
sg79
g80
sg81
g11
(g15
S'\xb5iN\xb4\xf1\xa2\xe9?'
p2352
tp2353
Rp2354
sg85
g86
sg87
g88
sbag4
(g5
g6
Ntp2355
Rp2356
(dp2357
g10
g11
(g15
S'\x00\x00\x00\x00\x00\x00\xf8\xff'
p2358
tp2359
Rp2360
sg21
g11
(g24
S'\x06\x00\x00\x00\x00\x00\x00\x00'
p2361
tp2362
Rp2363
sg30
g31
sg32
(dp2364
g21
g2363
sg34
g11
(g15
S'\xc3 S"\xce\xcf1@'
p2365
tp2366
Rp2367
sg38
g11
(g24
S'\x02\x00\x00\x00\x00\x00\x00\x00'
p2368
tp2369
Rp2370
sg42
g11
(g15
S'R\x99v\xb8f\xa8\xec?'
p2371
tp2372
Rp2373
ssg42
g2373
sg46
g11
(g12
(S'S6'
p2374
I0
I1
tp2375
Rp2376
(I3
S'|'
p2377
NNNI6
I1
I0
tp2378
bS'ISOMAP'
p2379
tp2380
Rp2381
sg55
F0.2
sg38
g2370
sg56
g11
(g12
(S'S9'
p2382
I0
I1
tp2383
Rp2384
(I3
S'|'
p2385
NNNI9
I1
I0
tp2386
bS'inception'
p2387
tp2388
Rp2389
sg34
g2367
sg65
g11
(g15
S'\xbcK\xd5\xb5y*\xe7?'
p2390
tp2391
Rp2392
sg69
g11
(g12
(S'S3'
p2393
I0
I1
tp2394
Rp2395
(I3
S'|'
p2396
NNNI3
I1
I0
tp2397
bS'SVM'
p2398
tp2399
Rp2400
sg78
I3
sg79
g80
sg81
g11
(g15
S'\xc3\xc8\x08\x9f\xf5W\xe3?'
p2401
tp2402
Rp2403
sg85
g86
sg87
g88
sbag4
(g5
g6
Ntp2404
Rp2405
(dp2406
g10
g11
(g15
S'\x00\x00\x00\x00\x00\x00\xf8\xff'
p2407
tp2408
Rp2409
sg144
g11
(g15
S'\x00\x00\x00\x00\x00\x00D@'
p2410
tp2411
Rp2412
sg30
g31
sg21
g11
(g24
S'\x03\x00\x00\x00\x00\x00\x00\x00'
p2413
tp2414
Rp2415
sg32
(dp2416
g144
g2412
sg21
g2415
sg38
g11
(g24
S'\x04\x00\x00\x00\x00\x00\x00\x00'
p2417
tp2418
Rp2419
sg158
g11
(g15
S'HY%\x19\t%\xe2?'
p2420
tp2421
Rp2422
ssg46
g11
(g12
(S'S6'
p2423
I0
I1
tp2424
Rp2425
(I3
S'|'
p2426
NNNI6
I1
I0
tp2427
bS'ISOMAP'
p2428
tp2429
Rp2430
sg55
F0.2
sg38
g2419
sg56
g11
(g12
(S'S9'
p2431
I0
I1
tp2432
Rp2433
(I3
S'|'
p2434
NNNI9
I1
I0
tp2435
bS'inception'
p2436
tp2437
Rp2438
sg65
g11
(g15
S'`\xff\x92\xc3\xa4\xd9\xfe?'
p2439
tp2440
Rp2441
sg69
g11
(g12
(S'S2'
p2442
I0
I1
tp2443
Rp2444
(I3
S'|'
p2445
NNNI2
I1
I0
tp2446
bS'RF'
p2447
tp2448
Rp2449
sg78
I3
sg158
g2422
sg79
g80
sg81
g11
(g15
S'?\x03\x1f\x8b\x94L\xe5?'
p2450
tp2451
Rp2452
sg85
g86
sg87
g88
sbag4
(g5
g6
Ntp2453
Rp2454
(dp2455
g10
g11
(g15
S'\x00\x00\x00\x00\x00\x00\xf8\xff'
p2456
tp2457
Rp2458
sg144
g11
(g15
S'\x00\x00\x00\x00\x00\x00 @'
p2459
tp2460
Rp2461
sg148
g156
sg30
g31
sg32
(dp2462
g144
g2461
sg158
g11
(g15
S'D\xa8S\xbe\x83\xf0\xd9?'
p2463
tp2464
Rp2465
sg148
g156
sg277
g11
(g24
S'\x03\x00\x00\x00\x00\x00\x00\x00'
p2466
tp2467
Rp2468
ssg46
g11
(g12
(S'S3'
p2469
I0
I1
tp2470
Rp2471
(I3
S'|'
p2472
NNNI3
I1
I0
tp2473
bS'PCA'
p2474
tp2475
Rp2476
sg55
F0.2
sg56
g11
(g12
(S'S8'
p2477
I0
I1
tp2478
Rp2479
(I3
S'|'
p2480
NNNI8
I1
I0
tp2481
bS'haralick'
p2482
tp2483
Rp2484
sg277
g2468
sg65
g11
(g15
S'\xf6|1=\xb4\x0c\x12@'
p2485
tp2486
Rp2487
sg69
g11
(g12
(S'S2'
p2488
I0
I1
tp2489
Rp2490
(I3
S'|'
p2491
NNNI2
I1
I0
tp2492
bS'RF'
p2493
tp2494
Rp2495
sg78
I3
sg158
g2465
sg79
g80
sg81
g11
(g15
S'\xad\x8a\xca\xa7\x1f\x9d\xe6?'
p2496
tp2497
Rp2498
sg85
g86
sg87
g88
sbag4
(g5
g6
Ntp2499
Rp2500
(dp2501
g10
g11
(g15
S'\x00\x00\x00\x00\x00\x00\xf8\xff'
p2502
tp2503
Rp2504
sg144
g11
(g15
S'\x00\x00\x00\x00\x00@Z@'
p2505
tp2506
Rp2507
sg148
g306
sg30
g31
sg32
(dp2508
g144
g2507
sg158
g11
(g15
S'\xcem\xe4\xb8\x1fQ\xd3?'
p2509
tp2510
Rp2511
sg148
g306
sg277
g11
(g24
S'\x01\x00\x00\x00\x00\x00\x00\x00'
p2512
tp2513
Rp2514
ssg46
g11
(g12
(S'S3'
p2515
I0
I1
tp2516
Rp2517
(I3
S'|'
p2518
NNNI3
I1
I0
tp2519
bS'PCA'
p2520
tp2521
Rp2522
sg55
F0.2
sg56
g11
(g12
(S'S8'
p2523
I0
I1
tp2524
Rp2525
(I3
S'|'
p2526
NNNI8
I1
I0
tp2527
bS'haralick'
p2528
tp2529
Rp2530
sg277
g2514
sg65
g11
(g15
S'\xd1\xda]g\xff\x8d\x02@'
p2531
tp2532
Rp2533
sg69
g11
(g12
(S'S2'
p2534
I0
I1
tp2535
Rp2536
(I3
S'|'
p2537
NNNI2
I1
I0
tp2538
bS'RF'
p2539
tp2540
Rp2541
sg78
I3
sg158
g2511
sg79
g80
sg81
g11
(g15
S'\xbd\x81\x89\xea\xdai\xe7?'
p2542
tp2543
Rp2544
sg85
g86
sg87
g88
sbag4
(g5
g6
Ntp2545
Rp2546
(dp2547
g10
g11
(g15
S'\x00\x00\x00\x00\x00\x00\xf8\xff'
p2548
tp2549
Rp2550
sg144
g11
(g15
S'\x00\x00\x00\x00\x00@a@'
p2551
tp2552
Rp2553
sg30
g31
sg21
g11
(g24
S'\x06\x00\x00\x00\x00\x00\x00\x00'
p2554
tp2555
Rp2556
sg32
(dp2557
g144
g2553
sg21
g2556
sg277
g11
(g24
S'\x03\x00\x00\x00\x00\x00\x00\x00'
p2558
tp2559
Rp2560
sg38
g11
(g24
S'\x03\x00\x00\x00\x00\x00\x00\x00'
p2561
tp2562
Rp2563
sg158
g11
(g15
S'\xe65R\xb9\xf7\xc6\xde?'
p2564
tp2565
Rp2566
ssg46
g11
(g12
(S'S6'
p2567
I0
I1
tp2568
Rp2569
(I3
S'|'
p2570
NNNI6
I1
I0
tp2571
bS'ISOMAP'
p2572
tp2573
Rp2574
sg55
F0.2
sg38
g2563
sg56
g11
(g12
(S'S8'
p2575
I0
I1
tp2576
Rp2577
(I3
S'|'
p2578
NNNI8
I1
I0
tp2579
bS'haralick'
p2580
tp2581
Rp2582
sg277
g2560
sg65
g11
(g15
S'!\xdc\xbe\xf3?-\xef?'
p2583
tp2584
Rp2585
sg69
g11
(g12
(S'S2'
p2586
I0
I1
tp2587
Rp2588
(I3
S'|'
p2589
NNNI2
I1
I0
tp2590
bS'RF'
p2591
tp2592
Rp2593
sg78
I3
sg158
g2566
sg79
g80
sg81
g11
(g15
S'M\xd3\xfe\xc8qB\xea?'
p2594
tp2595
Rp2596
sg85
g86
sg87
g88
sbag4
(g5
g6
Ntp2597
Rp2598
(dp2599
g10
g11
(g15
S'\x00\x00\x00\x00\x00\x00\xf8\xff'
p2600
tp2601
Rp2602
sg144
g11
(g15
S'\x00\x00\x00\x00\x00`m@'
p2603
tp2604
Rp2605
sg30
g31
sg21
g11
(g24
S'\x04\x00\x00\x00\x00\x00\x00\x00'
p2606
tp2607
Rp2608
sg32
(dp2609
g144
g2605
sg21
g2608
sg38
g11
(g24
S'\x04\x00\x00\x00\x00\x00\x00\x00'
p2610
tp2611
Rp2612
sg158
g11
(g15
S'[/\xb9z-0\xe9?'
p2613
tp2614
Rp2615
ssg46
g11
(g12
(S'S6'
p2616
I0
I1
tp2617
Rp2618
(I3
S'|'
p2619
NNNI6
I1
I0
tp2620
bS'ISOMAP'
p2621
tp2622
Rp2623
sg55
F0.2
sg38
g2612
sg56
g11
(g12
(S'S9'
p2624
I0
I1
tp2625
Rp2626
(I3
S'|'
p2627
NNNI9
I1
I0
tp2628
bS'inception'
p2629
tp2630
Rp2631
sg65
g11
(g15
S'\xdd7VTA\x96\xee?'
p2632
tp2633
Rp2634
sg69
g11
(g12
(S'S2'
p2635
I0
I1
tp2636
Rp2637
(I3
S'|'
p2638
NNNI2
I1
I0
tp2639
bS'RF'
p2640
tp2641
Rp2642
sg78
I3
sg158
g2615
sg79
g80
sg81
g11
(g15
S'C\xc2\x1b<\x9eK\xe6?'
p2643
tp2644
Rp2645
sg85
g86
sg87
g88
sbag4
(g5
g6
Ntp2646
Rp2647
(dp2648
g10
g11
(g15
S'\x00\x00\x00\x00\x00\x00\xf8\xff'
p2649
tp2650
Rp2651
sg148
g156
sg30
g31
sg32
(dp2652
g148
g156
sg34
g11
(g15
S'I\xde\x8c.c\xc6Q@'
p2653
tp2654
Rp2655
sg42
g11
(g15
S'\xf4\x80F`z\xef\xd5?'
p2656
tp2657
Rp2658
ssg46
g11
(g12
(S'S3'
p2659
I0
I1
tp2660
Rp2661
(I3
S'|'
p2662
NNNI3
I1
I0
tp2663
bS'PCA'
p2664
tp2665
Rp2666
sg55
F0.2
sg42
g2658
sg56
g11
(g12
(S'S3'
p2667
I0
I1
tp2668
Rp2669
(I3
S'|'
p2670
NNNI3
I1
I0
tp2671
bS'VGG'
p2672
tp2673
Rp2674
sg34
g2655
sg65
g11
(g15
S'\xf0-Q\xb3\xa3m\xdd?'
p2675
tp2676
Rp2677
sg69
g11
(g12
(S'S3'
p2678
I0
I1
tp2679
Rp2680
(I3
S'|'
p2681
NNNI3
I1
I0
tp2682
bS'SVM'
p2683
tp2684
Rp2685
sg78
I3
sg79
g80
sg81
g11
(g15
S'\xb3K\xab\xd6\xc3>\xea?'
p2686
tp2687
Rp2688
sg85
g86
sg87
g88
sbag4
(g5
g6
Ntp2689
Rp2690
(dp2691
g10
g11
(g15
S'\x00\x00\x00\x00\x00\x00\xf8\xff'
p2692
tp2693
Rp2694
sg144
g11
(g15
S'\x00\x00\x00\x00\x00`m@'
p2695
tp2696
Rp2697
sg30
g31
sg21
g11
(g24
S'\x06\x00\x00\x00\x00\x00\x00\x00'
p2698
tp2699
Rp2700
sg32
(dp2701
g144
g2697
sg21
g2700
sg38
g11
(g24
S'\x03\x00\x00\x00\x00\x00\x00\x00'
p2702
tp2703
Rp2704
sg158
g11
(g15
S'\xd2\x0e;g\x14\xe8\xef?'
p2705
tp2706
Rp2707
ssg46
g11
(g12
(S'S6'
p2708
I0
I1
tp2709
Rp2710
(I3
S'|'
p2711
NNNI6
I1
I0
tp2712
bS'ISOMAP'
p2713
tp2714
Rp2715
sg55
F0.2
sg38
g2704
sg56
g11
(g12
(S'S3'
p2716
I0
I1
tp2717
Rp2718
(I3
S'|'
p2719
NNNI3
I1
I0
tp2720
bS'VGG'
p2721
tp2722
Rp2723
sg65
g11
(g15
S"\xb5\xf6\x83`9'\xe6?"
p2724
tp2725
Rp2726
sg69
g11
(g12
(S'S2'
p2727
I0
I1
tp2728
Rp2729
(I3
S'|'
p2730
NNNI2
I1
I0
tp2731
bS'RF'
p2732
tp2733
Rp2734
sg78
I3
sg158
g2707
sg79
g80
sg81
g11
(g15
S'\x17*\xf1\xf6 \xa3\xe9?'
p2735
tp2736
Rp2737
sg85
g86
sg87
g88
sbag4
(g5
g6
Ntp2738
Rp2739
(dp2740
g10
g11
(g15
S'\x00\x00\x00\x00\x00\x00\xf8\xff'
p2741
tp2742
Rp2743
sg144
g11
(g15
S'\x00\x00\x00\x00\x00\x00D@'
p2744
tp2745
Rp2746
sg30
g31
sg21
g11
(g24
S'\x04\x00\x00\x00\x00\x00\x00\x00'
p2747
tp2748
Rp2749
sg32
(dp2750
g144
g2746
sg21
g2749
sg277
g11
(g24
S'\x03\x00\x00\x00\x00\x00\x00\x00'
p2751
tp2752
Rp2753
sg38
g11
(g24
S'\x02\x00\x00\x00\x00\x00\x00\x00'
p2754
tp2755
Rp2756
sg158
g11
(g15
S'\x9ef\n#\x94\xd0\xed?'
p2757
tp2758
Rp2759
ssg46
g11
(g12
(S'S6'
p2760
I0
I1
tp2761
Rp2762
(I3
S'|'
p2763
NNNI6
I1
I0
tp2764
bS'ISOMAP'
p2765
tp2766
Rp2767
sg55
F0.2
sg38
g2756
sg56
g11
(g12
(S'S8'
p2768
I0
I1
tp2769
Rp2770
(I3
S'|'
p2771
NNNI8
I1
I0
tp2772
bS'haralick'
p2773
tp2774
Rp2775
sg277
g2753
sg65
g11
(g15
S'i\xfdD\x89\xd0\xdc\xf8?'
p2776
tp2777
Rp2778
sg69
g11
(g12
(S'S2'
p2779
I0
I1
tp2780
Rp2781
(I3
S'|'
p2782
NNNI2
I1
I0
tp2783
bS'RF'
p2784
tp2785
Rp2786
sg78
I3
sg158
g2759
sg79
g80
sg81
g11
(g15
S'\x1b\xe9$\x94*\x93\xe9?'
p2787
tp2788
Rp2789
sg85
g86
sg87
g88
sbag4
(g5
g6
Ntp2790
Rp2791
(dp2792
g10
g11
(g15
S'\x00\x00\x00\x00\x00\x00\xf8\xff'
p2793
tp2794
Rp2795
sg144
g11
(g15
S'\x00\x00\x00\x00\x00\xc0r@'
p2796
tp2797
Rp2798
sg30
g31
sg21
g11
(g24
S'\x07\x00\x00\x00\x00\x00\x00\x00'
p2799
tp2800
Rp2801
sg32
(dp2802
g144
g2798
sg21
g2801
sg38
g11
(g24
S'\x02\x00\x00\x00\x00\x00\x00\x00'
p2803
tp2804
Rp2805
sg158
g11
(g15
S'\xd7\xfc\x04\x8a\x8fI\xe0?'
p2806
tp2807
Rp2808
ssg46
g11
(g12
(S'S6'
p2809
I0
I1
tp2810
Rp2811
(I3
S'|'
p2812
NNNI6
I1
I0
tp2813
bS'ISOMAP'
p2814
tp2815
Rp2816
sg55
F0.2
sg38
g2805
sg56
g11
(g12
(S'S3'
p2817
I0
I1
tp2818
Rp2819
(I3
S'|'
p2820
NNNI3
I1
I0
tp2821
bS'VGG'
p2822
tp2823
Rp2824
sg65
g11
(g15
S'\x19\x06\xcc0sm\xe7?'
p2825
tp2826
Rp2827
sg69
g11
(g12
(S'S2'
p2828
I0
I1
tp2829
Rp2830
(I3
S'|'
p2831
NNNI2
I1
I0
tp2832
bS'RF'
p2833
tp2834
Rp2835
sg78
I3
sg158
g2808
sg79
g80
sg81
g11
(g15
S'\x0b\tp\xba\x97\xc1\xe9?'
p2836
tp2837
Rp2838
sg85
g86
sg87
g88
sbag4
(g5
g6
Ntp2839
Rp2840
(dp2841
g10
g11
(g15
S'\x00\x00\x00\x00\x00\x00\xf8\xff'
p2842
tp2843
Rp2844
sg148
g306
sg30
g31
sg32
(dp2845
g148
g306
sg34
g11
(g15
S'\x04\x02@su<X@'
p2846
tp2847
Rp2848
sg42
g11
(g15
S'y\x1dV\x10\x0b\xe5\xee?'
p2849
tp2850
Rp2851
ssg46
g11
(g12
(S'S3'
p2852
I0
I1
tp2853
Rp2854
(I3
S'|'
p2855
NNNI3
I1
I0
tp2856
bS'PCA'
p2857
tp2858
Rp2859
sg55
F0.2
sg42
g2851
sg56
g11
(g12
(S'S9'
p2860
I0
I1
tp2861
Rp2862
(I3
S'|'
p2863
NNNI9
I1
I0
tp2864
bS'inception'
p2865
tp2866
Rp2867
sg34
g2848
sg65
g11
(g15
S'\xd0\xa8uE\xfd\x8a\xe3?'
p2868
tp2869
Rp2870
sg69
g11
(g12
(S'S3'
p2871
I0
I1
tp2872
Rp2873
(I3
S'|'
p2874
NNNI3
I1
I0
tp2875
bS'SVM'
p2876
tp2877
Rp2878
sg78
I3
sg79
g80
sg81
g11
(g15
S'\x0c\xaa\xdb`T~\xe5?'
p2879
tp2880
Rp2881
sg85
g86
sg87
g88
sbag4
(g5
g6
Ntp2882
Rp2883
(dp2884
g10
g11
(g15
S'\x00\x00\x00\x00\x00\x00\xf8\xff'
p2885
tp2886
Rp2887
sg148
g156
sg30
g31
sg32
(dp2888
g148
g156
sg34
g11
(g15
S'3\xc4\xdf@\xcf@\x17@'
p2889
tp2890
Rp2891
sg42
g11
(g15
S'o\x16l\x14\xe8\xc1\x15@'
p2892
tp2893
Rp2894
ssg46
g11
(g12
(S'S3'
p2895
I0
I1
tp2896
Rp2897
(I3
S'|'
p2898
NNNI3
I1
I0
tp2899
bS'PCA'
p2900
tp2901
Rp2902
sg55
F0.2
sg42
g2894
sg56
g11
(g12
(S'S3'
p2903
I0
I1
tp2904
Rp2905
(I3
S'|'
p2906
NNNI3
I1
I0
tp2907
bS'VGG'
p2908
tp2909
Rp2910
sg34
g2891
sg65
g11
(g15
S'\xdb\x0e\x1a\x84\xe6\x87\xe6?'
p2911
tp2912
Rp2913
sg69
g11
(g12
(S'S3'
p2914
I0
I1
tp2915
Rp2916
(I3
S'|'
p2917
NNNI3
I1
I0
tp2918
bS'SVM'
p2919
tp2920
Rp2921
sg78
I3
sg79
g80
sg81
g11
(g15
S'\xb0\xaa\xbdG\xaa_\xe5?'
p2922
tp2923
Rp2924
sg85
g86
sg87
g88
sbag4
(g5
g6
Ntp2925
Rp2926
(dp2927
g10
g11
(g15
S'\x00\x00\x00\x00\x00\x00\xf8\xff'
p2928
tp2929
Rp2930
sg144
g11
(g15
S'\x00\x00\x00\x00\x00\x00 @'
p2931
tp2932
Rp2933
sg148
g306
sg30
g31
sg32
(dp2934
g144
g2933
sg158
g11
(g15
S'\x8e\xca\x88\xd5j\xb8\xed?'
p2935
tp2936
Rp2937
sg148
g306
ssg46
g11
(g12
(S'S3'
p2938
I0
I1
tp2939
Rp2940
(I3
S'|'
p2941
NNNI3
I1
I0
tp2942
bS'PCA'
p2943
tp2944
Rp2945
sg55
F0.2
sg56
g11
(g12
(S'S9'
p2946
I0
I1
tp2947
Rp2948
(I3
S'|'
p2949
NNNI9
I1
I0
tp2950
bS'inception'
p2951
tp2952
Rp2953
sg65
g11
(g15
S'\xf5E\xa1\x14\x1f\xf8\xfb?'
p2954
tp2955
Rp2956
sg69
g11
(g12
(S'S2'
p2957
I0
I1
tp2958
Rp2959
(I3
S'|'
p2960
NNNI2
I1
I0
tp2961
bS'RF'
p2962
tp2963
Rp2964
sg78
I3
sg158
g2937
sg79
g80
sg81
g11
(g15
S'\x93\x81\x18\x01\xb8\xa7\xe7?'
p2965
tp2966
Rp2967
sg85
g86
sg87
g88
sbag4
(g5
g6
Ntp2968
Rp2969
(dp2970
g10
g11
(g15
S'\x00\x00\x00\x00\x00\x00\xf8\xff'
p2971
tp2972
Rp2973
sg144
g11
(g15
S'\x00\x00\x00\x00\x00\x00 @'
p2974
tp2975
Rp2976
sg148
g156
sg30
g31
sg32
(dp2977
g144
g2976
sg158
g11
(g15
S'8\x9fks\xa4\xe6\xe4?'
p2978
tp2979
Rp2980
sg148
g156
ssg46
g11
(g12
(S'S3'
p2981
I0
I1
tp2982
Rp2983
(I3
S'|'
p2984
NNNI3
I1
I0
tp2985
bS'PCA'
p2986
tp2987
Rp2988
sg55
F0.2
sg56
g11
(g12
(S'S9'
p2989
I0
I1
tp2990
Rp2991
(I3
S'|'
p2992
NNNI9
I1
I0
tp2993
bS'inception'
p2994
tp2995
Rp2996
sg65
g11
(g15
S'\x0f\x11#hr\x01\xf9?'
p2997
tp2998
Rp2999
sg69
g11
(g12
(S'S2'
p3000
I0
I1
tp3001
Rp3002
(I3
S'|'
p3003
NNNI2
I1
I0
tp3004
bS'RF'
p3005
tp3006
Rp3007
sg78
I3
sg158
g2980
sg79
g80
sg81
g11
(g15
S'[+\x97,A\x85\xe8?'
p3008
tp3009
Rp3010
sg85
g86
sg87
g88
sbag4
(g5
g6
Ntp3011
Rp3012
(dp3013
g10
g11
(g15
S'\x00\x00\x00\x00\x00\x00\xf8\xff'
p3014
tp3015
Rp3016
sg144
g11
(g15
S'\x00\x00\x00\x00\x00@R@'
p3017
tp3018
Rp3019
sg148
g306
sg30
g31
sg32
(dp3020
g144
g3019
sg158
g11
(g15
S'(\x19\x1b_\xdfb\xef?'
p3021
tp3022
Rp3023
sg148
g306
sg277
g11
(g24
S'\x02\x00\x00\x00\x00\x00\x00\x00'
p3024
tp3025
Rp3026
ssg46
g11
(g12
(S'S3'
p3027
I0
I1
tp3028
Rp3029
(I3
S'|'
p3030
NNNI3
I1
I0
tp3031
bS'PCA'
p3032
tp3033
Rp3034
sg55
F0.2
sg56
g11
(g12
(S'S8'
p3035
I0
I1
tp3036
Rp3037
(I3
S'|'
p3038
NNNI8
I1
I0
tp3039
bS'haralick'
p3040
tp3041
Rp3042
sg277
g3026
sg65
g11
(g15
S'\xf9\xca$\x9a\xaa\xfd\x02@'
p3043
tp3044
Rp3045
sg69
g11
(g12
(S'S2'
p3046
I0
I1
tp3047
Rp3048
(I3
S'|'
p3049
NNNI2
I1
I0
tp3050
bS'RF'
p3051
tp3052
Rp3053
sg78
I3
sg158
g3023
sg79
g80
sg81
g11
(g15
S'D\xf1H\xfa\x98\x88\xe7?'
p3054
tp3055
Rp3056
sg85
g86
sg87
g88
sbag4
(g5
g6
Ntp3057
Rp3058
(dp3059
g10
g11
(g15
S'\x00\x00\x00\x00\x00\x00\xf8\xff'
p3060
tp3061
Rp3062
sg21
g11
(g24
S'\x04\x00\x00\x00\x00\x00\x00\x00'
p3063
tp3064
Rp3065
sg30
g31
sg32
(dp3066
g21
g3065
sg34
g11
(g15
S'\xab\x04\xf19F\tW@'
p3067
tp3068
Rp3069
sg277
g11
(g24
S'\x03\x00\x00\x00\x00\x00\x00\x00'
p3070
tp3071
Rp3072
sg38
g11
(g24
S'\x03\x00\x00\x00\x00\x00\x00\x00'
p3073
tp3074
Rp3075
sg42
g11
(g15
S'\xd2u3K\xecs\x14@'
p3076
tp3077
Rp3078
ssg42
g3078
sg46
g11
(g12
(S'S6'
p3079
I0
I1
tp3080
Rp3081
(I3
S'|'
p3082
NNNI6
I1
I0
tp3083
bS'ISOMAP'
p3084
tp3085
Rp3086
sg55
F0.2
sg38
g3075
sg56
g11
(g12
(S'S8'
p3087
I0
I1
tp3088
Rp3089
(I3
S'|'
p3090
NNNI8
I1
I0
tp3091
bS'haralick'
p3092
tp3093
Rp3094
sg34
g3069
sg277
g3072
sg65
g11
(g15
S'\xddRM\xb3\xcdB\xe0?'
p3095
tp3096
Rp3097
sg69
g11
(g12
(S'S3'
p3098
I0
I1
tp3099
Rp3100
(I3
S'|'
p3101
NNNI3
I1
I0
tp3102
bS'SVM'
p3103
tp3104
Rp3105
sg78
I3
sg79
g80
sg81
g11
(g15
S'?N\xf8\x0b#\x96\xe8?'
p3106
tp3107
Rp3108
sg85
g86
sg87
g88
sbag4
(g5
g6
Ntp3109
Rp3110
(dp3111
g10
g11
(g15
S'\x00\x00\x00\x00\x00\x00\xf8\xff'
p3112
tp3113
Rp3114
sg144
g11
(g15
S'\x00\x00\x00\x00\x00@e@'
p3115
tp3116
Rp3117
sg148
g156
sg30
g31
sg32
(dp3118
g144
g3117
sg158
g11
(g15
S'n\xde\xd9\xaaF[\xe0?'
p3119
tp3120
Rp3121
sg148
g156
sg277
g11
(g24
S'\x03\x00\x00\x00\x00\x00\x00\x00'
p3122
tp3123
Rp3124
ssg46
g11
(g12
(S'S3'
p3125
I0
I1
tp3126
Rp3127
(I3
S'|'
p3128
NNNI3
I1
I0
tp3129
bS'PCA'
p3130
tp3131
Rp3132
sg55
F0.2
sg56
g11
(g12
(S'S8'
p3133
I0
I1
tp3134
Rp3135
(I3
S'|'
p3136
NNNI8
I1
I0
tp3137
bS'haralick'
p3138
tp3139
Rp3140
sg277
g3124
sg65
g11
(g15
S'\x89\xd9\xb3\x03<K\x01@'
p3141
tp3142
Rp3143
sg69
g11
(g12
(S'S2'
p3144
I0
I1
tp3145
Rp3146
(I3
S'|'
p3147
NNNI2
I1
I0
tp3148
bS'RF'
p3149
tp3150
Rp3151
sg78
I3
sg158
g3121
sg79
g80
sg81
g11
(g15
S'\x94\x8a\xcaK\x1a~\xe6?'
p3152
tp3153
Rp3154
sg85
g86
sg87
g88
sbag4
(g5
g6
Ntp3155
Rp3156
(dp3157
g10
g11
(g15
S'\x00\x00\x00\x00\x00\x00\xf8\xff'
p3158
tp3159
Rp3160
sg21
g11
(g24
S'\x03\x00\x00\x00\x00\x00\x00\x00'
p3161
tp3162
Rp3163
sg30
g31
sg32
(dp3164
g21
g3163
sg34
g11
(g15
S'\xc3\xd9kk\xa6\xb0S@'
p3165
tp3166
Rp3167
sg277
g11
(g24
S'\x01\x00\x00\x00\x00\x00\x00\x00'
p3168
tp3169
Rp3170
sg38
g11
(g24
S'\x04\x00\x00\x00\x00\x00\x00\x00'
p3171
tp3172
Rp3173
sg42
g11
(g15
S'\xcfD\x04c[\x19\xdb?'
p3174
tp3175
Rp3176
ssg42
g3176
sg46
g11
(g12
(S'S6'
p3177
I0
I1
tp3178
Rp3179
(I3
S'|'
p3180
NNNI6
I1
I0
tp3181
bS'ISOMAP'
p3182
tp3183
Rp3184
sg55
F0.2
sg38
g3173
sg56
g11
(g12
(S'S8'
p3185
I0
I1
tp3186
Rp3187
(I3
S'|'
p3188
NNNI8
I1
I0
tp3189
bS'haralick'
p3190
tp3191
Rp3192
sg34
g3167
sg277
g3170
sg65
g11
(g15
S'\x9bu\x91\xa6>\x1d\xe8?'
p3193
tp3194
Rp3195
sg69
g11
(g12
(S'S3'
p3196
I0
I1
tp3197
Rp3198
(I3
S'|'
p3199
NNNI3
I1
I0
tp3200
bS'SVM'
p3201
tp3202
Rp3203
sg78
I3
sg79
g80
sg81
g11
(g15
S'\xcd\xe4\x06\x8d\xfc\x93\xe3?'
p3204
tp3205
Rp3206
sg85
g86
sg87
g88
sbag4
(g5
g6
Ntp3207
Rp3208
(dp3209
g10
g11
(g15
S'\x00\x00\x00\x00\x00\x00\xf8\xff'
p3210
tp3211
Rp3212
sg144
g11
(g15
S'\x00\x00\x00\x00\x00\xc0r@'
p3213
tp3214
Rp3215
sg148
g306
sg30
g31
sg32
(dp3216
g144
g3215
sg158
g11
(g15
S'\x1e\xc9\xe8\xad\xa9\x19\xef?'
p3217
tp3218
Rp3219
sg148
g306
ssg46
g11
(g12
(S'S3'
p3220
I0
I1
tp3221
Rp3222
(I3
S'|'
p3223
NNNI3
I1
I0
tp3224
bS'PCA'
p3225
tp3226
Rp3227
sg55
F0.2
sg56
g11
(g12
(S'S9'
p3228
I0
I1
tp3229
Rp3230
(I3
S'|'
p3231
NNNI9
I1
I0
tp3232
bS'inception'
p3233
tp3234
Rp3235
sg65
g11
(g15
S'\x85\x18a\xa3-\x11\xe7?'
p3236
tp3237
Rp3238
sg69
g11
(g12
(S'S2'
p3239
I0
I1
tp3240
Rp3241
(I3
S'|'
p3242
NNNI2
I1
I0
tp3243
bS'RF'
p3244
tp3245
Rp3246
sg78
I3
sg158
g3219
sg79
g80
sg81
g11
(g15
S'\xc1\xc6\xdc+\x995\xe8?'
p3247
tp3248
Rp3249
sg85
g86
sg87
g88
sbag4
(g5
g6
Ntp3250
Rp3251
(dp3252
g10
g11
(g15
S'\x00\x00\x00\x00\x00\x00\xf8\xff'
p3253
tp3254
Rp3255
sg144
g11
(g15
S'\x00\x00\x00\x00\x00@a@'
p3256
tp3257
Rp3258
sg30
g31
sg21
g11
(g24
S'\x06\x00\x00\x00\x00\x00\x00\x00'
p3259
tp3260
Rp3261
sg32
(dp3262
g144
g3258
sg21
g3261
sg277
g11
(g24
S'\x02\x00\x00\x00\x00\x00\x00\x00'
p3263
tp3264
Rp3265
sg38
g11
(g24
S'\x02\x00\x00\x00\x00\x00\x00\x00'
p3266
tp3267
Rp3268
sg158
g11
(g15
S"0'\xdc\t\xd0\xdd\xe8?"
p3269
tp3270
Rp3271
ssg46
g11
(g12
(S'S6'
p3272
I0
I1
tp3273
Rp3274
(I3
S'|'
p3275
NNNI6
I1
I0
tp3276
bS'ISOMAP'
p3277
tp3278
Rp3279
sg55
F0.2
sg38
g3268
sg56
g11
(g12
(S'S8'
p3280
I0
I1
tp3281
Rp3282
(I3
S'|'
p3283
NNNI8
I1
I0
tp3284
bS'haralick'
p3285
tp3286
Rp3287
sg277
g3265
sg65
g11
(g15
S'\x1b\t\xa7L\xa8@\xee?'
p3288
tp3289
Rp3290
sg69
g11
(g12
(S'S2'
p3291
I0
I1
tp3292
Rp3293
(I3
S'|'
p3294
NNNI2
I1
I0
tp3295
bS'RF'
p3296
tp3297
Rp3298
sg78
I3
sg158
g3271
sg79
g80
sg81
g11
(g15
S'S\x8e:V\x9b\xf2\xe9?'
p3299
tp3300
Rp3301
sg85
g86
sg87
g88
sbag4
(g5
g6
Ntp3302
Rp3303
(dp3304
g10
g11
(g15
S'\x00\x00\x00\x00\x00\x00\xf8\xff'
p3305
tp3306
Rp3307
sg148
g306
sg30
g31
sg32
(dp3308
g148
g306
sg34
g11
(g15
S'F\xff\x97\x08\x9bT?@'
p3309
tp3310
Rp3311
sg42
g11
(g15
S"\xe7\x1aOa'\xe6\x1b@"
p3312
tp3313
Rp3314
ssg46
g11
(g12
(S'S3'
p3315
I0
I1
tp3316
Rp3317
(I3
S'|'
p3318
NNNI3
I1
I0
tp3319
bS'PCA'
p3320
tp3321
Rp3322
sg55
F0.2
sg42
g3314
sg56
g11
(g12
(S'S3'
p3323
I0
I1
tp3324
Rp3325
(I3
S'|'
p3326
NNNI3
I1
I0
tp3327
bS'VGG'
p3328
tp3329
Rp3330
sg34
g3311
sg65
g11
(g15
S'}\xbfV\xbd\x1a[\xe8?'
p3331
tp3332
Rp3333
sg69
g11
(g12
(S'S3'
p3334
I0
I1
tp3335
Rp3336
(I3
S'|'
p3337
NNNI3
I1
I0
tp3338
bS'SVM'
p3339
tp3340
Rp3341
sg78
I3
sg79
g80
sg81
g11
(g15
S'\x15\xf5;e\x18\xc2\xe4?'
p3342
tp3343
Rp3344
sg85
g86
sg87
g88
sbag4
(g5
g6
Ntp3345
Rp3346
(dp3347
g10
g11
(g15
S'\x00\x00\x00\x00\x00\x00\xf8\xff'
p3348
tp3349
Rp3350
sg144
g11
(g15
S'\x00\x00\x00\x00\x00@R@'
p3351
tp3352
Rp3353
sg148
g156
sg30
g31
sg32
(dp3354
g144
g3353
sg158
g11
(g15
S'\xc2\x90+P\xa7!\xe9?'
p3355
tp3356
Rp3357
sg148
g156
ssg46
g11
(g12
(S'S3'
p3358
I0
I1
tp3359
Rp3360
(I3
S'|'
p3361
NNNI3
I1
I0
tp3362
bS'PCA'
p3363
tp3364
Rp3365
sg55
F0.2
sg56
g11
(g12
(S'S9'
p3366
I0
I1
tp3367
Rp3368
(I3
S'|'
p3369
NNNI9
I1
I0
tp3370
bS'inception'
p3371
tp3372
Rp3373
sg65
g11
(g15
S'\xad\xd4\n\x9ei\xae\xe6?'
p3374
tp3375
Rp3376
sg69
g11
(g12
(S'S2'
p3377
I0
I1
tp3378
Rp3379
(I3
S'|'
p3380
NNNI2
I1
I0
tp3381
bS'RF'
p3382
tp3383
Rp3384
sg78
I3
sg158
g3357
sg79
g80
sg81
g11
(g15
S'\xb3Y\x8a!\xfeU\xe8?'
p3385
tp3386
Rp3387
sg85
g86
sg87
g88
sbag4
(g5
g6
Ntp3388
Rp3389
(dp3390
g10
g11
(g15
S'\x00\x00\x00\x00\x00\x00\xf8\xff'
p3391
tp3392
Rp3393
sg144
g11
(g15
S'\x00\x00\x00\x00\x00@a@'
p3394
tp3395
Rp3396
sg148
g156
sg30
g31
sg32
(dp3397
g144
g3396
sg158
g11
(g15
S'&\x97=\x8d\x8eI\xdf?'
p3398
tp3399
Rp3400
sg148
g156
sg277
g11
(g24
S'\x02\x00\x00\x00\x00\x00\x00\x00'
p3401
tp3402
Rp3403
ssg46
g11
(g12
(S'S3'
p3404
I0
I1
tp3405
Rp3406
(I3
S'|'
p3407
NNNI3
I1
I0
tp3408
bS'PCA'
p3409
tp3410
Rp3411
sg55
F0.2
sg56
g11
(g12
(S'S8'
p3412
I0
I1
tp3413
Rp3414
(I3
S'|'
p3415
NNNI8
I1
I0
tp3416
bS'haralick'
p3417
tp3418
Rp3419
sg277
g3403
sg65
g11
(g15
S'k\x1a\xf8C\xe4\x99\x02@'
p3420
tp3421
Rp3422
sg69
g11
(g12
(S'S2'
p3423
I0
I1
tp3424
Rp3425
(I3
S'|'
p3426
NNNI2
I1
I0
tp3427
bS'RF'
p3428
tp3429
Rp3430
sg78
I3
sg158
g3400
sg79
g80
sg81
g11
(g15
S'D\xf1H\xfa\x98\x88\xe7?'
p3431
tp3432
Rp3433
sg85
g86
sg87
g88
sbag4
(g5
g6
Ntp3434
Rp3435
(dp3436
g10
g11
(g15
S'\x00\x00\x00\x00\x00\x00\xf8\xff'
p3437
tp3438
Rp3439
sg144
g11
(g15
S'\x00\x00\x00\x00\x00@Z@'
p3440
tp3441
Rp3442
sg148
g306
sg30
g31
sg32
(dp3443
g144
g3442
sg158
g11
(g15
S'\xa6\x8e\xd7/\x14x\xdb?'
p3444
tp3445
Rp3446
sg148
g306
ssg46
g11
(g12
(S'S3'
p3447
I0
I1
tp3448
Rp3449
(I3
S'|'
p3450
NNNI3
I1
I0
tp3451
bS'PCA'
p3452
tp3453
Rp3454
sg55
F0.2
sg56
g11
(g12
(S'S3'
p3455
I0
I1
tp3456
Rp3457
(I3
S'|'
p3458
NNNI3
I1
I0
tp3459
bS'VGG'
p3460
tp3461
Rp3462
sg65
g11
(g15
S'3\x8e\x0f\x85\xb9\x85\xda?'
p3463
tp3464
Rp3465
sg69
g11
(g12
(S'S2'
p3466
I0
I1
tp3467
Rp3468
(I3
S'|'
p3469
NNNI2
I1
I0
tp3470
bS'RF'
p3471
tp3472
Rp3473
sg78
I3
sg158
g3446
sg79
g80
sg81
g11
(g15
S'C\xe4\xdbB\xcb\xbe\xea?'
p3474
tp3475
Rp3476
sg85
g86
sg87
g88
sbag4
(g5
g6
Ntp3477
Rp3478
(dp3479
g10
g11
(g15
S'\x00\x00\x00\x00\x00\x00\xf8\xff'
p3480
tp3481
Rp3482
sg144
g11
(g15
S'\x00\x00\x00\x00\x00`m@'
p3483
tp3484
Rp3485
sg30
g31
sg21
g11
(g24
S'\x05\x00\x00\x00\x00\x00\x00\x00'
p3486
tp3487
Rp3488
sg32
(dp3489
g144
g3485
sg21
g3488
sg38
g11
(g24
S'\x02\x00\x00\x00\x00\x00\x00\x00'
p3490
tp3491
Rp3492
sg158
g11
(g15
S'>\xd7l\xe8 \xba\xe8?'
p3493
tp3494
Rp3495
ssg46
g11
(g12
(S'S6'
p3496
I0
I1
tp3497
Rp3498
(I3
S'|'
p3499
NNNI6
I1
I0
tp3500
bS'ISOMAP'
p3501
tp3502
Rp3503
sg55
F0.2
sg38
g3492
sg56
g11
(g12
(S'S3'
p3504
I0
I1
tp3505
Rp3506
(I3
S'|'
p3507
NNNI3
I1
I0
tp3508
bS'VGG'
p3509
tp3510
Rp3511
sg65
g11
(g15
S'\xcd:\xa2\x08(\x85\xf2?'
p3512
tp3513
Rp3514
sg69
g11
(g12
(S'S2'
p3515
I0
I1
tp3516
Rp3517
(I3
S'|'
p3518
NNNI2
I1
I0
tp3519
bS'RF'
p3520
tp3521
Rp3522
sg78
I3
sg158
g3495
sg79
g80
sg81
g11
(g15
S'\xb5\x85\xbd\xd3\x10c\xe9?'
p3523
tp3524
Rp3525
sg85
g86
sg87
g88
sbag4
(g5
g6
Ntp3526
Rp3527
(dp3528
g10
g11
(g15
S'\x00\x00\x00\x00\x00\x00\xf8\xff'
p3529
tp3530
Rp3531
sg144
g11
(g15
S'\x00\x00\x00\x00\x00\x00 @'
p3532
tp3533
Rp3534
sg148
g156
sg30
g31
sg32
(dp3535
g144
g3534
sg158
g11
(g15
S'\xe5%\x92X\x04[\xd4?'
p3536
tp3537
Rp3538
sg148
g156
ssg46
g11
(g12
(S'S3'
p3539
I0
I1
tp3540
Rp3541
(I3
S'|'
p3542
NNNI3
I1
I0
tp3543
bS'PCA'
p3544
tp3545
Rp3546
sg55
F0.2
sg56
g11
(g12
(S'S3'
p3547
I0
I1
tp3548
Rp3549
(I3
S'|'
p3550
NNNI3
I1
I0
tp3551
bS'VGG'
p3552
tp3553
Rp3554
sg65
g11
(g15
S'|6\x1e\xd3\x1d\xfa\xf4?'
p3555
tp3556
Rp3557
sg69
g11
(g12
(S'S2'
p3558
I0
I1
tp3559
Rp3560
(I3
S'|'
p3561
NNNI2
I1
I0
tp3562
bS'RF'
p3563
tp3564
Rp3565
sg78
I3
sg158
g3538
sg79
g80
sg81
g11
(g15
S'\x90\x0b\xf9\xc8L\xd2\xe9?'
p3566
tp3567
Rp3568
sg85
g86
sg87
g88
sbag4
(g5
g6
Ntp3569
Rp3570
(dp3571
g10
g11
(g15
S'\x00\x00\x00\x00\x00\x00\xf8\xff'
p3572
tp3573
Rp3574
sg21
g11
(g24
S'\x03\x00\x00\x00\x00\x00\x00\x00'
p3575
tp3576
Rp3577
sg30
g31
sg32
(dp3578
g21
g3577
sg34
g11
(g15
S'\xa7\xd2\xed\xca\xa9\t\x1b@'
p3579
tp3580
Rp3581
sg38
g11
(g24
S'\x02\x00\x00\x00\x00\x00\x00\x00'
p3582
tp3583
Rp3584
sg42
g11
(g15
S'\n\x814\xf4\xc1E\x0f@'
p3585
tp3586
Rp3587
ssg42
g3587
sg46
g11
(g12
(S'S6'
p3588
I0
I1
tp3589
Rp3590
(I3
S'|'
p3591
NNNI6
I1
I0
tp3592
bS'ISOMAP'
p3593
tp3594
Rp3595
sg55
F0.2
sg38
g3584
sg56
g11
(g12
(S'S9'
p3596
I0
I1
tp3597
Rp3598
(I3
S'|'
p3599
NNNI9
I1
I0
tp3600
bS'inception'
p3601
tp3602
Rp3603
sg34
g3581
sg65
g11
(g15
S'\x94BmY\\O\xe8?'
p3604
tp3605
Rp3606
sg69
g11
(g12
(S'S3'
p3607
I0
I1
tp3608
Rp3609
(I3
S'|'
p3610
NNNI3
I1
I0
tp3611
bS'SVM'
p3612
tp3613
Rp3614
sg78
I3
sg79
g80
sg81
g11
(g15
S'\x85(\xe8&>\xb5\xe2?'
p3615
tp3616
Rp3617
sg85
g86
sg87
g88
sbag4
(g5
g6
Ntp3618
Rp3619
(dp3620
g10
g11
(g15
S'\x00\x00\x00\x00\x00\x00\xf8\xff'
p3621
tp3622
Rp3623
sg21
g11
(g24
S'\x06\x00\x00\x00\x00\x00\x00\x00'
p3624
tp3625
Rp3626
sg30
g31
sg32
(dp3627
g21
g3626
sg34
g11
(g15
S'\x8b\xc1gC\xef\xaaL@'
p3628
tp3629
Rp3630
sg277
g11
(g24
S'\x02\x00\x00\x00\x00\x00\x00\x00'
p3631
tp3632
Rp3633
sg38
g11
(g24
S'\x03\x00\x00\x00\x00\x00\x00\x00'
p3634
tp3635
Rp3636
sg42
g11
(g15
S'~mz\xd6\xac\xc7\x1f@'
p3637
tp3638
Rp3639
ssg42
g3639
sg46
g11
(g12
(S'S6'
p3640
I0
I1
tp3641
Rp3642
(I3
S'|'
p3643
NNNI6
I1
I0
tp3644
bS'ISOMAP'
p3645
tp3646
Rp3647
sg55
F0.2
sg38
g3636
sg56
g11
(g12
(S'S8'
p3648
I0
I1
tp3649
Rp3650
(I3
S'|'
p3651
NNNI8
I1
I0
tp3652
bS'haralick'
p3653
tp3654
Rp3655
sg34
g3630
sg277
g3633
sg65
g11
(g15
S'\xf3h\xe8\xe3\x01\x14\xe1?'
p3656
tp3657
Rp3658
sg69
g11
(g12
(S'S3'
p3659
I0
I1
tp3660
Rp3661
(I3
S'|'
p3662
NNNI3
I1
I0
tp3663
bS'SVM'
p3664
tp3665
Rp3666
sg78
I3
sg79
g80
sg81
g11
(g15
S'\xefP\xf2\x03\xfbh\xe8?'
p3667
tp3668
Rp3669
sg85
g86
sg87
g88
sbag4
(g5
g6
Ntp3670
Rp3671
(dp3672
g10
g11
(g15
S'\x00\x00\x00\x00\x00\x00\xf8\xff'
p3673
tp3674
Rp3675
sg144
g11
(g15
S'\x00\x00\x00\x00\x00@R@'
p3676
tp3677
Rp3678
sg148
g156
sg30
g31
sg32
(dp3679
g144
g3678
sg158
g11
(g15
S'\xdf\xbfl\r\xd5$\xe7?'
p3680
tp3681
Rp3682
sg148
g156
sg277
g11
(g24
S'\x01\x00\x00\x00\x00\x00\x00\x00'
p3683
tp3684
Rp3685
ssg46
g11
(g12
(S'S3'
p3686
I0
I1
tp3687
Rp3688
(I3
S'|'
p3689
NNNI3
I1
I0
tp3690
bS'PCA'
p3691
tp3692
Rp3693
sg55
F0.2
sg56
g11
(g12
(S'S8'
p3694
I0
I1
tp3695
Rp3696
(I3
S'|'
p3697
NNNI8
I1
I0
tp3698
bS'haralick'
p3699
tp3700
Rp3701
sg277
g3685
sg65
g11
(g15
S'\x0f\x0bUs\x17V\x06@'
p3702
tp3703
Rp3704
sg69
g11
(g12
(S'S2'
p3705
I0
I1
tp3706
Rp3707
(I3
S'|'
p3708
NNNI2
I1
I0
tp3709
bS'RF'
p3710
tp3711
Rp3712
sg78
I3
sg158
g3682
sg79
g80
sg81
g11
(g15
S'\\\xc1\xe6\xa7\xabi\xe7?'
p3713
tp3714
Rp3715
sg85
g86
sg87
g88
sbag4
(g5
g6
Ntp3716
Rp3717
(dp3718
g10
g11
(g15
S'\x00\x00\x00\x00\x00\x00\xf8\xff'
p3719
tp3720
Rp3721
sg144
g11
(g15
S'\x00\x00\x00\x00\x00\xc0r@'
p3722
tp3723
Rp3724
sg148
g306
sg30
g31
sg32
(dp3725
g144
g3724
sg158
g11
(g15
S'\xf2\x9c\x9e\xf2Hc\xe6?'
p3726
tp3727
Rp3728
sg148
g306
sg277
g11
(g24
S'\x03\x00\x00\x00\x00\x00\x00\x00'
p3729
tp3730
Rp3731
ssg46
g11
(g12
(S'S3'
p3732
I0
I1
tp3733
Rp3734
(I3
S'|'
p3735
NNNI3
I1
I0
tp3736
bS'PCA'
p3737
tp3738
Rp3739
sg55
F0.2
sg56
g11
(g12
(S'S8'
p3740
I0
I1
tp3741
Rp3742
(I3
S'|'
p3743
NNNI8
I1
I0
tp3744
bS'haralick'
p3745
tp3746
Rp3747
sg277
g3731
sg65
g11
(g15
S'=\xde4\x8f\xe1H\xfd?'
p3748
tp3749
Rp3750
sg69
g11
(g12
(S'S2'
p3751
I0
I1
tp3752
Rp3753
(I3
S'|'
p3754
NNNI2
I1
I0
tp3755
bS'RF'
p3756
tp3757
Rp3758
sg78
I3
sg158
g3728
sg79
g80
sg81
g11
(g15
S'\x94\x8a\xcaK\x1a~\xe6?'
p3759
tp3760
Rp3761
sg85
g86
sg87
g88
sbag4
(g5
g6
Ntp3762
Rp3763
(dp3764
g10
g11
(g15
S'\x00\x00\x00\x00\x00\x00\xf8\xff'
p3765
tp3766
Rp3767
sg144
g11
(g15
S'\x00\x00\x00\x00\x00\xc0p@'
p3768
tp3769
Rp3770
sg148
g306
sg30
g31
sg32
(dp3771
g144
g3770
sg158
g11
(g15
S'\x10\xa4?o\xa5\x89\xef?'
p3772
tp3773
Rp3774
sg148
g306
ssg46
g11
(g12
(S'S3'
p3775
I0
I1
tp3776
Rp3777
(I3
S'|'
p3778
NNNI3
I1
I0
tp3779
bS'PCA'
p3780
tp3781
Rp3782
sg55
F0.2
sg56
g11
(g12
(S'S3'
p3783
I0
I1
tp3784
Rp3785
(I3
S'|'
p3786
NNNI3
I1
I0
tp3787
bS'VGG'
p3788
tp3789
Rp3790
sg65
g11
(g15
S'\xd0~\xeb\x98\x84\x88\xda?'
p3791
tp3792
Rp3793
sg69
g11
(g12
(S'S2'
p3794
I0
I1
tp3795
Rp3796
(I3
S'|'
p3797
NNNI2
I1
I0
tp3798
bS'RF'
p3799
tp3800
Rp3801
sg78
I3
sg158
g3774
sg79
g80
sg81
g11
(g15
S')\xc4t\xb7\xc6\x9f\xea?'
p3802
tp3803
Rp3804
sg85
g86
sg87
g88
sbag4
(g5
g6
Ntp3805
Rp3806
(dp3807
g10
g11
(g15
S'\x00\x00\x00\x00\x00\x00\xf8\xff'
p3808
tp3809
Rp3810
sg144
g11
(g15
S'\x00\x00\x00\x00\x00\x00 @'
p3811
tp3812
Rp3813
sg30
g31
sg21
g11
(g24
S'\x05\x00\x00\x00\x00\x00\x00\x00'
p3814
tp3815
Rp3816
sg32
(dp3817
g144
g3813
sg21
g3816
sg38
g11
(g24
S'\x02\x00\x00\x00\x00\x00\x00\x00'
p3818
tp3819
Rp3820
sg158
g11
(g15
S'z>\xc78\x06N\xe1?'
p3821
tp3822
Rp3823
ssg46
g11
(g12
(S'S6'
p3824
I0
I1
tp3825
Rp3826
(I3
S'|'
p3827
NNNI6
I1
I0
tp3828
bS'ISOMAP'
p3829
tp3830
Rp3831
sg55
F0.2
sg38
g3820
sg56
g11
(g12
(S'S3'
p3832
I0
I1
tp3833
Rp3834
(I3
S'|'
p3835
NNNI3
I1
I0
tp3836
bS'VGG'
p3837
tp3838
Rp3839
sg65
g11
(g15
S"\r]\x88'\xf8\xce\x06@"
p3840
tp3841
Rp3842
sg69
g11
(g12
(S'S2'
p3843
I0
I1
tp3844
Rp3845
(I3
S'|'
p3846
NNNI2
I1
I0
tp3847
bS'RF'
p3848
tp3849
Rp3850
sg78
I3
sg158
g3823
sg79
g80
sg81
g11
(g15
S'\xa9\xc0\xb1\xcb\xc3\xc5\xe8?'
p3851
tp3852
Rp3853
sg85
g86
sg87
g88
sbag4
(g5
g6
Ntp3854
Rp3855
(dp3856
g10
g11
(g15
S'\x00\x00\x00\x00\x00\x00\xf8\xff'
p3857
tp3858
Rp3859
sg144
g11
(g15
S'\x00\x00\x00\x00\x00`i@'
p3860
tp3861
Rp3862
sg148
g156
sg30
g31
sg32
(dp3863
g144
g3862
sg158
g11
(g15
S'\xf2%9\xd6\x9b!\xe8?'
p3864
tp3865
Rp3866
sg148
g156
ssg46
g11
(g12
(S'S3'
p3867
I0
I1
tp3868
Rp3869
(I3
S'|'
p3870
NNNI3
I1
I0
tp3871
bS'PCA'
p3872
tp3873
Rp3874
sg55
F0.2
sg56
g11
(g12
(S'S9'
p3875
I0
I1
tp3876
Rp3877
(I3
S'|'
p3878
NNNI9
I1
I0
tp3879
bS'inception'
p3880
tp3881
Rp3882
sg65
g11
(g15
S'\xd1\x9d\xd2\xad\xd8\xf3\xe6?'
p3883
tp3884
Rp3885
sg69
g11
(g12
(S'S2'
p3886
I0
I1
tp3887
Rp3888
(I3
S'|'
p3889
NNNI2
I1
I0
tp3890
bS'RF'
p3891
tp3892
Rp3893
sg78
I3
sg158
g3866
sg79
g80
sg81
g11
(g15
S'\xe0i\xf6\x89\x14V\xe8?'
p3894
tp3895
Rp3896
sg85
g86
sg87
g88
sbag4
(g5
g6
Ntp3897
Rp3898
(dp3899
g10
g11
(g15
S'\x00\x00\x00\x00\x00\x00\xf8\xff'
p3900
tp3901
Rp3902
sg21
g11
(g24
S'\x04\x00\x00\x00\x00\x00\x00\x00'
p3903
tp3904
Rp3905
sg30
g31
sg32
(dp3906
g21
g3905
sg34
g11
(g15
S'\\\xfe\xef]\xa39D@'
p3907
tp3908
Rp3909
sg38
g11
(g24
S'\x03\x00\x00\x00\x00\x00\x00\x00'
p3910
tp3911
Rp3912
sg42
g11
(g15
S'C\x06\x1a\xf3\xa0X\x10@'
p3913
tp3914
Rp3915
ssg42
g3915
sg46
g11
(g12
(S'S6'
p3916
I0
I1
tp3917
Rp3918
(I3
S'|'
p3919
NNNI6
I1
I0
tp3920
bS'ISOMAP'
p3921
tp3922
Rp3923
sg55
F0.2
sg38
g3912
sg56
g11
(g12
(S'S9'
p3924
I0
I1
tp3925
Rp3926
(I3
S'|'
p3927
NNNI9
I1
I0
tp3928
bS'inception'
p3929
tp3930
Rp3931
sg34
g3909
sg65
g11
(g15
S'\xa5\xd4\xb6*\xd7J\xe6?'
p3932
tp3933
Rp3934
sg69
g11
(g12
(S'S3'
p3935
I0
I1
tp3936
Rp3937
(I3
S'|'
p3938
NNNI3
I1
I0
tp3939
bS'SVM'
p3940
tp3941
Rp3942
sg78
I3
sg79
g80
sg81
g11
(g15
S'\x05\xdb\xe30WA\xe4?'
p3943
tp3944
Rp3945
sg85
g86
sg87
g88
sbasS'error_curve'
p3946
(lp3947
g68
ag68
ag68
ag68
ag68
ag68
ag126
ag126
ag126
ag126
ag126
ag126
ag126
ag126
ag126
ag126
ag126
ag180
ag180
ag180
ag180
ag180
ag180
ag180
ag180
ag180
ag180
ag180
ag180
ag223
ag223
ag223
ag223
ag223
ag223
ag223
ag223
ag223
ag223
ag223
ag223
ag223
ag223
ag223
ag223
ag223
ag223
ag223
ag223
ag223
ag223
ag223
ag223
ag223
ag223
ag223
ag223
ag223
ag223
ag223
ag223
ag223
ag223
ag223
ag223
ag223
ag223
ag223
ag223
ag223
ag223
ag223
ag223
ag223
ag223
ag223
ag223
ag223
ag223
ag223
ag223
ag223
asS'iters'
p3948
I51
sg30
g31
sS'results_loc'
p3949
S'/gpfs/u/home/CGHI/CGHIarch/barn/EP_project/results/'
p3950
sS'times'
p3951
(lp3952
F1.126478910446167
aF2.8405001163482666
aF16.246835947036743
aF17.185379028320312
aF32.34658908843994
aF33.14628005027771
aF34.2942910194397
aF35.24366092681885
aF48.92252492904663
aF61.477487087249756
aF61.82294201850891
aF76.88412809371948
aF77.23422908782959
aF78.34972190856934
aF91.06132793426514
aF92.28886890411377
aF94.46591591835022
aF96.11923789978027
aF108.93839001655579
aF122.8419349193573
aF123.09940004348755
aF135.7941279411316
aF150.255224943161
aF150.57339811325073
aF164.85859203338623
aF168.23557591438293
aF169.78591108322144
aF184.70929598808289
aF185.58288097381592
aF187.34478211402893
aF203.50614190101624
aF203.8075189590454
aF204.03496408462524
aF206.6251049041748
aF208.24488997459412
aF209.82399201393127
aF212.69281005859375
aF225.9422149658203
aF226.30419206619263
aF226.54573798179626
aF227.69795489311218
aF228.00979804992676
aF229.16309309005737
aF231.25136804580688
aF231.56100988388062
aF234.79286003112793
aF249.17278504371643
aF250.58193492889404
aF251.52019596099854
aF252.6167550086975
aF265.69913506507874
aF278.9985930919647
aF293.01229906082153
aF295.74490690231323
aF295.98662996292114
aF299.01558208465576
aF312.20723009109497
aF315.705365896225
aF315.96764397621155
aF316.3115770816803
aF316.54694390296936
aF316.7758140563965
aF329.953241109848
aF342.88832902908325
aF356.89489698410034
aF369.5723259449005
aF372.7098801136017
aF386.54061698913574
aF386.8926429748535
aF387.73788690567017
aF401.4830551147461
aF402.5088551044464
aF405.4498379230499
aF405.6704730987549
aF406.51017689704895
aF419.3623170852661
aF432.37442898750305
aF447.3934109210968
aF450.0541820526123
aF451.24328899383545
aF453.30726289749146
aF454.18639492988586
asS'data_loc'
p3953
g88
sS'run'
p3954
I4
sg85
S'random_MCMC'
p3955
sb.