(iprototypes.random_based_mcmc1
random_MCMC
p0
(dp1
S'best_pipelines'
p2
(lp3
ccopy_reg
_reconstructor
p4
(cprototypes.data_analytic_pipeline
image_classification_pipeline
p5
c__builtin__
object
p6
Ntp7
Rp8
(dp9
S'f1_score'
p10
cnumpy.core.multiarray
scalar
p11
(cnumpy
dtype
p12
(S'f8'
p13
I0
I1
tp14
Rp15
(I3
S'<'
p16
NNNI-1
I-1
I0
tp17
bS'\x00\x00\x00\x00\x00\x00\xf8\xff'
p18
tp19
Rp20
sS'n_estimators'
p21
g11
(g15
S'\x00\x00\x00\x00\x00@R@'
p22
tp23
Rp24
sS'pca_whiten'
p25
g11
(g12
(S'b1'
p26
I0
I1
tp27
Rp28
(I3
S'|'
p29
NNNI-1
I-1
I0
tp30
bS'\x00'
p31
tp32
Rp33
sS'data_name'
p34
S'matsc_dataset2'
p35
sS'kwargs'
p36
(dp37
g21
g24
sS'max_features'
p38
g11
(g15
S'\x1a\xf4m\xb9\x96\x99\xe9?'
p39
tp40
Rp41
sg25
g33
ssS'dimensionality_reduction'
p42
g11
(g12
(S'S3'
p43
I0
I1
tp44
Rp45
(I3
S'|'
p46
NNNI3
I1
I0
tp47
bS'PCA'
p48
tp49
Rp50
sS'test_size'
p51
F0.2
sS'feature_extraction'
p52
g11
(g12
(S'S3'
p53
I0
I1
tp54
Rp55
(I3
S'|'
p56
NNNI3
I1
I0
tp57
bS'VGG'
p58
tp59
Rp60
sS'result'
p61
g11
(g15
S'\xb0\xc75\t\xd5R\xcf?'
p62
tp63
Rp64
sS'learning_algorithm'
p65
g11
(g12
(S'S2'
p66
I0
I1
tp67
Rp68
(I3
S'|'
p69
NNNI2
I1
I0
tp70
bS'RF'
p71
tp72
Rp73
sS'val_splits'
p74
I3
sg38
g41
sS'ml_type'
p75
S'validation'
p76
sS'accuracy'
p77
g11
(g15
S'\xb4\xfe\x018\xd1\xd1\xed?'
p78
tp79
Rp80
sS'type1'
p81
S'random1'
p82
sS'data_location'
p83
S'/gpfs/u/home/CGHI/CGHIarch/barn/EP_project/data/'
p84
sbag4
(g5
g6
Ntp85
Rp86
(dp87
g10
g11
(g15
S'\x00\x00\x00\x00\x00\x00\xf8\xff'
p88
tp89
Rp90
sg21
g11
(g15
S'\x00\x00\x00\x00\x00\xc0r@'
p91
tp92
Rp93
sg34
g35
sS'n_neighbors'
p94
g11
(g12
(S'i8'
p95
I0
I1
tp96
Rp97
(I3
S'<'
p98
NNNI-1
I-1
I0
tp99
bS'\x05\x00\x00\x00\x00\x00\x00\x00'
p100
tp101
Rp102
sg36
(dp103
g21
g93
sg94
g102
sS'n_components'
p104
g11
(g97
S'\x03\x00\x00\x00\x00\x00\x00\x00'
p105
tp106
Rp107
sg38
g11
(g15
S'\xd6u\xbc\x93\xc4\xe5\xdb?'
p108
tp109
Rp110
ssg42
g11
(g12
(S'S6'
p111
I0
I1
tp112
Rp113
(I3
S'|'
p114
NNNI6
I1
I0
tp115
bS'ISOMAP'
p116
tp117
Rp118
sg51
F0.2
sg104
g107
sg52
g11
(g12
(S'S3'
p119
I0
I1
tp120
Rp121
(I3
S'|'
p122
NNNI3
I1
I0
tp123
bS'VGG'
p124
tp125
Rp126
sg61
g11
(g15
S'\xf4y\xc3\x11\x9e.\xc4?'
p127
tp128
Rp129
sg65
g11
(g12
(S'S2'
p130
I0
I1
tp131
Rp132
(I3
S'|'
p133
NNNI2
I1
I0
tp134
bS'RF'
p135
tp136
Rp137
sg74
I3
sg38
g110
sg75
g76
sg77
g11
(g15
S'\x0f\x86\x80\xebF\xba\xed?'
p138
tp139
Rp140
sg81
g82
sg83
g84
sbasS'paths'
p141
(lp142
(lp143
S'VGG'
p144
aS'PCA'
p145
aS'SVM'
p146
aa(lp147
g144
ag145
aS'RF'
p148
aa(lp149
g144
aS'ISOMAP'
p150
ag146
aa(lp151
g144
ag150
ag148
aa(lp152
S'haralick'
p153
ag145
ag146
aa(lp154
g153
ag145
ag148
aa(lp155
g153
ag150
ag146
aa(lp156
g153
ag150
ag148
aa(lp157
S'inception'
p158
ag145
ag146
aa(lp159
g158
ag145
ag148
aa(lp160
g158
ag150
ag146
aa(lp161
g158
ag150
ag148
aasS'pipeline'
p162
(dp163
g94
(lp164
I3
aI4
aI5
aI6
aI7
asg25
(lp165
I01
aI00
asg21
cnumpy.core.multiarray
_reconstruct
p166
(cnumpy
ndarray
p167
(I0
tp168
S'b'
p169
tp170
Rp171
(I1
(I10
tp172
g15
I00
S'\x00\x00\x00\x00\x00\x00 @\x00\x00\x00\x00\x00\x00D@\x00\x00\x00\x00\x00@R@\x00\x00\x00\x00\x00@Z@\x00\x00\x00\x00\x00@a@\x00\x00\x00\x00\x00@e@\x00\x00\x00\x00\x00`i@\x00\x00\x00\x00\x00`m@\x00\x00\x00\x00\x00\xc0p@\x00\x00\x00\x00\x00\xc0r@'
p173
tp174
bsg42
(lp175
g145
ag150
asS'svm_gamma'
p176
g166
(g167
(I0
tp177
g169
tp178
Rp179
(I1
(I10
tp180
g15
I00
S"{\x14\xaeG\xe1z\x84?\x102Tv\x98\xba\xec?\xe7\xd5\xc4\xb3\xa2\x91\xfc?b\xc9/\x96\xfcb\x05@\xd2'}\xd2'}\x0c@!Ce\x87\xa9\xcb\x11@X\xf2\x8b%\xbfX\x15@\x90\xa1\xb2\xc3\xd4\xe5\x18@\xc8P\xd9a\xear\x1c@\x00\x00\x00\x00\x00\x00 @"
p181
tp182
bsg52
(lp183
g144
ag153
ag158
asS'haralick_distance'
p184
(lp185
I1
aI2
aI3
asg104
(lp186
I2
aI3
aI4
asg65
(lp187
g146
ag148
asg38
g166
(g167
(I0
tp188
g169
tp189
Rp190
(I1
(I5
tp191
g15
I00
S'333333\xd3?\x9a\x99\x99\x99\x99\x99\xd9?\x00\x00\x00\x00\x00\x00\xe0?433333\xe3?hfffff\xe6?'
p192
tp193
bsS'svm_C'
p194
g166
(g167
(I0
tp195
g169
tp196
Rp197
(I1
(I10
tp198
g15
I00
S'\x9a\x99\x99\x99\x99\x99\xb9?gfffff&@\xce\xcc\xcc\xcc\xccL6@43333\xb3@@\x01\x00\x00\x00\x00@F@\xce\xcc\xcc\xcc\xcc\xccK@\xcd\xcc\xcc\xcc\xcc\xacP@43333sS@\x9a\x99\x99\x99\x999V@\x00\x00\x00\x00\x00\x00Y@'
p199
tp200
bssS'pipelines'
p201
(lp202
g8
ag86
ag4
(g5
g6
Ntp203
Rp204
(dp205
g10
g11
(g15
S'\x00\x00\x00\x00\x00\x00\xf8\xff'
p206
tp207
Rp208
sg21
g11
(g15
S'\x00\x00\x00\x00\x00@a@'
p209
tp210
Rp211
sg25
g33
sg34
g35
sg36
(dp212
g21
g211
sg38
g11
(g15
S'Q\\\xde\xd9QT\xdc?'
p213
tp214
Rp215
sg25
g33
ssg42
g11
(g12
(S'S3'
p216
I0
I1
tp217
Rp218
(I3
S'|'
p219
NNNI3
I1
I0
tp220
bS'PCA'
p221
tp222
Rp223
sg51
F0.2
sg52
g11
(g12
(S'S3'
p224
I0
I1
tp225
Rp226
(I3
S'|'
p227
NNNI3
I1
I0
tp228
bS'VGG'
p229
tp230
Rp231
sg61
g11
(g15
S'\xd5#\xdcRq+\xcf?'
p232
tp233
Rp234
sg65
g11
(g12
(S'S2'
p235
I0
I1
tp236
Rp237
(I3
S'|'
p238
NNNI2
I1
I0
tp239
bS'RF'
p240
tp241
Rp242
sg74
I3
sg38
g215
sg75
g76
sg77
g11
(g15
S'8\xbe\x02\xad\x7f\x00\xee?'
p243
tp244
Rp245
sg81
g82
sg83
g84
sbag4
(g5
g6
Ntp246
Rp247
(dp248
g10
g11
(g15
S'\x00\x00\x00\x00\x00\x00\xf8\xff'
p249
tp250
Rp251
sg25
g33
sg34
g35
sg36
(dp252
g25
g33
sg194
g11
(g15
S'\x05\x1a^\xca-\x05-@'
p253
tp254
Rp255
sg176
g11
(g15
S'Y*A\xc4\xd9f\x10@'
p256
tp257
Rp258
ssg42
g11
(g12
(S'S3'
p259
I0
I1
tp260
Rp261
(I3
S'|'
p262
NNNI3
I1
I0
tp263
bS'PCA'
p264
tp265
Rp266
sg51
F0.2
sg176
g258
sg52
g11
(g12
(S'S3'
p267
I0
I1
tp268
Rp269
(I3
S'|'
p270
NNNI3
I1
I0
tp271
bS'VGG'
p272
tp273
Rp274
sg194
g255
sg61
g11
(g15
S'\xbb\x9b\xb6\x0b\xba\xbe\xcf?'
p275
tp276
Rp277
sg65
g11
(g12
(S'S3'
p278
I0
I1
tp279
Rp280
(I3
S'|'
p281
NNNI3
I1
I0
tp282
bS'SVM'
p283
tp284
Rp285
sg74
I3
sg75
g76
sg77
g11
(g15
S'\x0b,\x81\xea\xaa\xd1\xec?'
p286
tp287
Rp288
sg81
g82
sg83
g84
sbag4
(g5
g6
Ntp289
Rp290
(dp291
g10
g11
(g15
S'\x00\x00\x00\x00\x00\x00\xf8\xff'
p292
tp293
Rp294
sg21
g11
(g15
S'\x00\x00\x00\x00\x00\xc0p@'
p295
tp296
Rp297
sg25
g33
sg34
g35
sg36
(dp298
g21
g297
sg38
g11
(g15
S'$"m\xa7\xe1\xba\xde?'
p299
tp300
Rp301
sg25
g33
sg184
g11
(g97
S'\x01\x00\x00\x00\x00\x00\x00\x00'
p302
tp303
Rp304
ssg42
g11
(g12
(S'S3'
p305
I0
I1
tp306
Rp307
(I3
S'|'
p308
NNNI3
I1
I0
tp309
bS'PCA'
p310
tp311
Rp312
sg51
F0.2
sg52
g11
(g12
(S'S8'
p313
I0
I1
tp314
Rp315
(I3
S'|'
p316
NNNI8
I1
I0
tp317
bS'haralick'
p318
tp319
Rp320
sg184
g304
sg61
g11
(g15
S'h\xca[\xef<Y\xe6?'
p321
tp322
Rp323
sg65
g11
(g12
(S'S2'
p324
I0
I1
tp325
Rp326
(I3
S'|'
p327
NNNI2
I1
I0
tp328
bS'RF'
p329
tp330
Rp331
sg74
I3
sg38
g301
sg75
g76
sg77
g11
(g15
S'\xdbt\xfd>\x15.\xec?'
p332
tp333
Rp334
sg81
g82
sg83
g84
sbag4
(g5
g6
Ntp335
Rp336
(dp337
g10
g11
(g15
S'\x00\x00\x00\x00\x00\x00\xf8\xff'
p338
tp339
Rp340
sg94
g11
(g97
S'\x03\x00\x00\x00\x00\x00\x00\x00'
p341
tp342
Rp343
sg34
g35
sg36
(dp344
g94
g343
sg194
g11
(g15
S'\x12\xc7X^\xd4\xa9O@'
p345
tp346
Rp347
sg104
g11
(g97
S'\x04\x00\x00\x00\x00\x00\x00\x00'
p348
tp349
Rp350
sg176
g11
(g15
S'nXp>\xc7\x8f\x1a@'
p351
tp352
Rp353
ssg176
g353
sg42
g11
(g12
(S'S6'
p354
I0
I1
tp355
Rp356
(I3
S'|'
p357
NNNI6
I1
I0
tp358
bS'ISOMAP'
p359
tp360
Rp361
sg51
F0.2
sg104
g350
sg52
g11
(g12
(S'S9'
p362
I0
I1
tp363
Rp364
(I3
S'|'
p365
NNNI9
I1
I0
tp366
bS'inception'
p367
tp368
Rp369
sg194
g347
sg61
g11
(g15
S'\x08\xd8\xdaA\xa2q\xd4?'
p370
tp371
Rp372
sg65
g11
(g12
(S'S3'
p373
I0
I1
tp374
Rp375
(I3
S'|'
p376
NNNI3
I1
I0
tp377
bS'SVM'
p378
tp379
Rp380
sg74
I3
sg75
g76
sg77
g11
(g15
S']\xab\xe4\xb3M\x12\xe5?'
p381
tp382
Rp383
sg81
g82
sg83
g84
sbag4
(g5
g6
Ntp384
Rp385
(dp386
g10
g11
(g15
S'\x00\x00\x00\x00\x00\x00\xf8\xff'
p387
tp388
Rp389
sg25
g11
(g28
S'\x01'
p390
tp391
Rp392
sg34
g35
sg36
(dp393
g25
g392
sg194
g11
(g15
S'\xe8\x9f%\x89\x08=X@'
p394
tp395
Rp396
sg184
g11
(g97
S'\x01\x00\x00\x00\x00\x00\x00\x00'
p397
tp398
Rp399
sg176
g11
(g15
S'\xfe\x1e\xc1\xc2\xe9\x9e\x1e@'
p400
tp401
Rp402
ssg42
g11
(g12
(S'S3'
p403
I0
I1
tp404
Rp405
(I3
S'|'
p406
NNNI3
I1
I0
tp407
bS'PCA'
p408
tp409
Rp410
sg51
F0.2
sg176
g402
sg52
g11
(g12
(S'S8'
p411
I0
I1
tp412
Rp413
(I3
S'|'
p414
NNNI8
I1
I0
tp415
bS'haralick'
p416
tp417
Rp418
sg194
g396
sg184
g399
sg61
g11
(g15
S'G\x9b\xcarlf\xd1?'
p419
tp420
Rp421
sg65
g11
(g12
(S'S3'
p422
I0
I1
tp423
Rp424
(I3
S'|'
p425
NNNI3
I1
I0
tp426
bS'SVM'
p427
tp428
Rp429
sg74
I3
sg75
g76
sg77
g11
(g15
S'T\xces&\xb1\xa0\xea?'
p430
tp431
Rp432
sg81
g82
sg83
g84
sbag4
(g5
g6
Ntp433
Rp434
(dp435
g10
g11
(g15
S'\x00\x00\x00\x00\x00\x00\xf8\xff'
p436
tp437
Rp438
sg21
g11
(g15
S'\x00\x00\x00\x00\x00@Z@'
p439
tp440
Rp441
sg25
g392
sg34
g35
sg36
(dp442
g21
g441
sg38
g11
(g15
S'X\xea\xa1\xaf\xff\x07\xed?'
p443
tp444
Rp445
sg25
g392
ssg42
g11
(g12
(S'S3'
p446
I0
I1
tp447
Rp448
(I3
S'|'
p449
NNNI3
I1
I0
tp450
bS'PCA'
p451
tp452
Rp453
sg51
F0.2
sg52
g11
(g12
(S'S9'
p454
I0
I1
tp455
Rp456
(I3
S'|'
p457
NNNI9
I1
I0
tp458
bS'inception'
p459
tp460
Rp461
sg61
g11
(g15
S'\xb5$\xf5\x1d\xc6\x1c\xe3?'
p462
tp463
Rp464
sg65
g11
(g12
(S'S2'
p465
I0
I1
tp466
Rp467
(I3
S'|'
p468
NNNI2
I1
I0
tp469
bS'RF'
p470
tp471
Rp472
sg74
I3
sg38
g445
sg75
g76
sg77
g11
(g15
S'\xe4=\x03\xfb\xf3t\xeb?'
p473
tp474
Rp475
sg81
g82
sg83
g84
sbag4
(g5
g6
Ntp476
Rp477
(dp478
g10
g11
(g15
S'\x00\x00\x00\x00\x00\x00\xf8\xff'
p479
tp480
Rp481
sg94
g11
(g97
S'\x07\x00\x00\x00\x00\x00\x00\x00'
p482
tp483
Rp484
sg34
g35
sg36
(dp485
g94
g484
sg194
g11
(g15
S'\x84\xa0\x1b\xe4\x14\xbc8@'
p486
tp487
Rp488
sg104
g11
(g97
S'\x03\x00\x00\x00\x00\x00\x00\x00'
p489
tp490
Rp491
sg176
g11
(g15
S'\xf0B\x15B\xf7\x9e\xf1?'
p492
tp493
Rp494
ssg176
g494
sg42
g11
(g12
(S'S6'
p495
I0
I1
tp496
Rp497
(I3
S'|'
p498
NNNI6
I1
I0
tp499
bS'ISOMAP'
p500
tp501
Rp502
sg51
F0.2
sg104
g491
sg52
g11
(g12
(S'S9'
p503
I0
I1
tp504
Rp505
(I3
S'|'
p506
NNNI9
I1
I0
tp507
bS'inception'
p508
tp509
Rp510
sg194
g488
sg61
g11
(g15
S'g\xb9\x86\xb5\xd0[\xd3?'
p511
tp512
Rp513
sg65
g11
(g12
(S'S3'
p514
I0
I1
tp515
Rp516
(I3
S'|'
p517
NNNI3
I1
I0
tp518
bS'SVM'
p519
tp520
Rp521
sg74
I3
sg75
g76
sg77
g11
(g15
S'\xb1\x17y\x94\x1bs\xe4?'
p522
tp523
Rp524
sg81
g82
sg83
g84
sbag4
(g5
g6
Ntp525
Rp526
(dp527
g10
g11
(g15
S'\x00\x00\x00\x00\x00\x00\xf8\xff'
p528
tp529
Rp530
sg21
g11
(g15
S'\x00\x00\x00\x00\x00\x00 @'
p531
tp532
Rp533
sg34
g35
sg94
g11
(g97
S'\x03\x00\x00\x00\x00\x00\x00\x00'
p534
tp535
Rp536
sg36
(dp537
g21
g533
sg94
g536
sg104
g11
(g97
S'\x02\x00\x00\x00\x00\x00\x00\x00'
p538
tp539
Rp540
sg38
g11
(g15
S'\x0cT\x85\xd7\xac\xff\xe9?'
p541
tp542
Rp543
ssg42
g11
(g12
(S'S6'
p544
I0
I1
tp545
Rp546
(I3
S'|'
p547
NNNI6
I1
I0
tp548
bS'ISOMAP'
p549
tp550
Rp551
sg51
F0.2
sg104
g540
sg52
g11
(g12
(S'S3'
p552
I0
I1
tp553
Rp554
(I3
S'|'
p555
NNNI3
I1
I0
tp556
bS'VGG'
p557
tp558
Rp559
sg61
g11
(g15
S'\x08\xa5\x8fb\x16\xfc\xe9?'
p560
tp561
Rp562
sg65
g11
(g12
(S'S2'
p563
I0
I1
tp564
Rp565
(I3
S'|'
p566
NNNI2
I1
I0
tp567
bS'RF'
p568
tp569
Rp570
sg74
I3
sg38
g543
sg75
g76
sg77
g11
(g15
S'SF\xf6\x0e$\xa1\xed?'
p571
tp572
Rp573
sg81
g82
sg83
g84
sbag4
(g5
g6
Ntp574
Rp575
(dp576
g10
g11
(g15
S'\x00\x00\x00\x00\x00\x00\xf8\xff'
p577
tp578
Rp579
sg21
g11
(g15
S'\x00\x00\x00\x00\x00\xc0r@'
p580
tp581
Rp582
sg34
g35
sg94
g11
(g97
S'\x05\x00\x00\x00\x00\x00\x00\x00'
p583
tp584
Rp585
sg36
(dp586
g21
g582
sg94
g585
sg184
g11
(g97
S'\x03\x00\x00\x00\x00\x00\x00\x00'
p587
tp588
Rp589
sg104
g11
(g97
S'\x04\x00\x00\x00\x00\x00\x00\x00'
p590
tp591
Rp592
sg38
g11
(g15
S'$\x08\x1a\x06\xec\x92\xe9?'
p593
tp594
Rp595
ssg42
g11
(g12
(S'S6'
p596
I0
I1
tp597
Rp598
(I3
S'|'
p599
NNNI6
I1
I0
tp600
bS'ISOMAP'
p601
tp602
Rp603
sg51
F0.2
sg104
g592
sg52
g11
(g12
(S'S8'
p604
I0
I1
tp605
Rp606
(I3
S'|'
p607
NNNI8
I1
I0
tp608
bS'haralick'
p609
tp610
Rp611
sg184
g589
sg61
g11
(g15
S'\x1f\x06\x0cd\x9c\x98\xd9?'
p612
tp613
Rp614
sg65
g11
(g12
(S'S2'
p615
I0
I1
tp616
Rp617
(I3
S'|'
p618
NNNI2
I1
I0
tp619
bS'RF'
p620
tp621
Rp622
sg74
I3
sg38
g595
sg75
g76
sg77
g11
(g15
S'\xd0]\x83\x0e\x11\xd2\xec?'
p623
tp624
Rp625
sg81
g82
sg83
g84
sbag4
(g5
g6
Ntp626
Rp627
(dp628
g10
g11
(g15
S'\x00\x00\x00\x00\x00\x00\xf8\xff'
p629
tp630
Rp631
sg94
g11
(g97
S'\x07\x00\x00\x00\x00\x00\x00\x00'
p632
tp633
Rp634
sg34
g35
sg36
(dp635
g94
g634
sg194
g11
(g15
S'\x166\xb5\x92q/Q@'
p636
tp637
Rp638
sg104
g11
(g97
S'\x03\x00\x00\x00\x00\x00\x00\x00'
p639
tp640
Rp641
sg176
g11
(g15
S'W\x1a\xac(\xbb\x15\x1d@'
p642
tp643
Rp644
ssg176
g644
sg42
g11
(g12
(S'S6'
p645
I0
I1
tp646
Rp647
(I3
S'|'
p648
NNNI6
I1
I0
tp649
bS'ISOMAP'
p650
tp651
Rp652
sg51
F0.2
sg104
g641
sg52
g11
(g12
(S'S3'
p653
I0
I1
tp654
Rp655
(I3
S'|'
p656
NNNI3
I1
I0
tp657
bS'VGG'
p658
tp659
Rp660
sg194
g638
sg61
g11
(g15
S'\x1e\xf9N/i\xe2\xd2?'
p661
tp662
Rp663
sg65
g11
(g12
(S'S3'
p664
I0
I1
tp665
Rp666
(I3
S'|'
p667
NNNI3
I1
I0
tp668
bS'SVM'
p669
tp670
Rp671
sg74
I3
sg75
g76
sg77
g11
(g15
S'\x97\x8f\x852w\xd2\xec?'
p672
tp673
Rp674
sg81
g82
sg83
g84
sbag4
(g5
g6
Ntp675
Rp676
(dp677
g10
g11
(g15
S'\x00\x00\x00\x00\x00\x00\xf8\xff'
p678
tp679
Rp680
sg21
g11
(g15
S'\x00\x00\x00\x00\x00\x00 @'
p681
tp682
Rp683
sg34
g35
sg94
g11
(g97
S'\x07\x00\x00\x00\x00\x00\x00\x00'
p684
tp685
Rp686
sg36
(dp687
g21
g683
sg94
g686
sg104
g11
(g97
S'\x03\x00\x00\x00\x00\x00\x00\x00'
p688
tp689
Rp690
sg38
g11
(g15
S'\xc8\x1575\xba\x06\xeb?'
p691
tp692
Rp693
ssg42
g11
(g12
(S'S6'
p694
I0
I1
tp695
Rp696
(I3
S'|'
p697
NNNI6
I1
I0
tp698
bS'ISOMAP'
p699
tp700
Rp701
sg51
F0.2
sg104
g690
sg52
g11
(g12
(S'S9'
p702
I0
I1
tp703
Rp704
(I3
S'|'
p705
NNNI9
I1
I0
tp706
bS'inception'
p707
tp708
Rp709
sg61
g11
(g15
S'\x18/\x06\xc7\x19W\xf5?'
p710
tp711
Rp712
sg65
g11
(g12
(S'S2'
p713
I0
I1
tp714
Rp715
(I3
S'|'
p716
NNNI2
I1
I0
tp717
bS'RF'
p718
tp719
Rp720
sg74
I3
sg38
g693
sg75
g76
sg77
g11
(g15
S'\xc7\xce\x86\xf5\x99u\xea?'
p721
tp722
Rp723
sg81
g82
sg83
g84
sbag4
(g5
g6
Ntp724
Rp725
(dp726
g10
g11
(g15
S'\x00\x00\x00\x00\x00\x00\xf8\xff'
p727
tp728
Rp729
sg21
g11
(g15
S'\x00\x00\x00\x00\x00`m@'
p730
tp731
Rp732
sg25
g392
sg34
g35
sg36
(dp733
g21
g732
sg38
g11
(g15
S'\xbc\x00\x9f\xb9f\xba\xe5?'
p734
tp735
Rp736
sg25
g392
sg184
g11
(g97
S'\x02\x00\x00\x00\x00\x00\x00\x00'
p737
tp738
Rp739
ssg42
g11
(g12
(S'S3'
p740
I0
I1
tp741
Rp742
(I3
S'|'
p743
NNNI3
I1
I0
tp744
bS'PCA'
p745
tp746
Rp747
sg51
F0.2
sg52
g11
(g12
(S'S8'
p748
I0
I1
tp749
Rp750
(I3
S'|'
p751
NNNI8
I1
I0
tp752
bS'haralick'
p753
tp754
Rp755
sg184
g739
sg61
g11
(g15
S'\x1d\xb2\xc8\xb0G~\xdd?'
p756
tp757
Rp758
sg65
g11
(g12
(S'S2'
p759
I0
I1
tp760
Rp761
(I3
S'|'
p762
NNNI2
I1
I0
tp763
bS'RF'
p764
tp765
Rp766
sg74
I3
sg38
g736
sg75
g76
sg77
g11
(g15
S'\xad\x7f\x00Ntt\xed?'
p767
tp768
Rp769
sg81
g82
sg83
g84
sbag4
(g5
g6
Ntp770
Rp771
(dp772
g10
g11
(g15
S'\x00\x00\x00\x00\x00\x00\xf8\xff'
p773
tp774
Rp775
sg21
g11
(g15
S'\x00\x00\x00\x00\x00`i@'
p776
tp777
Rp778
sg34
g35
sg94
g11
(g97
S'\x07\x00\x00\x00\x00\x00\x00\x00'
p779
tp780
Rp781
sg36
(dp782
g21
g778
sg94
g781
sg104
g11
(g97
S'\x03\x00\x00\x00\x00\x00\x00\x00'
p783
tp784
Rp785
sg38
g11
(g15
S'\xb6:\xbd\xa3\x1c\xc6\xec?'
p786
tp787
Rp788
ssg42
g11
(g12
(S'S6'
p789
I0
I1
tp790
Rp791
(I3
S'|'
p792
NNNI6
I1
I0
tp793
bS'ISOMAP'
p794
tp795
Rp796
sg51
F0.2
sg104
g785
sg52
g11
(g12
(S'S3'
p797
I0
I1
tp798
Rp799
(I3
S'|'
p800
NNNI3
I1
I0
tp801
bS'VGG'
p802
tp803
Rp804
sg61
g11
(g15
S'\x18h\x1f\\9.\xd1?'
p805
tp806
Rp807
sg65
g11
(g12
(S'S2'
p808
I0
I1
tp809
Rp810
(I3
S'|'
p811
NNNI2
I1
I0
tp812
bS'RF'
p813
tp814
Rp815
sg74
I3
sg38
g788
sg75
g76
sg77
g11
(g15
S'\xb5#\x04!\x92F\xed?'
p816
tp817
Rp818
sg81
g82
sg83
g84
sbag4
(g5
g6
Ntp819
Rp820
(dp821
g10
g11
(g15
S'\x00\x00\x00\x00\x00\x00\xf8\xff'
p822
tp823
Rp824
sg21
g11
(g15
S'\x00\x00\x00\x00\x00\x00D@'
p825
tp826
Rp827
sg25
g33
sg34
g35
sg36
(dp828
g21
g827
sg38
g11
(g15
S"<\xd8\xd8'\x9f'\xef?"
p829
tp830
Rp831
sg25
g33
ssg42
g11
(g12
(S'S3'
p832
I0
I1
tp833
Rp834
(I3
S'|'
p835
NNNI3
I1
I0
tp836
bS'PCA'
p837
tp838
Rp839
sg51
F0.2
sg52
g11
(g12
(S'S3'
p840
I0
I1
tp841
Rp842
(I3
S'|'
p843
NNNI3
I1
I0
tp844
bS'VGG'
p845
tp846
Rp847
sg61
g11
(g15
S'+\xf6\x8b\xeb\xeb\x9f\xd5?'
p848
tp849
Rp850
sg65
g11
(g12
(S'S2'
p851
I0
I1
tp852
Rp853
(I3
S'|'
p854
NNNI2
I1
I0
tp855
bS'RF'
p856
tp857
Rp858
sg74
I3
sg38
g831
sg75
g76
sg77
g11
(g15
S'\x0f\x86\x80\xebF\xba\xed?'
p859
tp860
Rp861
sg81
g82
sg83
g84
sbag4
(g5
g6
Ntp862
Rp863
(dp864
g10
g11
(g15
S'\x00\x00\x00\x00\x00\x00\xf8\xff'
p865
tp866
Rp867
sg21
g11
(g15
S'\x00\x00\x00\x00\x00\xc0p@'
p868
tp869
Rp870
sg34
g35
sg94
g11
(g97
S'\x07\x00\x00\x00\x00\x00\x00\x00'
p871
tp872
Rp873
sg36
(dp874
g21
g870
sg94
g873
sg104
g11
(g97
S'\x02\x00\x00\x00\x00\x00\x00\x00'
p875
tp876
Rp877
sg38
g11
(g15
S'^\x06\x9fO\xb5!\xe0?'
p878
tp879
Rp880
ssg42
g11
(g12
(S'S6'
p881
I0
I1
tp882
Rp883
(I3
S'|'
p884
NNNI6
I1
I0
tp885
bS'ISOMAP'
p886
tp887
Rp888
sg51
F0.2
sg104
g877
sg52
g11
(g12
(S'S3'
p889
I0
I1
tp890
Rp891
(I3
S'|'
p892
NNNI3
I1
I0
tp893
bS'VGG'
p894
tp895
Rp896
sg61
g11
(g15
S'\xf0\xc8\xec@\\u\xde?'
p897
tp898
Rp899
sg65
g11
(g12
(S'S2'
p900
I0
I1
tp901
Rp902
(I3
S'|'
p903
NNNI2
I1
I0
tp904
bS'RF'
p905
tp906
Rp907
sg74
I3
sg38
g880
sg75
g76
sg77
g11
(g15
S'\x0b,\x81\xea\xaa\xd1\xec?'
p908
tp909
Rp910
sg81
g82
sg83
g84
sbag4
(g5
g6
Ntp911
Rp912
(dp913
g10
g11
(g15
S'\x00\x00\x00\x00\x00\x00\xf8\xff'
p914
tp915
Rp916
sg21
g11
(g15
S'\x00\x00\x00\x00\x00\xc0p@'
p917
tp918
Rp919
sg34
g35
sg94
g11
(g97
S'\x05\x00\x00\x00\x00\x00\x00\x00'
p920
tp921
Rp922
sg36
(dp923
g21
g919
sg94
g922
sg184
g11
(g97
S'\x01\x00\x00\x00\x00\x00\x00\x00'
p924
tp925
Rp926
sg104
g11
(g97
S'\x04\x00\x00\x00\x00\x00\x00\x00'
p927
tp928
Rp929
sg38
g11
(g15
S'Va.\xd4\x89A\xd3?'
p930
tp931
Rp932
ssg42
g11
(g12
(S'S6'
p933
I0
I1
tp934
Rp935
(I3
S'|'
p936
NNNI6
I1
I0
tp937
bS'ISOMAP'
p938
tp939
Rp940
sg51
F0.2
sg104
g929
sg52
g11
(g12
(S'S8'
p941
I0
I1
tp942
Rp943
(I3
S'|'
p944
NNNI8
I1
I0
tp945
bS'haralick'
p946
tp947
Rp948
sg184
g926
sg61
g11
(g15
S'\xbd(\t\x03\xbd\xd3\xd6?'
p949
tp950
Rp951
sg65
g11
(g12
(S'S2'
p952
I0
I1
tp953
Rp954
(I3
S'|'
p955
NNNI2
I1
I0
tp956
bS'RF'
p957
tp958
Rp959
sg74
I3
sg38
g932
sg75
g76
sg77
g11
(g15
S'\x08\x07\x7f\x01\xea\\\xed?'
p960
tp961
Rp962
sg81
g82
sg83
g84
sbag4
(g5
g6
Ntp963
Rp964
(dp965
g10
g11
(g15
S'\x00\x00\x00\x00\x00\x00\xf8\xff'
p966
tp967
Rp968
sg94
g11
(g97
S'\x03\x00\x00\x00\x00\x00\x00\x00'
p969
tp970
Rp971
sg34
g35
sg36
(dp972
g94
g971
sg194
g11
(g15
S'\xebOD\x13\x88X3@'
p973
tp974
Rp975
sg184
g11
(g97
S'\x02\x00\x00\x00\x00\x00\x00\x00'
p976
tp977
Rp978
sg104
g11
(g97
S'\x04\x00\x00\x00\x00\x00\x00\x00'
p979
tp980
Rp981
sg176
g11
(g15
S'6\x17\xce\x89,\x10\x0c@'
p982
tp983
Rp984
ssg176
g984
sg42
g11
(g12
(S'S6'
p985
I0
I1
tp986
Rp987
(I3
S'|'
p988
NNNI6
I1
I0
tp989
bS'ISOMAP'
p990
tp991
Rp992
sg51
F0.2
sg104
g981
sg52
g11
(g12
(S'S8'
p993
I0
I1
tp994
Rp995
(I3
S'|'
p996
NNNI8
I1
I0
tp997
bS'haralick'
p998
tp999
Rp1000
sg194
g975
sg184
g978
sg61
g11
(g15
S'\x85\xc4b\xe5\x11\xb2\xd2?'
p1001
tp1002
Rp1003
sg65
g11
(g12
(S'S3'
p1004
I0
I1
tp1005
Rp1006
(I3
S'|'
p1007
NNNI3
I1
I0
tp1008
bS'SVM'
p1009
tp1010
Rp1011
sg74
I3
sg75
g76
sg77
g11
(g15
S'P\xe8\x86k\xe4\x8c\xeb?'
p1012
tp1013
Rp1014
sg81
g82
sg83
g84
sbag4
(g5
g6
Ntp1015
Rp1016
(dp1017
g10
g11
(g15
S'\x00\x00\x00\x00\x00\x00\xf8\xff'
p1018
tp1019
Rp1020
sg94
g11
(g97
S'\x03\x00\x00\x00\x00\x00\x00\x00'
p1021
tp1022
Rp1023
sg34
g35
sg36
(dp1024
g94
g1023
sg194
g11
(g15
S'\x9cI\xef\xc1\x1d\x10S@'
p1025
tp1026
Rp1027
sg104
g11
(g97
S'\x03\x00\x00\x00\x00\x00\x00\x00'
p1028
tp1029
Rp1030
sg176
g11
(g15
S'N4d\x84\x1b\xd3\x1d@'
p1031
tp1032
Rp1033
ssg176
g1033
sg42
g11
(g12
(S'S6'
p1034
I0
I1
tp1035
Rp1036
(I3
S'|'
p1037
NNNI6
I1
I0
tp1038
bS'ISOMAP'
p1039
tp1040
Rp1041
sg51
F0.2
sg104
g1030
sg52
g11
(g12
(S'S3'
p1042
I0
I1
tp1043
Rp1044
(I3
S'|'
p1045
NNNI3
I1
I0
tp1046
bS'VGG'
p1047
tp1048
Rp1049
sg194
g1027
sg61
g11
(g15
S'\xb1m1\x1eY\xd4\xce?'
p1050
tp1051
Rp1052
sg65
g11
(g12
(S'S3'
p1053
I0
I1
tp1054
Rp1055
(I3
S'|'
p1056
NNNI3
I1
I0
tp1057
bS'SVM'
p1058
tp1059
Rp1060
sg74
I3
sg75
g76
sg77
g11
(g15
S'\xa4\xdb\xfczV\xa2\xed?'
p1061
tp1062
Rp1063
sg81
g82
sg83
g84
sbag4
(g5
g6
Ntp1064
Rp1065
(dp1066
g10
g11
(g15
S'\x00\x00\x00\x00\x00\x00\xf8\xff'
p1067
tp1068
Rp1069
sg21
g11
(g15
S'\x00\x00\x00\x00\x00\xc0p@'
p1070
tp1071
Rp1072
sg25
g33
sg34
g35
sg36
(dp1073
g21
g1072
sg38
g11
(g15
S'\x96\xeb\xe9V\xd2\xf2\xda?'
p1074
tp1075
Rp1076
sg25
g33
ssg42
g11
(g12
(S'S3'
p1077
I0
I1
tp1078
Rp1079
(I3
S'|'
p1080
NNNI3
I1
I0
tp1081
bS'PCA'
p1082
tp1083
Rp1084
sg51
F0.2
sg52
g11
(g12
(S'S9'
p1085
I0
I1
tp1086
Rp1087
(I3
S'|'
p1088
NNNI9
I1
I0
tp1089
bS'inception'
p1090
tp1091
Rp1092
sg61
g11
(g15
S'u\x1b\xb6\xa49\x1c\xdb?'
p1093
tp1094
Rp1095
sg65
g11
(g12
(S'S2'
p1096
I0
I1
tp1097
Rp1098
(I3
S'|'
p1099
NNNI2
I1
I0
tp1100
bS'RF'
p1101
tp1102
Rp1103
sg74
I3
sg38
g1076
sg75
g76
sg77
g11
(g15
S'\rv\x85\xbc,\xbb\xeb?'
p1104
tp1105
Rp1106
sg81
g82
sg83
g84
sbag4
(g5
g6
Ntp1107
Rp1108
(dp1109
g10
g11
(g15
S'\x00\x00\x00\x00\x00\x00\xf8\xff'
p1110
tp1111
Rp1112
sg25
g33
sg34
g35
sg36
(dp1113
g25
g33
sg194
g11
(g15
S'p\xc6\xa9\xd7\xfe:W@'
p1114
tp1115
Rp1116
sg184
g11
(g97
S'\x02\x00\x00\x00\x00\x00\x00\x00'
p1117
tp1118
Rp1119
sg176
g11
(g15
S'\r\x02d\x14\xe4e\x11@'
p1120
tp1121
Rp1122
ssg42
g11
(g12
(S'S3'
p1123
I0
I1
tp1124
Rp1125
(I3
S'|'
p1126
NNNI3
I1
I0
tp1127
bS'PCA'
p1128
tp1129
Rp1130
sg51
F0.2
sg176
g1122
sg52
g11
(g12
(S'S8'
p1131
I0
I1
tp1132
Rp1133
(I3
S'|'
p1134
NNNI8
I1
I0
tp1135
bS'haralick'
p1136
tp1137
Rp1138
sg194
g1116
sg184
g1119
sg61
g11
(g15
S'\xb0\x93\xcb\xf3\x0e\xcb\xd1?'
p1139
tp1140
Rp1141
sg65
g11
(g12
(S'S3'
p1142
I0
I1
tp1143
Rp1144
(I3
S'|'
p1145
NNNI3
I1
I0
tp1146
bS'SVM'
p1147
tp1148
Rp1149
sg74
I3
sg75
g76
sg77
g11
(g15
S'\xd1\x82\x85\xf7\xd1F\xec?'
p1150
tp1151
Rp1152
sg81
g82
sg83
g84
sbag4
(g5
g6
Ntp1153
Rp1154
(dp1155
g10
g11
(g15
S'\x00\x00\x00\x00\x00\x00\xf8\xff'
p1156
tp1157
Rp1158
sg94
g11
(g97
S'\x07\x00\x00\x00\x00\x00\x00\x00'
p1159
tp1160
Rp1161
sg34
g35
sg36
(dp1162
g94
g1161
sg194
g11
(g15
S'Fz\xfb\x04\txW@'
p1163
tp1164
Rp1165
sg104
g11
(g97
S'\x02\x00\x00\x00\x00\x00\x00\x00'
p1166
tp1167
Rp1168
sg176
g11
(g15
S'xM\xdf,4\t\x14@'
p1169
tp1170
Rp1171
ssg176
g1171
sg42
g11
(g12
(S'S6'
p1172
I0
I1
tp1173
Rp1174
(I3
S'|'
p1175
NNNI6
I1
I0
tp1176
bS'ISOMAP'
p1177
tp1178
Rp1179
sg51
F0.2
sg104
g1168
sg52
g11
(g12
(S'S9'
p1180
I0
I1
tp1181
Rp1182
(I3
S'|'
p1183
NNNI9
I1
I0
tp1184
bS'inception'
p1185
tp1186
Rp1187
sg194
g1165
sg61
g11
(g15
S'\x94OB\xeeM\xd6\xd3?'
p1188
tp1189
Rp1190
sg65
g11
(g12
(S'S3'
p1191
I0
I1
tp1192
Rp1193
(I3
S'|'
p1194
NNNI3
I1
I0
tp1195
bS'SVM'
p1196
tp1197
Rp1198
sg74
I3
sg75
g76
sg77
g11
(g15
S'\xa1}\x8d\xd7\x16\x8e\xe3?'
p1199
tp1200
Rp1201
sg81
g82
sg83
g84
sbag4
(g5
g6
Ntp1202
Rp1203
(dp1204
g10
g11
(g15
S'\x00\x00\x00\x00\x00\x00\xf8\xff'
p1205
tp1206
Rp1207
sg25
g392
sg34
g35
sg36
(dp1208
g25
g392
sg194
g11
(g15
S']\xff\xc6\x18322@'
p1209
tp1210
Rp1211
sg176
g11
(g15
S'`\x11gD]\xd7\xcd?'
p1212
tp1213
Rp1214
ssg42
g11
(g12
(S'S3'
p1215
I0
I1
tp1216
Rp1217
(I3
S'|'
p1218
NNNI3
I1
I0
tp1219
bS'PCA'
p1220
tp1221
Rp1222
sg51
F0.2
sg176
g1214
sg52
g11
(g12
(S'S9'
p1223
I0
I1
tp1224
Rp1225
(I3
S'|'
p1226
NNNI9
I1
I0
tp1227
bS'inception'
p1228
tp1229
Rp1230
sg194
g1211
sg61
g11
(g15
S'A%\xf6PM/\xd4?'
p1231
tp1232
Rp1233
sg65
g11
(g12
(S'S3'
p1234
I0
I1
tp1235
Rp1236
(I3
S'|'
p1237
NNNI3
I1
I0
tp1238
bS'SVM'
p1239
tp1240
Rp1241
sg74
I3
sg75
g76
sg77
g11
(g15
S'3\x9dpfb\xb7\xe7?'
p1242
tp1243
Rp1244
sg81
g82
sg83
g84
sbag4
(g5
g6
Ntp1245
Rp1246
(dp1247
g10
g11
(g15
S'\x00\x00\x00\x00\x00\x00\xf8\xff'
p1248
tp1249
Rp1250
sg25
g392
sg34
g35
sg36
(dp1251
g25
g392
sg194
g11
(g15
S'\xd1`V.\x96\x8eK@'
p1252
tp1253
Rp1254
sg176
g11
(g15
S'jz\xf9\xe5\x9e\n\x05@'
p1255
tp1256
Rp1257
ssg42
g11
(g12
(S'S3'
p1258
I0
I1
tp1259
Rp1260
(I3
S'|'
p1261
NNNI3
I1
I0
tp1262
bS'PCA'
p1263
tp1264
Rp1265
sg51
F0.2
sg176
g1257
sg52
g11
(g12
(S'S9'
p1266
I0
I1
tp1267
Rp1268
(I3
S'|'
p1269
NNNI9
I1
I0
tp1270
bS'inception'
p1271
tp1272
Rp1273
sg194
g1254
sg61
g11
(g15
S'\xcbJ\xb7\xe2\xdf\xdc\xd4?'
p1274
tp1275
Rp1276
sg65
g11
(g12
(S'S3'
p1277
I0
I1
tp1278
Rp1279
(I3
S'|'
p1280
NNNI3
I1
I0
tp1281
bS'SVM'
p1282
tp1283
Rp1284
sg74
I3
sg75
g76
sg77
g11
(g15
S'\xab\xd2\x80M&\x00\xe9?'
p1285
tp1286
Rp1287
sg81
g82
sg83
g84
sbag4
(g5
g6
Ntp1288
Rp1289
(dp1290
g10
g11
(g15
S'\x00\x00\x00\x00\x00\x00\xf8\xff'
p1291
tp1292
Rp1293
sg94
g11
(g97
S'\x07\x00\x00\x00\x00\x00\x00\x00'
p1294
tp1295
Rp1296
sg34
g35
sg36
(dp1297
g94
g1296
sg194
g11
(g15
S'\xe9\xbf\xea\xbf\xc2=L@'
p1298
tp1299
Rp1300
sg184
g11
(g97
S'\x03\x00\x00\x00\x00\x00\x00\x00'
p1301
tp1302
Rp1303
sg104
g11
(g97
S'\x04\x00\x00\x00\x00\x00\x00\x00'
p1304
tp1305
Rp1306
sg176
g11
(g15
S"\xbe\xb6\xa13';\xdb?"
p1307
tp1308
Rp1309
ssg176
g1309
sg42
g11
(g12
(S'S6'
p1310
I0
I1
tp1311
Rp1312
(I3
S'|'
p1313
NNNI6
I1
I0
tp1314
bS'ISOMAP'
p1315
tp1316
Rp1317
sg51
F0.2
sg104
g1306
sg52
g11
(g12
(S'S8'
p1318
I0
I1
tp1319
Rp1320
(I3
S'|'
p1321
NNNI8
I1
I0
tp1322
bS'haralick'
p1323
tp1324
Rp1325
sg194
g1300
sg184
g1303
sg61
g11
(g15
S'S\xeat\xdf\x12\x07\xd1?'
p1326
tp1327
Rp1328
sg65
g11
(g12
(S'S3'
p1329
I0
I1
tp1330
Rp1331
(I3
S'|'
p1332
NNNI3
I1
I0
tp1333
bS'SVM'
p1334
tp1335
Rp1336
sg74
I3
sg75
g76
sg77
g11
(g15
S'\xed\xe1\x06\xce\x11G\xeb?'
p1337
tp1338
Rp1339
sg81
g82
sg83
g84
sbag4
(g5
g6
Ntp1340
Rp1341
(dp1342
g10
g11
(g15
S'\x00\x00\x00\x00\x00\x00\xf8\xff'
p1343
tp1344
Rp1345
sg21
g11
(g15
S'\x00\x00\x00\x00\x00@a@'
p1346
tp1347
Rp1348
sg34
g35
sg94
g11
(g97
S'\x03\x00\x00\x00\x00\x00\x00\x00'
p1349
tp1350
Rp1351
sg36
(dp1352
g21
g1348
sg94
g1351
sg104
g11
(g97
S'\x04\x00\x00\x00\x00\x00\x00\x00'
p1353
tp1354
Rp1355
sg38
g11
(g15
S'Bu[\xe7\xd4W\xe3?'
p1356
tp1357
Rp1358
ssg42
g11
(g12
(S'S6'
p1359
I0
I1
tp1360
Rp1361
(I3
S'|'
p1362
NNNI6
I1
I0
tp1363
bS'ISOMAP'
p1364
tp1365
Rp1366
sg51
F0.2
sg104
g1355
sg52
g11
(g12
(S'S9'
p1367
I0
I1
tp1368
Rp1369
(I3
S'|'
p1370
NNNI9
I1
I0
tp1371
bS'inception'
p1372
tp1373
Rp1374
sg61
g11
(g15
S']\xa5\x80\xefg\xc5\xed?'
p1375
tp1376
Rp1377
sg65
g11
(g12
(S'S2'
p1378
I0
I1
tp1379
Rp1380
(I3
S'|'
p1381
NNNI2
I1
I0
tp1382
bS'RF'
p1383
tp1384
Rp1385
sg74
I3
sg38
g1358
sg75
g76
sg77
g11
(g15
S"\x80'\x88.\x070\xe9?"
p1386
tp1387
Rp1388
sg81
g82
sg83
g84
sbag4
(g5
g6
Ntp1389
Rp1390
(dp1391
g10
g11
(g15
S'\x00\x00\x00\x00\x00\x00\xf8\xff'
p1392
tp1393
Rp1394
sg21
g11
(g15
S'\x00\x00\x00\x00\x00\x00D@'
p1395
tp1396
Rp1397
sg25
g392
sg34
g35
sg36
(dp1398
g21
g1397
sg38
g11
(g15
S'\x86\xbd\xb0)1\xc8\xec?'
p1399
tp1400
Rp1401
sg25
g392
ssg42
g11
(g12
(S'S3'
p1402
I0
I1
tp1403
Rp1404
(I3
S'|'
p1405
NNNI3
I1
I0
tp1406
bS'PCA'
p1407
tp1408
Rp1409
sg51
F0.2
sg52
g11
(g12
(S'S9'
p1410
I0
I1
tp1411
Rp1412
(I3
S'|'
p1413
NNNI9
I1
I0
tp1414
bS'inception'
p1415
tp1416
Rp1417
sg61
g11
(g15
S'\x01\x89\xde\x15\xb2\xe7\xe2?'
p1418
tp1419
Rp1420
sg65
g11
(g12
(S'S2'
p1421
I0
I1
tp1422
Rp1423
(I3
S'|'
p1424
NNNI2
I1
I0
tp1425
bS'RF'
p1426
tp1427
Rp1428
sg74
I3
sg38
g1401
sg75
g76
sg77
g11
(g15
S'\xdd\xbe\x01\x11\x97\x17\xeb?'
p1429
tp1430
Rp1431
sg81
g82
sg83
g84
sbag4
(g5
g6
Ntp1432
Rp1433
(dp1434
g10
g11
(g15
S'\x00\x00\x00\x00\x00\x00\xf8\xff'
p1435
tp1436
Rp1437
sg25
g33
sg34
g35
sg36
(dp1438
g25
g33
sg194
g11
(g15
S'\x1d\xa7\xd8\xb7\xb4\x16S@'
p1439
tp1440
Rp1441
sg176
g11
(g15
S'x\xb8\x19F9\xad\x02@'
p1442
tp1443
Rp1444
ssg42
g11
(g12
(S'S3'
p1445
I0
I1
tp1446
Rp1447
(I3
S'|'
p1448
NNNI3
I1
I0
tp1449
bS'PCA'
p1450
tp1451
Rp1452
sg51
F0.2
sg176
g1444
sg52
g11
(g12
(S'S3'
p1453
I0
I1
tp1454
Rp1455
(I3
S'|'
p1456
NNNI3
I1
I0
tp1457
bS'VGG'
p1458
tp1459
Rp1460
sg194
g1441
sg61
g11
(g15
S'\x9b\x1b\x08\xf1]k\xce?'
p1461
tp1462
Rp1463
sg65
g11
(g12
(S'S3'
p1464
I0
I1
tp1465
Rp1466
(I3
S'|'
p1467
NNNI3
I1
I0
tp1468
bS'SVM'
p1469
tp1470
Rp1471
sg74
I3
sg75
g76
sg77
g11
(g15
S'\x0b,\x81\xea\xaa\xd1\xec?'
p1472
tp1473
Rp1474
sg81
g82
sg83
g84
sbag4
(g5
g6
Ntp1475
Rp1476
(dp1477
g10
g11
(g15
S'\x00\x00\x00\x00\x00\x00\xf8\xff'
p1478
tp1479
Rp1480
sg21
g11
(g15
S'\x00\x00\x00\x00\x00\x00D@'
p1481
tp1482
Rp1483
sg34
g35
sg94
g11
(g97
S'\x07\x00\x00\x00\x00\x00\x00\x00'
p1484
tp1485
Rp1486
sg36
(dp1487
g21
g1483
sg94
g1486
sg104
g11
(g97
S'\x03\x00\x00\x00\x00\x00\x00\x00'
p1488
tp1489
Rp1490
sg38
g11
(g15
S'\x96\xd6\x1b\xa3\xa4\xd9\xe5?'
p1491
tp1492
Rp1493
ssg42
g11
(g12
(S'S6'
p1494
I0
I1
tp1495
Rp1496
(I3
S'|'
p1497
NNNI6
I1
I0
tp1498
bS'ISOMAP'
p1499
tp1500
Rp1501
sg51
F0.2
sg104
g1490
sg52
g11
(g12
(S'S9'
p1502
I0
I1
tp1503
Rp1504
(I3
S'|'
p1505
NNNI9
I1
I0
tp1506
bS'inception'
p1507
tp1508
Rp1509
sg61
g11
(g15
S'+\xa6q\x0e~l\xec?'
p1510
tp1511
Rp1512
sg65
g11
(g12
(S'S2'
p1513
I0
I1
tp1514
Rp1515
(I3
S'|'
p1516
NNNI2
I1
I0
tp1517
bS'RF'
p1518
tp1519
Rp1520
sg74
I3
sg38
g1493
sg75
g76
sg77
g11
(g15
S'\xb7]\r\xc4\xf90\xea?'
p1521
tp1522
Rp1523
sg81
g82
sg83
g84
sbag4
(g5
g6
Ntp1524
Rp1525
(dp1526
g10
g11
(g15
S'\x00\x00\x00\x00\x00\x00\xf8\xff'
p1527
tp1528
Rp1529
sg25
g392
sg34
g35
sg36
(dp1530
g25
g392
sg194
g11
(g15
S'|\xb0\xe0\xf1\xc0\xba"@'
p1531
tp1532
Rp1533
sg176
g11
(g15
S'\xa3;\xb3-\xe2\xae\x11@'
p1534
tp1535
Rp1536
ssg42
g11
(g12
(S'S3'
p1537
I0
I1
tp1538
Rp1539
(I3
S'|'
p1540
NNNI3
I1
I0
tp1541
bS'PCA'
p1542
tp1543
Rp1544
sg51
F0.2
sg176
g1536
sg52
g11
(g12
(S'S9'
p1545
I0
I1
tp1546
Rp1547
(I3
S'|'
p1548
NNNI9
I1
I0
tp1549
bS'inception'
p1550
tp1551
Rp1552
sg194
g1533
sg61
g11
(g15
S'\x8dd\xab.sg\xd4?'
p1553
tp1554
Rp1555
sg65
g11
(g12
(S'S3'
p1556
I0
I1
tp1557
Rp1558
(I3
S'|'
p1559
NNNI3
I1
I0
tp1560
bS'SVM'
p1561
tp1562
Rp1563
sg74
I3
sg75
g76
sg77
g11
(g15
S'\xf56\xfaC!\xb9\xe8?'
p1564
tp1565
Rp1566
sg81
g82
sg83
g84
sbag4
(g5
g6
Ntp1567
Rp1568
(dp1569
g10
g11
(g15
S'\x00\x00\x00\x00\x00\x00\xf8\xff'
p1570
tp1571
Rp1572
sg25
g33
sg34
g35
sg36
(dp1573
g25
g33
sg194
g11
(g15
S'4\xfd\xdbL\x00\x9d?@'
p1574
tp1575
Rp1576
sg176
g11
(g15
S'2~ \xf1C\xac\xfe?'
p1577
tp1578
Rp1579
ssg42
g11
(g12
(S'S3'
p1580
I0
I1
tp1581
Rp1582
(I3
S'|'
p1583
NNNI3
I1
I0
tp1584
bS'PCA'
p1585
tp1586
Rp1587
sg51
F0.2
sg176
g1579
sg52
g11
(g12
(S'S9'
p1588
I0
I1
tp1589
Rp1590
(I3
S'|'
p1591
NNNI9
I1
I0
tp1592
bS'inception'
p1593
tp1594
Rp1595
sg194
g1576
sg61
g11
(g15
S'?\xa6N\xa9\xac\xe9\xd4?'
p1596
tp1597
Rp1598
sg65
g11
(g12
(S'S3'
p1599
I0
I1
tp1600
Rp1601
(I3
S'|'
p1602
NNNI3
I1
I0
tp1603
bS'SVM'
p1604
tp1605
Rp1606
sg74
I3
sg75
g76
sg77
g11
(g15
S'\xb5\xe9\xfa}*\\\xe8?'
p1607
tp1608
Rp1609
sg81
g82
sg83
g84
sbag4
(g5
g6
Ntp1610
Rp1611
(dp1612
g10
g11
(g15
S'\x00\x00\x00\x00\x00\x00\xf8\xff'
p1613
tp1614
Rp1615
sg25
g392
sg34
g35
sg36
(dp1616
g25
g392
sg194
g11
(g15
S'\x10\xa4Ut$\x85T@'
p1617
tp1618
Rp1619
sg184
g11
(g97
S'\x02\x00\x00\x00\x00\x00\x00\x00'
p1620
tp1621
Rp1622
sg176
g11
(g15
S'\x1a@O\xce\xbf\x84\xb4?'
p1623
tp1624
Rp1625
ssg42
g11
(g12
(S'S3'
p1626
I0
I1
tp1627
Rp1628
(I3
S'|'
p1629
NNNI3
I1
I0
tp1630
bS'PCA'
p1631
tp1632
Rp1633
sg51
F0.2
sg176
g1625
sg52
g11
(g12
(S'S8'
p1634
I0
I1
tp1635
Rp1636
(I3
S'|'
p1637
NNNI8
I1
I0
tp1638
bS'haralick'
p1639
tp1640
Rp1641
sg194
g1619
sg184
g1622
sg61
g11
(g15
S'\xa0`\x0b#\x86\xe0\xcf?'
p1642
tp1643
Rp1644
sg65
g11
(g12
(S'S3'
p1645
I0
I1
tp1646
Rp1647
(I3
S'|'
p1648
NNNI3
I1
I0
tp1649
bS'SVM'
p1650
tp1651
Rp1652
sg74
I3
sg75
g76
sg77
g11
(g15
S'p\xa1\x07C\xc0u\xeb?'
p1653
tp1654
Rp1655
sg81
g82
sg83
g84
sbag4
(g5
g6
Ntp1656
Rp1657
(dp1658
g10
g11
(g15
S'\x00\x00\x00\x00\x00\x00\xf8\xff'
p1659
tp1660
Rp1661
sg94
g11
(g97
S'\x06\x00\x00\x00\x00\x00\x00\x00'
p1662
tp1663
Rp1664
sg34
g35
sg36
(dp1665
g94
g1664
sg194
g11
(g15
S'\xae\xea\xa7\xaa1OR@'
p1666
tp1667
Rp1668
sg104
g11
(g97
S'\x02\x00\x00\x00\x00\x00\x00\x00'
p1669
tp1670
Rp1671
sg176
g11
(g15
S'i2\x95a\x93X\xfa?'
p1672
tp1673
Rp1674
ssg176
g1674
sg42
g11
(g12
(S'S6'
p1675
I0
I1
tp1676
Rp1677
(I3
S'|'
p1678
NNNI6
I1
I0
tp1679
bS'ISOMAP'
p1680
tp1681
Rp1682
sg51
F0.2
sg104
g1671
sg52
g11
(g12
(S'S9'
p1683
I0
I1
tp1684
Rp1685
(I3
S'|'
p1686
NNNI9
I1
I0
tp1687
bS'inception'
p1688
tp1689
Rp1690
sg194
g1668
sg61
g11
(g15
S'\xa8\xb3~0\xbe\x87\xd3?'
p1691
tp1692
Rp1693
sg65
g11
(g12
(S'S3'
p1694
I0
I1
tp1695
Rp1696
(I3
S'|'
p1697
NNNI3
I1
I0
tp1698
bS'SVM'
p1699
tp1700
Rp1701
sg74
I3
sg75
g76
sg77
g11
(g15
S'\xa9IgM\xb0\xb5\xe1?'
p1702
tp1703
Rp1704
sg81
g82
sg83
g84
sbag4
(g5
g6
Ntp1705
Rp1706
(dp1707
g10
g11
(g15
S'\x00\x00\x00\x00\x00\x00\xf8\xff'
p1708
tp1709
Rp1710
sg21
g11
(g15
S'\x00\x00\x00\x00\x00\xc0p@'
p1711
tp1712
Rp1713
sg25
g33
sg34
g35
sg36
(dp1714
g21
g1713
sg38
g11
(g15
S'\x1e9\x93{\xdb\xf1\xea?'
p1715
tp1716
Rp1717
sg25
g33
ssg42
g11
(g12
(S'S3'
p1718
I0
I1
tp1719
Rp1720
(I3
S'|'
p1721
NNNI3
I1
I0
tp1722
bS'PCA'
p1723
tp1724
Rp1725
sg51
F0.2
sg52
g11
(g12
(S'S3'
p1726
I0
I1
tp1727
Rp1728
(I3
S'|'
p1729
NNNI3
I1
I0
tp1730
bS'VGG'
p1731
tp1732
Rp1733
sg61
g11
(g15
S'~\xb5\xae\xdf\x1de\xd0?'
p1734
tp1735
Rp1736
sg65
g11
(g12
(S'S2'
p1737
I0
I1
tp1738
Rp1739
(I3
S'|'
p1740
NNNI2
I1
I0
tp1741
bS'RF'
p1742
tp1743
Rp1744
sg74
I3
sg38
g1717
sg75
g76
sg77
g11
(g15
S'\xb4\xfe\x018\xd1\xd1\xed?'
p1745
tp1746
Rp1747
sg81
g82
sg83
g84
sbag4
(g5
g6
Ntp1748
Rp1749
(dp1750
g10
g11
(g15
S'\x00\x00\x00\x00\x00\x00\xf8\xff'
p1751
tp1752
Rp1753
sg94
g11
(g97
S'\x04\x00\x00\x00\x00\x00\x00\x00'
p1754
tp1755
Rp1756
sg34
g35
sg36
(dp1757
g94
g1756
sg194
g11
(g15
S'\x92\xf0\x98=5-S@'
p1758
tp1759
Rp1760
sg104
g11
(g97
S'\x03\x00\x00\x00\x00\x00\x00\x00'
p1761
tp1762
Rp1763
sg176
g11
(g15
S'\x04{\xb4\xf9\xf6\x1e\xbe?'
p1764
tp1765
Rp1766
ssg176
g1766
sg42
g11
(g12
(S'S6'
p1767
I0
I1
tp1768
Rp1769
(I3
S'|'
p1770
NNNI6
I1
I0
tp1771
bS'ISOMAP'
p1772
tp1773
Rp1774
sg51
F0.2
sg104
g1763
sg52
g11
(g12
(S'S9'
p1775
I0
I1
tp1776
Rp1777
(I3
S'|'
p1778
NNNI9
I1
I0
tp1779
bS'inception'
p1780
tp1781
Rp1782
sg194
g1760
sg61
g11
(g15
S'G\x81\xeb\xc2\x9c\xa4\xd2?'
p1783
tp1784
Rp1785
sg65
g11
(g12
(S'S3'
p1786
I0
I1
tp1787
Rp1788
(I3
S'|'
p1789
NNNI3
I1
I0
tp1790
bS'SVM'
p1791
tp1792
Rp1793
sg74
I3
sg75
g76
sg77
g11
(g15
S'\xcb\xed\xe0j\xe5(\xe4?'
p1794
tp1795
Rp1796
sg81
g82
sg83
g84
sbag4
(g5
g6
Ntp1797
Rp1798
(dp1799
g10
g11
(g15
S'\x00\x00\x00\x00\x00\x00\xf8\xff'
p1800
tp1801
Rp1802
sg94
g11
(g97
S'\x03\x00\x00\x00\x00\x00\x00\x00'
p1803
tp1804
Rp1805
sg34
g35
sg36
(dp1806
g94
g1805
sg194
g11
(g15
S'd9\xc8\xd7\xd0\xd2U@'
p1807
tp1808
Rp1809
sg104
g11
(g97
S'\x04\x00\x00\x00\x00\x00\x00\x00'
p1810
tp1811
Rp1812
sg176
g11
(g15
S'@\x97\xfd\x7f\x89=\xff?'
p1813
tp1814
Rp1815
ssg176
g1815
sg42
g11
(g12
(S'S6'
p1816
I0
I1
tp1817
Rp1818
(I3
S'|'
p1819
NNNI6
I1
I0
tp1820
bS'ISOMAP'
p1821
tp1822
Rp1823
sg51
F0.2
sg104
g1812
sg52
g11
(g12
(S'S3'
p1824
I0
I1
tp1825
Rp1826
(I3
S'|'
p1827
NNNI3
I1
I0
tp1828
bS'VGG'
p1829
tp1830
Rp1831
sg194
g1809
sg61
g11
(g15
S'\xd0l#i%\r\xcf?'
p1832
tp1833
Rp1834
sg65
g11
(g12
(S'S3'
p1835
I0
I1
tp1836
Rp1837
(I3
S'|'
p1838
NNNI3
I1
I0
tp1839
bS'SVM'
p1840
tp1841
Rp1842
sg74
I3
sg75
g76
sg77
g11
(g15
S'\x07\xe2|\x18)\xe8\xed?'
p1843
tp1844
Rp1845
sg81
g82
sg83
g84
sbag4
(g5
g6
Ntp1846
Rp1847
(dp1848
g10
g11
(g15
S'\x00\x00\x00\x00\x00\x00\xf8\xff'
p1849
tp1850
Rp1851
sg25
g392
sg34
g35
sg36
(dp1852
g25
g392
sg194
g11
(g15
S'|\x1a\x92\\\x1e\xe3\x00@'
p1853
tp1854
Rp1855
sg176
g11
(g15
S'\\\x0bv\xb0\xc3\xde\x0b@'
p1856
tp1857
Rp1858
ssg42
g11
(g12
(S'S3'
p1859
I0
I1
tp1860
Rp1861
(I3
S'|'
p1862
NNNI3
I1
I0
tp1863
bS'PCA'
p1864
tp1865
Rp1866
sg51
F0.2
sg176
g1858
sg52
g11
(g12
(S'S9'
p1867
I0
I1
tp1868
Rp1869
(I3
S'|'
p1870
NNNI9
I1
I0
tp1871
bS'inception'
p1872
tp1873
Rp1874
sg194
g1855
sg61
g11
(g15
S'C\xde\x934j\x87\xd4?'
p1875
tp1876
Rp1877
sg65
g11
(g12
(S'S3'
p1878
I0
I1
tp1879
Rp1880
(I3
S'|'
p1881
NNNI3
I1
I0
tp1882
bS'SVM'
p1883
tp1884
Rp1885
sg74
I3
sg75
g76
sg77
g11
(g15
S')\x86\xf65^[\xe8?'
p1886
tp1887
Rp1888
sg81
g82
sg83
g84
sbag4
(g5
g6
Ntp1889
Rp1890
(dp1891
g10
g11
(g15
S'\x00\x00\x00\x00\x00\x00\xf8\xff'
p1892
tp1893
Rp1894
sg94
g11
(g97
S'\x03\x00\x00\x00\x00\x00\x00\x00'
p1895
tp1896
Rp1897
sg34
g35
sg36
(dp1898
g94
g1897
sg194
g11
(g15
S'\xa8\xbe\x00\xfd\x12jB@'
p1899
tp1900
Rp1901
sg104
g11
(g97
S'\x02\x00\x00\x00\x00\x00\x00\x00'
p1902
tp1903
Rp1904
sg176
g11
(g15
S'\x8c2yV\xaa6\x02@'
p1905
tp1906
Rp1907
ssg176
g1907
sg42
g11
(g12
(S'S6'
p1908
I0
I1
tp1909
Rp1910
(I3
S'|'
p1911
NNNI6
I1
I0
tp1912
bS'ISOMAP'
p1913
tp1914
Rp1915
sg51
F0.2
sg104
g1904
sg52
g11
(g12
(S'S3'
p1916
I0
I1
tp1917
Rp1918
(I3
S'|'
p1919
NNNI3
I1
I0
tp1920
bS'VGG'
p1921
tp1922
Rp1923
sg194
g1901
sg61
g11
(g15
S'\xf3Ir\xed\x08U\xd1?'
p1924
tp1925
Rp1926
sg65
g11
(g12
(S'S3'
p1927
I0
I1
tp1928
Rp1929
(I3
S'|'
p1930
NNNI3
I1
I0
tp1931
bS'SVM'
p1932
tp1933
Rp1934
sg74
I3
sg75
g76
sg77
g11
(g15
S'\xe5\x8bwo\x19\x8a\xeb?'
p1935
tp1936
Rp1937
sg81
g82
sg83
g84
sbag4
(g5
g6
Ntp1938
Rp1939
(dp1940
g10
g11
(g15
S'\x00\x00\x00\x00\x00\x00\xf8\xff'
p1941
tp1942
Rp1943
sg21
g11
(g15
S'\x00\x00\x00\x00\x00`i@'
p1944
tp1945
Rp1946
sg34
g35
sg94
g11
(g97
S'\x07\x00\x00\x00\x00\x00\x00\x00'
p1947
tp1948
Rp1949
sg36
(dp1950
g21
g1946
sg94
g1949
sg104
g11
(g97
S'\x03\x00\x00\x00\x00\x00\x00\x00'
p1951
tp1952
Rp1953
sg38
g11
(g15
S'\x1a\xf18\x8dV\xdc\xe9?'
p1954
tp1955
Rp1956
ssg42
g11
(g12
(S'S6'
p1957
I0
I1
tp1958
Rp1959
(I3
S'|'
p1960
NNNI6
I1
I0
tp1961
bS'ISOMAP'
p1962
tp1963
Rp1964
sg51
F0.2
sg104
g1953
sg52
g11
(g12
(S'S3'
p1965
I0
I1
tp1966
Rp1967
(I3
S'|'
p1968
NNNI3
I1
I0
tp1969
bS'VGG'
p1970
tp1971
Rp1972
sg61
g11
(g15
S'\xd9\\K\xf2\xbc+\xd1?'
p1973
tp1974
Rp1975
sg65
g11
(g12
(S'S2'
p1976
I0
I1
tp1977
Rp1978
(I3
S'|'
p1979
NNNI2
I1
I0
tp1980
bS'RF'
p1981
tp1982
Rp1983
sg74
I3
sg38
g1956
sg75
g76
sg77
g11
(g15
S'\xb5#\x04!\x92F\xed?'
p1984
tp1985
Rp1986
sg81
g82
sg83
g84
sbag4
(g5
g6
Ntp1987
Rp1988
(dp1989
g10
g11
(g15
S'\x00\x00\x00\x00\x00\x00\xf8\xff'
p1990
tp1991
Rp1992
sg94
g11
(g97
S'\x07\x00\x00\x00\x00\x00\x00\x00'
p1993
tp1994
Rp1995
sg34
g35
sg36
(dp1996
g94
g1995
sg194
g11
(g15
S'\x8a\x14\xe9\xf3\xfa](@'
p1997
tp1998
Rp1999
sg104
g11
(g97
S'\x03\x00\x00\x00\x00\x00\x00\x00'
p2000
tp2001
Rp2002
sg176
g11
(g15
S'\xee3|\x15\xf84\x10@'
p2003
tp2004
Rp2005
ssg176
g2005
sg42
g11
(g12
(S'S6'
p2006
I0
I1
tp2007
Rp2008
(I3
S'|'
p2009
NNNI6
I1
I0
tp2010
bS'ISOMAP'
p2011
tp2012
Rp2013
sg51
F0.2
sg104
g2002
sg52
g11
(g12
(S'S3'
p2014
I0
I1
tp2015
Rp2016
(I3
S'|'
p2017
NNNI3
I1
I0
tp2018
bS'VGG'
p2019
tp2020
Rp2021
sg194
g1999
sg61
g11
(g15
S'G\xca\x0f\x14\x12C\xd0?'
p2022
tp2023
Rp2024
sg65
g11
(g12
(S'S3'
p2025
I0
I1
tp2026
Rp2027
(I3
S'|'
p2028
NNNI3
I1
I0
tp2029
bS'SVM'
p2030
tp2031
Rp2032
sg74
I3
sg75
g76
sg77
g11
(g15
S'\x85\x1e\x0c\x01\xd7\x8d\xec?'
p2033
tp2034
Rp2035
sg81
g82
sg83
g84
sbag4
(g5
g6
Ntp2036
Rp2037
(dp2038
g10
g11
(g15
S'\x00\x00\x00\x00\x00\x00\xf8\xff'
p2039
tp2040
Rp2041
sg21
g11
(g15
S'\x00\x00\x00\x00\x00\xc0p@'
p2042
tp2043
Rp2044
sg34
g35
sg94
g11
(g97
S'\x06\x00\x00\x00\x00\x00\x00\x00'
p2045
tp2046
Rp2047
sg36
(dp2048
g21
g2044
sg94
g2047
sg104
g11
(g97
S'\x02\x00\x00\x00\x00\x00\x00\x00'
p2049
tp2050
Rp2051
sg38
g11
(g15
S'\xec\xceb\x8a\xde\xd8\xeb?'
p2052
tp2053
Rp2054
ssg42
g11
(g12
(S'S6'
p2055
I0
I1
tp2056
Rp2057
(I3
S'|'
p2058
NNNI6
I1
I0
tp2059
bS'ISOMAP'
p2060
tp2061
Rp2062
sg51
F0.2
sg104
g2051
sg52
g11
(g12
(S'S3'
p2063
I0
I1
tp2064
Rp2065
(I3
S'|'
p2066
NNNI3
I1
I0
tp2067
bS'VGG'
p2068
tp2069
Rp2070
sg61
g11
(g15
S's<kU\x8b&\xd4?'
p2071
tp2072
Rp2073
sg65
g11
(g12
(S'S2'
p2074
I0
I1
tp2075
Rp2076
(I3
S'|'
p2077
NNNI2
I1
I0
tp2078
bS'RF'
p2079
tp2080
Rp2081
sg74
I3
sg38
g2054
sg75
g76
sg77
g11
(g15
S'\xa5\x00\xffc\x17\x17\xed?'
p2082
tp2083
Rp2084
sg81
g82
sg83
g84
sbag4
(g5
g6
Ntp2085
Rp2086
(dp2087
g10
g11
(g15
S'\x00\x00\x00\x00\x00\x00\xf8\xff'
p2088
tp2089
Rp2090
sg94
g11
(g97
S'\x07\x00\x00\x00\x00\x00\x00\x00'
p2091
tp2092
Rp2093
sg34
g35
sg36
(dp2094
g94
g2093
sg194
g11
(g15
S'\x00x-\xfc\xb6ES@'
p2095
tp2096
Rp2097
sg104
g11
(g97
S'\x03\x00\x00\x00\x00\x00\x00\x00'
p2098
tp2099
Rp2100
sg176
g11
(g15
S'\xc8\x1d\n\x9a8\xc4\x1a@'
p2101
tp2102
Rp2103
ssg176
g2103
sg42
g11
(g12
(S'S6'
p2104
I0
I1
tp2105
Rp2106
(I3
S'|'
p2107
NNNI6
I1
I0
tp2108
bS'ISOMAP'
p2109
tp2110
Rp2111
sg51
F0.2
sg104
g2100
sg52
g11
(g12
(S'S3'
p2112
I0
I1
tp2113
Rp2114
(I3
S'|'
p2115
NNNI3
I1
I0
tp2116
bS'VGG'
p2117
tp2118
Rp2119
sg194
g2097
sg61
g11
(g15
S'\xf0C\x8e\t\xcc\x8f\xd2?'
p2120
tp2121
Rp2122
sg65
g11
(g12
(S'S3'
p2123
I0
I1
tp2124
Rp2125
(I3
S'|'
p2126
NNNI3
I1
I0
tp2127
bS'SVM'
p2128
tp2129
Rp2130
sg74
I3
sg75
g76
sg77
g11
(g15
S'\\\xc1\x87V\xdd\xd2\xec?'
p2131
tp2132
Rp2133
sg81
g82
sg83
g84
sbag4
(g5
g6
Ntp2134
Rp2135
(dp2136
g10
g11
(g15
S'\x00\x00\x00\x00\x00\x00\xf8\xff'
p2137
tp2138
Rp2139
sg21
g11
(g15
S'\x00\x00\x00\x00\x00\xc0p@'
p2140
tp2141
Rp2142
sg25
g33
sg34
g35
sg36
(dp2143
g21
g2142
sg38
g11
(g15
S'\xb6\xed\xe6\xc8\xe6=\xd7?'
p2144
tp2145
Rp2146
sg25
g33
sg184
g11
(g97
S'\x03\x00\x00\x00\x00\x00\x00\x00'
p2147
tp2148
Rp2149
ssg42
g11
(g12
(S'S3'
p2150
I0
I1
tp2151
Rp2152
(I3
S'|'
p2153
NNNI3
I1
I0
tp2154
bS'PCA'
p2155
tp2156
Rp2157
sg51
F0.2
sg52
g11
(g12
(S'S8'
p2158
I0
I1
tp2159
Rp2160
(I3
S'|'
p2161
NNNI8
I1
I0
tp2162
bS'haralick'
p2163
tp2164
Rp2165
sg184
g2149
sg61
g11
(g15
S'\xc0}K\x80\xd3Q\xe6?'
p2166
tp2167
Rp2168
sg65
g11
(g12
(S'S2'
p2169
I0
I1
tp2170
Rp2171
(I3
S'|'
p2172
NNNI2
I1
I0
tp2173
bS'RF'
p2174
tp2175
Rp2176
sg74
I3
sg38
g2146
sg75
g76
sg77
g11
(g15
S'\xb8\x96z~x\xd0\xec?'
p2177
tp2178
Rp2179
sg81
g82
sg83
g84
sbag4
(g5
g6
Ntp2180
Rp2181
(dp2182
g10
g11
(g15
S'\x00\x00\x00\x00\x00\x00\xf8\xff'
p2183
tp2184
Rp2185
sg25
g392
sg34
g35
sg36
(dp2186
g25
g392
sg194
g11
(g15
S"\xe2\x92'@,\x17?@"
p2187
tp2188
Rp2189
sg184
g11
(g97
S'\x02\x00\x00\x00\x00\x00\x00\x00'
p2190
tp2191
Rp2192
sg176
g11
(g15
S'\xdc\x91[\x91;\xc3\xe8?'
p2193
tp2194
Rp2195
ssg42
g11
(g12
(S'S3'
p2196
I0
I1
tp2197
Rp2198
(I3
S'|'
p2199
NNNI3
I1
I0
tp2200
bS'PCA'
p2201
tp2202
Rp2203
sg51
F0.2
sg176
g2195
sg52
g11
(g12
(S'S8'
p2204
I0
I1
tp2205
Rp2206
(I3
S'|'
p2207
NNNI8
I1
I0
tp2208
bS'haralick'
p2209
tp2210
Rp2211
sg194
g2189
sg184
g2192
sg61
g11
(g15
S'Y\xa2\x8e\x99\xcdK\xd1?'
p2212
tp2213
Rp2214
sg65
g11
(g12
(S'S3'
p2215
I0
I1
tp2216
Rp2217
(I3
S'|'
p2218
NNNI3
I1
I0
tp2219
bS'SVM'
p2220
tp2221
Rp2222
sg74
I3
sg75
g76
sg77
g11
(g15
S'\xb1\xee\x06\t\xb7\xd2\xeb?'
p2223
tp2224
Rp2225
sg81
g82
sg83
g84
sbag4
(g5
g6
Ntp2226
Rp2227
(dp2228
g10
g11
(g15
S'\x00\x00\x00\x00\x00\x00\xf8\xff'
p2229
tp2230
Rp2231
sg94
g11
(g97
S'\x06\x00\x00\x00\x00\x00\x00\x00'
p2232
tp2233
Rp2234
sg34
g35
sg36
(dp2235
g94
g2234
sg194
g11
(g15
S'A\x8dex]\x01S@'
p2236
tp2237
Rp2238
sg184
g11
(g97
S'\x01\x00\x00\x00\x00\x00\x00\x00'
p2239
tp2240
Rp2241
sg104
g11
(g97
S'\x03\x00\x00\x00\x00\x00\x00\x00'
p2242
tp2243
Rp2244
sg176
g11
(g15
S'\xed=;\x89Bi\x17@'
p2245
tp2246
Rp2247
ssg176
g2247
sg42
g11
(g12
(S'S6'
p2248
I0
I1
tp2249
Rp2250
(I3
S'|'
p2251
NNNI6
I1
I0
tp2252
bS'ISOMAP'
p2253
tp2254
Rp2255
sg51
F0.2
sg104
g2244
sg52
g11
(g12
(S'S8'
p2256
I0
I1
tp2257
Rp2258
(I3
S'|'
p2259
NNNI8
I1
I0
tp2260
bS'haralick'
p2261
tp2262
Rp2263
sg194
g2238
sg184
g2241
sg61
g11
(g15
S'\x89\x11\xc0C}\xe9\xd0?'
p2264
tp2265
Rp2266
sg65
g11
(g12
(S'S3'
p2267
I0
I1
tp2268
Rp2269
(I3
S'|'
p2270
NNNI3
I1
I0
tp2271
bS'SVM'
p2272
tp2273
Rp2274
sg74
I3
sg75
g76
sg77
g11
(g15
S'\xe0\xce\xfc?\xb1\x16\xed?'
p2275
tp2276
Rp2277
sg81
g82
sg83
g84
sbag4
(g5
g6
Ntp2278
Rp2279
(dp2280
g10
g11
(g15
S'\x00\x00\x00\x00\x00\x00\xf8\xff'
p2281
tp2282
Rp2283
sg25
g392
sg34
g35
sg36
(dp2284
g25
g392
sg194
g11
(g15
S'\xfb\xde\xc7\xc0\xdb{J@'
p2285
tp2286
Rp2287
sg176
g11
(g15
S'+\xe9\xa4wCw\x1b@'
p2288
tp2289
Rp2290
ssg42
g11
(g12
(S'S3'
p2291
I0
I1
tp2292
Rp2293
(I3
S'|'
p2294
NNNI3
I1
I0
tp2295
bS'PCA'
p2296
tp2297
Rp2298
sg51
F0.2
sg176
g2290
sg52
g11
(g12
(S'S9'
p2299
I0
I1
tp2300
Rp2301
(I3
S'|'
p2302
NNNI9
I1
I0
tp2303
bS'inception'
p2304
tp2305
Rp2306
sg194
g2287
sg61
g11
(g15
S'a\x16\xfc\x16t\x8c\xd4?'
p2307
tp2308
Rp2309
sg65
g11
(g12
(S'S3'
p2310
I0
I1
tp2311
Rp2312
(I3
S'|'
p2313
NNNI3
I1
I0
tp2314
bS'SVM'
p2315
tp2316
Rp2317
sg74
I3
sg75
g76
sg77
g11
(g15
S'q)\x85ZMu\xe8?'
p2318
tp2319
Rp2320
sg81
g82
sg83
g84
sbag4
(g5
g6
Ntp2321
Rp2322
(dp2323
g10
g11
(g15
S'\x00\x00\x00\x00\x00\x00\xf8\xff'
p2324
tp2325
Rp2326
sg25
g33
sg34
g35
sg36
(dp2327
g25
g33
sg194
g11
(g15
S'\xdf\xbf\x1b\x7f0\xd1?@'
p2328
tp2329
Rp2330
sg184
g11
(g97
S'\x03\x00\x00\x00\x00\x00\x00\x00'
p2331
tp2332
Rp2333
sg176
g11
(g15
S'\xa7\x7f\xec\xfcNu\xf9?'
p2334
tp2335
Rp2336
ssg42
g11
(g12
(S'S3'
p2337
I0
I1
tp2338
Rp2339
(I3
S'|'
p2340
NNNI3
I1
I0
tp2341
bS'PCA'
p2342
tp2343
Rp2344
sg51
F0.2
sg176
g2336
sg52
g11
(g12
(S'S8'
p2345
I0
I1
tp2346
Rp2347
(I3
S'|'
p2348
NNNI8
I1
I0
tp2349
bS'haralick'
p2350
tp2351
Rp2352
sg194
g2330
sg184
g2333
sg61
g11
(g15
S'TI\xde\xd1\x93p\xd1?'
p2353
tp2354
Rp2355
sg65
g11
(g12
(S'S3'
p2356
I0
I1
tp2357
Rp2358
(I3
S'|'
p2359
NNNI3
I1
I0
tp2360
bS'SVM'
p2361
tp2362
Rp2363
sg74
I3
sg75
g76
sg77
g11
(g15
S'\tA\x88\xa4QG\xea?'
p2364
tp2365
Rp2366
sg81
g82
sg83
g84
sbag4
(g5
g6
Ntp2367
Rp2368
(dp2369
g10
g11
(g15
S'\x00\x00\x00\x00\x00\x00\xf8\xff'
p2370
tp2371
Rp2372
sg21
g11
(g15
S'\x00\x00\x00\x00\x00@a@'
p2373
tp2374
Rp2375
sg34
g35
sg94
g11
(g97
S'\x07\x00\x00\x00\x00\x00\x00\x00'
p2376
tp2377
Rp2378
sg36
(dp2379
g21
g2375
sg94
g2378
sg104
g11
(g97
S'\x02\x00\x00\x00\x00\x00\x00\x00'
p2380
tp2381
Rp2382
sg38
g11
(g15
S';\xc5\x1e\xbf\xbaf\xe8?'
p2383
tp2384
Rp2385
ssg42
g11
(g12
(S'S6'
p2386
I0
I1
tp2387
Rp2388
(I3
S'|'
p2389
NNNI6
I1
I0
tp2390
bS'ISOMAP'
p2391
tp2392
Rp2393
sg51
F0.2
sg104
g2382
sg52
g11
(g12
(S'S3'
p2394
I0
I1
tp2395
Rp2396
(I3
S'|'
p2397
NNNI3
I1
I0
tp2398
bS'VGG'
p2399
tp2400
Rp2401
sg61
g11
(g15
S'\xdb\x0e?\xbe\x98a\xd9?'
p2402
tp2403
Rp2404
sg65
g11
(g12
(S'S2'
p2405
I0
I1
tp2406
Rp2407
(I3
S'|'
p2408
NNNI2
I1
I0
tp2409
bS'RF'
p2410
tp2411
Rp2412
sg74
I3
sg38
g2385
sg75
g76
sg77
g11
(g15
S'\xe8r\x00\x13\xcf\xe8\xec?'
p2413
tp2414
Rp2415
sg81
g82
sg83
g84
sbag4
(g5
g6
Ntp2416
Rp2417
(dp2418
g10
g11
(g15
S'\x00\x00\x00\x00\x00\x00\xf8\xff'
p2419
tp2420
Rp2421
sg21
g11
(g15
S'\x00\x00\x00\x00\x00`m@'
p2422
tp2423
Rp2424
sg25
g392
sg34
g35
sg36
(dp2425
g21
g2424
sg38
g11
(g15
S'v\x8c\x12\x80\x99D\xee?'
p2426
tp2427
Rp2428
sg25
g392
ssg42
g11
(g12
(S'S3'
p2429
I0
I1
tp2430
Rp2431
(I3
S'|'
p2432
NNNI3
I1
I0
tp2433
bS'PCA'
p2434
tp2435
Rp2436
sg51
F0.2
sg52
g11
(g12
(S'S9'
p2437
I0
I1
tp2438
Rp2439
(I3
S'|'
p2440
NNNI9
I1
I0
tp2441
bS'inception'
p2442
tp2443
Rp2444
sg61
g11
(g15
S'\xf0z\x02\x0b\xfd\x08\xe3?'
p2445
tp2446
Rp2447
sg65
g11
(g12
(S'S2'
p2448
I0
I1
tp2449
Rp2450
(I3
S'|'
p2451
NNNI2
I1
I0
tp2452
bS'RF'
p2453
tp2454
Rp2455
sg74
I3
sg38
g2428
sg75
g76
sg77
g11
(g15
S'h\xfd\x03p\xa2\xa3\xeb?'
p2456
tp2457
Rp2458
sg81
g82
sg83
g84
sbag4
(g5
g6
Ntp2459
Rp2460
(dp2461
g10
g11
(g15
S'\x00\x00\x00\x00\x00\x00\xf8\xff'
p2462
tp2463
Rp2464
sg25
g392
sg34
g35
sg36
(dp2465
g25
g392
sg194
g11
(g15
S'9\xb7\xf3\x01\x11\xf9J@'
p2466
tp2467
Rp2468
sg176
g11
(g15
S'\xd5\x95\xe8f\xec\xe4\x15@'
p2469
tp2470
Rp2471
ssg42
g11
(g12
(S'S3'
p2472
I0
I1
tp2473
Rp2474
(I3
S'|'
p2475
NNNI3
I1
I0
tp2476
bS'PCA'
p2477
tp2478
Rp2479
sg51
F0.2
sg176
g2471
sg52
g11
(g12
(S'S9'
p2480
I0
I1
tp2481
Rp2482
(I3
S'|'
p2483
NNNI9
I1
I0
tp2484
bS'inception'
p2485
tp2486
Rp2487
sg194
g2468
sg61
g11
(g15
S'!\x10\x9e\x97pi\xd4?'
p2488
tp2489
Rp2490
sg65
g11
(g12
(S'S3'
p2491
I0
I1
tp2492
Rp2493
(I3
S'|'
p2494
NNNI3
I1
I0
tp2495
bS'SVM'
p2496
tp2497
Rp2498
sg74
I3
sg75
g76
sg77
g11
(g15
S'\r\xfe\x02\xd4\xb9\xba\xe8?'
p2499
tp2500
Rp2501
sg81
g82
sg83
g84
sbag4
(g5
g6
Ntp2502
Rp2503
(dp2504
g10
g11
(g15
S'\x00\x00\x00\x00\x00\x00\xf8\xff'
p2505
tp2506
Rp2507
sg21
g11
(g15
S'\x00\x00\x00\x00\x00\x00D@'
p2508
tp2509
Rp2510
sg34
g35
sg94
g11
(g97
S'\x03\x00\x00\x00\x00\x00\x00\x00'
p2511
tp2512
Rp2513
sg36
(dp2514
g21
g2510
sg94
g2513
sg104
g11
(g97
S'\x04\x00\x00\x00\x00\x00\x00\x00'
p2515
tp2516
Rp2517
sg38
g11
(g15
S'\x0c`\xf2\xd1\x803\xef?'
p2518
tp2519
Rp2520
ssg42
g11
(g12
(S'S6'
p2521
I0
I1
tp2522
Rp2523
(I3
S'|'
p2524
NNNI6
I1
I0
tp2525
bS'ISOMAP'
p2526
tp2527
Rp2528
sg51
F0.2
sg104
g2517
sg52
g11
(g12
(S'S9'
p2529
I0
I1
tp2530
Rp2531
(I3
S'|'
p2532
NNNI9
I1
I0
tp2533
bS'inception'
p2534
tp2535
Rp2536
sg61
g11
(g15
S'q\x19\xae\x0e\xf8\xa5\xf1?'
p2537
tp2538
Rp2539
sg65
g11
(g12
(S'S2'
p2540
I0
I1
tp2541
Rp2542
(I3
S'|'
p2543
NNNI2
I1
I0
tp2544
bS'RF'
p2545
tp2546
Rp2547
sg74
I3
sg38
g2520
sg75
g76
sg77
g11
(g15
S'=\xb5\x86\x7fO^\xe9?'
p2548
tp2549
Rp2550
sg81
g82
sg83
g84
sbag4
(g5
g6
Ntp2551
Rp2552
(dp2553
g10
g11
(g15
S'\x00\x00\x00\x00\x00\x00\xf8\xff'
p2554
tp2555
Rp2556
sg25
g392
sg34
g35
sg36
(dp2557
g25
g392
sg194
g11
(g15
S'\xe7/\xab9\xf0\xe4U@'
p2558
tp2559
Rp2560
sg176
g11
(g15
S'~\xc6S\xb00\xdb\xf7?'
p2561
tp2562
Rp2563
ssg42
g11
(g12
(S'S3'
p2564
I0
I1
tp2565
Rp2566
(I3
S'|'
p2567
NNNI3
I1
I0
tp2568
bS'PCA'
p2569
tp2570
Rp2571
sg51
F0.2
sg176
g2563
sg52
g11
(g12
(S'S9'
p2572
I0
I1
tp2573
Rp2574
(I3
S'|'
p2575
NNNI9
I1
I0
tp2576
bS'inception'
p2577
tp2578
Rp2579
sg194
g2560
sg61
g11
(g15
S'\xa1\x15\xcb\xf7\xf3g\xd4?'
p2580
tp2581
Rp2582
sg65
g11
(g12
(S'S3'
p2583
I0
I1
tp2584
Rp2585
(I3
S'|'
p2586
NNNI3
I1
I0
tp2587
bS'SVM'
p2588
tp2589
Rp2590
sg74
I3
sg75
g76
sg77
g11
(g15
S'\x83\x9a\xfe\x8b\xed\xb9\xe8?'
p2591
tp2592
Rp2593
sg81
g82
sg83
g84
sbag4
(g5
g6
Ntp2594
Rp2595
(dp2596
g10
g11
(g15
S'\x00\x00\x00\x00\x00\x00\xf8\xff'
p2597
tp2598
Rp2599
sg25
g33
sg34
g35
sg36
(dp2600
g25
g33
sg194
g11
(g15
S'\xc5\x91\xe2\xfc\xa2\x92U@'
p2601
tp2602
Rp2603
sg176
g11
(g15
S':\x95\\B\xf0\x9c\x1f@'
p2604
tp2605
Rp2606
ssg42
g11
(g12
(S'S3'
p2607
I0
I1
tp2608
Rp2609
(I3
S'|'
p2610
NNNI3
I1
I0
tp2611
bS'PCA'
p2612
tp2613
Rp2614
sg51
F0.2
sg176
g2606
sg52
g11
(g12
(S'S3'
p2615
I0
I1
tp2616
Rp2617
(I3
S'|'
p2618
NNNI3
I1
I0
tp2619
bS'VGG'
p2620
tp2621
Rp2622
sg194
g2603
sg61
g11
(g15
S'f@\xdfi\xe9\\\xd1?'
p2623
tp2624
Rp2625
sg65
g11
(g12
(S'S3'
p2626
I0
I1
tp2627
Rp2628
(I3
S'|'
p2629
NNNI3
I1
I0
tp2630
bS'SVM'
p2631
tp2632
Rp2633
sg74
I3
sg75
g76
sg77
g11
(g15
S'\x0b,\x81\xea\xaa\xd1\xec?'
p2634
tp2635
Rp2636
sg81
g82
sg83
g84
sbasS'error_curve'
p2637
(lp2638
g64
ag129
ag129
ag129
ag129
ag129
ag129
ag129
ag129
ag129
ag129
ag129
ag129
ag129
ag129
ag129
ag129
ag129
ag129
ag129
ag129
ag129
ag129
ag129
ag129
ag129
ag129
ag129
ag129
ag129
ag129
ag129
ag129
ag129
ag129
ag129
ag129
ag129
ag129
ag129
ag129
ag129
ag129
ag129
ag129
ag129
ag129
ag129
ag129
ag129
ag129
ag129
ag129
ag129
asS'iters'
p2639
I51
sg34
g35
sS'results_loc'
p2640
S'/gpfs/u/home/CGHI/CGHIarch/barn/EP_project/results/'
p2641
sS'times'
p2642
(lp2643
F332.44407296180725
aF335.2352659702301
aF336.41881108283997
aF336.5820770263672
aF351.2787730693817
aF689.716863155365
aF702.6038341522217
aF703.6403040885925
aF704.2271089553833
aF704.8033220767975
aF719.7511789798737
aF720.3596489429474
aF720.9804561138153
aF735.6335971355438
aF737.7175481319427
aF738.1560430526733
aF740.7064161300659
aF755.3666379451752
aF768.5191249847412
aF769.0784239768982
aF771.9778890609741
aF784.6456210613251
aF785.2369990348816
aF785.3760190010071
aF785.5299870967865
aF798.1290900707245
aF799.6878321170807
aF800.1554379463196
aF800.3114991188049
aF801.1778841018677
aF801.3298621177673
aF801.4780881404877
aF815.6639559268951
aF816.239748954773
aF818.5372281074524
aF819.0884160995483
aF819.6283221244812
aF819.785660982132
aF820.3207271099091
aF822.4347281455994
aF823.0392060279846
aF825.6158580780029
aF826.2279620170593
aF840.8109841346741
aF853.3744361400604
aF866.0450570583344
aF866.211991071701
aF878.7835371494293
aF880.3993570804596
aF882.6492710113525
aF882.811084985733
aF883.6347899436951
aF883.7856879234314
aF883.95463514328
asS'data_loc'
p2644
g84
sS'run'
p2645
I1
sg81
S'random_MCMC'
p2646
sb.