(iprototypes.random_based_mcmc1
random_MCMC
p0
(dp1
S'best_pipelines'
p2
(lp3
ccopy_reg
_reconstructor
p4
(cprototypes.data_analytic_pipeline
image_classification_pipeline
p5
c__builtin__
object
p6
Ntp7
Rp8
(dp9
S'f1_score'
p10
cnumpy.core.multiarray
scalar
p11
(cnumpy
dtype
p12
(S'f8'
p13
I0
I1
tp14
Rp15
(I3
S'<'
p16
NNNI-1
I-1
I0
tp17
bS'\x00\x00\x00\x00\x00\x00\xf8\xff'
p18
tp19
Rp20
sS'pca_whiten'
p21
g11
(g12
(S'b1'
p22
I0
I1
tp23
Rp24
(I3
S'|'
p25
NNNI-1
I-1
I0
tp26
bS'\x01'
p27
tp28
Rp29
sS'data_name'
p30
S'matsc_dataset2'
p31
sS'kwargs'
p32
(dp33
g21
g29
sS'svm_C'
p34
g11
(g15
S'\xfdD\x9e\xc7v\xe8U@'
p35
tp36
Rp37
sS'svm_gamma'
p38
g11
(g15
S'\xd0\x10P\xb2\x0c\xce\x16@'
p39
tp40
Rp41
ssS'dimensionality_reduction'
p42
g11
(g12
(S'S3'
p43
I0
I1
tp44
Rp45
(I3
S'|'
p46
NNNI3
I1
I0
tp47
bS'PCA'
p48
tp49
Rp50
sS'test_size'
p51
F0.2
sg38
g41
sS'feature_extraction'
p52
g11
(g12
(S'S9'
p53
I0
I1
tp54
Rp55
(I3
S'|'
p56
NNNI9
I1
I0
tp57
bS'inception'
p58
tp59
Rp60
sg34
g37
sS'result'
p61
g11
(g15
S'x\x06\xa6\xc6\n\xcd\xd4?'
p62
tp63
Rp64
sS'learning_algorithm'
p65
g11
(g12
(S'S3'
p66
I0
I1
tp67
Rp68
(I3
S'|'
p69
NNNI3
I1
I0
tp70
bS'SVM'
p71
tp72
Rp73
sS'val_splits'
p74
I3
sS'ml_type'
p75
S'validation'
p76
sS'accuracy'
p77
g11
(g15
S'\xd5T\x07\xe1\xe0/\xe8?'
p78
tp79
Rp80
sS'type1'
p81
S'random1'
p82
sS'data_location'
p83
S'/gpfs/u/home/CGHI/CGHIarch/barn/EP_project/data/'
p84
sbag4
(g5
g6
Ntp85
Rp86
(dp87
g10
g11
(g15
S'\x00\x00\x00\x00\x00\x00\xf8\xff'
p88
tp89
Rp90
sS'n_neighbors'
p91
g11
(g12
(S'i8'
p92
I0
I1
tp93
Rp94
(I3
S'<'
p95
NNNI-1
I-1
I0
tp96
bS'\x06\x00\x00\x00\x00\x00\x00\x00'
p97
tp98
Rp99
sg30
g31
sg32
(dp100
g91
g99
sg34
g11
(g15
S'\xcaY\xfd\xd2\xbe\x01D@'
p101
tp102
Rp103
sS'n_components'
p104
g11
(g94
S'\x02\x00\x00\x00\x00\x00\x00\x00'
p105
tp106
Rp107
sg38
g11
(g15
S'pRM\xc1]d\x05@'
p108
tp109
Rp110
ssg38
g110
sg42
g11
(g12
(S'S6'
p111
I0
I1
tp112
Rp113
(I3
S'|'
p114
NNNI6
I1
I0
tp115
bS'ISOMAP'
p116
tp117
Rp118
sg51
F0.2
sg104
g107
sg52
g11
(g12
(S'S3'
p119
I0
I1
tp120
Rp121
(I3
S'|'
p122
NNNI3
I1
I0
tp123
bS'VGG'
p124
tp125
Rp126
sg34
g103
sg61
g11
(g15
S'I\xa4\x9b\x02Z*\xd0?'
p127
tp128
Rp129
sg65
g11
(g12
(S'S3'
p130
I0
I1
tp131
Rp132
(I3
S'|'
p133
NNNI3
I1
I0
tp134
bS'SVM'
p135
tp136
Rp137
sg74
I3
sg75
g76
sg77
g11
(g15
S'\x05\xf7\x83\xd2\xcf]\xeb?'
p138
tp139
Rp140
sg81
g82
sg83
g84
sbag4
(g5
g6
Ntp141
Rp142
(dp143
g10
g11
(g15
S'\x00\x00\x00\x00\x00\x00\xf8\xff'
p144
tp145
Rp146
sg91
g11
(g94
S'\x03\x00\x00\x00\x00\x00\x00\x00'
p147
tp148
Rp149
sg30
g31
sg32
(dp150
g91
g149
sg34
g11
(g15
S'T\x87\xbc\xba\x11\xf96@'
p151
tp152
Rp153
sg104
g11
(g94
S'\x04\x00\x00\x00\x00\x00\x00\x00'
p154
tp155
Rp156
sg38
g11
(g15
S'\x84\x9b\xb2\xfd\xb1\x08\x11@'
p157
tp158
Rp159
ssg38
g159
sg42
g11
(g12
(S'S6'
p160
I0
I1
tp161
Rp162
(I3
S'|'
p163
NNNI6
I1
I0
tp164
bS'ISOMAP'
p165
tp166
Rp167
sg51
F0.2
sg104
g156
sg52
g11
(g12
(S'S3'
p168
I0
I1
tp169
Rp170
(I3
S'|'
p171
NNNI3
I1
I0
tp172
bS'VGG'
p173
tp174
Rp175
sg34
g153
sg61
g11
(g15
S'\xcd\xd8\xc9I\xd2\xc4\xca?'
p176
tp177
Rp178
sg65
g11
(g12
(S'S3'
p179
I0
I1
tp180
Rp181
(I3
S'|'
p182
NNNI3
I1
I0
tp183
bS'SVM'
p184
tp185
Rp186
sg74
I3
sg75
g76
sg77
g11
(g15
S'\xdd\xa9\xfaV\xf0\xa1\xed?'
p187
tp188
Rp189
sg81
g82
sg83
g84
sbag4
(g5
g6
Ntp190
Rp191
(dp192
g10
g11
(g15
S'\x00\x00\x00\x00\x00\x00\xf8\xff'
p193
tp194
Rp195
sS'n_estimators'
p196
g11
(g15
S'\x00\x00\x00\x00\x00@e@'
p197
tp198
Rp199
sg30
g31
sg91
g11
(g94
S'\x07\x00\x00\x00\x00\x00\x00\x00'
p200
tp201
Rp202
sg32
(dp203
g196
g199
sg91
g202
sg104
g11
(g94
S'\x04\x00\x00\x00\x00\x00\x00\x00'
p204
tp205
Rp206
sS'max_features'
p207
g11
(g15
S'l\x1at\xd3=Z\xe6?'
p208
tp209
Rp210
ssg42
g11
(g12
(S'S6'
p211
I0
I1
tp212
Rp213
(I3
S'|'
p214
NNNI6
I1
I0
tp215
bS'ISOMAP'
p216
tp217
Rp218
sg51
F0.2
sg104
g206
sg52
g11
(g12
(S'S3'
p219
I0
I1
tp220
Rp221
(I3
S'|'
p222
NNNI3
I1
I0
tp223
bS'VGG'
p224
tp225
Rp226
sg61
g11
(g15
S'E\xc0K\x9c-\xe4\xc5?'
p227
tp228
Rp229
sg65
g11
(g12
(S'S2'
p230
I0
I1
tp231
Rp232
(I3
S'|'
p233
NNNI2
I1
I0
tp234
bS'RF'
p235
tp236
Rp237
sg74
I3
sg207
g210
sg75
g76
sg77
g11
(g15
S'\x0f\x86\x80\xebF\xba\xed?'
p238
tp239
Rp240
sg81
g82
sg83
g84
sbag4
(g5
g6
Ntp241
Rp242
(dp243
g10
g11
(g15
S'\x00\x00\x00\x00\x00\x00\xf8\xff'
p244
tp245
Rp246
sg196
g11
(g15
S'\x00\x00\x00\x00\x00@R@'
p247
tp248
Rp249
sg30
g31
sg91
g11
(g94
S'\x04\x00\x00\x00\x00\x00\x00\x00'
p250
tp251
Rp252
sg32
(dp253
g196
g249
sg91
g252
sg104
g11
(g94
S'\x03\x00\x00\x00\x00\x00\x00\x00'
p254
tp255
Rp256
sg207
g11
(g15
S'\xf8\x17\xb0H\xe8\xe2\xe1?'
p257
tp258
Rp259
ssg42
g11
(g12
(S'S6'
p260
I0
I1
tp261
Rp262
(I3
S'|'
p263
NNNI6
I1
I0
tp264
bS'ISOMAP'
p265
tp266
Rp267
sg51
F0.2
sg104
g256
sg52
g11
(g12
(S'S3'
p268
I0
I1
tp269
Rp270
(I3
S'|'
p271
NNNI3
I1
I0
tp272
bS'VGG'
p273
tp274
Rp275
sg61
g11
(g15
S'@\x12-\xfa\xbb-\xc3?'
p276
tp277
Rp278
sg65
g11
(g12
(S'S2'
p279
I0
I1
tp280
Rp281
(I3
S'|'
p282
NNNI2
I1
I0
tp283
bS'RF'
p284
tp285
Rp286
sg74
I3
sg207
g259
sg75
g76
sg77
g11
(g15
S'\x93E\x81`\xf5\xe8\xed?'
p287
tp288
Rp289
sg81
g82
sg83
g84
sbasS'paths'
p290
(lp291
(lp292
S'VGG'
p293
aS'PCA'
p294
aS'SVM'
p295
aa(lp296
g293
ag294
aS'RF'
p297
aa(lp298
g293
aS'ISOMAP'
p299
ag295
aa(lp300
g293
ag299
ag297
aa(lp301
S'haralick'
p302
ag294
ag295
aa(lp303
g302
ag294
ag297
aa(lp304
g302
ag299
ag295
aa(lp305
g302
ag299
ag297
aa(lp306
S'inception'
p307
ag294
ag295
aa(lp308
g307
ag294
ag297
aa(lp309
g307
ag299
ag295
aa(lp310
g307
ag299
ag297
aasS'pipeline'
p311
(dp312
g91
(lp313
I3
aI4
aI5
aI6
aI7
asg21
(lp314
I01
aI00
asg196
cnumpy.core.multiarray
_reconstruct
p315
(cnumpy
ndarray
p316
(I0
tp317
S'b'
p318
tp319
Rp320
(I1
(I10
tp321
g15
I00
S'\x00\x00\x00\x00\x00\x00 @\x00\x00\x00\x00\x00\x00D@\x00\x00\x00\x00\x00@R@\x00\x00\x00\x00\x00@Z@\x00\x00\x00\x00\x00@a@\x00\x00\x00\x00\x00@e@\x00\x00\x00\x00\x00`i@\x00\x00\x00\x00\x00`m@\x00\x00\x00\x00\x00\xc0p@\x00\x00\x00\x00\x00\xc0r@'
p322
tp323
bsg42
(lp324
g294
ag299
asg38
g315
(g316
(I0
tp325
g318
tp326
Rp327
(I1
(I10
tp328
g15
I00
S"{\x14\xaeG\xe1z\x84?\x102Tv\x98\xba\xec?\xe7\xd5\xc4\xb3\xa2\x91\xfc?b\xc9/\x96\xfcb\x05@\xd2'}\xd2'}\x0c@!Ce\x87\xa9\xcb\x11@X\xf2\x8b%\xbfX\x15@\x90\xa1\xb2\xc3\xd4\xe5\x18@\xc8P\xd9a\xear\x1c@\x00\x00\x00\x00\x00\x00 @"
p329
tp330
bsg52
(lp331
g293
ag302
ag307
asS'haralick_distance'
p332
(lp333
I1
aI2
aI3
asg104
(lp334
I2
aI3
aI4
asg65
(lp335
g295
ag297
asg207
g315
(g316
(I0
tp336
g318
tp337
Rp338
(I1
(I5
tp339
g15
I00
S'333333\xd3?\x9a\x99\x99\x99\x99\x99\xd9?\x00\x00\x00\x00\x00\x00\xe0?433333\xe3?hfffff\xe6?'
p340
tp341
bsg34
g315
(g316
(I0
tp342
g318
tp343
Rp344
(I1
(I10
tp345
g15
I00
S'\x9a\x99\x99\x99\x99\x99\xb9?gfffff&@\xce\xcc\xcc\xcc\xccL6@43333\xb3@@\x01\x00\x00\x00\x00@F@\xce\xcc\xcc\xcc\xcc\xccK@\xcd\xcc\xcc\xcc\xcc\xacP@43333sS@\x9a\x99\x99\x99\x999V@\x00\x00\x00\x00\x00\x00Y@'
p346
tp347
bssS'pipelines'
p348
(lp349
g8
ag4
(g5
g6
Ntp350
Rp351
(dp352
g10
g11
(g15
S'\x00\x00\x00\x00\x00\x00\xf8\xff'
p353
tp354
Rp355
sg196
g11
(g15
S'\x00\x00\x00\x00\x00\x00 @'
p356
tp357
Rp358
sg21
g11
(g24
S'\x00'
p359
tp360
Rp361
sg30
g31
sg32
(dp362
g196
g358
sg207
g11
(g15
S"\xb4\x0cA' \x8d\xe5?"
p363
tp364
Rp365
sg21
g361
ssg42
g11
(g12
(S'S3'
p366
I0
I1
tp367
Rp368
(I3
S'|'
p369
NNNI3
I1
I0
tp370
bS'PCA'
p371
tp372
Rp373
sg51
F0.2
sg52
g11
(g12
(S'S9'
p374
I0
I1
tp375
Rp376
(I3
S'|'
p377
NNNI9
I1
I0
tp378
bS'inception'
p379
tp380
Rp381
sg61
g11
(g15
S'\xf8p(}XP\xf9?'
p382
tp383
Rp384
sg65
g11
(g12
(S'S2'
p385
I0
I1
tp386
Rp387
(I3
S'|'
p388
NNNI2
I1
I0
tp389
bS'RF'
p390
tp391
Rp392
sg74
I3
sg207
g365
sg75
g76
sg77
g11
(g15
S'GD\x83\x98\xc6\xba\xeb?'
p393
tp394
Rp395
sg81
g82
sg83
g84
sbag4
(g5
g6
Ntp396
Rp397
(dp398
g10
g11
(g15
S'\x00\x00\x00\x00\x00\x00\xf8\xff'
p399
tp400
Rp401
sg196
g11
(g15
S'\x00\x00\x00\x00\x00`m@'
p402
tp403
Rp404
sg30
g31
sg91
g11
(g94
S'\x05\x00\x00\x00\x00\x00\x00\x00'
p405
tp406
Rp407
sg32
(dp408
g196
g404
sg91
g407
sg104
g11
(g94
S'\x03\x00\x00\x00\x00\x00\x00\x00'
p409
tp410
Rp411
sg207
g11
(g15
S'"\xb4@%,\xf7\xde?'
p412
tp413
Rp414
ssg42
g11
(g12
(S'S6'
p415
I0
I1
tp416
Rp417
(I3
S'|'
p418
NNNI6
I1
I0
tp419
bS'ISOMAP'
p420
tp421
Rp422
sg51
F0.2
sg104
g411
sg52
g11
(g12
(S'S9'
p423
I0
I1
tp424
Rp425
(I3
S'|'
p426
NNNI9
I1
I0
tp427
bS'inception'
p428
tp429
Rp430
sg61
g11
(g15
S'8g\xa4\xb8\xd9\x9d\xec?'
p431
tp432
Rp433
sg65
g11
(g12
(S'S2'
p434
I0
I1
tp435
Rp436
(I3
S'|'
p437
NNNI2
I1
I0
tp438
bS'RF'
p439
tp440
Rp441
sg74
I3
sg207
g414
sg75
g76
sg77
g11
(g15
S'\xd0\xc0\xfe<\xdd\\\xea?'
p442
tp443
Rp444
sg81
g82
sg83
g84
sbag4
(g5
g6
Ntp445
Rp446
(dp447
g10
g11
(g15
S'\x00\x00\x00\x00\x00\x00\xf8\xff'
p448
tp449
Rp450
sg196
g11
(g15
S'\x00\x00\x00\x00\x00\x00 @'
p451
tp452
Rp453
sg30
g31
sg91
g11
(g94
S'\x04\x00\x00\x00\x00\x00\x00\x00'
p454
tp455
Rp456
sg32
(dp457
g196
g453
sg91
g456
sg104
g11
(g94
S'\x02\x00\x00\x00\x00\x00\x00\x00'
p458
tp459
Rp460
sg207
g11
(g15
S'\x9d1!\xf6L\x00\xdf?'
p461
tp462
Rp463
ssg42
g11
(g12
(S'S6'
p464
I0
I1
tp465
Rp466
(I3
S'|'
p467
NNNI6
I1
I0
tp468
bS'ISOMAP'
p469
tp470
Rp471
sg51
F0.2
sg104
g460
sg52
g11
(g12
(S'S9'
p472
I0
I1
tp473
Rp474
(I3
S'|'
p475
NNNI9
I1
I0
tp476
bS'inception'
p477
tp478
Rp479
sg61
g11
(g15
S'\xe4\xda\xd3\xc0\x17\x17\xf6?'
p480
tp481
Rp482
sg65
g11
(g12
(S'S2'
p483
I0
I1
tp484
Rp485
(I3
S'|'
p486
NNNI2
I1
I0
tp487
bS'RF'
p488
tp489
Rp490
sg74
I3
sg207
g463
sg75
g76
sg77
g11
(g15
S'\xd0\xe5\x00&\x9e\xd1\xe9?'
p491
tp492
Rp493
sg81
g82
sg83
g84
sbag86
ag142
ag191
ag4
(g5
g6
Ntp494
Rp495
(dp496
g10
g11
(g15
S'\x00\x00\x00\x00\x00\x00\xf8\xff'
p497
tp498
Rp499
sg21
g29
sg30
g31
sg32
(dp500
g21
g29
sg34
g11
(g15
S'\x1ao1\x00\x93\x18-@'
p501
tp502
Rp503
sg38
g11
(g15
S'+\xcc!\x17\xfd\x80\x15@'
p504
tp505
Rp506
ssg42
g11
(g12
(S'S3'
p507
I0
I1
tp508
Rp509
(I3
S'|'
p510
NNNI3
I1
I0
tp511
bS'PCA'
p512
tp513
Rp514
sg51
F0.2
sg38
g506
sg52
g11
(g12
(S'S3'
p515
I0
I1
tp516
Rp517
(I3
S'|'
p518
NNNI3
I1
I0
tp519
bS'VGG'
p520
tp521
Rp522
sg34
g503
sg61
g11
(g15
S'l+P\xbf]?\xd0?'
p523
tp524
Rp525
sg65
g11
(g12
(S'S3'
p526
I0
I1
tp527
Rp528
(I3
S'|'
p529
NNNI3
I1
I0
tp530
bS'SVM'
p531
tp532
Rp533
sg74
I3
sg75
g76
sg77
g11
(g15
S'\x0b,\x81\xea\xaa\xd1\xec?'
p534
tp535
Rp536
sg81
g82
sg83
g84
sbag4
(g5
g6
Ntp537
Rp538
(dp539
g10
g11
(g15
S'\x00\x00\x00\x00\x00\x00\xf8\xff'
p540
tp541
Rp542
sg196
g11
(g15
S'\x00\x00\x00\x00\x00`i@'
p543
tp544
Rp545
sg30
g31
sg91
g11
(g94
S'\x06\x00\x00\x00\x00\x00\x00\x00'
p546
tp547
Rp548
sg32
(dp549
g196
g545
sg91
g548
sg104
g11
(g94
S'\x02\x00\x00\x00\x00\x00\x00\x00'
p550
tp551
Rp552
sg207
g11
(g15
S'V\xb0\x84LL\xdc\xe7?'
p553
tp554
Rp555
ssg42
g11
(g12
(S'S6'
p556
I0
I1
tp557
Rp558
(I3
S'|'
p559
NNNI6
I1
I0
tp560
bS'ISOMAP'
p561
tp562
Rp563
sg51
F0.2
sg104
g552
sg52
g11
(g12
(S'S9'
p564
I0
I1
tp565
Rp566
(I3
S'|'
p567
NNNI9
I1
I0
tp568
bS'inception'
p569
tp570
Rp571
sg61
g11
(g15
S'\x15\x19\x96n\x93\xf7\xe6?'
p572
tp573
Rp574
sg65
g11
(g12
(S'S2'
p575
I0
I1
tp576
Rp577
(I3
S'|'
p578
NNNI2
I1
I0
tp579
bS'RF'
p580
tp581
Rp582
sg74
I3
sg207
g555
sg75
g76
sg77
g11
(g15
S'#V\x05\xa9\x0f^\xea?'
p583
tp584
Rp585
sg81
g82
sg83
g84
sbag4
(g5
g6
Ntp586
Rp587
(dp588
g10
g11
(g15
S'\x00\x00\x00\x00\x00\x00\xf8\xff'
p589
tp590
Rp591
sg91
g11
(g94
S'\x04\x00\x00\x00\x00\x00\x00\x00'
p592
tp593
Rp594
sg30
g31
sg32
(dp595
g91
g594
sg34
g11
(g15
S'\xfc\xee<\x82\xa0oJ@'
p596
tp597
Rp598
sg104
g11
(g94
S'\x04\x00\x00\x00\x00\x00\x00\x00'
p599
tp600
Rp601
sg38
g11
(g15
S'\xb1\x13\x95\x04zy\x17@'
p602
tp603
Rp604
ssg38
g604
sg42
g11
(g12
(S'S6'
p605
I0
I1
tp606
Rp607
(I3
S'|'
p608
NNNI6
I1
I0
tp609
bS'ISOMAP'
p610
tp611
Rp612
sg51
F0.2
sg104
g601
sg52
g11
(g12
(S'S9'
p613
I0
I1
tp614
Rp615
(I3
S'|'
p616
NNNI9
I1
I0
tp617
bS'inception'
p618
tp619
Rp620
sg34
g598
sg61
g11
(g15
S'o\xc4\xe9&\xb9\x13\xd4?'
p621
tp622
Rp623
sg65
g11
(g12
(S'S3'
p624
I0
I1
tp625
Rp626
(I3
S'|'
p627
NNNI3
I1
I0
tp628
bS'SVM'
p629
tp630
Rp631
sg74
I3
sg75
g76
sg77
g11
(g15
S' \x93\xe2\x052)\xe6?'
p632
tp633
Rp634
sg81
g82
sg83
g84
sbag4
(g5
g6
Ntp635
Rp636
(dp637
g10
g11
(g15
S'\x00\x00\x00\x00\x00\x00\xf8\xff'
p638
tp639
Rp640
sg196
g11
(g15
S'\x00\x00\x00\x00\x00\x00 @'
p641
tp642
Rp643
sg30
g31
sg91
g11
(g94
S'\x04\x00\x00\x00\x00\x00\x00\x00'
p644
tp645
Rp646
sg32
(dp647
g196
g643
sg91
g646
sg332
g11
(g94
S'\x03\x00\x00\x00\x00\x00\x00\x00'
p648
tp649
Rp650
sg104
g11
(g94
S'\x04\x00\x00\x00\x00\x00\x00\x00'
p651
tp652
Rp653
sg207
g11
(g15
S'\x08\xe3`\xda\x1a\x94\xe4?'
p654
tp655
Rp656
ssg42
g11
(g12
(S'S6'
p657
I0
I1
tp658
Rp659
(I3
S'|'
p660
NNNI6
I1
I0
tp661
bS'ISOMAP'
p662
tp663
Rp664
sg51
F0.2
sg104
g653
sg52
g11
(g12
(S'S8'
p665
I0
I1
tp666
Rp667
(I3
S'|'
p668
NNNI8
I1
I0
tp669
bS'haralick'
p670
tp671
Rp672
sg332
g650
sg61
g11
(g15
S'\xa4"\xfd\xe9\xef\xd4\xed?'
p673
tp674
Rp675
sg65
g11
(g12
(S'S2'
p676
I0
I1
tp677
Rp678
(I3
S'|'
p679
NNNI2
I1
I0
tp680
bS'RF'
p681
tp682
Rp683
sg74
I3
sg207
g656
sg75
g76
sg77
g11
(g15
S'\xf0\xf1\x01\xfd+F\xed?'
p684
tp685
Rp686
sg81
g82
sg83
g84
sbag4
(g5
g6
Ntp687
Rp688
(dp689
g10
g11
(g15
S'\x00\x00\x00\x00\x00\x00\xf8\xff'
p690
tp691
Rp692
sg91
g11
(g94
S'\x05\x00\x00\x00\x00\x00\x00\x00'
p693
tp694
Rp695
sg30
g31
sg32
(dp696
g91
g695
sg34
g11
(g15
S'-\x0b\xc2k\xe5\xc5Q@'
p697
tp698
Rp699
sg104
g11
(g94
S'\x02\x00\x00\x00\x00\x00\x00\x00'
p700
tp701
Rp702
sg38
g11
(g15
S'5(\xc7\xa8<Z\x1c@'
p703
tp704
Rp705
ssg38
g705
sg42
g11
(g12
(S'S6'
p706
I0
I1
tp707
Rp708
(I3
S'|'
p709
NNNI6
I1
I0
tp710
bS'ISOMAP'
p711
tp712
Rp713
sg51
F0.2
sg104
g702
sg52
g11
(g12
(S'S9'
p714
I0
I1
tp715
Rp716
(I3
S'|'
p717
NNNI9
I1
I0
tp718
bS'inception'
p719
tp720
Rp721
sg34
g699
sg61
g11
(g15
S'%\x83\x9b\x86\xec}\xd4?'
p722
tp723
Rp724
sg65
g11
(g12
(S'S3'
p725
I0
I1
tp726
Rp727
(I3
S'|'
p728
NNNI3
I1
I0
tp729
bS'SVM'
p730
tp731
Rp732
sg74
I3
sg75
g76
sg77
g11
(g15
S'\t\xddp\x8d\x9cq\xe2?'
p733
tp734
Rp735
sg81
g82
sg83
g84
sbag4
(g5
g6
Ntp736
Rp737
(dp738
g10
g11
(g15
S'\x00\x00\x00\x00\x00\x00\xf8\xff'
p739
tp740
Rp741
sg21
g29
sg30
g31
sg32
(dp742
g21
g29
sg34
g11
(g15
S'n\xef\x14Ux\xe7L@'
p743
tp744
Rp745
sg38
g11
(g15
S'\xba\x87\xc2\x1bC\xd8\x00@'
p746
tp747
Rp748
ssg42
g11
(g12
(S'S3'
p749
I0
I1
tp750
Rp751
(I3
S'|'
p752
NNNI3
I1
I0
tp753
bS'PCA'
p754
tp755
Rp756
sg51
F0.2
sg38
g748
sg52
g11
(g12
(S'S9'
p757
I0
I1
tp758
Rp759
(I3
S'|'
p760
NNNI9
I1
I0
tp761
bS'inception'
p762
tp763
Rp764
sg34
g745
sg61
g11
(g15
S'\xd1\x03\xeec\xeb\x9c\xd4?'
p765
tp766
Rp767
sg65
g11
(g12
(S'S3'
p768
I0
I1
tp769
Rp770
(I3
S'|'
p771
NNNI3
I1
I0
tp772
bS'SVM'
p773
tp774
Rp775
sg74
I3
sg75
g76
sg77
g11
(g15
S'H\xcc\x00\xb0S\xba\xe8?'
p776
tp777
Rp778
sg81
g82
sg83
g84
sbag4
(g5
g6
Ntp779
Rp780
(dp781
g10
g11
(g15
S'\x00\x00\x00\x00\x00\x00\xf8\xff'
p782
tp783
Rp784
sg91
g11
(g94
S'\x05\x00\x00\x00\x00\x00\x00\x00'
p785
tp786
Rp787
sg30
g31
sg32
(dp788
g91
g787
sg34
g11
(g15
S'\xf9\x15\x06\xeb6gF@'
p789
tp790
Rp791
sg104
g11
(g94
S'\x03\x00\x00\x00\x00\x00\x00\x00'
p792
tp793
Rp794
sg38
g11
(g15
S'\xfa\x177\xfc4 \x1e@'
p795
tp796
Rp797
ssg38
g797
sg42
g11
(g12
(S'S6'
p798
I0
I1
tp799
Rp800
(I3
S'|'
p801
NNNI6
I1
I0
tp802
bS'ISOMAP'
p803
tp804
Rp805
sg51
F0.2
sg104
g794
sg52
g11
(g12
(S'S9'
p806
I0
I1
tp807
Rp808
(I3
S'|'
p809
NNNI9
I1
I0
tp810
bS'inception'
p811
tp812
Rp813
sg34
g791
sg61
g11
(g15
S'\x95,j\xfe\xb1l\xd4?'
p814
tp815
Rp816
sg65
g11
(g12
(S'S3'
p817
I0
I1
tp818
Rp819
(I3
S'|'
p820
NNNI3
I1
I0
tp821
bS'SVM'
p822
tp823
Rp824
sg74
I3
sg75
g76
sg77
g11
(g15
S'Q\x84oT/\xb7\xe3?'
p825
tp826
Rp827
sg81
g82
sg83
g84
sbag4
(g5
g6
Ntp828
Rp829
(dp830
g10
g11
(g15
S'\x00\x00\x00\x00\x00\x00\xf8\xff'
p831
tp832
Rp833
sg91
g11
(g94
S'\x07\x00\x00\x00\x00\x00\x00\x00'
p834
tp835
Rp836
sg30
g31
sg32
(dp837
g91
g836
sg34
g11
(g15
S'\xf3\xff~\xc5D\xeaH@'
p838
tp839
Rp840
sg332
g11
(g94
S'\x02\x00\x00\x00\x00\x00\x00\x00'
p841
tp842
Rp843
sg104
g11
(g94
S'\x03\x00\x00\x00\x00\x00\x00\x00'
p844
tp845
Rp846
sg38
g11
(g15
S'\xf4t\x87\xc5>\x17\x17@'
p847
tp848
Rp849
ssg38
g849
sg42
g11
(g12
(S'S6'
p850
I0
I1
tp851
Rp852
(I3
S'|'
p853
NNNI6
I1
I0
tp854
bS'ISOMAP'
p855
tp856
Rp857
sg51
F0.2
sg104
g846
sg52
g11
(g12
(S'S8'
p858
I0
I1
tp859
Rp860
(I3
S'|'
p861
NNNI8
I1
I0
tp862
bS'haralick'
p863
tp864
Rp865
sg34
g840
sg332
g843
sg61
g11
(g15
S'^\x1ebh\x92\xd8\xd0?'
p866
tp867
Rp868
sg65
g11
(g12
(S'S3'
p869
I0
I1
tp870
Rp871
(I3
S'|'
p872
NNNI3
I1
I0
tp873
bS'SVM'
p874
tp875
Rp876
sg74
I3
sg75
g76
sg77
g11
(g15
S'\xb8m\x08\xf3\x130\xec?'
p877
tp878
Rp879
sg81
g82
sg83
g84
sbag4
(g5
g6
Ntp880
Rp881
(dp882
g10
g11
(g15
S'\x00\x00\x00\x00\x00\x00\xf8\xff'
p883
tp884
Rp885
sg196
g11
(g15
S'\x00\x00\x00\x00\x00@e@'
p886
tp887
Rp888
sg21
g361
sg30
g31
sg32
(dp889
g196
g888
sg207
g11
(g15
S'\xc6\x0f#a\xe5\x9d\xe0?'
p890
tp891
Rp892
sg21
g361
ssg42
g11
(g12
(S'S3'
p893
I0
I1
tp894
Rp895
(I3
S'|'
p896
NNNI3
I1
I0
tp897
bS'PCA'
p898
tp899
Rp900
sg51
F0.2
sg52
g11
(g12
(S'S9'
p901
I0
I1
tp902
Rp903
(I3
S'|'
p904
NNNI9
I1
I0
tp905
bS'inception'
p906
tp907
Rp908
sg61
g11
(g15
S'\xdf\xb23\x9enC\xe0?'
p909
tp910
Rp911
sg65
g11
(g12
(S'S2'
p912
I0
I1
tp913
Rp914
(I3
S'|'
p915
NNNI2
I1
I0
tp916
bS'RF'
p917
tp918
Rp919
sg74
I3
sg207
g892
sg75
g76
sg77
g11
(g15
S'-/\x06\x94\x08\xa4\xeb?'
p920
tp921
Rp922
sg81
g82
sg83
g84
sbag4
(g5
g6
Ntp923
Rp924
(dp925
g10
g11
(g15
S'\x00\x00\x00\x00\x00\x00\xf8\xff'
p926
tp927
Rp928
sg196
g11
(g15
S'\x00\x00\x00\x00\x00`i@'
p929
tp930
Rp931
sg21
g29
sg30
g31
sg32
(dp932
g196
g931
sg207
g11
(g15
S'p6\x95\x80^v\xee?'
p933
tp934
Rp935
sg21
g29
ssg42
g11
(g12
(S'S3'
p936
I0
I1
tp937
Rp938
(I3
S'|'
p939
NNNI3
I1
I0
tp940
bS'PCA'
p941
tp942
Rp943
sg51
F0.2
sg52
g11
(g12
(S'S9'
p944
I0
I1
tp945
Rp946
(I3
S'|'
p947
NNNI9
I1
I0
tp948
bS'inception'
p949
tp950
Rp951
sg61
g11
(g15
S'\xe9\x08L\xf5\x8ed\xe0?'
p952
tp953
Rp954
sg65
g11
(g12
(S'S2'
p955
I0
I1
tp956
Rp957
(I3
S'|'
p958
NNNI2
I1
I0
tp959
bS'RF'
p960
tp961
Rp962
sg74
I3
sg207
g935
sg75
g76
sg77
g11
(g15
S'\xe4=\x03\xfb\xf3t\xeb?'
p963
tp964
Rp965
sg81
g82
sg83
g84
sbag4
(g5
g6
Ntp966
Rp967
(dp968
g10
g11
(g15
S'\x00\x00\x00\x00\x00\x00\xf8\xff'
p969
tp970
Rp971
sg21
g29
sg30
g31
sg32
(dp972
g21
g29
sg34
g11
(g15
S'\xb8\xef\xa2p\xee\x981@'
p973
tp974
Rp975
sg38
g11
(g15
S'<\xda\x84\xb7\x15\x8f\x05@'
p976
tp977
Rp978
ssg42
g11
(g12
(S'S3'
p979
I0
I1
tp980
Rp981
(I3
S'|'
p982
NNNI3
I1
I0
tp983
bS'PCA'
p984
tp985
Rp986
sg51
F0.2
sg38
g978
sg52
g11
(g12
(S'S3'
p987
I0
I1
tp988
Rp989
(I3
S'|'
p990
NNNI3
I1
I0
tp991
bS'VGG'
p992
tp993
Rp994
sg34
g975
sg61
g11
(g15
S'\xa0\x94l\xe6*v\xce?'
p995
tp996
Rp997
sg65
g11
(g12
(S'S3'
p998
I0
I1
tp999
Rp1000
(I3
S'|'
p1001
NNNI3
I1
I0
tp1002
bS'SVM'
p1003
tp1004
Rp1005
sg74
I3
sg75
g76
sg77
g11
(g15
S'\x0b,\x81\xea\xaa\xd1\xec?'
p1006
tp1007
Rp1008
sg81
g82
sg83
g84
sbag4
(g5
g6
Ntp1009
Rp1010
(dp1011
g10
g11
(g15
S'\x00\x00\x00\x00\x00\x00\xf8\xff'
p1012
tp1013
Rp1014
sg196
g11
(g15
S'\x00\x00\x00\x00\x00@R@'
p1015
tp1016
Rp1017
sg21
g361
sg30
g31
sg32
(dp1018
g196
g1017
sg207
g11
(g15
S'\x00\xcci\x80Es\xea?'
p1019
tp1020
Rp1021
sg21
g361
ssg42
g11
(g12
(S'S3'
p1022
I0
I1
tp1023
Rp1024
(I3
S'|'
p1025
NNNI3
I1
I0
tp1026
bS'PCA'
p1027
tp1028
Rp1029
sg51
F0.2
sg52
g11
(g12
(S'S3'
p1030
I0
I1
tp1031
Rp1032
(I3
S'|'
p1033
NNNI3
I1
I0
tp1034
bS'VGG'
p1035
tp1036
Rp1037
sg61
g11
(g15
S'\xb9P_B\x80\x93\xd1?'
p1038
tp1039
Rp1040
sg65
g11
(g12
(S'S2'
p1041
I0
I1
tp1042
Rp1043
(I3
S'|'
p1044
NNNI2
I1
I0
tp1045
bS'RF'
p1046
tp1047
Rp1048
sg74
I3
sg207
g1021
sg75
g76
sg77
g11
(g15
S'\xd5\xb7\x82\x0f\xad\xba\xed?'
p1049
tp1050
Rp1051
sg81
g82
sg83
g84
sbag4
(g5
g6
Ntp1052
Rp1053
(dp1054
g10
g11
(g15
S'\x00\x00\x00\x00\x00\x00\xf8\xff'
p1055
tp1056
Rp1057
sg196
g11
(g15
S'\x00\x00\x00\x00\x00@e@'
p1058
tp1059
Rp1060
sg21
g361
sg30
g31
sg32
(dp1061
g196
g1060
sg207
g11
(g15
S'\xc4\xc5y\xc3z\t\xe8?'
p1062
tp1063
Rp1064
sg21
g361
ssg42
g11
(g12
(S'S3'
p1065
I0
I1
tp1066
Rp1067
(I3
S'|'
p1068
NNNI3
I1
I0
tp1069
bS'PCA'
p1070
tp1071
Rp1072
sg51
F0.2
sg52
g11
(g12
(S'S9'
p1073
I0
I1
tp1074
Rp1075
(I3
S'|'
p1076
NNNI9
I1
I0
tp1077
bS'inception'
p1078
tp1079
Rp1080
sg61
g11
(g15
S'\xd90\xd5\x97\x1a+\xe0?'
p1081
tp1082
Rp1083
sg65
g11
(g12
(S'S2'
p1084
I0
I1
tp1085
Rp1086
(I3
S'|'
p1087
NNNI2
I1
I0
tp1088
bS'RF'
p1089
tp1090
Rp1091
sg74
I3
sg207
g1064
sg75
g76
sg77
g11
(g15
S'\xc3\x84\x82#\x18\x8c\xeb?'
p1092
tp1093
Rp1094
sg81
g82
sg83
g84
sbag4
(g5
g6
Ntp1095
Rp1096
(dp1097
g10
g11
(g15
S'\x00\x00\x00\x00\x00\x00\xf8\xff'
p1098
tp1099
Rp1100
sg91
g11
(g94
S'\x07\x00\x00\x00\x00\x00\x00\x00'
p1101
tp1102
Rp1103
sg30
g31
sg32
(dp1104
g91
g1103
sg34
g11
(g15
S'\x89\xe8\x85\xe7\xbf\xca.@'
p1105
tp1106
Rp1107
sg104
g11
(g94
S'\x04\x00\x00\x00\x00\x00\x00\x00'
p1108
tp1109
Rp1110
sg38
g11
(g15
S'\xacr\xcfjQU\x14@'
p1111
tp1112
Rp1113
ssg38
g1113
sg42
g11
(g12
(S'S6'
p1114
I0
I1
tp1115
Rp1116
(I3
S'|'
p1117
NNNI6
I1
I0
tp1118
bS'ISOMAP'
p1119
tp1120
Rp1121
sg51
F0.2
sg104
g1110
sg52
g11
(g12
(S'S9'
p1122
I0
I1
tp1123
Rp1124
(I3
S'|'
p1125
NNNI9
I1
I0
tp1126
bS'inception'
p1127
tp1128
Rp1129
sg34
g1107
sg61
g11
(g15
S'?U{\x8f\xad\x19\xd4?'
p1130
tp1131
Rp1132
sg65
g11
(g12
(S'S3'
p1133
I0
I1
tp1134
Rp1135
(I3
S'|'
p1136
NNNI3
I1
I0
tp1137
bS'SVM'
p1138
tp1139
Rp1140
sg74
I3
sg75
g76
sg77
g11
(g15
S'\xf8\x95\x05\xd0I\x18\xe5?'
p1141
tp1142
Rp1143
sg81
g82
sg83
g84
sbag4
(g5
g6
Ntp1144
Rp1145
(dp1146
g10
g11
(g15
S'\x00\x00\x00\x00\x00\x00\xf8\xff'
p1147
tp1148
Rp1149
sg91
g11
(g94
S'\x03\x00\x00\x00\x00\x00\x00\x00'
p1150
tp1151
Rp1152
sg30
g31
sg32
(dp1153
g91
g1152
sg34
g11
(g15
S'\xd9\xf4=`\xb8\xefM@'
p1154
tp1155
Rp1156
sg104
g11
(g94
S'\x03\x00\x00\x00\x00\x00\x00\x00'
p1157
tp1158
Rp1159
sg38
g11
(g15
S'|\x1dT\xe5fM\x18@'
p1160
tp1161
Rp1162
ssg38
g1162
sg42
g11
(g12
(S'S6'
p1163
I0
I1
tp1164
Rp1165
(I3
S'|'
p1166
NNNI6
I1
I0
tp1167
bS'ISOMAP'
p1168
tp1169
Rp1170
sg51
F0.2
sg104
g1159
sg52
g11
(g12
(S'S3'
p1171
I0
I1
tp1172
Rp1173
(I3
S'|'
p1174
NNNI3
I1
I0
tp1175
bS'VGG'
p1176
tp1177
Rp1178
sg34
g1156
sg61
g11
(g15
S'(\xf2\xcacJ\xcf\xcf?'
p1179
tp1180
Rp1181
sg65
g11
(g12
(S'S3'
p1182
I0
I1
tp1183
Rp1184
(I3
S'|'
p1185
NNNI3
I1
I0
tp1186
bS'SVM'
p1187
tp1188
Rp1189
sg74
I3
sg75
g76
sg77
g11
(g15
S'\x9d\\\xfb\x90\xf9D\xed?'
p1190
tp1191
Rp1192
sg81
g82
sg83
g84
sbag4
(g5
g6
Ntp1193
Rp1194
(dp1195
g10
g11
(g15
S'\x00\x00\x00\x00\x00\x00\xf8\xff'
p1196
tp1197
Rp1198
sg91
g11
(g94
S'\x06\x00\x00\x00\x00\x00\x00\x00'
p1199
tp1200
Rp1201
sg30
g31
sg32
(dp1202
g91
g1201
sg34
g11
(g15
S'\x08\xf9\x8e\xed$\x012@'
p1203
tp1204
Rp1205
sg332
g11
(g94
S'\x02\x00\x00\x00\x00\x00\x00\x00'
p1206
tp1207
Rp1208
sg104
g11
(g94
S'\x03\x00\x00\x00\x00\x00\x00\x00'
p1209
tp1210
Rp1211
sg38
g11
(g15
S'\xe6<\xc5.\x06\xe5\x1b@'
p1212
tp1213
Rp1214
ssg38
g1214
sg42
g11
(g12
(S'S6'
p1215
I0
I1
tp1216
Rp1217
(I3
S'|'
p1218
NNNI6
I1
I0
tp1219
bS'ISOMAP'
p1220
tp1221
Rp1222
sg51
F0.2
sg104
g1211
sg52
g11
(g12
(S'S8'
p1223
I0
I1
tp1224
Rp1225
(I3
S'|'
p1226
NNNI8
I1
I0
tp1227
bS'haralick'
p1228
tp1229
Rp1230
sg34
g1205
sg332
g1208
sg61
g11
(g15
S'\x13[\xa9F\xba\xeb\xd4?'
p1231
tp1232
Rp1233
sg65
g11
(g12
(S'S3'
p1234
I0
I1
tp1235
Rp1236
(I3
S'|'
p1237
NNNI3
I1
I0
tp1238
bS'SVM'
p1239
tp1240
Rp1241
sg74
I3
sg75
g76
sg77
g11
(g15
S'\xefT}+\xf8\xd0\xea?'
p1242
tp1243
Rp1244
sg81
g82
sg83
g84
sbag4
(g5
g6
Ntp1245
Rp1246
(dp1247
g10
g11
(g15
S'\x00\x00\x00\x00\x00\x00\xf8\xff'
p1248
tp1249
Rp1250
sg91
g11
(g94
S'\x06\x00\x00\x00\x00\x00\x00\x00'
p1251
tp1252
Rp1253
sg30
g31
sg32
(dp1254
g91
g1253
sg34
g11
(g15
S'\xa6\xa5\x02\xafH\x08S@'
p1255
tp1256
Rp1257
sg332
g11
(g94
S'\x02\x00\x00\x00\x00\x00\x00\x00'
p1258
tp1259
Rp1260
sg104
g11
(g94
S'\x02\x00\x00\x00\x00\x00\x00\x00'
p1261
tp1262
Rp1263
sg38
g11
(g15
S"\x92\x84'\xa1n\xde\x17@"
p1264
tp1265
Rp1266
ssg38
g1266
sg42
g11
(g12
(S'S6'
p1267
I0
I1
tp1268
Rp1269
(I3
S'|'
p1270
NNNI6
I1
I0
tp1271
bS'ISOMAP'
p1272
tp1273
Rp1274
sg51
F0.2
sg104
g1263
sg52
g11
(g12
(S'S8'
p1275
I0
I1
tp1276
Rp1277
(I3
S'|'
p1278
NNNI8
I1
I0
tp1279
bS'haralick'
p1280
tp1281
Rp1282
sg34
g1257
sg332
g1260
sg61
g11
(g15
S'\xceG_\xd0\xb5\r\xd1?'
p1283
tp1284
Rp1285
sg65
g11
(g12
(S'S3'
p1286
I0
I1
tp1287
Rp1288
(I3
S'|'
p1289
NNNI3
I1
I0
tp1290
bS'SVM'
p1291
tp1292
Rp1293
sg74
I3
sg75
g76
sg77
g11
(g15
S'L\x01\xfe\xc7..\xea?'
p1294
tp1295
Rp1296
sg81
g82
sg83
g84
sbag4
(g5
g6
Ntp1297
Rp1298
(dp1299
g10
g11
(g15
S'\x00\x00\x00\x00\x00\x00\xf8\xff'
p1300
tp1301
Rp1302
sg21
g29
sg30
g31
sg32
(dp1303
g21
g29
sg34
g11
(g15
S'0NA1\x89\x1e@@'
p1304
tp1305
Rp1306
sg38
g11
(g15
S'\x1b\xcc;a@\x18\x16@'
p1307
tp1308
Rp1309
ssg42
g11
(g12
(S'S3'
p1310
I0
I1
tp1311
Rp1312
(I3
S'|'
p1313
NNNI3
I1
I0
tp1314
bS'PCA'
p1315
tp1316
Rp1317
sg51
F0.2
sg38
g1309
sg52
g11
(g12
(S'S3'
p1318
I0
I1
tp1319
Rp1320
(I3
S'|'
p1321
NNNI3
I1
I0
tp1322
bS'VGG'
p1323
tp1324
Rp1325
sg34
g1306
sg61
g11
(g15
S'\x1f\x12\x08\xfazM\xd0?'
p1326
tp1327
Rp1328
sg65
g11
(g12
(S'S3'
p1329
I0
I1
tp1330
Rp1331
(I3
S'|'
p1332
NNNI3
I1
I0
tp1333
bS'SVM'
p1334
tp1335
Rp1336
sg74
I3
sg75
g76
sg77
g11
(g15
S'\x0b,\x81\xea\xaa\xd1\xec?'
p1337
tp1338
Rp1339
sg81
g82
sg83
g84
sbag4
(g5
g6
Ntp1340
Rp1341
(dp1342
g10
g11
(g15
S'\x00\x00\x00\x00\x00\x00\xf8\xff'
p1343
tp1344
Rp1345
sg196
g11
(g15
S'\x00\x00\x00\x00\x00@R@'
p1346
tp1347
Rp1348
sg21
g361
sg30
g31
sg32
(dp1349
g196
g1348
sg207
g11
(g15
S'\x16\x9a6\x81\xc9\xfa\xe7?'
p1350
tp1351
Rp1352
sg21
g361
ssg42
g11
(g12
(S'S3'
p1353
I0
I1
tp1354
Rp1355
(I3
S'|'
p1356
NNNI3
I1
I0
tp1357
bS'PCA'
p1358
tp1359
Rp1360
sg51
F0.2
sg52
g11
(g12
(S'S3'
p1361
I0
I1
tp1362
Rp1363
(I3
S'|'
p1364
NNNI3
I1
I0
tp1365
bS'VGG'
p1366
tp1367
Rp1368
sg61
g11
(g15
S'\xf1\xad\x985L\xae\xd0?'
p1369
tp1370
Rp1371
sg65
g11
(g12
(S'S2'
p1372
I0
I1
tp1373
Rp1374
(I3
S'|'
p1375
NNNI2
I1
I0
tp1376
bS'RF'
p1377
tp1378
Rp1379
sg74
I3
sg207
g1352
sg75
g76
sg77
g11
(g15
S'\x93E\x81`\xf5\xe8\xed?'
p1380
tp1381
Rp1382
sg81
g82
sg83
g84
sbag4
(g5
g6
Ntp1383
Rp1384
(dp1385
g10
g11
(g15
S'\x00\x00\x00\x00\x00\x00\xf8\xff'
p1386
tp1387
Rp1388
sg91
g11
(g94
S'\x04\x00\x00\x00\x00\x00\x00\x00'
p1389
tp1390
Rp1391
sg30
g31
sg32
(dp1392
g91
g1391
sg34
g11
(g15
S'\xc0X\xecl\xd0\xb4R@'
p1393
tp1394
Rp1395
sg332
g11
(g94
S'\x02\x00\x00\x00\x00\x00\x00\x00'
p1396
tp1397
Rp1398
sg104
g11
(g94
S'\x02\x00\x00\x00\x00\x00\x00\x00'
p1399
tp1400
Rp1401
sg38
g11
(g15
S'\xb3vn\xb3\x07\xc7\xf5?'
p1402
tp1403
Rp1404
ssg38
g1404
sg42
g11
(g12
(S'S6'
p1405
I0
I1
tp1406
Rp1407
(I3
S'|'
p1408
NNNI6
I1
I0
tp1409
bS'ISOMAP'
p1410
tp1411
Rp1412
sg51
F0.2
sg104
g1401
sg52
g11
(g12
(S'S8'
p1413
I0
I1
tp1414
Rp1415
(I3
S'|'
p1416
NNNI8
I1
I0
tp1417
bS'haralick'
p1418
tp1419
Rp1420
sg34
g1395
sg332
g1398
sg61
g11
(g15
S'\xcc\x8a\x10\xcb\xbft\xd2?'
p1421
tp1422
Rp1423
sg65
g11
(g12
(S'S3'
p1424
I0
I1
tp1425
Rp1426
(I3
S'|'
p1427
NNNI3
I1
I0
tp1428
bS'SVM'
p1429
tp1430
Rp1431
sg74
I3
sg75
g76
sg77
g11
(g15
S'1\xc7~\xda\xaf\xa2\xea?'
p1432
tp1433
Rp1434
sg81
g82
sg83
g84
sbag4
(g5
g6
Ntp1435
Rp1436
(dp1437
g10
g11
(g15
S'\x00\x00\x00\x00\x00\x00\xf8\xff'
p1438
tp1439
Rp1440
sg21
g29
sg30
g31
sg32
(dp1441
g21
g29
sg34
g11
(g15
S'DZ\xdb>\x05v(@'
p1442
tp1443
Rp1444
sg332
g11
(g94
S'\x01\x00\x00\x00\x00\x00\x00\x00'
p1445
tp1446
Rp1447
sg38
g11
(g15
S'\x8dw{\x1e\xcc\xe6\x03@'
p1448
tp1449
Rp1450
ssg42
g11
(g12
(S'S3'
p1451
I0
I1
tp1452
Rp1453
(I3
S'|'
p1454
NNNI3
I1
I0
tp1455
bS'PCA'
p1456
tp1457
Rp1458
sg51
F0.2
sg38
g1450
sg52
g11
(g12
(S'S8'
p1459
I0
I1
tp1460
Rp1461
(I3
S'|'
p1462
NNNI8
I1
I0
tp1463
bS'haralick'
p1464
tp1465
Rp1466
sg34
g1444
sg332
g1447
sg61
g11
(g15
S'[\x8e%E\\\x9e\xce?'
p1467
tp1468
Rp1469
sg65
g11
(g12
(S'S3'
p1470
I0
I1
tp1471
Rp1472
(I3
S'|'
p1473
NNNI3
I1
I0
tp1474
bS'SVM'
p1475
tp1476
Rp1477
sg74
I3
sg75
g76
sg77
g11
(g15
S'\xc7\x1c\xfbi\xbf\x8a\xea?'
p1478
tp1479
Rp1480
sg81
g82
sg83
g84
sbag4
(g5
g6
Ntp1481
Rp1482
(dp1483
g10
g11
(g15
S'\x00\x00\x00\x00\x00\x00\xf8\xff'
p1484
tp1485
Rp1486
sg91
g11
(g94
S'\x05\x00\x00\x00\x00\x00\x00\x00'
p1487
tp1488
Rp1489
sg30
g31
sg32
(dp1490
g91
g1489
sg34
g11
(g15
S'T\xd64\xfaY\xb7W@'
p1491
tp1492
Rp1493
sg104
g11
(g94
S'\x02\x00\x00\x00\x00\x00\x00\x00'
p1494
tp1495
Rp1496
sg38
g11
(g15
S'\x86\x81\x13\x932D\xfa?'
p1497
tp1498
Rp1499
ssg38
g1499
sg42
g11
(g12
(S'S6'
p1500
I0
I1
tp1501
Rp1502
(I3
S'|'
p1503
NNNI6
I1
I0
tp1504
bS'ISOMAP'
p1505
tp1506
Rp1507
sg51
F0.2
sg104
g1496
sg52
g11
(g12
(S'S9'
p1508
I0
I1
tp1509
Rp1510
(I3
S'|'
p1511
NNNI9
I1
I0
tp1512
bS'inception'
p1513
tp1514
Rp1515
sg34
g1493
sg61
g11
(g15
S'\xf3\x18\x1cJ\x89\xc9\xd3?'
p1516
tp1517
Rp1518
sg65
g11
(g12
(S'S3'
p1519
I0
I1
tp1520
Rp1521
(I3
S'|'
p1522
NNNI3
I1
I0
tp1523
bS'SVM'
p1524
tp1525
Rp1526
sg74
I3
sg75
g76
sg77
g11
(g15
S'$\x17\xf0z\x1b\xfd\xe1?'
p1527
tp1528
Rp1529
sg81
g82
sg83
g84
sbag4
(g5
g6
Ntp1530
Rp1531
(dp1532
g10
g11
(g15
S'\x00\x00\x00\x00\x00\x00\xf8\xff'
p1533
tp1534
Rp1535
sg196
g11
(g15
S'\x00\x00\x00\x00\x00`m@'
p1536
tp1537
Rp1538
sg30
g31
sg91
g11
(g94
S'\x03\x00\x00\x00\x00\x00\x00\x00'
p1539
tp1540
Rp1541
sg32
(dp1542
g196
g1538
sg91
g1541
sg104
g11
(g94
S'\x04\x00\x00\x00\x00\x00\x00\x00'
p1543
tp1544
Rp1545
sg207
g11
(g15
S'\xba\x91U\x9fI\x9f\xe2?'
p1546
tp1547
Rp1548
ssg42
g11
(g12
(S'S6'
p1549
I0
I1
tp1550
Rp1551
(I3
S'|'
p1552
NNNI6
I1
I0
tp1553
bS'ISOMAP'
p1554
tp1555
Rp1556
sg51
F0.2
sg104
g1545
sg52
g11
(g12
(S'S9'
p1557
I0
I1
tp1558
Rp1559
(I3
S'|'
p1560
NNNI9
I1
I0
tp1561
bS'inception'
p1562
tp1563
Rp1564
sg61
g11
(g15
S'3\xc5\xeb\x8f^\xa5\xf1?'
p1565
tp1566
Rp1567
sg65
g11
(g12
(S'S2'
p1568
I0
I1
tp1569
Rp1570
(I3
S'|'
p1571
NNNI2
I1
I0
tp1572
bS'RF'
p1573
tp1574
Rp1575
sg74
I3
sg207
g1548
sg75
g76
sg77
g11
(g15
S'\xe4R\n\xb5\x9a\xea\xe8?'
p1576
tp1577
Rp1578
sg81
g82
sg83
g84
sbag4
(g5
g6
Ntp1579
Rp1580
(dp1581
g10
g11
(g15
S'\x00\x00\x00\x00\x00\x00\xf8\xff'
p1582
tp1583
Rp1584
sg21
g361
sg30
g31
sg32
(dp1585
g21
g361
sg34
g11
(g15
S'9,eG\xf5R9@'
p1586
tp1587
Rp1588
sg38
g11
(g15
S'W\x9d\xc8\xd9 \xe1\x0b@'
p1589
tp1590
Rp1591
ssg42
g11
(g12
(S'S3'
p1592
I0
I1
tp1593
Rp1594
(I3
S'|'
p1595
NNNI3
I1
I0
tp1596
bS'PCA'
p1597
tp1598
Rp1599
sg51
F0.2
sg38
g1591
sg52
g11
(g12
(S'S9'
p1600
I0
I1
tp1601
Rp1602
(I3
S'|'
p1603
NNNI9
I1
I0
tp1604
bS'inception'
p1605
tp1606
Rp1607
sg34
g1588
sg61
g11
(g15
S'\xfbv\x05\x08W\xb3\xd4?'
p1608
tp1609
Rp1610
sg65
g11
(g12
(S'S3'
p1611
I0
I1
tp1612
Rp1613
(I3
S'|'
p1614
NNNI3
I1
I0
tp1615
bS'SVM'
p1616
tp1617
Rp1618
sg74
I3
sg75
g76
sg77
g11
(g15
S'\x18\xf0z\x1b\xfd\xa1\xe8?'
p1619
tp1620
Rp1621
sg81
g82
sg83
g84
sbag4
(g5
g6
Ntp1622
Rp1623
(dp1624
g10
g11
(g15
S'\x00\x00\x00\x00\x00\x00\xf8\xff'
p1625
tp1626
Rp1627
sg91
g11
(g94
S'\x07\x00\x00\x00\x00\x00\x00\x00'
p1628
tp1629
Rp1630
sg30
g31
sg32
(dp1631
g91
g1630
sg34
g11
(g15
S'\xc5\xf0G\xf5>\t\x16@'
p1632
tp1633
Rp1634
sg104
g11
(g94
S'\x03\x00\x00\x00\x00\x00\x00\x00'
p1635
tp1636
Rp1637
sg38
g11
(g15
S'\xce\xfe\xb5\x9d\xd7\x8a\xec?'
p1638
tp1639
Rp1640
ssg38
g1640
sg42
g11
(g12
(S'S6'
p1641
I0
I1
tp1642
Rp1643
(I3
S'|'
p1644
NNNI6
I1
I0
tp1645
bS'ISOMAP'
p1646
tp1647
Rp1648
sg51
F0.2
sg104
g1637
sg52
g11
(g12
(S'S3'
p1649
I0
I1
tp1650
Rp1651
(I3
S'|'
p1652
NNNI3
I1
I0
tp1653
bS'VGG'
p1654
tp1655
Rp1656
sg34
g1634
sg61
g11
(g15
S'h\xa2\x19\xba\x17\x05\xca?'
p1657
tp1658
Rp1659
sg65
g11
(g12
(S'S3'
p1660
I0
I1
tp1661
Rp1662
(I3
S'|'
p1663
NNNI3
I1
I0
tp1664
bS'SVM'
p1665
tp1666
Rp1667
sg74
I3
sg75
g76
sg77
g11
(g15
S'\xa8%\x01M\xd8\x8b\xec?'
p1668
tp1669
Rp1670
sg81
g82
sg83
g84
sbag4
(g5
g6
Ntp1671
Rp1672
(dp1673
g10
g11
(g15
S'\x00\x00\x00\x00\x00\x00\xf8\xff'
p1674
tp1675
Rp1676
sg91
g11
(g94
S'\x06\x00\x00\x00\x00\x00\x00\x00'
p1677
tp1678
Rp1679
sg30
g31
sg32
(dp1680
g91
g1679
sg34
g11
(g15
S'\x9a\xb0\xbc\x18\x1ekU@'
p1681
tp1682
Rp1683
sg104
g11
(g94
S'\x03\x00\x00\x00\x00\x00\x00\x00'
p1684
tp1685
Rp1686
sg38
g11
(g15
S'\xa5\xc9\xa5\xb7Yz\x15@'
p1687
tp1688
Rp1689
ssg38
g1689
sg42
g11
(g12
(S'S6'
p1690
I0
I1
tp1691
Rp1692
(I3
S'|'
p1693
NNNI6
I1
I0
tp1694
bS'ISOMAP'
p1695
tp1696
Rp1697
sg51
F0.2
sg104
g1686
sg52
g11
(g12
(S'S3'
p1698
I0
I1
tp1699
Rp1700
(I3
S'|'
p1701
NNNI3
I1
I0
tp1702
bS'VGG'
p1703
tp1704
Rp1705
sg34
g1683
sg61
g11
(g15
S'\x02a\xdfrW\x98\xd2?'
p1706
tp1707
Rp1708
sg65
g11
(g12
(S'S3'
p1709
I0
I1
tp1710
Rp1711
(I3
S'|'
p1712
NNNI3
I1
I0
tp1713
bS'SVM'
p1714
tp1715
Rp1716
sg74
I3
sg75
g76
sg77
g11
(g15
S'4\x89\x05\x95\xa4\x8c\xec?'
p1717
tp1718
Rp1719
sg81
g82
sg83
g84
sbag4
(g5
g6
Ntp1720
Rp1721
(dp1722
g10
g11
(g15
S'\x00\x00\x00\x00\x00\x00\xf8\xff'
p1723
tp1724
Rp1725
sg21
g29
sg30
g31
sg32
(dp1726
g21
g29
sg34
g11
(g15
S"\x06\xfa\r\xf4\xba3'@"
p1727
tp1728
Rp1729
sg38
g11
(g15
S'\x84]A\xc6\x03w\x00@'
p1730
tp1731
Rp1732
ssg42
g11
(g12
(S'S3'
p1733
I0
I1
tp1734
Rp1735
(I3
S'|'
p1736
NNNI3
I1
I0
tp1737
bS'PCA'
p1738
tp1739
Rp1740
sg51
F0.2
sg38
g1732
sg52
g11
(g12
(S'S3'
p1741
I0
I1
tp1742
Rp1743
(I3
S'|'
p1744
NNNI3
I1
I0
tp1745
bS'VGG'
p1746
tp1747
Rp1748
sg34
g1729
sg61
g11
(g15
S'S\x88\x172\x80\xdc\xce?'
p1749
tp1750
Rp1751
sg65
g11
(g12
(S'S3'
p1752
I0
I1
tp1753
Rp1754
(I3
S'|'
p1755
NNNI3
I1
I0
tp1756
bS'SVM'
p1757
tp1758
Rp1759
sg74
I3
sg75
g76
sg77
g11
(g15
S'\x0b,\x81\xea\xaa\xd1\xec?'
p1760
tp1761
Rp1762
sg81
g82
sg83
g84
sbag4
(g5
g6
Ntp1763
Rp1764
(dp1765
g10
g11
(g15
S'\x00\x00\x00\x00\x00\x00\xf8\xff'
p1766
tp1767
Rp1768
sg21
g361
sg30
g31
sg32
(dp1769
g21
g361
sg34
g11
(g15
S'\x10\xcf\xa7)rG8@'
p1770
tp1771
Rp1772
sg332
g11
(g94
S'\x01\x00\x00\x00\x00\x00\x00\x00'
p1773
tp1774
Rp1775
sg38
g11
(g15
S'r}!\xfe\xa6%\x0c@'
p1776
tp1777
Rp1778
ssg42
g11
(g12
(S'S3'
p1779
I0
I1
tp1780
Rp1781
(I3
S'|'
p1782
NNNI3
I1
I0
tp1783
bS'PCA'
p1784
tp1785
Rp1786
sg51
F0.2
sg38
g1778
sg52
g11
(g12
(S'S8'
p1787
I0
I1
tp1788
Rp1789
(I3
S'|'
p1790
NNNI8
I1
I0
tp1791
bS'haralick'
p1792
tp1793
Rp1794
sg34
g1772
sg332
g1775
sg61
g11
(g15
S'\xdf t\xef\xc1\xb1\xcf?'
p1795
tp1796
Rp1797
sg65
g11
(g12
(S'S3'
p1798
I0
I1
tp1799
Rp1800
(I3
S'|'
p1801
NNNI3
I1
I0
tp1802
bS'SVM'
p1803
tp1804
Rp1805
sg74
I3
sg75
g76
sg77
g11
(g15
S'm\x08\xf3\x130,\xea?'
p1806
tp1807
Rp1808
sg81
g82
sg83
g84
sbag4
(g5
g6
Ntp1809
Rp1810
(dp1811
g10
g11
(g15
S'\x00\x00\x00\x00\x00\x00\xf8\xff'
p1812
tp1813
Rp1814
sg21
g361
sg30
g31
sg32
(dp1815
g21
g361
sg34
g11
(g15
S"\x88\xa4\xcbLfB'@"
p1816
tp1817
Rp1818
sg38
g11
(g15
S'YG\xabv\x98\xac\xdf?'
p1819
tp1820
Rp1821
ssg42
g11
(g12
(S'S3'
p1822
I0
I1
tp1823
Rp1824
(I3
S'|'
p1825
NNNI3
I1
I0
tp1826
bS'PCA'
p1827
tp1828
Rp1829
sg51
F0.2
sg38
g1821
sg52
g11
(g12
(S'S9'
p1830
I0
I1
tp1831
Rp1832
(I3
S'|'
p1833
NNNI9
I1
I0
tp1834
bS'inception'
p1835
tp1836
Rp1837
sg34
g1818
sg61
g11
(g15
S'P\x83\xfe\xd0\x04\xa4\xd4?'
p1838
tp1839
Rp1840
sg65
g11
(g12
(S'S3'
p1841
I0
I1
tp1842
Rp1843
(I3
S'|'
p1844
NNNI3
I1
I0
tp1845
bS'SVM'
p1846
tp1847
Rp1848
sg74
I3
sg75
g76
sg77
g11
(g15
S'\xd8\x15\xf2\xb2\xec\xce\xe7?'
p1849
tp1850
Rp1851
sg81
g82
sg83
g84
sbag4
(g5
g6
Ntp1852
Rp1853
(dp1854
g10
g11
(g15
S'\x00\x00\x00\x00\x00\x00\xf8\xff'
p1855
tp1856
Rp1857
sg21
g29
sg30
g31
sg32
(dp1858
g21
g29
sg34
g11
(g15
S'\xd4\xb5\x9e\xdb\xc2\xa97@'
p1859
tp1860
Rp1861
sg38
g11
(g15
S'\x94OL3\xa5\x06\x14@'
p1862
tp1863
Rp1864
ssg42
g11
(g12
(S'S3'
p1865
I0
I1
tp1866
Rp1867
(I3
S'|'
p1868
NNNI3
I1
I0
tp1869
bS'PCA'
p1870
tp1871
Rp1872
sg51
F0.2
sg38
g1864
sg52
g11
(g12
(S'S9'
p1873
I0
I1
tp1874
Rp1875
(I3
S'|'
p1876
NNNI9
I1
I0
tp1877
bS'inception'
p1878
tp1879
Rp1880
sg34
g1861
sg61
g11
(g15
S'\x8c\xa96E\xf7G\xd4?'
p1881
tp1882
Rp1883
sg65
g11
(g12
(S'S3'
p1884
I0
I1
tp1885
Rp1886
(I3
S'|'
p1887
NNNI3
I1
I0
tp1888
bS'SVM'
p1889
tp1890
Rp1891
sg74
I3
sg75
g76
sg77
g11
(g15
S'h`\x7f\x9en.\xe9?'
p1892
tp1893
Rp1894
sg81
g82
sg83
g84
sbag4
(g5
g6
Ntp1895
Rp1896
(dp1897
g10
g11
(g15
S'\x00\x00\x00\x00\x00\x00\xf8\xff'
p1898
tp1899
Rp1900
sg91
g11
(g94
S'\x05\x00\x00\x00\x00\x00\x00\x00'
p1901
tp1902
Rp1903
sg30
g31
sg32
(dp1904
g91
g1903
sg34
g11
(g15
S'*\xd9.\x7flS!@'
p1905
tp1906
Rp1907
sg332
g11
(g94
S'\x03\x00\x00\x00\x00\x00\x00\x00'
p1908
tp1909
Rp1910
sg104
g11
(g94
S'\x04\x00\x00\x00\x00\x00\x00\x00'
p1911
tp1912
Rp1913
sg38
g11
(g15
S'\x01g\xa7Sv\xe5\x1e@'
p1914
tp1915
Rp1916
ssg38
g1916
sg42
g11
(g12
(S'S6'
p1917
I0
I1
tp1918
Rp1919
(I3
S'|'
p1920
NNNI6
I1
I0
tp1921
bS'ISOMAP'
p1922
tp1923
Rp1924
sg51
F0.2
sg104
g1913
sg52
g11
(g12
(S'S8'
p1925
I0
I1
tp1926
Rp1927
(I3
S'|'
p1928
NNNI8
I1
I0
tp1929
bS'haralick'
p1930
tp1931
Rp1932
sg34
g1907
sg332
g1910
sg61
g11
(g15
S'\xb4\x18;\xdb\xaa\xe2\xd1?'
p1933
tp1934
Rp1935
sg65
g11
(g12
(S'S3'
p1936
I0
I1
tp1937
Rp1938
(I3
S'|'
p1939
NNNI3
I1
I0
tp1940
bS'SVM'
p1941
tp1942
Rp1943
sg74
I3
sg75
g76
sg77
g11
(g15
S'\x81\x12\x81t`\xba\xeb?'
p1944
tp1945
Rp1946
sg81
g82
sg83
g84
sbag4
(g5
g6
Ntp1947
Rp1948
(dp1949
g10
g11
(g15
S'\x00\x00\x00\x00\x00\x00\xf8\xff'
p1950
tp1951
Rp1952
sg91
g11
(g94
S'\x06\x00\x00\x00\x00\x00\x00\x00'
p1953
tp1954
Rp1955
sg30
g31
sg32
(dp1956
g91
g1955
sg34
g11
(g15
S'\xb6J\x88aO\x1fW@'
p1957
tp1958
Rp1959
sg104
g11
(g94
S'\x03\x00\x00\x00\x00\x00\x00\x00'
p1960
tp1961
Rp1962
sg38
g11
(g15
S'\xcd1\xc5\x0c\xc3x\xca?'
p1963
tp1964
Rp1965
ssg38
g1965
sg42
g11
(g12
(S'S6'
p1966
I0
I1
tp1967
Rp1968
(I3
S'|'
p1969
NNNI6
I1
I0
tp1970
bS'ISOMAP'
p1971
tp1972
Rp1973
sg51
F0.2
sg104
g1962
sg52
g11
(g12
(S'S9'
p1974
I0
I1
tp1975
Rp1976
(I3
S'|'
p1977
NNNI9
I1
I0
tp1978
bS'inception'
p1979
tp1980
Rp1981
sg34
g1959
sg61
g11
(g15
S')\xf0HC:\xd5\xd3?'
p1982
tp1983
Rp1984
sg65
g11
(g12
(S'S3'
p1985
I0
I1
tp1986
Rp1987
(I3
S'|'
p1988
NNNI3
I1
I0
tp1989
bS'SVM'
p1990
tp1991
Rp1992
sg74
I3
sg75
g76
sg77
g11
(g15
S'\xaf\xa3fNL\x9e\xe2?'
p1993
tp1994
Rp1995
sg81
g82
sg83
g84
sbag4
(g5
g6
Ntp1996
Rp1997
(dp1998
g10
g11
(g15
S'\x00\x00\x00\x00\x00\x00\xf8\xff'
p1999
tp2000
Rp2001
sg196
g11
(g15
S'\x00\x00\x00\x00\x00`m@'
p2002
tp2003
Rp2004
sg21
g361
sg30
g31
sg32
(dp2005
g196
g2004
sg207
g11
(g15
S'"\xb4\x90\x93\x15\x14\xe8?'
p2006
tp2007
Rp2008
sg21
g361
sg332
g11
(g94
S'\x03\x00\x00\x00\x00\x00\x00\x00'
p2009
tp2010
Rp2011
ssg42
g11
(g12
(S'S3'
p2012
I0
I1
tp2013
Rp2014
(I3
S'|'
p2015
NNNI3
I1
I0
tp2016
bS'PCA'
p2017
tp2018
Rp2019
sg51
F0.2
sg52
g11
(g12
(S'S8'
p2020
I0
I1
tp2021
Rp2022
(I3
S'|'
p2023
NNNI8
I1
I0
tp2024
bS'haralick'
p2025
tp2026
Rp2027
sg332
g2011
sg61
g11
(g15
S'\x9dX\xfc\xa0\xfbb\xe6?'
p2028
tp2029
Rp2030
sg65
g11
(g12
(S'S2'
p2031
I0
I1
tp2032
Rp2033
(I3
S'|'
p2034
NNNI2
I1
I0
tp2035
bS'RF'
p2036
tp2037
Rp2038
sg74
I3
sg207
g2008
sg75
g76
sg77
g11
(g15
S'\x97\xdd\xf9\xa6\x9c\xe7\xec?'
p2039
tp2040
Rp2041
sg81
g82
sg83
g84
sbag4
(g5
g6
Ntp2042
Rp2043
(dp2044
g10
g11
(g15
S'\x00\x00\x00\x00\x00\x00\xf8\xff'
p2045
tp2046
Rp2047
sg21
g361
sg30
g31
sg32
(dp2048
g21
g361
sg34
g11
(g15
S'o\x9d\xc2Q\x1e\xb1I@'
p2049
tp2050
Rp2051
sg38
g11
(g15
S'\xfe\\y\n\xe3:\xbb?'
p2052
tp2053
Rp2054
ssg42
g11
(g12
(S'S3'
p2055
I0
I1
tp2056
Rp2057
(I3
S'|'
p2058
NNNI3
I1
I0
tp2059
bS'PCA'
p2060
tp2061
Rp2062
sg51
F0.2
sg38
g2054
sg52
g11
(g12
(S'S9'
p2063
I0
I1
tp2064
Rp2065
(I3
S'|'
p2066
NNNI9
I1
I0
tp2067
bS'inception'
p2068
tp2069
Rp2070
sg34
g2051
sg61
g11
(g15
S'\n\x8b\xc8\xa1!\x93\xd3?'
p2071
tp2072
Rp2073
sg65
g11
(g12
(S'S3'
p2074
I0
I1
tp2075
Rp2076
(I3
S'|'
p2077
NNNI3
I1
I0
tp2078
bS'SVM'
p2079
tp2080
Rp2081
sg74
I3
sg75
g76
sg77
g11
(g15
S'\xb8\\q\xdb\x10\xe6\xe7?'
p2082
tp2083
Rp2084
sg81
g82
sg83
g84
sbag242
ag4
(g5
g6
Ntp2085
Rp2086
(dp2087
g10
g11
(g15
S'\x00\x00\x00\x00\x00\x00\xf8\xff'
p2088
tp2089
Rp2090
sg21
g361
sg30
g31
sg32
(dp2091
g21
g361
sg34
g11
(g15
S'&\x91_\xd5\r\xfaP@'
p2092
tp2093
Rp2094
sg38
g11
(g15
S'\x94\xcd\xa9\xd9\t\xc9\xe1?'
p2095
tp2096
Rp2097
ssg42
g11
(g12
(S'S3'
p2098
I0
I1
tp2099
Rp2100
(I3
S'|'
p2101
NNNI3
I1
I0
tp2102
bS'PCA'
p2103
tp2104
Rp2105
sg51
F0.2
sg38
g2097
sg52
g11
(g12
(S'S3'
p2106
I0
I1
tp2107
Rp2108
(I3
S'|'
p2109
NNNI3
I1
I0
tp2110
bS'VGG'
p2111
tp2112
Rp2113
sg34
g2094
sg61
g11
(g15
S'\xb4\xf3\x9f"\xb68\xd3?'
p2114
tp2115
Rp2116
sg65
g11
(g12
(S'S3'
p2117
I0
I1
tp2118
Rp2119
(I3
S'|'
p2120
NNNI3
I1
I0
tp2121
bS'SVM'
p2122
tp2123
Rp2124
sg74
I3
sg75
g76
sg77
g11
(g15
S'\xad\x7f\x00Ntt\xed?'
p2125
tp2126
Rp2127
sg81
g82
sg83
g84
sbag4
(g5
g6
Ntp2128
Rp2129
(dp2130
g10
g11
(g15
S'\x00\x00\x00\x00\x00\x00\xf8\xff'
p2131
tp2132
Rp2133
sg196
g11
(g15
S'\x00\x00\x00\x00\x00@a@'
p2134
tp2135
Rp2136
sg30
g31
sg91
g11
(g94
S'\x03\x00\x00\x00\x00\x00\x00\x00'
p2137
tp2138
Rp2139
sg32
(dp2140
g196
g2136
sg91
g2139
sg104
g11
(g94
S'\x02\x00\x00\x00\x00\x00\x00\x00'
p2141
tp2142
Rp2143
sg207
g11
(g15
S'\xc8}\xc3\x14\xd6\xee\xed?'
p2144
tp2145
Rp2146
ssg42
g11
(g12
(S'S6'
p2147
I0
I1
tp2148
Rp2149
(I3
S'|'
p2150
NNNI6
I1
I0
tp2151
bS'ISOMAP'
p2152
tp2153
Rp2154
sg51
F0.2
sg104
g2143
sg52
g11
(g12
(S'S9'
p2155
I0
I1
tp2156
Rp2157
(I3
S'|'
p2158
NNNI9
I1
I0
tp2159
bS'inception'
p2160
tp2161
Rp2162
sg61
g11
(g15
S'+\xa0\t@}\xfc\xf1?'
p2163
tp2164
Rp2165
sg65
g11
(g12
(S'S2'
p2166
I0
I1
tp2167
Rp2168
(I3
S'|'
p2169
NNNI2
I1
I0
tp2170
bS'RF'
p2171
tp2172
Rp2173
sg74
I3
sg207
g2146
sg75
g76
sg77
g11
(g15
S'\xac\xf7\x826\xe7t\xe8?'
p2174
tp2175
Rp2176
sg81
g82
sg83
g84
sbag4
(g5
g6
Ntp2177
Rp2178
(dp2179
g10
g11
(g15
S'\x00\x00\x00\x00\x00\x00\xf8\xff'
p2180
tp2181
Rp2182
sg196
g11
(g15
S'\x00\x00\x00\x00\x00\x00 @'
p2183
tp2184
Rp2185
sg21
g29
sg30
g31
sg32
(dp2186
g196
g2185
sg207
g11
(g15
S'[Lbs\x08\xce\xe0?'
p2187
tp2188
Rp2189
sg21
g29
ssg42
g11
(g12
(S'S3'
p2190
I0
I1
tp2191
Rp2192
(I3
S'|'
p2193
NNNI3
I1
I0
tp2194
bS'PCA'
p2195
tp2196
Rp2197
sg51
F0.2
sg52
g11
(g12
(S'S3'
p2198
I0
I1
tp2199
Rp2200
(I3
S'|'
p2201
NNNI3
I1
I0
tp2202
bS'VGG'
p2203
tp2204
Rp2205
sg61
g11
(g15
S'\xd8\xcd\x1a\x8e\nD\xe9?'
p2206
tp2207
Rp2208
sg65
g11
(g12
(S'S2'
p2209
I0
I1
tp2210
Rp2211
(I3
S'|'
p2212
NNNI2
I1
I0
tp2213
bS'RF'
p2214
tp2215
Rp2216
sg74
I3
sg207
g2189
sg75
g76
sg77
g11
(g15
S'0?\x01\xc3"\xa3\xed?'
p2217
tp2218
Rp2219
sg81
g82
sg83
g84
sbag4
(g5
g6
Ntp2220
Rp2221
(dp2222
g10
g11
(g15
S'\x00\x00\x00\x00\x00\x00\xf8\xff'
p2223
tp2224
Rp2225
sg91
g11
(g94
S'\x03\x00\x00\x00\x00\x00\x00\x00'
p2226
tp2227
Rp2228
sg30
g31
sg32
(dp2229
g91
g2228
sg34
g11
(g15
S'\x95\x01\x1e^\xe5\xc6+@'
p2230
tp2231
Rp2232
sg104
g11
(g94
S'\x02\x00\x00\x00\x00\x00\x00\x00'
p2233
tp2234
Rp2235
sg38
g11
(g15
S'hc\x9c\xe3\x1f\xf7\x0c@'
p2236
tp2237
Rp2238
ssg38
g2238
sg42
g11
(g12
(S'S6'
p2239
I0
I1
tp2240
Rp2241
(I3
S'|'
p2242
NNNI6
I1
I0
tp2243
bS'ISOMAP'
p2244
tp2245
Rp2246
sg51
F0.2
sg104
g2235
sg52
g11
(g12
(S'S9'
p2247
I0
I1
tp2248
Rp2249
(I3
S'|'
p2250
NNNI9
I1
I0
tp2251
bS'inception'
p2252
tp2253
Rp2254
sg34
g2232
sg61
g11
(g15
S'y>XX$\xb8\xd3?'
p2255
tp2256
Rp2257
sg65
g11
(g12
(S'S3'
p2258
I0
I1
tp2259
Rp2260
(I3
S'|'
p2261
NNNI3
I1
I0
tp2262
bS'SVM'
p2263
tp2264
Rp2265
sg74
I3
sg75
g76
sg77
g11
(g15
S'ch_\xe3\xb5\x85\xe3?'
p2266
tp2267
Rp2268
sg81
g82
sg83
g84
sbag4
(g5
g6
Ntp2269
Rp2270
(dp2271
g10
g11
(g15
S'\x00\x00\x00\x00\x00\x00\xf8\xff'
p2272
tp2273
Rp2274
sg91
g11
(g94
S'\x04\x00\x00\x00\x00\x00\x00\x00'
p2275
tp2276
Rp2277
sg30
g31
sg32
(dp2278
g91
g2277
sg34
g11
(g15
S'\x81\x9cL\x1d4|1@'
p2279
tp2280
Rp2281
sg104
g11
(g94
S'\x02\x00\x00\x00\x00\x00\x00\x00'
p2282
tp2283
Rp2284
sg38
g11
(g15
S'2\xb2\x98i\xc0R\x04@'
p2285
tp2286
Rp2287
ssg38
g2287
sg42
g11
(g12
(S'S6'
p2288
I0
I1
tp2289
Rp2290
(I3
S'|'
p2291
NNNI6
I1
I0
tp2292
bS'ISOMAP'
p2293
tp2294
Rp2295
sg51
F0.2
sg104
g2284
sg52
g11
(g12
(S'S3'
p2296
I0
I1
tp2297
Rp2298
(I3
S'|'
p2299
NNNI3
I1
I0
tp2300
bS'VGG'
p2301
tp2302
Rp2303
sg34
g2281
sg61
g11
(g15
S'\xfb\xc0?\xad\x16?\xd1?'
p2304
tp2305
Rp2306
sg65
g11
(g12
(S'S3'
p2307
I0
I1
tp2308
Rp2309
(I3
S'|'
p2310
NNNI3
I1
I0
tp2311
bS'SVM'
p2312
tp2313
Rp2314
sg74
I3
sg75
g76
sg77
g11
(g15
S'4:\xf57\x96,\xea?'
p2315
tp2316
Rp2317
sg81
g82
sg83
g84
sbag4
(g5
g6
Ntp2318
Rp2319
(dp2320
g10
g11
(g15
S'\x00\x00\x00\x00\x00\x00\xf8\xff'
p2321
tp2322
Rp2323
sg196
g11
(g15
S'\x00\x00\x00\x00\x00\xc0r@'
p2324
tp2325
Rp2326
sg21
g361
sg30
g31
sg32
(dp2327
g196
g2326
sg207
g11
(g15
S'4~\x97\xfb\x8e3\xd5?'
p2328
tp2329
Rp2330
sg21
g361
sg332
g11
(g94
S'\x02\x00\x00\x00\x00\x00\x00\x00'
p2331
tp2332
Rp2333
ssg42
g11
(g12
(S'S3'
p2334
I0
I1
tp2335
Rp2336
(I3
S'|'
p2337
NNNI3
I1
I0
tp2338
bS'PCA'
p2339
tp2340
Rp2341
sg51
F0.2
sg52
g11
(g12
(S'S8'
p2342
I0
I1
tp2343
Rp2344
(I3
S'|'
p2345
NNNI8
I1
I0
tp2346
bS'haralick'
p2347
tp2348
Rp2349
sg332
g2333
sg61
g11
(g15
S'\xa1\x8d\xe0&\x8b\xd1\xd7?'
p2350
tp2351
Rp2352
sg65
g11
(g12
(S'S2'
p2353
I0
I1
tp2354
Rp2355
(I3
S'|'
p2356
NNNI2
I1
I0
tp2357
bS'RF'
p2358
tp2359
Rp2360
sg74
I3
sg207
g2330
sg75
g76
sg77
g11
(g15
S'\xad\x7f\x00Ntt\xed?'
p2361
tp2362
Rp2363
sg81
g82
sg83
g84
sbag4
(g5
g6
Ntp2364
Rp2365
(dp2366
g10
g11
(g15
S'\x00\x00\x00\x00\x00\x00\xf8\xff'
p2367
tp2368
Rp2369
sg196
g11
(g15
S'\x00\x00\x00\x00\x00@a@'
p2370
tp2371
Rp2372
sg30
g31
sg91
g11
(g94
S'\x05\x00\x00\x00\x00\x00\x00\x00'
p2373
tp2374
Rp2375
sg32
(dp2376
g196
g2372
sg91
g2375
sg104
g11
(g94
S'\x04\x00\x00\x00\x00\x00\x00\x00'
p2377
tp2378
Rp2379
sg207
g11
(g15
S'8\xc4\xdcD\xe2\xc9\xe0?'
p2380
tp2381
Rp2382
ssg42
g11
(g12
(S'S6'
p2383
I0
I1
tp2384
Rp2385
(I3
S'|'
p2386
NNNI6
I1
I0
tp2387
bS'ISOMAP'
p2388
tp2389
Rp2390
sg51
F0.2
sg104
g2379
sg52
g11
(g12
(S'S3'
p2391
I0
I1
tp2392
Rp2393
(I3
S'|'
p2394
NNNI3
I1
I0
tp2395
bS'VGG'
p2396
tp2397
Rp2398
sg61
g11
(g15
S"\t\x1a\x99'\n6\xc5?"
p2399
tp2400
Rp2401
sg65
g11
(g12
(S'S2'
p2402
I0
I1
tp2403
Rp2404
(I3
S'|'
p2405
NNNI2
I1
I0
tp2406
bS'RF'
p2407
tp2408
Rp2409
sg74
I3
sg207
g2382
sg75
g76
sg77
g11
(g15
S'\xabZ\xfed\xb3\xff\xed?'
p2410
tp2411
Rp2412
sg81
g82
sg83
g84
sbag4
(g5
g6
Ntp2413
Rp2414
(dp2415
g10
g11
(g15
S'\x00\x00\x00\x00\x00\x00\xf8\xff'
p2416
tp2417
Rp2418
sg196
g11
(g15
S'\x00\x00\x00\x00\x00\x00 @'
p2419
tp2420
Rp2421
sg30
g31
sg91
g11
(g94
S'\x06\x00\x00\x00\x00\x00\x00\x00'
p2422
tp2423
Rp2424
sg32
(dp2425
g196
g2421
sg91
g2424
sg104
g11
(g94
S'\x03\x00\x00\x00\x00\x00\x00\x00'
p2426
tp2427
Rp2428
sg207
g11
(g15
S'$!\x01\xe0\x1a\xa3\xd5?'
p2429
tp2430
Rp2431
ssg42
g11
(g12
(S'S6'
p2432
I0
I1
tp2433
Rp2434
(I3
S'|'
p2435
NNNI6
I1
I0
tp2436
bS'ISOMAP'
p2437
tp2438
Rp2439
sg51
F0.2
sg104
g2428
sg52
g11
(g12
(S'S9'
p2440
I0
I1
tp2441
Rp2442
(I3
S'|'
p2443
NNNI9
I1
I0
tp2444
bS'inception'
p2445
tp2446
Rp2447
sg61
g11
(g15
S'\xbb\xcd\xdfX\x16\xe9\xf5?'
p2448
tp2449
Rp2450
sg65
g11
(g12
(S'S2'
p2451
I0
I1
tp2452
Rp2453
(I3
S'|'
p2454
NNNI2
I1
I0
tp2455
bS'RF'
p2456
tp2457
Rp2458
sg74
I3
sg207
g2431
sg75
g76
sg77
g11
(g15
S'D4\x88i\xac\xbb\xe9?'
p2459
tp2460
Rp2461
sg81
g82
sg83
g84
sbag4
(g5
g6
Ntp2462
Rp2463
(dp2464
g10
g11
(g15
S'\x00\x00\x00\x00\x00\x00\xf8\xff'
p2465
tp2466
Rp2467
sg21
g361
sg30
g31
sg32
(dp2468
g21
g361
sg34
g11
(g15
S'\xd7\xe7}\x7f\xae\xd7Q@'
p2469
tp2470
Rp2471
sg332
g11
(g94
S'\x03\x00\x00\x00\x00\x00\x00\x00'
p2472
tp2473
Rp2474
sg38
g11
(g15
S'\x82<\xed=E\x03\x15@'
p2475
tp2476
Rp2477
ssg42
g11
(g12
(S'S3'
p2478
I0
I1
tp2479
Rp2480
(I3
S'|'
p2481
NNNI3
I1
I0
tp2482
bS'PCA'
p2483
tp2484
Rp2485
sg51
F0.2
sg38
g2477
sg52
g11
(g12
(S'S8'
p2486
I0
I1
tp2487
Rp2488
(I3
S'|'
p2489
NNNI8
I1
I0
tp2490
bS'haralick'
p2491
tp2492
Rp2493
sg34
g2471
sg332
g2474
sg61
g11
(g15
S'\x85S\x1e\xe0r\xa7\xd1?'
p2494
tp2495
Rp2496
sg65
g11
(g12
(S'S3'
p2497
I0
I1
tp2498
Rp2499
(I3
S'|'
p2500
NNNI3
I1
I0
tp2501
bS'SVM'
p2502
tp2503
Rp2504
sg74
I3
sg75
g76
sg77
g11
(g15
S'\x837\x83]!/\xeb?'
p2505
tp2506
Rp2507
sg81
g82
sg83
g84
sbag4
(g5
g6
Ntp2508
Rp2509
(dp2510
g10
g11
(g15
S'\x00\x00\x00\x00\x00\x00\xf8\xff'
p2511
tp2512
Rp2513
sg196
g11
(g15
S'\x00\x00\x00\x00\x00\xc0p@'
p2514
tp2515
Rp2516
sg21
g29
sg30
g31
sg32
(dp2517
g196
g2516
sg207
g11
(g15
S'\x80\xf5\xbdx\x02\x0e\xe4?'
p2518
tp2519
Rp2520
sg21
g29
sg332
g11
(g94
S'\x01\x00\x00\x00\x00\x00\x00\x00'
p2521
tp2522
Rp2523
ssg42
g11
(g12
(S'S3'
p2524
I0
I1
tp2525
Rp2526
(I3
S'|'
p2527
NNNI3
I1
I0
tp2528
bS'PCA'
p2529
tp2530
Rp2531
sg51
F0.2
sg52
g11
(g12
(S'S8'
p2532
I0
I1
tp2533
Rp2534
(I3
S'|'
p2535
NNNI8
I1
I0
tp2536
bS'haralick'
p2537
tp2538
Rp2539
sg332
g2523
sg61
g11
(g15
S'K\xb1\x88\x02{\xd4\xe3?'
p2540
tp2541
Rp2542
sg65
g11
(g12
(S'S2'
p2543
I0
I1
tp2544
Rp2545
(I3
S'|'
p2546
NNNI2
I1
I0
tp2547
bS'RF'
p2548
tp2549
Rp2550
sg74
I3
sg207
g2520
sg75
g76
sg77
g11
(g15
S'\xdbt\xfd>\x15.\xec?'
p2551
tp2552
Rp2553
sg81
g82
sg83
g84
sbag4
(g5
g6
Ntp2554
Rp2555
(dp2556
g10
g11
(g15
S'\x00\x00\x00\x00\x00\x00\xf8\xff'
p2557
tp2558
Rp2559
sg196
g11
(g15
S'\x00\x00\x00\x00\x00@Z@'
p2560
tp2561
Rp2562
sg21
g29
sg30
g31
sg32
(dp2563
g196
g2562
sg207
g11
(g15
S'\x13^\x0c:s\xc6\xdf?'
p2564
tp2565
Rp2566
sg21
g29
ssg42
g11
(g12
(S'S3'
p2567
I0
I1
tp2568
Rp2569
(I3
S'|'
p2570
NNNI3
I1
I0
tp2571
bS'PCA'
p2572
tp2573
Rp2574
sg51
F0.2
sg52
g11
(g12
(S'S9'
p2575
I0
I1
tp2576
Rp2577
(I3
S'|'
p2578
NNNI9
I1
I0
tp2579
bS'inception'
p2580
tp2581
Rp2582
sg61
g11
(g15
S'\x1a`\xf5\x7fe7\xe3?'
p2583
tp2584
Rp2585
sg65
g11
(g12
(S'S2'
p2586
I0
I1
tp2587
Rp2588
(I3
S'|'
p2589
NNNI2
I1
I0
tp2590
bS'RF'
p2591
tp2592
Rp2593
sg74
I3
sg207
g2566
sg75
g76
sg77
g11
(g15
S'\x1d\x0c\x01\xd7\x8dt\xeb?'
p2594
tp2595
Rp2596
sg81
g82
sg83
g84
sbag4
(g5
g6
Ntp2597
Rp2598
(dp2599
g10
g11
(g15
S'\x00\x00\x00\x00\x00\x00\xf8\xff'
p2600
tp2601
Rp2602
sg196
g11
(g15
S'\x00\x00\x00\x00\x00@Z@'
p2603
tp2604
Rp2605
sg21
g361
sg30
g31
sg32
(dp2606
g196
g2605
sg207
g11
(g15
S'\xeda\xa5\xb0{\xbd\xe7?'
p2607
tp2608
Rp2609
sg21
g361
ssg42
g11
(g12
(S'S3'
p2610
I0
I1
tp2611
Rp2612
(I3
S'|'
p2613
NNNI3
I1
I0
tp2614
bS'PCA'
p2615
tp2616
Rp2617
sg51
F0.2
sg52
g11
(g12
(S'S3'
p2618
I0
I1
tp2619
Rp2620
(I3
S'|'
p2621
NNNI3
I1
I0
tp2622
bS'VGG'
p2623
tp2624
Rp2625
sg61
g11
(g15
S'\r\x1bJ\xd1\xf4\x14\xd0?'
p2626
tp2627
Rp2628
sg65
g11
(g12
(S'S2'
p2629
I0
I1
tp2630
Rp2631
(I3
S'|'
p2632
NNNI2
I1
I0
tp2633
bS'RF'
p2634
tp2635
Rp2636
sg74
I3
sg207
g2609
sg75
g76
sg77
g11
(g15
S'\xf7p\x03\xe7\x88\xa3\xed?'
p2637
tp2638
Rp2639
sg81
g82
sg83
g84
sbag4
(g5
g6
Ntp2640
Rp2641
(dp2642
g10
g11
(g15
S'\x00\x00\x00\x00\x00\x00\xf8\xff'
p2643
tp2644
Rp2645
sg91
g11
(g94
S'\x06\x00\x00\x00\x00\x00\x00\x00'
p2646
tp2647
Rp2648
sg30
g31
sg32
(dp2649
g91
g2648
sg34
g11
(g15
S'\xef\xbf\xc9\xad\x109X@'
p2650
tp2651
Rp2652
sg104
g11
(g94
S'\x02\x00\x00\x00\x00\x00\x00\x00'
p2653
tp2654
Rp2655
sg38
g11
(g15
S'B]\xae\xee(\xc2\x00@'
p2656
tp2657
Rp2658
ssg38
g2658
sg42
g11
(g12
(S'S6'
p2659
I0
I1
tp2660
Rp2661
(I3
S'|'
p2662
NNNI6
I1
I0
tp2663
bS'ISOMAP'
p2664
tp2665
Rp2666
sg51
F0.2
sg104
g2655
sg52
g11
(g12
(S'S9'
p2667
I0
I1
tp2668
Rp2669
(I3
S'|'
p2670
NNNI9
I1
I0
tp2671
bS'inception'
p2672
tp2673
Rp2674
sg34
g2652
sg61
g11
(g15
S'\x05+z\xd9>\xef\xd3?'
p2675
tp2676
Rp2677
sg65
g11
(g12
(S'S3'
p2678
I0
I1
tp2679
Rp2680
(I3
S'|'
p2681
NNNI3
I1
I0
tp2682
bS'SVM'
p2683
tp2684
Rp2685
sg74
I3
sg75
g76
sg77
g11
(g15
S'\xcb\x02\xe8$\x8c\x9e\xe1?'
p2686
tp2687
Rp2688
sg81
g82
sg83
g84
sbag4
(g5
g6
Ntp2689
Rp2690
(dp2691
g10
g11
(g15
S'\x00\x00\x00\x00\x00\x00\xf8\xff'
p2692
tp2693
Rp2694
sg196
g11
(g15
S'\x00\x00\x00\x00\x00\xc0r@'
p2695
tp2696
Rp2697
sg30
g31
sg91
g11
(g94
S'\x04\x00\x00\x00\x00\x00\x00\x00'
p2698
tp2699
Rp2700
sg32
(dp2701
g196
g2697
sg91
g2700
sg104
g11
(g94
S'\x04\x00\x00\x00\x00\x00\x00\x00'
p2702
tp2703
Rp2704
sg207
g11
(g15
S'J\xfb\xd9.\x9cX\xe4?'
p2705
tp2706
Rp2707
ssg42
g11
(g12
(S'S6'
p2708
I0
I1
tp2709
Rp2710
(I3
S'|'
p2711
NNNI6
I1
I0
tp2712
bS'ISOMAP'
p2713
tp2714
Rp2715
sg51
F0.2
sg104
g2704
sg52
g11
(g12
(S'S9'
p2716
I0
I1
tp2717
Rp2718
(I3
S'|'
p2719
NNNI9
I1
I0
tp2720
bS'inception'
p2721
tp2722
Rp2723
sg61
g11
(g15
S't(\xbc[B\xac\xe7?'
p2724
tp2725
Rp2726
sg65
g11
(g12
(S'S2'
p2727
I0
I1
tp2728
Rp2729
(I3
S'|'
p2730
NNNI2
I1
I0
tp2731
bS'RF'
p2732
tp2733
Rp2734
sg74
I3
sg207
g2707
sg75
g76
sg77
g11
(g15
S'\xd3\n\x03\x0f_F\xe9?'
p2735
tp2736
Rp2737
sg81
g82
sg83
g84
sbag4
(g5
g6
Ntp2738
Rp2739
(dp2740
g10
g11
(g15
S'\x00\x00\x00\x00\x00\x00\xf8\xff'
p2741
tp2742
Rp2743
sg21
g361
sg30
g31
sg32
(dp2744
g21
g361
sg34
g11
(g15
S'\x8e\x9d\x9c\xfb\x1fPN@'
p2745
tp2746
Rp2747
sg38
g11
(g15
S'Y\x05\x94\xed:3\xe4?'
p2748
tp2749
Rp2750
ssg42
g11
(g12
(S'S3'
p2751
I0
I1
tp2752
Rp2753
(I3
S'|'
p2754
NNNI3
I1
I0
tp2755
bS'PCA'
p2756
tp2757
Rp2758
sg51
F0.2
sg38
g2750
sg52
g11
(g12
(S'S9'
p2759
I0
I1
tp2760
Rp2761
(I3
S'|'
p2762
NNNI9
I1
I0
tp2763
bS'inception'
p2764
tp2765
Rp2766
sg34
g2747
sg61
g11
(g15
S'[\xb4\xfdz\x9f\xa9\xd4?'
p2767
tp2768
Rp2769
sg65
g11
(g12
(S'S3'
p2770
I0
I1
tp2771
Rp2772
(I3
S'|'
p2773
NNNI3
I1
I0
tp2774
bS'SVM'
p2775
tp2776
Rp2777
sg74
I3
sg75
g76
sg77
g11
(g15
S'\xef\xb7\xf8Y\xc4[\xe8?'
p2778
tp2779
Rp2780
sg81
g82
sg83
g84
sbag4
(g5
g6
Ntp2781
Rp2782
(dp2783
g10
g11
(g15
S'\x00\x00\x00\x00\x00\x00\xf8\xff'
p2784
tp2785
Rp2786
sg196
g11
(g15
S'\x00\x00\x00\x00\x00@e@'
p2787
tp2788
Rp2789
sg30
g31
sg91
g11
(g94
S'\x04\x00\x00\x00\x00\x00\x00\x00'
p2790
tp2791
Rp2792
sg32
(dp2793
g196
g2789
sg91
g2792
sg332
g11
(g94
S'\x03\x00\x00\x00\x00\x00\x00\x00'
p2794
tp2795
Rp2796
sg104
g11
(g94
S'\x03\x00\x00\x00\x00\x00\x00\x00'
p2797
tp2798
Rp2799
sg207
g11
(g15
S'v}\x04(E\xde\xe0?'
p2800
tp2801
Rp2802
ssg42
g11
(g12
(S'S6'
p2803
I0
I1
tp2804
Rp2805
(I3
S'|'
p2806
NNNI6
I1
I0
tp2807
bS'ISOMAP'
p2808
tp2809
Rp2810
sg51
F0.2
sg104
g2799
sg52
g11
(g12
(S'S8'
p2811
I0
I1
tp2812
Rp2813
(I3
S'|'
p2814
NNNI8
I1
I0
tp2815
bS'haralick'
p2816
tp2817
Rp2818
sg332
g2796
sg61
g11
(g15
S'ev\xb6-\xd2\x10\xe2?'
p2819
tp2820
Rp2821
sg65
g11
(g12
(S'S2'
p2822
I0
I1
tp2823
Rp2824
(I3
S'|'
p2825
NNNI2
I1
I0
tp2826
bS'RF'
p2827
tp2828
Rp2829
sg74
I3
sg207
g2802
sg75
g76
sg77
g11
(g15
S'\xf8\x95\x05\xd0I\x18\xed?'
p2830
tp2831
Rp2832
sg81
g82
sg83
g84
sbag4
(g5
g6
Ntp2833
Rp2834
(dp2835
g10
g11
(g15
S'\x00\x00\x00\x00\x00\x00\xf8\xff'
p2836
tp2837
Rp2838
sg91
g11
(g94
S'\x07\x00\x00\x00\x00\x00\x00\x00'
p2839
tp2840
Rp2841
sg30
g31
sg32
(dp2842
g91
g2841
sg34
g11
(g15
S'\x1diS\x1bN~M@'
p2843
tp2844
Rp2845
sg332
g11
(g94
S'\x03\x00\x00\x00\x00\x00\x00\x00'
p2846
tp2847
Rp2848
sg104
g11
(g94
S'\x02\x00\x00\x00\x00\x00\x00\x00'
p2849
tp2850
Rp2851
sg38
g11
(g15
S'\xf0B|\xf9T\x82\x02@'
p2852
tp2853
Rp2854
ssg38
g2854
sg42
g11
(g12
(S'S6'
p2855
I0
I1
tp2856
Rp2857
(I3
S'|'
p2858
NNNI6
I1
I0
tp2859
bS'ISOMAP'
p2860
tp2861
Rp2862
sg51
F0.2
sg104
g2851
sg52
g11
(g12
(S'S8'
p2863
I0
I1
tp2864
Rp2865
(I3
S'|'
p2866
NNNI8
I1
I0
tp2867
bS'haralick'
p2868
tp2869
Rp2870
sg34
g2845
sg332
g2848
sg61
g11
(g15
S'\xcdC\x0e\x19e\x18\xd2?'
p2871
tp2872
Rp2873
sg65
g11
(g12
(S'S3'
p2874
I0
I1
tp2875
Rp2876
(I3
S'|'
p2877
NNNI3
I1
I0
tp2878
bS'SVM'
p2879
tp2880
Rp2881
sg74
I3
sg75
g76
sg77
g11
(g15
S'\x9dq\x02K\xa0\xba\xea?'
p2882
tp2883
Rp2884
sg81
g82
sg83
g84
sbag4
(g5
g6
Ntp2885
Rp2886
(dp2887
g10
g11
(g15
S'\x00\x00\x00\x00\x00\x00\xf8\xff'
p2888
tp2889
Rp2890
sg196
g11
(g15
S'\x00\x00\x00\x00\x00\xc0r@'
p2891
tp2892
Rp2893
sg21
g29
sg30
g31
sg32
(dp2894
g196
g2893
sg207
g11
(g15
S'\xe6\xed\xc44p\x9c\xe0?'
p2895
tp2896
Rp2897
sg21
g29
ssg42
g11
(g12
(S'S3'
p2898
I0
I1
tp2899
Rp2900
(I3
S'|'
p2901
NNNI3
I1
I0
tp2902
bS'PCA'
p2903
tp2904
Rp2905
sg51
F0.2
sg52
g11
(g12
(S'S3'
p2906
I0
I1
tp2907
Rp2908
(I3
S'|'
p2909
NNNI3
I1
I0
tp2910
bS'VGG'
p2911
tp2912
Rp2913
sg61
g11
(g15
S'\xd0\x1b\xcd\x89V\xc2\xcf?'
p2914
tp2915
Rp2916
sg65
g11
(g12
(S'S2'
p2917
I0
I1
tp2918
Rp2919
(I3
S'|'
p2920
NNNI2
I1
I0
tp2921
bS'RF'
p2922
tp2923
Rp2924
sg74
I3
sg207
g2897
sg75
g76
sg77
g11
(g15
S'\xb4\xfe\x018\xd1\xd1\xed?'
p2925
tp2926
Rp2927
sg81
g82
sg83
g84
sbag4
(g5
g6
Ntp2928
Rp2929
(dp2930
g10
g11
(g15
S'\x00\x00\x00\x00\x00\x00\xf8\xff'
p2931
tp2932
Rp2933
sg196
g11
(g15
S'\x00\x00\x00\x00\x00\xc0r@'
p2934
tp2935
Rp2936
sg30
g31
sg91
g11
(g94
S'\x06\x00\x00\x00\x00\x00\x00\x00'
p2937
tp2938
Rp2939
sg32
(dp2940
g196
g2936
sg91
g2939
sg104
g11
(g94
S'\x04\x00\x00\x00\x00\x00\x00\x00'
p2941
tp2942
Rp2943
sg207
g11
(g15
S'\xbc0\xafk\xf9Y\xeb?'
p2944
tp2945
Rp2946
ssg42
g11
(g12
(S'S6'
p2947
I0
I1
tp2948
Rp2949
(I3
S'|'
p2950
NNNI6
I1
I0
tp2951
bS'ISOMAP'
p2952
tp2953
Rp2954
sg51
F0.2
sg104
g2943
sg52
g11
(g12
(S'S9'
p2955
I0
I1
tp2956
Rp2957
(I3
S'|'
p2958
NNNI9
I1
I0
tp2959
bS'inception'
p2960
tp2961
Rp2962
sg61
g11
(g15
S'\x85\x9e[ \x13\xff\xe6?'
p2963
tp2964
Rp2965
sg65
g11
(g12
(S'S2'
p2966
I0
I1
tp2967
Rp2968
(I3
S'|'
p2969
NNNI2
I1
I0
tp2970
bS'RF'
p2971
tp2972
Rp2973
sg74
I3
sg207
g2946
sg75
g76
sg77
g11
(g15
S'\xa8_\n\xf0?v\xe9?'
p2974
tp2975
Rp2976
sg81
g82
sg83
g84
sbag4
(g5
g6
Ntp2977
Rp2978
(dp2979
g10
g11
(g15
S'\x00\x00\x00\x00\x00\x00\xf8\xff'
p2980
tp2981
Rp2982
sg196
g11
(g15
S'\x00\x00\x00\x00\x00@a@'
p2983
tp2984
Rp2985
sg30
g31
sg91
g11
(g94
S'\x03\x00\x00\x00\x00\x00\x00\x00'
p2986
tp2987
Rp2988
sg32
(dp2989
g196
g2985
sg91
g2988
sg104
g11
(g94
S'\x03\x00\x00\x00\x00\x00\x00\x00'
p2990
tp2991
Rp2992
sg207
g11
(g15
S'`\x13\xed/\x0cw\xd3?'
p2993
tp2994
Rp2995
ssg42
g11
(g12
(S'S6'
p2996
I0
I1
tp2997
Rp2998
(I3
S'|'
p2999
NNNI6
I1
I0
tp3000
bS'ISOMAP'
p3001
tp3002
Rp3003
sg51
F0.2
sg104
g2992
sg52
g11
(g12
(S'S3'
p3004
I0
I1
tp3005
Rp3006
(I3
S'|'
p3007
NNNI3
I1
I0
tp3008
bS'VGG'
p3009
tp3010
Rp3011
sg61
g11
(g15
S'\x13\xa2x\x05}x\xd6?'
p3012
tp3013
Rp3014
sg65
g11
(g12
(S'S2'
p3015
I0
I1
tp3016
Rp3017
(I3
S'|'
p3018
NNNI2
I1
I0
tp3019
bS'RF'
p3020
tp3021
Rp3022
sg74
I3
sg207
g2995
sg75
g76
sg77
g11
(g15
S'\x85G~\x8c;.\xed?'
p3023
tp3024
Rp3025
sg81
g82
sg83
g84
sbag4
(g5
g6
Ntp3026
Rp3027
(dp3028
g10
g11
(g15
S'\x00\x00\x00\x00\x00\x00\xf8\xff'
p3029
tp3030
Rp3031
sg21
g361
sg30
g31
sg32
(dp3032
g21
g361
sg34
g11
(g15
S'\xb8G3\xba\xc9vW@'
p3033
tp3034
Rp3035
sg38
g11
(g15
S'\xb7\x7fL\xc0\x01\x99\x11@'
p3036
tp3037
Rp3038
ssg42
g11
(g12
(S'S3'
p3039
I0
I1
tp3040
Rp3041
(I3
S'|'
p3042
NNNI3
I1
I0
tp3043
bS'PCA'
p3044
tp3045
Rp3046
sg51
F0.2
sg38
g3038
sg52
g11
(g12
(S'S3'
p3047
I0
I1
tp3048
Rp3049
(I3
S'|'
p3050
NNNI3
I1
I0
tp3051
bS'VGG'
p3052
tp3053
Rp3054
sg34
g3035
sg61
g11
(g15
S'%\xfc\t\xf5\xc4\x06\xd0?'
p3055
tp3056
Rp3057
sg65
g11
(g12
(S'S3'
p3058
I0
I1
tp3059
Rp3060
(I3
S'|'
p3061
NNNI3
I1
I0
tp3062
bS'SVM'
p3063
tp3064
Rp3065
sg74
I3
sg75
g76
sg77
g11
(g15
S'\x0b,\x81\xea\xaa\xd1\xec?'
p3066
tp3067
Rp3068
sg81
g82
sg83
g84
sbag4
(g5
g6
Ntp3069
Rp3070
(dp3071
g10
g11
(g15
S'\x00\x00\x00\x00\x00\x00\xf8\xff'
p3072
tp3073
Rp3074
sg196
g11
(g15
S'\x00\x00\x00\x00\x00\x00 @'
p3075
tp3076
Rp3077
sg30
g31
sg91
g11
(g94
S'\x06\x00\x00\x00\x00\x00\x00\x00'
p3078
tp3079
Rp3080
sg32
(dp3081
g196
g3077
sg91
g3080
sg104
g11
(g94
S'\x03\x00\x00\x00\x00\x00\x00\x00'
p3082
tp3083
Rp3084
sg207
g11
(g15
S'\xc9\x0e\x96\x83\xf4$\xe4?'
p3085
tp3086
Rp3087
ssg42
g11
(g12
(S'S6'
p3088
I0
I1
tp3089
Rp3090
(I3
S'|'
p3091
NNNI6
I1
I0
tp3092
bS'ISOMAP'
p3093
tp3094
Rp3095
sg51
F0.2
sg104
g3084
sg52
g11
(g12
(S'S3'
p3096
I0
I1
tp3097
Rp3098
(I3
S'|'
p3099
NNNI3
I1
I0
tp3100
bS'VGG'
p3101
tp3102
Rp3103
sg61
g11
(g15
S'\xc3N}\xbc\xfe\x8a\xda?'
p3104
tp3105
Rp3106
sg65
g11
(g12
(S'S2'
p3107
I0
I1
tp3108
Rp3109
(I3
S'|'
p3110
NNNI2
I1
I0
tp3111
bS'RF'
p3112
tp3113
Rp3114
sg74
I3
sg207
g3087
sg75
g76
sg77
g11
(g15
S'\xd5\xb7\x82\x0f\xad\xba\xed?'
p3115
tp3116
Rp3117
sg81
g82
sg83
g84
sbag4
(g5
g6
Ntp3118
Rp3119
(dp3120
g10
g11
(g15
S'\x00\x00\x00\x00\x00\x00\xf8\xff'
p3121
tp3122
Rp3123
sg196
g11
(g15
S'\x00\x00\x00\x00\x00@R@'
p3124
tp3125
Rp3126
sg30
g31
sg91
g11
(g94
S'\x06\x00\x00\x00\x00\x00\x00\x00'
p3127
tp3128
Rp3129
sg32
(dp3130
g196
g3126
sg91
g3129
sg332
g11
(g94
S'\x03\x00\x00\x00\x00\x00\x00\x00'
p3131
tp3132
Rp3133
sg104
g11
(g94
S'\x04\x00\x00\x00\x00\x00\x00\x00'
p3134
tp3135
Rp3136
sg207
g11
(g15
S'EV\x19q\x00u\xe1?'
p3137
tp3138
Rp3139
ssg42
g11
(g12
(S'S6'
p3140
I0
I1
tp3141
Rp3142
(I3
S'|'
p3143
NNNI6
I1
I0
tp3144
bS'ISOMAP'
p3145
tp3146
Rp3147
sg51
F0.2
sg104
g3136
sg52
g11
(g12
(S'S8'
p3148
I0
I1
tp3149
Rp3150
(I3
S'|'
p3151
NNNI8
I1
I0
tp3152
bS'haralick'
p3153
tp3154
Rp3155
sg332
g3133
sg61
g11
(g15
S'\xf7\xba\xfe\x99\x06\xbb\xe1?'
p3156
tp3157
Rp3158
sg65
g11
(g12
(S'S2'
p3159
I0
I1
tp3160
Rp3161
(I3
S'|'
p3162
NNNI2
I1
I0
tp3163
bS'RF'
p3164
tp3165
Rp3166
sg74
I3
sg207
g3139
sg75
g76
sg77
g11
(g15
S'\xad\x7f\x00Ntt\xed?'
p3167
tp3168
Rp3169
sg81
g82
sg83
g84
sbag4
(g5
g6
Ntp3170
Rp3171
(dp3172
g10
g11
(g15
S'\x00\x00\x00\x00\x00\x00\xf8\xff'
p3173
tp3174
Rp3175
sg91
g11
(g94
S'\x06\x00\x00\x00\x00\x00\x00\x00'
p3176
tp3177
Rp3178
sg30
g31
sg32
(dp3179
g91
g3178
sg34
g11
(g15
S'+\x18f\xe7\xee%V@'
p3180
tp3181
Rp3182
sg104
g11
(g94
S'\x02\x00\x00\x00\x00\x00\x00\x00'
p3183
tp3184
Rp3185
sg38
g11
(g15
S'\x1f+{\xadTW\x17@'
p3186
tp3187
Rp3188
ssg38
g3188
sg42
g11
(g12
(S'S6'
p3189
I0
I1
tp3190
Rp3191
(I3
S'|'
p3192
NNNI6
I1
I0
tp3193
bS'ISOMAP'
p3194
tp3195
Rp3196
sg51
F0.2
sg104
g3185
sg52
g11
(g12
(S'S9'
p3197
I0
I1
tp3198
Rp3199
(I3
S'|'
p3200
NNNI9
I1
I0
tp3201
bS'inception'
p3202
tp3203
Rp3204
sg34
g3182
sg61
g11
(g15
S')N\x7fC\x07/\xd4?'
p3205
tp3206
Rp3207
sg65
g11
(g12
(S'S3'
p3208
I0
I1
tp3209
Rp3210
(I3
S'|'
p3211
NNNI3
I1
I0
tp3212
bS'SVM'
p3213
tp3214
Rp3215
sg74
I3
sg75
g76
sg77
g11
(g15
S'ed\xef@\x12Z\xe2?'
p3216
tp3217
Rp3218
sg81
g82
sg83
g84
sbag4
(g5
g6
Ntp3219
Rp3220
(dp3221
g10
g11
(g15
S'\x00\x00\x00\x00\x00\x00\xf8\xff'
p3222
tp3223
Rp3224
sg196
g11
(g15
S'\x00\x00\x00\x00\x00\xc0r@'
p3225
tp3226
Rp3227
sg21
g361
sg30
g31
sg32
(dp3228
g196
g3227
sg207
g11
(g15
S'\x85\xd0@<\x97\xa3\xd3?'
p3229
tp3230
Rp3231
sg21
g361
ssg42
g11
(g12
(S'S3'
p3232
I0
I1
tp3233
Rp3234
(I3
S'|'
p3235
NNNI3
I1
I0
tp3236
bS'PCA'
p3237
tp3238
Rp3239
sg51
F0.2
sg52
g11
(g12
(S'S3'
p3240
I0
I1
tp3241
Rp3242
(I3
S'|'
p3243
NNNI3
I1
I0
tp3244
bS'VGG'
p3245
tp3246
Rp3247
sg61
g11
(g15
S"\xa7i\x8b\x98{'\xcf?"
p3248
tp3249
Rp3250
sg65
g11
(g12
(S'S2'
p3251
I0
I1
tp3252
Rp3253
(I3
S'|'
p3254
NNNI2
I1
I0
tp3255
bS'RF'
p3256
tp3257
Rp3258
sg74
I3
sg207
g3231
sg75
g76
sg77
g11
(g15
S'\xb4\xfe\x018\xd1\xd1\xed?'
p3259
tp3260
Rp3261
sg81
g82
sg83
g84
sbag4
(g5
g6
Ntp3262
Rp3263
(dp3264
g10
g11
(g15
S'\x00\x00\x00\x00\x00\x00\xf8\xff'
p3265
tp3266
Rp3267
sg91
g11
(g94
S'\x07\x00\x00\x00\x00\x00\x00\x00'
p3268
tp3269
Rp3270
sg30
g31
sg32
(dp3271
g91
g3270
sg34
g11
(g15
S'PX\xf5DH\x00S@'
p3272
tp3273
Rp3274
sg104
g11
(g94
S'\x04\x00\x00\x00\x00\x00\x00\x00'
p3275
tp3276
Rp3277
sg38
g11
(g15
S'pf\x8c\xc98\x88\x00@'
p3278
tp3279
Rp3280
ssg38
g3280
sg42
g11
(g12
(S'S6'
p3281
I0
I1
tp3282
Rp3283
(I3
S'|'
p3284
NNNI6
I1
I0
tp3285
bS'ISOMAP'
p3286
tp3287
Rp3288
sg51
F0.2
sg104
g3277
sg52
g11
(g12
(S'S3'
p3289
I0
I1
tp3290
Rp3291
(I3
S'|'
p3292
NNNI3
I1
I0
tp3293
bS'VGG'
p3294
tp3295
Rp3296
sg34
g3274
sg61
g11
(g15
S'\x13yv\xaa\x08\x86\xd0?'
p3297
tp3298
Rp3299
sg65
g11
(g12
(S'S3'
p3300
I0
I1
tp3301
Rp3302
(I3
S'|'
p3303
NNNI3
I1
I0
tp3304
bS'SVM'
p3305
tp3306
Rp3307
sg74
I3
sg75
g76
sg77
g11
(g15
S'C\xd5|\xdd\x83\\\xed?'
p3308
tp3309
Rp3310
sg81
g82
sg83
g84
sbag4
(g5
g6
Ntp3311
Rp3312
(dp3313
g10
g11
(g15
S'\x00\x00\x00\x00\x00\x00\xf8\xff'
p3314
tp3315
Rp3316
sg196
g11
(g15
S'\x00\x00\x00\x00\x00\x00D@'
p3317
tp3318
Rp3319
sg21
g29
sg30
g31
sg32
(dp3320
g196
g3319
sg207
g11
(g15
S'\xeb\x9f\xd6\xb5\xc1\x9c\xd9?'
p3321
tp3322
Rp3323
sg21
g29
ssg42
g11
(g12
(S'S3'
p3324
I0
I1
tp3325
Rp3326
(I3
S'|'
p3327
NNNI3
I1
I0
tp3328
bS'PCA'
p3329
tp3330
Rp3331
sg51
F0.2
sg52
g11
(g12
(S'S3'
p3332
I0
I1
tp3333
Rp3334
(I3
S'|'
p3335
NNNI3
I1
I0
tp3336
bS'VGG'
p3337
tp3338
Rp3339
sg61
g11
(g15
S'\xd4\xd6t\x8e\x9c\x85\xcf?'
p3340
tp3341
Rp3342
sg65
g11
(g12
(S'S2'
p3343
I0
I1
tp3344
Rp3345
(I3
S'|'
p3346
NNNI2
I1
I0
tp3347
bS'RF'
p3348
tp3349
Rp3350
sg74
I3
sg207
g3323
sg75
g76
sg77
g11
(g15
S'\x93E\x81`\xf5\xe8\xed?'
p3351
tp3352
Rp3353
sg81
g82
sg83
g84
sbag4
(g5
g6
Ntp3354
Rp3355
(dp3356
g10
g11
(g15
S'\x00\x00\x00\x00\x00\x00\xf8\xff'
p3357
tp3358
Rp3359
sg196
g11
(g15
S'\x00\x00\x00\x00\x00@Z@'
p3360
tp3361
Rp3362
sg30
g31
sg91
g11
(g94
S'\x07\x00\x00\x00\x00\x00\x00\x00'
p3363
tp3364
Rp3365
sg32
(dp3366
g196
g3362
sg91
g3365
sg104
g11
(g94
S'\x03\x00\x00\x00\x00\x00\x00\x00'
p3367
tp3368
Rp3369
sg207
g11
(g15
S'8\xfe\x0e\x93\xa6Y\xe3?'
p3370
tp3371
Rp3372
ssg42
g11
(g12
(S'S6'
p3373
I0
I1
tp3374
Rp3375
(I3
S'|'
p3376
NNNI6
I1
I0
tp3377
bS'ISOMAP'
p3378
tp3379
Rp3380
sg51
F0.2
sg104
g3369
sg52
g11
(g12
(S'S3'
p3381
I0
I1
tp3382
Rp3383
(I3
S'|'
p3384
NNNI3
I1
I0
tp3385
bS'VGG'
p3386
tp3387
Rp3388
sg61
g11
(g15
S')\xca\xed\xf0/h\xc7?'
p3389
tp3390
Rp3391
sg65
g11
(g12
(S'S2'
p3392
I0
I1
tp3393
Rp3394
(I3
S'|'
p3395
NNNI2
I1
I0
tp3396
bS'RF'
p3397
tp3398
Rp3399
sg74
I3
sg207
g3372
sg75
g76
sg77
g11
(g15
S'\xf0\xf1\x01\xfd+F\xed?'
p3400
tp3401
Rp3402
sg81
g82
sg83
g84
sbag4
(g5
g6
Ntp3403
Rp3404
(dp3405
g10
g11
(g15
S'\x00\x00\x00\x00\x00\x00\xf8\xff'
p3406
tp3407
Rp3408
sg196
g11
(g15
S'\x00\x00\x00\x00\x00\xc0r@'
p3409
tp3410
Rp3411
sg21
g361
sg30
g31
sg32
(dp3412
g196
g3411
sg207
g11
(g15
S'\x1f\xca\xf9z0\xb4\xdc?'
p3413
tp3414
Rp3415
sg21
g361
sg332
g11
(g94
S'\x01\x00\x00\x00\x00\x00\x00\x00'
p3416
tp3417
Rp3418
ssg42
g11
(g12
(S'S3'
p3419
I0
I1
tp3420
Rp3421
(I3
S'|'
p3422
NNNI3
I1
I0
tp3423
bS'PCA'
p3424
tp3425
Rp3426
sg51
F0.2
sg52
g11
(g12
(S'S8'
p3427
I0
I1
tp3428
Rp3429
(I3
S'|'
p3430
NNNI8
I1
I0
tp3431
bS'haralick'
p3432
tp3433
Rp3434
sg332
g3418
sg61
g11
(g15
S'U\x18(\xaa\xd1Z\xe6?'
p3435
tp3436
Rp3437
sg65
g11
(g12
(S'S2'
p3438
I0
I1
tp3439
Rp3440
(I3
S'|'
p3441
NNNI2
I1
I0
tp3442
bS'RF'
p3443
tp3444
Rp3445
sg74
I3
sg207
g3415
sg75
g76
sg77
g11
(g15
S'\xdbt\xfd>\x15.\xec?'
p3446
tp3447
Rp3448
sg81
g82
sg83
g84
sbag4
(g5
g6
Ntp3449
Rp3450
(dp3451
g10
g11
(g15
S'\x00\x00\x00\x00\x00\x00\xf8\xff'
p3452
tp3453
Rp3454
sg21
g361
sg30
g31
sg32
(dp3455
g21
g361
sg34
g11
(g15
S'\x9e\xeb\x88\x9f\xba\x83@@'
p3456
tp3457
Rp3458
sg38
g11
(g15
S'\xa7\xec\x1f\x1d]i\xe9?'
p3459
tp3460
Rp3461
ssg42
g11
(g12
(S'S3'
p3462
I0
I1
tp3463
Rp3464
(I3
S'|'
p3465
NNNI3
I1
I0
tp3466
bS'PCA'
p3467
tp3468
Rp3469
sg51
F0.2
sg38
g3461
sg52
g11
(g12
(S'S3'
p3470
I0
I1
tp3471
Rp3472
(I3
S'|'
p3473
NNNI3
I1
I0
tp3474
bS'VGG'
p3475
tp3476
Rp3477
sg34
g3458
sg61
g11
(g15
S'\x19\xa8{\xcb\xef\x88\xd1?'
p3478
tp3479
Rp3480
sg65
g11
(g12
(S'S3'
p3481
I0
I1
tp3482
Rp3483
(I3
S'|'
p3484
NNNI3
I1
I0
tp3485
bS'SVM'
p3486
tp3487
Rp3488
sg74
I3
sg75
g76
sg77
g11
(g15
S'\xcf8\x81%P]\xed?'
p3489
tp3490
Rp3491
sg81
g82
sg83
g84
sbag4
(g5
g6
Ntp3492
Rp3493
(dp3494
g10
g11
(g15
S'\x00\x00\x00\x00\x00\x00\xf8\xff'
p3495
tp3496
Rp3497
sg91
g11
(g94
S'\x03\x00\x00\x00\x00\x00\x00\x00'
p3498
tp3499
Rp3500
sg30
g31
sg32
(dp3501
g91
g3500
sg34
g11
(g15
S'\xad\xe7\x14\xf2\xfc\x91/@'
p3502
tp3503
Rp3504
sg104
g11
(g94
S'\x03\x00\x00\x00\x00\x00\x00\x00'
p3505
tp3506
Rp3507
sg38
g11
(g15
S'\xed\x88\xf1\xb6\x0c\xc5\xed?'
p3508
tp3509
Rp3510
ssg38
g3510
sg42
g11
(g12
(S'S6'
p3511
I0
I1
tp3512
Rp3513
(I3
S'|'
p3514
NNNI6
I1
I0
tp3515
bS'ISOMAP'
p3516
tp3517
Rp3518
sg51
F0.2
sg104
g3507
sg52
g11
(g12
(S'S3'
p3519
I0
I1
tp3520
Rp3521
(I3
S'|'
p3522
NNNI3
I1
I0
tp3523
bS'VGG'
p3524
tp3525
Rp3526
sg34
g3504
sg61
g11
(g15
S'\xdd\xc3\xb8\x95G\x84\xcc?'
p3527
tp3528
Rp3529
sg65
g11
(g12
(S'S3'
p3530
I0
I1
tp3531
Rp3532
(I3
S'|'
p3533
NNNI3
I1
I0
tp3534
bS'SVM'
p3535
tp3536
Rp3537
sg74
I3
sg75
g76
sg77
g11
(g15
S'#A\xfe\xeeh\xe8\xec?'
p3538
tp3539
Rp3540
sg81
g82
sg83
g84
sbag4
(g5
g6
Ntp3541
Rp3542
(dp3543
g10
g11
(g15
S'\x00\x00\x00\x00\x00\x00\xf8\xff'
p3544
tp3545
Rp3546
sg196
g11
(g15
S'\x00\x00\x00\x00\x00@a@'
p3547
tp3548
Rp3549
sg21
g361
sg30
g31
sg32
(dp3550
g196
g3549
sg207
g11
(g15
S'\x04\x94\x92\x85\xea\xe1\xed?'
p3551
tp3552
Rp3553
sg21
g361
ssg42
g11
(g12
(S'S3'
p3554
I0
I1
tp3555
Rp3556
(I3
S'|'
p3557
NNNI3
I1
I0
tp3558
bS'PCA'
p3559
tp3560
Rp3561
sg51
F0.2
sg52
g11
(g12
(S'S9'
p3562
I0
I1
tp3563
Rp3564
(I3
S'|'
p3565
NNNI9
I1
I0
tp3566
bS'inception'
p3567
tp3568
Rp3569
sg61
g11
(g15
S'\t\x03\xf7\x06m\x83\xdb?'
p3570
tp3571
Rp3572
sg65
g11
(g12
(S'S2'
p3573
I0
I1
tp3574
Rp3575
(I3
S'|'
p3576
NNNI2
I1
I0
tp3577
bS'RF'
p3578
tp3579
Rp3580
sg74
I3
sg207
g3553
sg75
g76
sg77
g11
(g15
S'GD\x83\x98\xc6\xba\xeb?'
p3581
tp3582
Rp3583
sg81
g82
sg83
g84
sbag4
(g5
g6
Ntp3584
Rp3585
(dp3586
g10
g11
(g15
S'\x00\x00\x00\x00\x00\x00\xf8\xff'
p3587
tp3588
Rp3589
sg91
g11
(g94
S'\x07\x00\x00\x00\x00\x00\x00\x00'
p3590
tp3591
Rp3592
sg30
g31
sg32
(dp3593
g91
g3592
sg34
g11
(g15
S'3\xdd\x1d\xa9S17@'
p3594
tp3595
Rp3596
sg104
g11
(g94
S'\x03\x00\x00\x00\x00\x00\x00\x00'
p3597
tp3598
Rp3599
sg38
g11
(g15
S'$\xde\xe0\n\x86\x91\x1c@'
p3600
tp3601
Rp3602
ssg38
g3602
sg42
g11
(g12
(S'S6'
p3603
I0
I1
tp3604
Rp3605
(I3
S'|'
p3606
NNNI6
I1
I0
tp3607
bS'ISOMAP'
p3608
tp3609
Rp3610
sg51
F0.2
sg104
g3599
sg52
g11
(g12
(S'S3'
p3611
I0
I1
tp3612
Rp3613
(I3
S'|'
p3614
NNNI3
I1
I0
tp3615
bS'VGG'
p3616
tp3617
Rp3618
sg34
g3596
sg61
g11
(g15
S'\x8d\xe0T\xc1\x98\xbb\xd1?'
p3619
tp3620
Rp3621
sg65
g11
(g12
(S'S3'
p3622
I0
I1
tp3623
Rp3624
(I3
S'|'
p3625
NNNI3
I1
I0
tp3626
bS'SVM'
p3627
tp3628
Rp3629
sg74
I3
sg75
g76
sg77
g11
(g15
S';\x08\x07\x7f\x01\xea\xec?'
p3630
tp3631
Rp3632
sg81
g82
sg83
g84
sbag4
(g5
g6
Ntp3633
Rp3634
(dp3635
g10
g11
(g15
S'\x00\x00\x00\x00\x00\x00\xf8\xff'
p3636
tp3637
Rp3638
sg196
g11
(g15
S'\x00\x00\x00\x00\x00@R@'
p3639
tp3640
Rp3641
sg21
g361
sg30
g31
sg32
(dp3642
g196
g3641
sg207
g11
(g15
S'\xec\x13\xa77\xd3~\xed?'
p3643
tp3644
Rp3645
sg21
g361
ssg42
g11
(g12
(S'S3'
p3646
I0
I1
tp3647
Rp3648
(I3
S'|'
p3649
NNNI3
I1
I0
tp3650
bS'PCA'
p3651
tp3652
Rp3653
sg51
F0.2
sg52
g11
(g12
(S'S9'
p3654
I0
I1
tp3655
Rp3656
(I3
S'|'
p3657
NNNI9
I1
I0
tp3658
bS'inception'
p3659
tp3660
Rp3661
sg61
g11
(g15
S'\xa5\\\x01\xe5X\xf9\xe5?'
p3662
tp3663
Rp3664
sg65
g11
(g12
(S'S2'
p3665
I0
I1
tp3666
Rp3667
(I3
S'|'
p3668
NNNI2
I1
I0
tp3669
bS'RF'
p3670
tp3671
Rp3672
sg74
I3
sg207
g3645
sg75
g76
sg77
g11
(g15
S'\xc3\x84\x82#\x18\x8c\xeb?'
p3673
tp3674
Rp3675
sg81
g82
sg83
g84
sbag4
(g5
g6
Ntp3676
Rp3677
(dp3678
g10
g11
(g15
S'\x00\x00\x00\x00\x00\x00\xf8\xff'
p3679
tp3680
Rp3681
sg91
g11
(g94
S'\x06\x00\x00\x00\x00\x00\x00\x00'
p3682
tp3683
Rp3684
sg30
g31
sg32
(dp3685
g91
g3684
sg34
g11
(g15
S'\xe6\x02L\x8c\x18\x97P@'
p3686
tp3687
Rp3688
sg104
g11
(g94
S'\x03\x00\x00\x00\x00\x00\x00\x00'
p3689
tp3690
Rp3691
sg38
g11
(g15
S'j\x7f\x00\xc4\xc5z\x13@'
p3692
tp3693
Rp3694
ssg38
g3694
sg42
g11
(g12
(S'S6'
p3695
I0
I1
tp3696
Rp3697
(I3
S'|'
p3698
NNNI6
I1
I0
tp3699
bS'ISOMAP'
p3700
tp3701
Rp3702
sg51
F0.2
sg104
g3691
sg52
g11
(g12
(S'S3'
p3703
I0
I1
tp3704
Rp3705
(I3
S'|'
p3706
NNNI3
I1
I0
tp3707
bS'VGG'
p3708
tp3709
Rp3710
sg34
g3688
sg61
g11
(g15
S'\x1d2\xe5\xd0G=\xd2?'
p3711
tp3712
Rp3713
sg65
g11
(g12
(S'S3'
p3714
I0
I1
tp3715
Rp3716
(I3
S'|'
p3717
NNNI3
I1
I0
tp3718
bS'SVM'
p3719
tp3720
Rp3721
sg74
I3
sg75
g76
sg77
g11
(g15
S'\xd0]\x83\x0e\x11\xd2\xec?'
p3722
tp3723
Rp3724
sg81
g82
sg83
g84
sbag4
(g5
g6
Ntp3725
Rp3726
(dp3727
g10
g11
(g15
S'\x00\x00\x00\x00\x00\x00\xf8\xff'
p3728
tp3729
Rp3730
sg196
g11
(g15
S'\x00\x00\x00\x00\x00\xc0p@'
p3731
tp3732
Rp3733
sg21
g361
sg30
g31
sg32
(dp3734
g196
g3733
sg207
g11
(g15
S'\xc8\xac\xcf\xa6we\xe7?'
p3735
tp3736
Rp3737
sg21
g361
sg332
g11
(g94
S'\x02\x00\x00\x00\x00\x00\x00\x00'
p3738
tp3739
Rp3740
ssg42
g11
(g12
(S'S3'
p3741
I0
I1
tp3742
Rp3743
(I3
S'|'
p3744
NNNI3
I1
I0
tp3745
bS'PCA'
p3746
tp3747
Rp3748
sg51
F0.2
sg52
g11
(g12
(S'S8'
p3749
I0
I1
tp3750
Rp3751
(I3
S'|'
p3752
NNNI8
I1
I0
tp3753
bS'haralick'
p3754
tp3755
Rp3756
sg332
g3740
sg61
g11
(g15
S'E\x0c\xd1\x1a\\\xde\xd7?'
p3757
tp3758
Rp3759
sg65
g11
(g12
(S'S2'
p3760
I0
I1
tp3761
Rp3762
(I3
S'|'
p3763
NNNI2
I1
I0
tp3764
bS'RF'
p3765
tp3766
Rp3767
sg74
I3
sg207
g3737
sg75
g76
sg77
g11
(g15
S'\x8c\xc6\x7fv\x98\x8b\xed?'
p3768
tp3769
Rp3770
sg81
g82
sg83
g84
sbag4
(g5
g6
Ntp3771
Rp3772
(dp3773
g10
g11
(g15
S'\x00\x00\x00\x00\x00\x00\xf8\xff'
p3774
tp3775
Rp3776
sg91
g11
(g94
S'\x05\x00\x00\x00\x00\x00\x00\x00'
p3777
tp3778
Rp3779
sg30
g31
sg32
(dp3780
g91
g3779
sg34
g11
(g15
S'\x06h\x06y\xa0\x0fR@'
p3781
tp3782
Rp3783
sg104
g11
(g94
S'\x02\x00\x00\x00\x00\x00\x00\x00'
p3784
tp3785
Rp3786
sg38
g11
(g15
S'~\x83\xab\xd2\x85\xf1\xc5?'
p3787
tp3788
Rp3789
ssg38
g3789
sg42
g11
(g12
(S'S6'
p3790
I0
I1
tp3791
Rp3792
(I3
S'|'
p3793
NNNI6
I1
I0
tp3794
bS'ISOMAP'
p3795
tp3796
Rp3797
sg51
F0.2
sg104
g3786
sg52
g11
(g12
(S'S9'
p3798
I0
I1
tp3799
Rp3800
(I3
S'|'
p3801
NNNI9
I1
I0
tp3802
bS'inception'
p3803
tp3804
Rp3805
sg34
g3783
sg61
g11
(g15
S'\x1cR#\xb0\xf7|\xd4?'
p3806
tp3807
Rp3808
sg65
g11
(g12
(S'S3'
p3809
I0
I1
tp3810
Rp3811
(I3
S'|'
p3812
NNNI3
I1
I0
tp3813
bS'SVM'
p3814
tp3815
Rp3816
sg74
I3
sg75
g76
sg77
g11
(g15
S'\x9bJ\xc8\x90\r\xb0\xde?'
p3817
tp3818
Rp3819
sg81
g82
sg83
g84
sbag4
(g5
g6
Ntp3820
Rp3821
(dp3822
g10
g11
(g15
S'\x00\x00\x00\x00\x00\x00\xf8\xff'
p3823
tp3824
Rp3825
sg196
g11
(g15
S'\x00\x00\x00\x00\x00\x00D@'
p3826
tp3827
Rp3828
sg30
g31
sg91
g11
(g94
S'\x06\x00\x00\x00\x00\x00\x00\x00'
p3829
tp3830
Rp3831
sg32
(dp3832
g196
g3828
sg91
g3831
sg332
g11
(g94
S'\x03\x00\x00\x00\x00\x00\x00\x00'
p3833
tp3834
Rp3835
sg104
g11
(g94
S'\x03\x00\x00\x00\x00\x00\x00\x00'
p3836
tp3837
Rp3838
sg207
g11
(g15
S'\x96\x9ap\xebZ\xd1\xee?'
p3839
tp3840
Rp3841
ssg42
g11
(g12
(S'S6'
p3842
I0
I1
tp3843
Rp3844
(I3
S'|'
p3845
NNNI6
I1
I0
tp3846
bS'ISOMAP'
p3847
tp3848
Rp3849
sg51
F0.2
sg104
g3838
sg52
g11
(g12
(S'S8'
p3850
I0
I1
tp3851
Rp3852
(I3
S'|'
p3853
NNNI8
I1
I0
tp3854
bS'haralick'
p3855
tp3856
Rp3857
sg332
g3835
sg61
g11
(g15
S"Y\xb5\xfd|\xff'\xe5?"
p3858
tp3859
Rp3860
sg65
g11
(g12
(S'S2'
p3861
I0
I1
tp3862
Rp3863
(I3
S'|'
p3864
NNNI2
I1
I0
tp3865
bS'RF'
p3866
tp3867
Rp3868
sg74
I3
sg207
g3841
sg75
g76
sg77
g11
(g15
S'\xf0\xf1\x01\xfd+F\xed?'
p3869
tp3870
Rp3871
sg81
g82
sg83
g84
sbag4
(g5
g6
Ntp3872
Rp3873
(dp3874
g10
g11
(g15
S'\x00\x00\x00\x00\x00\x00\xf8\xff'
p3875
tp3876
Rp3877
sg21
g29
sg30
g31
sg32
(dp3878
g21
g29
sg34
g11
(g15
S'\xc4\xba\x9e\xf7dWD@'
p3879
tp3880
Rp3881
sg38
g11
(g15
S"\x9b\x8d'\xa4\xc1Z\xf7?"
p3882
tp3883
Rp3884
ssg42
g11
(g12
(S'S3'
p3885
I0
I1
tp3886
Rp3887
(I3
S'|'
p3888
NNNI3
I1
I0
tp3889
bS'PCA'
p3890
tp3891
Rp3892
sg51
F0.2
sg38
g3884
sg52
g11
(g12
(S'S3'
p3893
I0
I1
tp3894
Rp3895
(I3
S'|'
p3896
NNNI3
I1
I0
tp3897
bS'VGG'
p3898
tp3899
Rp3900
sg34
g3881
sg61
g11
(g15
S'\xfd\x93\xfa3\xbf\xaa\xce?'
p3901
tp3902
Rp3903
sg65
g11
(g12
(S'S3'
p3904
I0
I1
tp3905
Rp3906
(I3
S'|'
p3907
NNNI3
I1
I0
tp3908
bS'SVM'
p3909
tp3910
Rp3911
sg74
I3
sg75
g76
sg77
g11
(g15
S'\x8d\xeb\x81_Y\x00\xed?'
p3912
tp3913
Rp3914
sg81
g82
sg83
g84
sbag4
(g5
g6
Ntp3915
Rp3916
(dp3917
g10
g11
(g15
S'\x00\x00\x00\x00\x00\x00\xf8\xff'
p3918
tp3919
Rp3920
sg196
g11
(g15
S'\x00\x00\x00\x00\x00@e@'
p3921
tp3922
Rp3923
sg30
g31
sg91
g11
(g94
S'\x07\x00\x00\x00\x00\x00\x00\x00'
p3924
tp3925
Rp3926
sg32
(dp3927
g196
g3923
sg91
g3926
sg104
g11
(g94
S'\x03\x00\x00\x00\x00\x00\x00\x00'
p3928
tp3929
Rp3930
sg207
g11
(g15
S'r\xed\x9f\x82\x90\xca\xe3?'
p3931
tp3932
Rp3933
ssg42
g11
(g12
(S'S6'
p3934
I0
I1
tp3935
Rp3936
(I3
S'|'
p3937
NNNI6
I1
I0
tp3938
bS'ISOMAP'
p3939
tp3940
Rp3941
sg51
F0.2
sg104
g3930
sg52
g11
(g12
(S'S9'
p3942
I0
I1
tp3943
Rp3944
(I3
S'|'
p3945
NNNI9
I1
I0
tp3946
bS'inception'
p3947
tp3948
Rp3949
sg61
g11
(g15
S'\xac\xfb\x82\xf0\xef^\xe9?'
p3950
tp3951
Rp3952
sg65
g11
(g12
(S'S2'
p3953
I0
I1
tp3954
Rp3955
(I3
S'|'
p3956
NNNI2
I1
I0
tp3957
bS'RF'
p3958
tp3959
Rp3960
sg74
I3
sg207
g3933
sg75
g76
sg77
g11
(g15
S'\xd8\x16\x8e\x9b\xd5\x19\xea?'
p3961
tp3962
Rp3963
sg81
g82
sg83
g84
sbag4
(g5
g6
Ntp3964
Rp3965
(dp3966
g10
g11
(g15
S'\x00\x00\x00\x00\x00\x00\xf8\xff'
p3967
tp3968
Rp3969
sg91
g11
(g94
S'\x04\x00\x00\x00\x00\x00\x00\x00'
p3970
tp3971
Rp3972
sg30
g31
sg32
(dp3973
g91
g3972
sg34
g11
(g15
S'W&4^j\xe1H@'
p3974
tp3975
Rp3976
sg104
g11
(g94
S'\x04\x00\x00\x00\x00\x00\x00\x00'
p3977
tp3978
Rp3979
sg38
g11
(g15
S'\xce6\xf5/lI\x15@'
p3980
tp3981
Rp3982
ssg38
g3982
sg42
g11
(g12
(S'S6'
p3983
I0
I1
tp3984
Rp3985
(I3
S'|'
p3986
NNNI6
I1
I0
tp3987
bS'ISOMAP'
p3988
tp3989
Rp3990
sg51
F0.2
sg104
g3979
sg52
g11
(g12
(S'S9'
p3991
I0
I1
tp3992
Rp3993
(I3
S'|'
p3994
NNNI9
I1
I0
tp3995
bS'inception'
p3996
tp3997
Rp3998
sg34
g3976
sg61
g11
(g15
S'\xdaH_\x1c_\x1a\xd4?'
p3999
tp4000
Rp4001
sg65
g11
(g12
(S'S3'
p4002
I0
I1
tp4003
Rp4004
(I3
S'|'
p4005
NNNI3
I1
I0
tp4006
bS'SVM'
p4007
tp4008
Rp4009
sg74
I3
sg75
g76
sg77
g11
(g15
S'\xff\xd9a.V@\xe6?'
p4010
tp4011
Rp4012
sg81
g82
sg83
g84
sbag4
(g5
g6
Ntp4013
Rp4014
(dp4015
g10
g11
(g15
S'\x00\x00\x00\x00\x00\x00\xf8\xff'
p4016
tp4017
Rp4018
sg196
g11
(g15
S'\x00\x00\x00\x00\x00\xc0p@'
p4019
tp4020
Rp4021
sg30
g31
sg91
g11
(g94
S'\x05\x00\x00\x00\x00\x00\x00\x00'
p4022
tp4023
Rp4024
sg32
(dp4025
g196
g4021
sg91
g4024
sg332
g11
(g94
S'\x01\x00\x00\x00\x00\x00\x00\x00'
p4026
tp4027
Rp4028
sg104
g11
(g94
S'\x02\x00\x00\x00\x00\x00\x00\x00'
p4029
tp4030
Rp4031
sg207
g11
(g15
S'\x9a\xbc\x10s\x97\xfa\xe2?'
p4032
tp4033
Rp4034
ssg42
g11
(g12
(S'S6'
p4035
I0
I1
tp4036
Rp4037
(I3
S'|'
p4038
NNNI6
I1
I0
tp4039
bS'ISOMAP'
p4040
tp4041
Rp4042
sg51
F0.2
sg104
g4031
sg52
g11
(g12
(S'S8'
p4043
I0
I1
tp4044
Rp4045
(I3
S'|'
p4046
NNNI8
I1
I0
tp4047
bS'haralick'
p4048
tp4049
Rp4050
sg332
g4028
sg61
g11
(g15
S'\xb0 9\xabw\xf9\xdf?'
p4051
tp4052
Rp4053
sg65
g11
(g12
(S'S2'
p4054
I0
I1
tp4055
Rp4056
(I3
S'|'
p4057
NNNI2
I1
I0
tp4058
bS'RF'
p4059
tp4060
Rp4061
sg74
I3
sg207
g4034
sg75
g76
sg77
g11
(g15
S'\xaf\xa4\x0275\xe9\xec?'
p4062
tp4063
Rp4064
sg81
g82
sg83
g84
sbag4
(g5
g6
Ntp4065
Rp4066
(dp4067
g10
g11
(g15
S'\x00\x00\x00\x00\x00\x00\xf8\xff'
p4068
tp4069
Rp4070
sg91
g11
(g94
S'\x03\x00\x00\x00\x00\x00\x00\x00'
p4071
tp4072
Rp4073
sg30
g31
sg32
(dp4074
g91
g4073
sg34
g11
(g15
S'WJ\xc9\x91\xe0\xbdX@'
p4075
tp4076
Rp4077
sg104
g11
(g94
S'\x03\x00\x00\x00\x00\x00\x00\x00'
p4078
tp4079
Rp4080
sg38
g11
(g15
S'\xdc\xf0\x1e\xa3!=\x19@'
p4081
tp4082
Rp4083
ssg38
g4083
sg42
g11
(g12
(S'S6'
p4084
I0
I1
tp4085
Rp4086
(I3
S'|'
p4087
NNNI6
I1
I0
tp4088
bS'ISOMAP'
p4089
tp4090
Rp4091
sg51
F0.2
sg104
g4080
sg52
g11
(g12
(S'S3'
p4092
I0
I1
tp4093
Rp4094
(I3
S'|'
p4095
NNNI3
I1
I0
tp4096
bS'VGG'
p4097
tp4098
Rp4099
sg34
g4077
sg61
g11
(g15
S'\xd4y\x87\x11\xd5\x1c\xd3?'
p4100
tp4101
Rp4102
sg65
g11
(g12
(S'S3'
p4103
I0
I1
tp4104
Rp4105
(I3
S'|'
p4106
NNNI3
I1
I0
tp4107
bS'SVM'
p4108
tp4109
Rp4110
sg74
I3
sg75
g76
sg77
g11
(g15
S'\x00c{.\xcc\x8a\xed?'
p4111
tp4112
Rp4113
sg81
g82
sg83
g84
sbag4
(g5
g6
Ntp4114
Rp4115
(dp4116
g10
g11
(g15
S'\x00\x00\x00\x00\x00\x00\xf8\xff'
p4117
tp4118
Rp4119
sg91
g11
(g94
S'\x03\x00\x00\x00\x00\x00\x00\x00'
p4120
tp4121
Rp4122
sg30
g31
sg32
(dp4123
g91
g4122
sg34
g11
(g15
S'bL\x1a\xfbDfW@'
p4124
tp4125
Rp4126
sg332
g11
(g94
S'\x01\x00\x00\x00\x00\x00\x00\x00'
p4127
tp4128
Rp4129
sg104
g11
(g94
S'\x02\x00\x00\x00\x00\x00\x00\x00'
p4130
tp4131
Rp4132
sg38
g11
(g15
S'd|7\xa0\xff\xf3\x1e@'
p4133
tp4134
Rp4135
ssg38
g4135
sg42
g11
(g12
(S'S6'
p4136
I0
I1
tp4137
Rp4138
(I3
S'|'
p4139
NNNI6
I1
I0
tp4140
bS'ISOMAP'
p4141
tp4142
Rp4143
sg51
F0.2
sg104
g4132
sg52
g11
(g12
(S'S8'
p4144
I0
I1
tp4145
Rp4146
(I3
S'|'
p4147
NNNI8
I1
I0
tp4148
bS'haralick'
p4149
tp4150
Rp4151
sg34
g4126
sg332
g4129
sg61
g11
(g15
S'Q|\xaeeo\x9d\xd2?'
p4152
tp4153
Rp4154
sg65
g11
(g12
(S'S3'
p4155
I0
I1
tp4156
Rp4157
(I3
S'|'
p4158
NNNI3
I1
I0
tp4159
bS'SVM'
p4160
tp4161
Rp4162
sg74
I3
sg75
g76
sg77
g11
(g15
S'\xd3\xf5\xfbT\xb8\xd0\xeb?'
p4163
tp4164
Rp4165
sg81
g82
sg83
g84
sbag4
(g5
g6
Ntp4166
Rp4167
(dp4168
g10
g11
(g15
S'\x00\x00\x00\x00\x00\x00\xf8\xff'
p4169
tp4170
Rp4171
sg21
g361
sg30
g31
sg32
(dp4172
g21
g361
sg34
g11
(g15
S'e\xf3\xc7\xfd\xbd\xc9P@'
p4173
tp4174
Rp4175
sg38
g11
(g15
S'\x1d\xb4\xad[\xa6z\x16@'
p4176
tp4177
Rp4178
ssg42
g11
(g12
(S'S3'
p4179
I0
I1
tp4180
Rp4181
(I3
S'|'
p4182
NNNI3
I1
I0
tp4183
bS'PCA'
p4184
tp4185
Rp4186
sg51
F0.2
sg38
g4178
sg52
g11
(g12
(S'S3'
p4187
I0
I1
tp4188
Rp4189
(I3
S'|'
p4190
NNNI3
I1
I0
tp4191
bS'VGG'
p4192
tp4193
Rp4194
sg34
g4175
sg61
g11
(g15
S'U\xe1\x98\x04\xa5\x1a\xd0?'
p4195
tp4196
Rp4197
sg65
g11
(g12
(S'S3'
p4198
I0
I1
tp4199
Rp4200
(I3
S'|'
p4201
NNNI3
I1
I0
tp4202
bS'SVM'
p4203
tp4204
Rp4205
sg74
I3
sg75
g76
sg77
g11
(g15
S'\x0b,\x81\xea\xaa\xd1\xec?'
p4206
tp4207
Rp4208
sg81
g82
sg83
g84
sbag4
(g5
g6
Ntp4209
Rp4210
(dp4211
g10
g11
(g15
S'\x00\x00\x00\x00\x00\x00\xf8\xff'
p4212
tp4213
Rp4214
sg91
g11
(g94
S'\x04\x00\x00\x00\x00\x00\x00\x00'
p4215
tp4216
Rp4217
sg30
g31
sg32
(dp4218
g91
g4217
sg34
g11
(g15
S"o\x96\x9an'\x91J@"
p4219
tp4220
Rp4221
sg332
g11
(g94
S'\x02\x00\x00\x00\x00\x00\x00\x00'
p4222
tp4223
Rp4224
sg104
g11
(g94
S'\x02\x00\x00\x00\x00\x00\x00\x00'
p4225
tp4226
Rp4227
sg38
g11
(g15
S'P\xa4MJ\x8e9\xd8?'
p4228
tp4229
Rp4230
ssg38
g4230
sg42
g11
(g12
(S'S6'
p4231
I0
I1
tp4232
Rp4233
(I3
S'|'
p4234
NNNI6
I1
I0
tp4235
bS'ISOMAP'
p4236
tp4237
Rp4238
sg51
F0.2
sg104
g4227
sg52
g11
(g12
(S'S8'
p4239
I0
I1
tp4240
Rp4241
(I3
S'|'
p4242
NNNI8
I1
I0
tp4243
bS'haralick'
p4244
tp4245
Rp4246
sg34
g4221
sg332
g4224
sg61
g11
(g15
S'\xff\x1d\xc9\x01\x1f\r\xd1?'
p4247
tp4248
Rp4249
sg65
g11
(g12
(S'S3'
p4250
I0
I1
tp4251
Rp4252
(I3
S'|'
p4253
NNNI3
I1
I0
tp4254
bS'SVM'
p4255
tp4256
Rp4257
sg74
I3
sg75
g76
sg77
g11
(g15
S'\xcfr\x8a\xc8\xb7G\xea?'
p4258
tp4259
Rp4260
sg81
g82
sg83
g84
sbag4
(g5
g6
Ntp4261
Rp4262
(dp4263
g10
g11
(g15
S'\x00\x00\x00\x00\x00\x00\xf8\xff'
p4264
tp4265
Rp4266
sg21
g29
sg30
g31
sg32
(dp4267
g21
g29
sg34
g11
(g15
S'\x11p\tT\\\xffK@'
p4268
tp4269
Rp4270
sg38
g11
(g15
S'\xed\xba\xdd3\xe8\xe8\x10@'
p4271
tp4272
Rp4273
ssg42
g11
(g12
(S'S3'
p4274
I0
I1
tp4275
Rp4276
(I3
S'|'
p4277
NNNI3
I1
I0
tp4278
bS'PCA'
p4279
tp4280
Rp4281
sg51
F0.2
sg38
g4273
sg52
g11
(g12
(S'S9'
p4282
I0
I1
tp4283
Rp4284
(I3
S'|'
p4285
NNNI9
I1
I0
tp4286
bS'inception'
p4287
tp4288
Rp4289
sg34
g4270
sg61
g11
(g15
S'\xc9\xe3\xb8@\x91m\xd4?'
p4290
tp4291
Rp4292
sg65
g11
(g12
(S'S3'
p4293
I0
I1
tp4294
Rp4295
(I3
S'|'
p4296
NNNI3
I1
I0
tp4297
bS'SVM'
p4298
tp4299
Rp4300
sg74
I3
sg75
g76
sg77
g11
(g15
S'\r\xfe\x02\xd4\xb9\xba\xe8?'
p4301
tp4302
Rp4303
sg81
g82
sg83
g84
sbag4
(g5
g6
Ntp4304
Rp4305
(dp4306
g10
g11
(g15
S'\x00\x00\x00\x00\x00\x00\xf8\xff'
p4307
tp4308
Rp4309
sg91
g11
(g94
S'\x07\x00\x00\x00\x00\x00\x00\x00'
p4310
tp4311
Rp4312
sg30
g31
sg32
(dp4313
g91
g4312
sg34
g11
(g15
S'\r6na\xa1\x9fE@'
p4314
tp4315
Rp4316
sg104
g11
(g94
S'\x04\x00\x00\x00\x00\x00\x00\x00'
p4317
tp4318
Rp4319
sg38
g11
(g15
S'\x0c\x8c)Q"\xa5\x08@'
p4320
tp4321
Rp4322
ssg38
g4322
sg42
g11
(g12
(S'S6'
p4323
I0
I1
tp4324
Rp4325
(I3
S'|'
p4326
NNNI6
I1
I0
tp4327
bS'ISOMAP'
p4328
tp4329
Rp4330
sg51
F0.2
sg104
g4319
sg52
g11
(g12
(S'S3'
p4331
I0
I1
tp4332
Rp4333
(I3
S'|'
p4334
NNNI3
I1
I0
tp4335
bS'VGG'
p4336
tp4337
Rp4338
sg34
g4316
sg61
g11
(g15
S'\xef\x89\x14V\xaa\xe1\xce?'
p4339
tp4340
Rp4341
sg65
g11
(g12
(S'S3'
p4342
I0
I1
tp4343
Rp4344
(I3
S'|'
p4345
NNNI3
I1
I0
tp4346
bS'SVM'
p4347
tp4348
Rp4349
sg74
I3
sg75
g76
sg77
g11
(g15
S'\xc5\x94}R2\x8b\xed?'
p4350
tp4351
Rp4352
sg81
g82
sg83
g84
sbag4
(g5
g6
Ntp4353
Rp4354
(dp4355
g10
g11
(g15
S'\x00\x00\x00\x00\x00\x00\xf8\xff'
p4356
tp4357
Rp4358
sg196
g11
(g15
S'\x00\x00\x00\x00\x00\xc0p@'
p4359
tp4360
Rp4361
sg21
g29
sg30
g31
sg32
(dp4362
g196
g4361
sg207
g11
(g15
S'\xe4\x9e\xa4\xa2\x84\x9e\xe4?'
p4363
tp4364
Rp4365
sg21
g29
ssg42
g11
(g12
(S'S3'
p4366
I0
I1
tp4367
Rp4368
(I3
S'|'
p4369
NNNI3
I1
I0
tp4370
bS'PCA'
p4371
tp4372
Rp4373
sg51
F0.2
sg52
g11
(g12
(S'S9'
p4374
I0
I1
tp4375
Rp4376
(I3
S'|'
p4377
NNNI9
I1
I0
tp4378
bS'inception'
p4379
tp4380
Rp4381
sg61
g11
(g15
S'/\x1a\x9f\x8c\xf7\x0c\xdb?'
p4382
tp4383
Rp4384
sg65
g11
(g12
(S'S2'
p4385
I0
I1
tp4386
Rp4387
(I3
S'|'
p4388
NNNI2
I1
I0
tp4389
bS'RF'
p4390
tp4391
Rp4392
sg74
I3
sg207
g4365
sg75
g76
sg77
g11
(g15
S'h\xfd\x03p\xa2\xa3\xeb?'
p4393
tp4394
Rp4395
sg81
g82
sg83
g84
sbag4
(g5
g6
Ntp4396
Rp4397
(dp4398
g10
g11
(g15
S'\x00\x00\x00\x00\x00\x00\xf8\xff'
p4399
tp4400
Rp4401
sg21
g361
sg30
g31
sg32
(dp4402
g21
g361
sg34
g11
(g15
S'\xc5\x12D\x96iAW@'
p4403
tp4404
Rp4405
sg38
g11
(g15
S'v\xa7\xb4\x19\xc7\x8d\x03@'
p4406
tp4407
Rp4408
ssg42
g11
(g12
(S'S3'
p4409
I0
I1
tp4410
Rp4411
(I3
S'|'
p4412
NNNI3
I1
I0
tp4413
bS'PCA'
p4414
tp4415
Rp4416
sg51
F0.2
sg38
g4408
sg52
g11
(g12
(S'S3'
p4417
I0
I1
tp4418
Rp4419
(I3
S'|'
p4420
NNNI3
I1
I0
tp4421
bS'VGG'
p4422
tp4423
Rp4424
sg34
g4405
sg61
g11
(g15
S'0)\xf3\xc3\xe8\xcd\xce?'
p4425
tp4426
Rp4427
sg65
g11
(g12
(S'S3'
p4428
I0
I1
tp4429
Rp4430
(I3
S'|'
p4431
NNNI3
I1
I0
tp4432
bS'SVM'
p4433
tp4434
Rp4435
sg74
I3
sg75
g76
sg77
g11
(g15
S'\x0b,\x81\xea\xaa\xd1\xec?'
p4436
tp4437
Rp4438
sg81
g82
sg83
g84
sbag4
(g5
g6
Ntp4439
Rp4440
(dp4441
g10
g11
(g15
S'\x00\x00\x00\x00\x00\x00\xf8\xff'
p4442
tp4443
Rp4444
sg196
g11
(g15
S'\x00\x00\x00\x00\x00`i@'
p4445
tp4446
Rp4447
sg30
g31
sg91
g11
(g94
S'\x05\x00\x00\x00\x00\x00\x00\x00'
p4448
tp4449
Rp4450
sg32
(dp4451
g196
g4447
sg91
g4450
sg332
g11
(g94
S'\x02\x00\x00\x00\x00\x00\x00\x00'
p4452
tp4453
Rp4454
sg104
g11
(g94
S'\x04\x00\x00\x00\x00\x00\x00\x00'
p4455
tp4456
Rp4457
sg207
g11
(g15
S'\x12\xa8T^\xc2\xa7\xe4?'
p4458
tp4459
Rp4460
ssg42
g11
(g12
(S'S6'
p4461
I0
I1
tp4462
Rp4463
(I3
S'|'
p4464
NNNI6
I1
I0
tp4465
bS'ISOMAP'
p4466
tp4467
Rp4468
sg51
F0.2
sg104
g4457
sg52
g11
(g12
(S'S8'
p4469
I0
I1
tp4470
Rp4471
(I3
S'|'
p4472
NNNI8
I1
I0
tp4473
bS'haralick'
p4474
tp4475
Rp4476
sg332
g4454
sg61
g11
(g15
S'\x8d\xc7\xe9\x85\xd9`\xdd?'
p4477
tp4478
Rp4479
sg65
g11
(g12
(S'S2'
p4480
I0
I1
tp4481
Rp4482
(I3
S'|'
p4483
NNNI2
I1
I0
tp4484
bS'RF'
p4485
tp4486
Rp4487
sg74
I3
sg207
g4460
sg75
g76
sg77
g11
(g15
S'c@\x89@:0\xed?'
p4488
tp4489
Rp4490
sg81
g82
sg83
g84
sbag4
(g5
g6
Ntp4491
Rp4492
(dp4493
g10
g11
(g15
S'\x00\x00\x00\x00\x00\x00\xf8\xff'
p4494
tp4495
Rp4496
sg196
g11
(g15
S'\x00\x00\x00\x00\x00@R@'
p4497
tp4498
Rp4499
sg21
g361
sg30
g31
sg32
(dp4500
g196
g4499
sg207
g11
(g15
S'\x90\xd3\x91\x9a\xae\xcc\xec?'
p4501
tp4502
Rp4503
sg21
g361
ssg42
g11
(g12
(S'S3'
p4504
I0
I1
tp4505
Rp4506
(I3
S'|'
p4507
NNNI3
I1
I0
tp4508
bS'PCA'
p4509
tp4510
Rp4511
sg51
F0.2
sg52
g11
(g12
(S'S3'
p4512
I0
I1
tp4513
Rp4514
(I3
S'|'
p4515
NNNI3
I1
I0
tp4516
bS'VGG'
p4517
tp4518
Rp4519
sg61
g11
(g15
S'\xe7/\x1b\xad\x05\xae\xd0?'
p4520
tp4521
Rp4522
sg65
g11
(g12
(S'S2'
p4523
I0
I1
tp4524
Rp4525
(I3
S'|'
p4526
NNNI2
I1
I0
tp4527
bS'RF'
p4528
tp4529
Rp4530
sg74
I3
sg207
g4503
sg75
g76
sg77
g11
(g15
S'\xf7p\x03\xe7\x88\xa3\xed?'
p4531
tp4532
Rp4533
sg81
g82
sg83
g84
sbasS'error_curve'
p4534
(lp4535
g64
ag64
ag64
ag64
ag129
ag178
ag229
ag229
ag229
ag229
ag229
ag229
ag229
ag229
ag229
ag229
ag229
ag229
ag229
ag229
ag229
ag229
ag229
ag229
ag229
ag229
ag229
ag229
ag229
ag229
ag229
ag229
ag229
ag229
ag229
ag229
ag229
ag229
ag229
ag229
ag229
ag278
ag278
ag278
ag278
ag278
ag278
ag278
ag278
ag278
ag278
ag278
ag278
ag278
ag278
ag278
ag278
ag278
ag278
ag278
ag278
ag278
ag278
ag278
ag278
ag278
ag278
ag278
ag278
ag278
ag278
ag278
ag278
ag278
ag278
ag278
ag278
ag278
ag278
ag278
ag278
ag278
ag278
ag278
ag278
ag278
ag278
ag278
ag278
ag278
ag278
ag278
ag278
ag278
asS'iters'
p4536
I51
sg30
g31
sS'results_loc'
p4537
S'/gpfs/u/home/CGHI/CGHIarch/barn/EP_project/results/'
p4538
sS'times'
p4539
(lp4540
F0.1574091911315918
aF0.3301100730895996
aF2.6345760822296143
aF3.2120091915130615
aF3.7908620834350586
aF4.339689016342163
aF6.201594114303589
aF6.363101005554199
aF8.45264220237732
aF9.012731075286865
aF25.91397714614868
aF26.487603187561035
aF26.645781993865967
aF27.217095136642456
aF39.88919520378113
aF41.417142152786255
aF43.36804008483887
aF43.52787208557129
aF44.23742699623108
aF45.83193302154541
aF46.428081035614014
aF46.981338024139404
aF60.37514615058899
aF75.70233201980591
aF75.8686580657959
aF76.56902313232422
aF89.15907120704651
aF101.73378705978394
aF102.2975480556488
aF104.60003113746643
aF104.7553060054779
aF105.34895610809326
aF105.94777417182922
aF106.10313010215759
aF118.68158102035522
aF118.82184314727783
aF118.97960615158081
aF131.61841917037964
aF132.20002913475037
aF146.48216915130615
aF146.6192111968994
aF147.69984006881714
aF147.84166622161865
aF149.38637614250183
aF149.55790400505066
aF150.0870110988617
aF150.64178705215454
aF165.39440417289734
aF166.99074602127075
aF167.59907007217407
aF180.1763482093811
aF194.6902461051941
aF195.6639440059662
aF196.63091611862183
aF197.21039199829102
aF200.03938221931458
aF200.19244122505188
aF214.62822008132935
aF227.33120107650757
aF229.8256950378418
aF232.7140610218048
aF234.26962018013
aF234.4400351047516
aF235.0729160308838
aF251.82814621925354
aF252.4061200618744
aF254.81505918502808
aF255.4138321876526
aF255.84391713142395
aF257.21004700660706
aF272.10933899879456
aF272.2533349990845
aF272.78278517723083
aF274.1328020095825
aF274.7386920452118
aF275.4945890903473
aF276.08548402786255
aF290.72132301330566
aF291.29439401626587
aF304.3030331134796
aF304.4539520740509
aF306.296991109848
aF306.85459899902344
aF321.43326711654663
aF321.9887502193451
aF334.5609390735626
aF334.7247121334076
aF347.3217420578003
aF347.477961063385
aF348.08275508880615
aF350.501668214798
aF350.6595730781555
aF364.86121821403503
aF365.56683015823364
asS'data_loc'
p4541
g84
sS'run'
p4542
I3
sg81
S'random_MCMC'
p4543
sb.