(iprototypes.random_based_mcmc1
random_MCMC
p0
(dp1
S'best_pipelines'
p2
(lp3
ccopy_reg
_reconstructor
p4
(cprototypes.data_analytic_pipeline
image_classification_pipeline
p5
c__builtin__
object
p6
Ntp7
Rp8
(dp9
S'f1_score'
p10
cnumpy.core.multiarray
scalar
p11
(cnumpy
dtype
p12
(S'f8'
p13
I0
I1
tp14
Rp15
(I3
S'<'
p16
NNNI-1
I-1
I0
tp17
bS'\x00\x00\x00\x00\x00\x00\xf8\xff'
p18
tp19
Rp20
sS'pca_whiten'
p21
g11
(g12
(S'b1'
p22
I0
I1
tp23
Rp24
(I3
S'|'
p25
NNNI-1
I-1
I0
tp26
bS'\x01'
p27
tp28
Rp29
sS'data_name'
p30
S'breast'
p31
sS'kwargs'
p32
(dp33
g21
g29
sS'svm_C'
p34
g11
(g15
S'\x94\xaf.\xb5\x8d\xacO@'
p35
tp36
Rp37
sS'haralick_distance'
p38
g11
(g12
(S'i8'
p39
I0
I1
tp40
Rp41
(I3
S'<'
p42
NNNI-1
I-1
I0
tp43
bS'\x01\x00\x00\x00\x00\x00\x00\x00'
p44
tp45
Rp46
sS'svm_gamma'
p47
g11
(g15
S'\x0e\x1b\x00\x82o|\xe8?'
p48
tp49
Rp50
ssS'dimensionality_reduction'
p51
g11
(g12
(S'S3'
p52
I0
I1
tp53
Rp54
(I3
S'|'
p55
NNNI3
I1
I0
tp56
bS'PCA'
p57
tp58
Rp59
sS'test_size'
p60
F0.2
sg47
g50
sS'feature_extraction'
p61
g11
(g12
(S'S8'
p62
I0
I1
tp63
Rp64
(I3
S'|'
p65
NNNI8
I1
I0
tp66
bS'haralick'
p67
tp68
Rp69
sg34
g37
sg38
g46
sS'result'
p70
g11
(g15
S'PYJ\xffn\xa8\xed?'
p71
tp72
Rp73
sS'learning_algorithm'
p74
g11
(g12
(S'S3'
p75
I0
I1
tp76
Rp77
(I3
S'|'
p78
NNNI3
I1
I0
tp79
bS'SVM'
p80
tp81
Rp82
sS'val_splits'
p83
I3
sS'ml_type'
p84
S'validation'
p85
sS'accuracy'
p86
g11
(g15
S'\xc4QP\xa1\xe9\x17\xe0?'
p87
tp88
Rp89
sS'type1'
p90
S'random1'
p91
sS'data_location'
p92
S'/gpfs/u/home/CGHI/CGHIarch/barn/EP_project/data/'
p93
sbag4
(g5
g6
Ntp94
Rp95
(dp96
g10
g11
(g15
S'\x00\x00\x00\x00\x00\x00\xf8\xff'
p97
tp98
Rp99
sS'n_estimators'
p100
g11
(g15
S'\x00\x00\x00\x00\x00\x00D@'
p101
tp102
Rp103
sg21
g29
sg30
g31
sg32
(dp104
g100
g103
sS'max_features'
p105
g11
(g15
S'R%\x85\xd1\xa1\xa0\xe7?'
p106
tp107
Rp108
sg21
g29
ssg51
g11
(g12
(S'S3'
p109
I0
I1
tp110
Rp111
(I3
S'|'
p112
NNNI3
I1
I0
tp113
bS'PCA'
p114
tp115
Rp116
sg60
F0.2
sg61
g11
(g12
(S'S3'
p117
I0
I1
tp118
Rp119
(I3
S'|'
p120
NNNI3
I1
I0
tp121
bS'VGG'
p122
tp123
Rp124
sg70
g11
(g15
S'\xa8\xdc\xf7\xdeb\xa0\xea?'
p125
tp126
Rp127
sg74
g11
(g12
(S'S2'
p128
I0
I1
tp129
Rp130
(I3
S'|'
p131
NNNI2
I1
I0
tp132
bS'RF'
p133
tp134
Rp135
sg83
I3
sg105
g108
sg84
g85
sg86
g11
(g15
S'\xad\xaf^\x16\xe8\x07\xe6?'
p136
tp137
Rp138
sg90
g91
sg92
g93
sbag4
(g5
g6
Ntp139
Rp140
(dp141
g10
g11
(g15
S'\x00\x00\x00\x00\x00\x00\xf8\xff'
p142
tp143
Rp144
sS'n_neighbors'
p145
g11
(g41
S'\x05\x00\x00\x00\x00\x00\x00\x00'
p146
tp147
Rp148
sg30
g31
sg32
(dp149
g145
g148
sg34
g11
(g15
S'\xa1\x13+\x1c\x1d6\xfa?'
p150
tp151
Rp152
sg38
g11
(g41
S'\x03\x00\x00\x00\x00\x00\x00\x00'
p153
tp154
Rp155
sS'n_components'
p156
g11
(g41
S'\x03\x00\x00\x00\x00\x00\x00\x00'
p157
tp158
Rp159
sg47
g11
(g15
S'\xa8\x80Yq \x0f\n@'
p160
tp161
Rp162
ssg47
g162
sg51
g11
(g12
(S'S6'
p163
I0
I1
tp164
Rp165
(I3
S'|'
p166
NNNI6
I1
I0
tp167
bS'ISOMAP'
p168
tp169
Rp170
sg60
F0.2
sg156
g159
sg61
g11
(g12
(S'S8'
p171
I0
I1
tp172
Rp173
(I3
S'|'
p174
NNNI8
I1
I0
tp175
bS'haralick'
p176
tp177
Rp178
sg34
g152
sg38
g155
sg70
g11
(g15
S'}\xba\x80\xaf\x97\x82\xea?'
p179
tp180
Rp181
sg74
g11
(g12
(S'S3'
p182
I0
I1
tp183
Rp184
(I3
S'|'
p185
NNNI3
I1
I0
tp186
bS'SVM'
p187
tp188
Rp189
sg83
I3
sg84
g85
sg86
g11
(g15
S'Q\x8eDg\xcf\x07\xe5?'
p190
tp191
Rp192
sg90
g91
sg92
g93
sbag4
(g5
g6
Ntp193
Rp194
(dp195
g10
g11
(g15
S'\x00\x00\x00\x00\x00\x00\xf8\xff'
p196
tp197
Rp198
sg100
g11
(g15
S'\x00\x00\x00\x00\x00\x00D@'
p199
tp200
Rp201
sg21
g29
sg30
g31
sg32
(dp202
g100
g201
sg105
g11
(g15
S',\xe3\x0c\xa0\x86\xd5\xd9?'
p203
tp204
Rp205
sg21
g29
ssg51
g11
(g12
(S'S3'
p206
I0
I1
tp207
Rp208
(I3
S'|'
p209
NNNI3
I1
I0
tp210
bS'PCA'
p211
tp212
Rp213
sg60
F0.2
sg61
g11
(g12
(S'S3'
p214
I0
I1
tp215
Rp216
(I3
S'|'
p217
NNNI3
I1
I0
tp218
bS'VGG'
p219
tp220
Rp221
sg70
g11
(g15
S'`\xf2\xba\xd4\xf7\xd9\xe7?'
p222
tp223
Rp224
sg74
g11
(g12
(S'S2'
p225
I0
I1
tp226
Rp227
(I3
S'|'
p228
NNNI2
I1
I0
tp229
bS'RF'
p230
tp231
Rp232
sg83
I3
sg105
g205
sg84
g85
sg86
g11
(g15
S'H\xb2\x99\xfa\xc7\xda\xe5?'
p233
tp234
Rp235
sg90
g91
sg92
g93
sbag4
(g5
g6
Ntp236
Rp237
(dp238
g10
g11
(g15
S'\x00\x00\x00\x00\x00\x00\xf8\xff'
p239
tp240
Rp241
sg100
g11
(g15
S'\x00\x00\x00\x00\x00\x00D@'
p242
tp243
Rp244
sg21
g11
(g24
S'\x00'
p245
tp246
Rp247
sg30
g31
sg32
(dp248
g100
g244
sg105
g11
(g15
S'\x1e\x89\xa6\t\x1a\x89\xdb?'
p249
tp250
Rp251
sg21
g247
ssg51
g11
(g12
(S'S3'
p252
I0
I1
tp253
Rp254
(I3
S'|'
p255
NNNI3
I1
I0
tp256
bS'PCA'
p257
tp258
Rp259
sg60
F0.2
sg61
g11
(g12
(S'S3'
p260
I0
I1
tp261
Rp262
(I3
S'|'
p263
NNNI3
I1
I0
tp264
bS'VGG'
p265
tp266
Rp267
sg70
g11
(g15
S'\xa7\xb9\x1d\xbaU\x0b\xe7?'
p268
tp269
Rp270
sg74
g11
(g12
(S'S2'
p271
I0
I1
tp272
Rp273
(I3
S'|'
p274
NNNI2
I1
I0
tp275
bS'RF'
p276
tp277
Rp278
sg83
I3
sg105
g251
sg84
g85
sg86
g11
(g15
S'\xe3fKN\xac\x1b\xe7?'
p279
tp280
Rp281
sg90
g91
sg92
g93
sbag4
(g5
g6
Ntp282
Rp283
(dp284
g10
g11
(g15
S'\x00\x00\x00\x00\x00\x00\xf8\xff'
p285
tp286
Rp287
sg100
g11
(g15
S'\x00\x00\x00\x00\x00\xc0p@'
p288
tp289
Rp290
sg21
g29
sg30
g31
sg32
(dp291
g100
g290
sg105
g11
(g15
S'Je\xb8\xb1\x9d\x82\xdc?'
p292
tp293
Rp294
sg21
g29
ssg51
g11
(g12
(S'S3'
p295
I0
I1
tp296
Rp297
(I3
S'|'
p298
NNNI3
I1
I0
tp299
bS'PCA'
p300
tp301
Rp302
sg60
F0.2
sg61
g11
(g12
(S'S3'
p303
I0
I1
tp304
Rp305
(I3
S'|'
p306
NNNI3
I1
I0
tp307
bS'VGG'
p308
tp309
Rp310
sg70
g11
(g15
S'\x84\xb74\x97\xa2\xd8\xe6?'
p311
tp312
Rp313
sg74
g11
(g12
(S'S2'
p314
I0
I1
tp315
Rp316
(I3
S'|'
p317
NNNI2
I1
I0
tp318
bS'RF'
p319
tp320
Rp321
sg83
I3
sg105
g294
sg84
g85
sg86
g11
(g15
S'\xb8\x176\x91\xa2\xd6\xe6?'
p322
tp323
Rp324
sg90
g91
sg92
g93
sbasS'paths'
p325
(lp326
(lp327
S'VGG'
p328
aS'PCA'
p329
aS'SVM'
p330
aa(lp331
g328
ag329
aS'RF'
p332
aa(lp333
g328
aS'ISOMAP'
p334
ag330
aa(lp335
g328
ag334
ag332
aa(lp336
S'haralick'
p337
ag329
ag330
aa(lp338
g337
ag329
ag332
aa(lp339
g337
ag334
ag330
aa(lp340
g337
ag334
ag332
aa(lp341
S'inception'
p342
ag329
ag330
aa(lp343
g342
ag329
ag332
aa(lp344
g342
ag334
ag330
aa(lp345
g342
ag334
ag332
aasS'pipeline'
p346
(dp347
g145
(lp348
I3
aI4
aI5
aI6
aI7
asg21
(lp349
I01
aI00
asg100
cnumpy.core.multiarray
_reconstruct
p350
(cnumpy
ndarray
p351
(I0
tp352
S'b'
p353
tp354
Rp355
(I1
(I10
tp356
g15
I00
S'\x00\x00\x00\x00\x00\x00 @\x00\x00\x00\x00\x00\x00D@\x00\x00\x00\x00\x00@R@\x00\x00\x00\x00\x00@Z@\x00\x00\x00\x00\x00@a@\x00\x00\x00\x00\x00@e@\x00\x00\x00\x00\x00`i@\x00\x00\x00\x00\x00`m@\x00\x00\x00\x00\x00\xc0p@\x00\x00\x00\x00\x00\xc0r@'
p357
tp358
bsg51
(lp359
g329
ag334
asg47
g350
(g351
(I0
tp360
g353
tp361
Rp362
(I1
(I10
tp363
g15
I00
S"{\x14\xaeG\xe1z\x84?\x102Tv\x98\xba\xec?\xe7\xd5\xc4\xb3\xa2\x91\xfc?b\xc9/\x96\xfcb\x05@\xd2'}\xd2'}\x0c@!Ce\x87\xa9\xcb\x11@X\xf2\x8b%\xbfX\x15@\x90\xa1\xb2\xc3\xd4\xe5\x18@\xc8P\xd9a\xear\x1c@\x00\x00\x00\x00\x00\x00 @"
p364
tp365
bsg61
(lp366
g328
ag337
ag342
asg38
(lp367
I1
aI2
aI3
asg156
(lp368
I2
aI3
aI4
asg74
(lp369
g330
ag332
asg105
g350
(g351
(I0
tp370
g353
tp371
Rp372
(I1
(I5
tp373
g15
I00
S'333333\xd3?\x9a\x99\x99\x99\x99\x99\xd9?\x00\x00\x00\x00\x00\x00\xe0?433333\xe3?hfffff\xe6?'
p374
tp375
bsg34
g350
(g351
(I0
tp376
g353
tp377
Rp378
(I1
(I10
tp379
g15
I00
S'\x9a\x99\x99\x99\x99\x99\xb9?gfffff&@\xce\xcc\xcc\xcc\xccL6@43333\xb3@@\x01\x00\x00\x00\x00@F@\xce\xcc\xcc\xcc\xcc\xccK@\xcd\xcc\xcc\xcc\xcc\xacP@43333sS@\x9a\x99\x99\x99\x999V@\x00\x00\x00\x00\x00\x00Y@'
p380
tp381
bssS'pipelines'
p382
(lp383
g8
ag4
(g5
g6
Ntp384
Rp385
(dp386
g10
g11
(g15
S'\x00\x00\x00\x00\x00\x00\xf8\xff'
p387
tp388
Rp389
sg100
g11
(g15
S'\x00\x00\x00\x00\x00`m@'
p390
tp391
Rp392
sg30
g31
sg145
g11
(g41
S'\x05\x00\x00\x00\x00\x00\x00\x00'
p393
tp394
Rp395
sg32
(dp396
g100
g392
sg145
g395
sg38
g11
(g41
S'\x01\x00\x00\x00\x00\x00\x00\x00'
p397
tp398
Rp399
sg156
g11
(g41
S'\x03\x00\x00\x00\x00\x00\x00\x00'
p400
tp401
Rp402
sg105
g11
(g15
S'*\x0e\xb8\xbb8v\xef?'
p403
tp404
Rp405
ssg51
g11
(g12
(S'S6'
p406
I0
I1
tp407
Rp408
(I3
S'|'
p409
NNNI6
I1
I0
tp410
bS'ISOMAP'
p411
tp412
Rp413
sg60
F0.2
sg156
g402
sg61
g11
(g12
(S'S8'
p414
I0
I1
tp415
Rp416
(I3
S'|'
p417
NNNI8
I1
I0
tp418
bS'haralick'
p419
tp420
Rp421
sg38
g399
sg70
g11
(g15
S'Q,\xcb\xa1\xe3x\xf8?'
p422
tp423
Rp424
sg74
g11
(g12
(S'S2'
p425
I0
I1
tp426
Rp427
(I3
S'|'
p428
NNNI2
I1
I0
tp429
bS'RF'
p430
tp431
Rp432
sg83
I3
sg105
g405
sg84
g85
sg86
g11
(g15
S'\x8b\x98n\x9b\xcc\n\xe4?'
p433
tp434
Rp435
sg90
g91
sg92
g93
sbag4
(g5
g6
Ntp436
Rp437
(dp438
g10
g11
(g15
S'\x00\x00\x00\x00\x00\x00\xf8\xff'
p439
tp440
Rp441
sg21
g247
sg30
g31
sg32
(dp442
g21
g247
sg34
g11
(g15
S'\t\xeeh\xf0\x89[H@'
p443
tp444
Rp445
sg47
g11
(g15
S']\n\xe0\x00\xbd!\x1e@'
p446
tp447
Rp448
ssg51
g11
(g12
(S'S3'
p449
I0
I1
tp450
Rp451
(I3
S'|'
p452
NNNI3
I1
I0
tp453
bS'PCA'
p454
tp455
Rp456
sg60
F0.2
sg47
g448
sg61
g11
(g12
(S'S3'
p457
I0
I1
tp458
Rp459
(I3
S'|'
p460
NNNI3
I1
I0
tp461
bS'VGG'
p462
tp463
Rp464
sg34
g445
sg70
g11
(g15
S'\xdd"uS0\x93\xf0?'
p465
tp466
Rp467
sg74
g11
(g12
(S'S3'
p468
I0
I1
tp469
Rp470
(I3
S'|'
p471
NNNI3
I1
I0
tp472
bS'SVM'
p473
tp474
Rp475
sg83
I3
sg84
g85
sg86
g11
(g15
S'\xcb\xd7\xfes\xd3\xf1\xdc?'
p476
tp477
Rp478
sg90
g91
sg92
g93
sbag4
(g5
g6
Ntp479
Rp480
(dp481
g10
g11
(g15
S'\x00\x00\x00\x00\x00\x00\xf8\xff'
p482
tp483
Rp484
sg100
g11
(g15
S'\x00\x00\x00\x00\x00\x00 @'
p485
tp486
Rp487
sg30
g31
sg145
g11
(g41
S'\x04\x00\x00\x00\x00\x00\x00\x00'
p488
tp489
Rp490
sg32
(dp491
g100
g487
sg145
g490
sg156
g11
(g41
S'\x02\x00\x00\x00\x00\x00\x00\x00'
p492
tp493
Rp494
sg105
g11
(g15
S'\xbc\xba1\xcd\xab\x1e\xee?'
p495
tp496
Rp497
ssg51
g11
(g12
(S'S6'
p498
I0
I1
tp499
Rp500
(I3
S'|'
p501
NNNI6
I1
I0
tp502
bS'ISOMAP'
p503
tp504
Rp505
sg60
F0.2
sg156
g494
sg61
g11
(g12
(S'S9'
p506
I0
I1
tp507
Rp508
(I3
S'|'
p509
NNNI9
I1
I0
tp510
bS'inception'
p511
tp512
Rp513
sg70
g11
(g15
S'\x18+\xadc\x85m\x1a@'
p514
tp515
Rp516
sg74
g11
(g12
(S'S2'
p517
I0
I1
tp518
Rp519
(I3
S'|'
p520
NNNI2
I1
I0
tp521
bS'RF'
p522
tp523
Rp524
sg83
I3
sg105
g497
sg84
g85
sg86
g11
(g15
S'\x1b\x94\x00F\x16\x87\xd9?'
p525
tp526
Rp527
sg90
g91
sg92
g93
sbag4
(g5
g6
Ntp528
Rp529
(dp530
g10
g11
(g15
S'\x00\x00\x00\x00\x00\x00\xf8\xff'
p531
tp532
Rp533
sg100
g11
(g15
S'\x00\x00\x00\x00\x00@Z@'
p534
tp535
Rp536
sg30
g31
sg145
g11
(g41
S'\x06\x00\x00\x00\x00\x00\x00\x00'
p537
tp538
Rp539
sg32
(dp540
g100
g536
sg145
g539
sg156
g11
(g41
S'\x02\x00\x00\x00\x00\x00\x00\x00'
p541
tp542
Rp543
sg105
g11
(g15
S'|\xd2u_\xb9"\xe4?'
p544
tp545
Rp546
ssg51
g11
(g12
(S'S6'
p547
I0
I1
tp548
Rp549
(I3
S'|'
p550
NNNI6
I1
I0
tp551
bS'ISOMAP'
p552
tp553
Rp554
sg60
F0.2
sg156
g543
sg61
g11
(g12
(S'S3'
p555
I0
I1
tp556
Rp557
(I3
S'|'
p558
NNNI3
I1
I0
tp559
bS'VGG'
p560
tp561
Rp562
sg70
g11
(g15
S'\x08\xd5\r\xf4\xc8+\xf8?'
p563
tp564
Rp565
sg74
g11
(g12
(S'S2'
p566
I0
I1
tp567
Rp568
(I3
S'|'
p569
NNNI2
I1
I0
tp570
bS'RF'
p571
tp572
Rp573
sg83
I3
sg105
g546
sg84
g85
sg86
g11
(g15
S'\xebJi\xc4\xd5\t\xde?'
p574
tp575
Rp576
sg90
g91
sg92
g93
sbag4
(g5
g6
Ntp577
Rp578
(dp579
g10
g11
(g15
S'\x00\x00\x00\x00\x00\x00\xf8\xff'
p580
tp581
Rp582
sg145
g11
(g41
S'\x05\x00\x00\x00\x00\x00\x00\x00'
p583
tp584
Rp585
sg30
g31
sg32
(dp586
g145
g585
sg34
g11
(g15
S'%Q\xf7\xcd\xdc;R@'
p587
tp588
Rp589
sg156
g11
(g41
S'\x04\x00\x00\x00\x00\x00\x00\x00'
p590
tp591
Rp592
sg47
g11
(g15
S'lM\xdb\xae\td\x06@'
p593
tp594
Rp595
ssg47
g595
sg51
g11
(g12
(S'S6'
p596
I0
I1
tp597
Rp598
(I3
S'|'
p599
NNNI6
I1
I0
tp600
bS'ISOMAP'
p601
tp602
Rp603
sg60
F0.2
sg156
g592
sg61
g11
(g12
(S'S9'
p604
I0
I1
tp605
Rp606
(I3
S'|'
p607
NNNI9
I1
I0
tp608
bS'inception'
p609
tp610
Rp611
sg34
g589
sg70
g11
(g15
S'a\x1cu9)\x80\xf0?'
p612
tp613
Rp614
sg74
g11
(g12
(S'S3'
p615
I0
I1
tp616
Rp617
(I3
S'|'
p618
NNNI3
I1
I0
tp619
bS'SVM'
p620
tp621
Rp622
sg83
I3
sg84
g85
sg86
g11
(g15
S'\xe1\x81c\x08\xf7\xc2\xde?'
p623
tp624
Rp625
sg90
g91
sg92
g93
sbag4
(g5
g6
Ntp626
Rp627
(dp628
g10
g11
(g15
S'\x00\x00\x00\x00\x00\x00\xf8\xff'
p629
tp630
Rp631
sg100
g11
(g15
S'\x00\x00\x00\x00\x00\xc0p@'
p632
tp633
Rp634
sg30
g31
sg145
g11
(g41
S'\x05\x00\x00\x00\x00\x00\x00\x00'
p635
tp636
Rp637
sg32
(dp638
g100
g634
sg145
g637
sg156
g11
(g41
S'\x03\x00\x00\x00\x00\x00\x00\x00'
p639
tp640
Rp641
sg105
g11
(g15
S'4\xe1\xdd\xcb\xab\x05\xd7?'
p642
tp643
Rp644
ssg51
g11
(g12
(S'S6'
p645
I0
I1
tp646
Rp647
(I3
S'|'
p648
NNNI6
I1
I0
tp649
bS'ISOMAP'
p650
tp651
Rp652
sg60
F0.2
sg156
g641
sg61
g11
(g12
(S'S3'
p653
I0
I1
tp654
Rp655
(I3
S'|'
p656
NNNI3
I1
I0
tp657
bS'VGG'
p658
tp659
Rp660
sg70
g11
(g15
S'\xb8\xe6\xcf\xf9\xa0a\xf1?'
p661
tp662
Rp663
sg74
g11
(g12
(S'S2'
p664
I0
I1
tp665
Rp666
(I3
S'|'
p667
NNNI2
I1
I0
tp668
bS'RF'
p669
tp670
Rp671
sg83
I3
sg105
g644
sg84
g85
sg86
g11
(g15
S'v)\xee\xe6{\xe5\xe0?'
p672
tp673
Rp674
sg90
g91
sg92
g93
sbag95
ag4
(g5
g6
Ntp675
Rp676
(dp677
g10
g11
(g15
S'\x00\x00\x00\x00\x00\x00\xf8\xff'
p678
tp679
Rp680
sg21
g29
sg30
g31
sg32
(dp681
g21
g29
sg34
g11
(g15
S'\xfd\xb4\x01*\x08]O@'
p682
tp683
Rp684
sg47
g11
(g15
S'B\xacf\x03\xe0\x12\x18@'
p685
tp686
Rp687
ssg51
g11
(g12
(S'S3'
p688
I0
I1
tp689
Rp690
(I3
S'|'
p691
NNNI3
I1
I0
tp692
bS'PCA'
p693
tp694
Rp695
sg60
F0.2
sg47
g687
sg61
g11
(g12
(S'S9'
p696
I0
I1
tp697
Rp698
(I3
S'|'
p699
NNNI9
I1
I0
tp700
bS'inception'
p701
tp702
Rp703
sg34
g684
sg70
g11
(g15
S'\x17\xf5=\xa8\x18R\xf0?'
p704
tp705
Rp706
sg74
g11
(g12
(S'S3'
p707
I0
I1
tp708
Rp709
(I3
S'|'
p710
NNNI3
I1
I0
tp711
bS'SVM'
p712
tp713
Rp714
sg83
I3
sg84
g85
sg86
g11
(g15
S'\xe1\x81c\x08\xf7\xc2\xde?'
p715
tp716
Rp717
sg90
g91
sg92
g93
sbag4
(g5
g6
Ntp718
Rp719
(dp720
g10
g11
(g15
S'\x00\x00\x00\x00\x00\x00\xf8\xff'
p721
tp722
Rp723
sg100
g11
(g15
S'\x00\x00\x00\x00\x00@a@'
p724
tp725
Rp726
sg30
g31
sg145
g11
(g41
S'\x05\x00\x00\x00\x00\x00\x00\x00'
p727
tp728
Rp729
sg32
(dp730
g100
g726
sg145
g729
sg38
g11
(g41
S'\x01\x00\x00\x00\x00\x00\x00\x00'
p731
tp732
Rp733
sg156
g11
(g41
S'\x02\x00\x00\x00\x00\x00\x00\x00'
p734
tp735
Rp736
sg105
g11
(g15
S'J^+rol\xe4?'
p737
tp738
Rp739
ssg51
g11
(g12
(S'S6'
p740
I0
I1
tp741
Rp742
(I3
S'|'
p743
NNNI6
I1
I0
tp744
bS'ISOMAP'
p745
tp746
Rp747
sg60
F0.2
sg156
g736
sg61
g11
(g12
(S'S8'
p748
I0
I1
tp749
Rp750
(I3
S'|'
p751
NNNI8
I1
I0
tp752
bS'haralick'
p753
tp754
Rp755
sg38
g733
sg70
g11
(g15
S',\x00j\xd9\xf1h\xf9?'
p756
tp757
Rp758
sg74
g11
(g12
(S'S2'
p759
I0
I1
tp760
Rp761
(I3
S'|'
p762
NNNI2
I1
I0
tp763
bS'RF'
p764
tp765
Rp766
sg83
I3
sg105
g739
sg84
g85
sg86
g11
(g15
S'5(\x01\x8c,\x0e\xe3?'
p767
tp768
Rp769
sg90
g91
sg92
g93
sbag4
(g5
g6
Ntp770
Rp771
(dp772
g10
g11
(g15
S'\x00\x00\x00\x00\x00\x00\xf8\xff'
p773
tp774
Rp775
sg100
g11
(g15
S'\x00\x00\x00\x00\x00@a@'
p776
tp777
Rp778
sg21
g29
sg30
g31
sg32
(dp779
g100
g778
sg105
g11
(g15
S'\xec\x85\x84\x17>\x12\xec?'
p780
tp781
Rp782
sg21
g29
ssg51
g11
(g12
(S'S3'
p783
I0
I1
tp784
Rp785
(I3
S'|'
p786
NNNI3
I1
I0
tp787
bS'PCA'
p788
tp789
Rp790
sg60
F0.2
sg61
g11
(g12
(S'S9'
p791
I0
I1
tp792
Rp793
(I3
S'|'
p794
NNNI9
I1
I0
tp795
bS'inception'
p796
tp797
Rp798
sg70
g11
(g15
S'k\xf2lV\xd2.\xf9?'
p799
tp800
Rp801
sg74
g11
(g12
(S'S2'
p802
I0
I1
tp803
Rp804
(I3
S'|'
p805
NNNI2
I1
I0
tp806
bS'RF'
p807
tp808
Rp809
sg83
I3
sg105
g782
sg84
g85
sg86
g11
(g15
S'\x9e\xa6\xc0\x0e\xf9\xb7\xe0?'
p810
tp811
Rp812
sg90
g91
sg92
g93
sbag4
(g5
g6
Ntp813
Rp814
(dp815
g10
g11
(g15
S'\x00\x00\x00\x00\x00\x00\xf8\xff'
p816
tp817
Rp818
sg145
g11
(g41
S'\x07\x00\x00\x00\x00\x00\x00\x00'
p819
tp820
Rp821
sg30
g31
sg32
(dp822
g145
g821
sg34
g11
(g15
S'm\xe8\x96\rZMK@'
p823
tp824
Rp825
sg156
g11
(g41
S'\x02\x00\x00\x00\x00\x00\x00\x00'
p826
tp827
Rp828
sg47
g11
(g15
S'\np\x8aQ\x1c\xfe\x07@'
p829
tp830
Rp831
ssg47
g831
sg51
g11
(g12
(S'S6'
p832
I0
I1
tp833
Rp834
(I3
S'|'
p835
NNNI6
I1
I0
tp836
bS'ISOMAP'
p837
tp838
Rp839
sg60
F0.2
sg156
g828
sg61
g11
(g12
(S'S9'
p840
I0
I1
tp841
Rp842
(I3
S'|'
p843
NNNI9
I1
I0
tp844
bS'inception'
p845
tp846
Rp847
sg34
g825
sg70
g11
(g15
S'\x05@\x190sX\xf0?'
p848
tp849
Rp850
sg74
g11
(g12
(S'S3'
p851
I0
I1
tp852
Rp853
(I3
S'|'
p854
NNNI3
I1
I0
tp855
bS'SVM'
p856
tp857
Rp858
sg83
I3
sg84
g85
sg86
g11
(g15
S'\x19+_\xfb\xcfM\xdf?'
p859
tp860
Rp861
sg90
g91
sg92
g93
sbag4
(g5
g6
Ntp862
Rp863
(dp864
g10
g11
(g15
S'\x00\x00\x00\x00\x00\x00\xf8\xff'
p865
tp866
Rp867
sg100
g11
(g15
S'\x00\x00\x00\x00\x00`i@'
p868
tp869
Rp870
sg21
g247
sg30
g31
sg32
(dp871
g100
g870
sg105
g11
(g15
S'\xf2\xa5\x12\x10r\n\xeb?'
p872
tp873
Rp874
sg21
g247
sg38
g11
(g41
S'\x03\x00\x00\x00\x00\x00\x00\x00'
p875
tp876
Rp877
ssg51
g11
(g12
(S'S3'
p878
I0
I1
tp879
Rp880
(I3
S'|'
p881
NNNI3
I1
I0
tp882
bS'PCA'
p883
tp884
Rp885
sg60
F0.2
sg61
g11
(g12
(S'S8'
p886
I0
I1
tp887
Rp888
(I3
S'|'
p889
NNNI8
I1
I0
tp890
bS'haralick'
p891
tp892
Rp893
sg38
g877
sg70
g11
(g15
S'\x13c\x0c&\xfb\x0f\xf7?'
p894
tp895
Rp896
sg74
g11
(g12
(S'S2'
p897
I0
I1
tp898
Rp899
(I3
S'|'
p900
NNNI2
I1
I0
tp901
bS'RF'
p902
tp903
Rp904
sg83
I3
sg105
g874
sg84
g85
sg86
g11
(g15
S'\xc0!\x9eh\x1d\x91\xe5?'
p905
tp906
Rp907
sg90
g91
sg92
g93
sbag4
(g5
g6
Ntp908
Rp909
(dp910
g10
g11
(g15
S'\x00\x00\x00\x00\x00\x00\xf8\xff'
p911
tp912
Rp913
sg145
g11
(g41
S'\x06\x00\x00\x00\x00\x00\x00\x00'
p914
tp915
Rp916
sg30
g31
sg32
(dp917
g145
g916
sg34
g11
(g15
S'F\xfcU\xaf\xc0uS@'
p918
tp919
Rp920
sg156
g11
(g41
S'\x03\x00\x00\x00\x00\x00\x00\x00'
p921
tp922
Rp923
sg47
g11
(g15
S'\xf7\x07\x7f\x0cp\xbd\r@'
p924
tp925
Rp926
ssg47
g926
sg51
g11
(g12
(S'S6'
p927
I0
I1
tp928
Rp929
(I3
S'|'
p930
NNNI6
I1
I0
tp931
bS'ISOMAP'
p932
tp933
Rp934
sg60
F0.2
sg156
g923
sg61
g11
(g12
(S'S3'
p935
I0
I1
tp936
Rp937
(I3
S'|'
p938
NNNI3
I1
I0
tp939
bS'VGG'
p940
tp941
Rp942
sg34
g920
sg70
g11
(g15
S'\x1b<\xd8X\xb3Y\xf0?'
p943
tp944
Rp945
sg74
g11
(g12
(S'S3'
p946
I0
I1
tp947
Rp948
(I3
S'|'
p949
NNNI3
I1
I0
tp950
bS'SVM'
p951
tp952
Rp953
sg83
I3
sg84
g85
sg86
g11
(g15
S'\x8f\xc8 \xd4\x98\x91\xde?'
p954
tp955
Rp956
sg90
g91
sg92
g93
sbag4
(g5
g6
Ntp957
Rp958
(dp959
g10
g11
(g15
S'\x00\x00\x00\x00\x00\x00\xf8\xff'
p960
tp961
Rp962
sg145
g11
(g41
S'\x07\x00\x00\x00\x00\x00\x00\x00'
p963
tp964
Rp965
sg30
g31
sg32
(dp966
g145
g965
sg34
g11
(g15
S'\xd2 7\x85\x8edR@'
p967
tp968
Rp969
sg38
g11
(g41
S'\x03\x00\x00\x00\x00\x00\x00\x00'
p970
tp971
Rp972
sg156
g11
(g41
S'\x04\x00\x00\x00\x00\x00\x00\x00'
p973
tp974
Rp975
sg47
g11
(g15
S'\xffsY\xff\x99^\xf2?'
p976
tp977
Rp978
ssg47
g978
sg51
g11
(g12
(S'S6'
p979
I0
I1
tp980
Rp981
(I3
S'|'
p982
NNNI6
I1
I0
tp983
bS'ISOMAP'
p984
tp985
Rp986
sg60
F0.2
sg156
g975
sg61
g11
(g12
(S'S8'
p987
I0
I1
tp988
Rp989
(I3
S'|'
p990
NNNI8
I1
I0
tp991
bS'haralick'
p992
tp993
Rp994
sg34
g969
sg38
g972
sg70
g11
(g15
S'\xdbH\xbc\xd51v\xec?'
p995
tp996
Rp997
sg74
g11
(g12
(S'S3'
p998
I0
I1
tp999
Rp1000
(I3
S'|'
p1001
NNNI3
I1
I0
tp1002
bS'SVM'
p1003
tp1004
Rp1005
sg83
I3
sg84
g85
sg86
g11
(g15
S'"\xdc\x0b\x9bHQ\xe3?'
p1006
tp1007
Rp1008
sg90
g91
sg92
g93
sbag4
(g5
g6
Ntp1009
Rp1010
(dp1011
g10
g11
(g15
S'\x00\x00\x00\x00\x00\x00\xf8\xff'
p1012
tp1013
Rp1014
sg21
g29
sg30
g31
sg32
(dp1015
g21
g29
sg34
g11
(g15
S'\r\xach\x04\xdb_@@'
p1016
tp1017
Rp1018
sg47
g11
(g15
S'\xc7R6B`\xf0\x1f@'
p1019
tp1020
Rp1021
ssg51
g11
(g12
(S'S3'
p1022
I0
I1
tp1023
Rp1024
(I3
S'|'
p1025
NNNI3
I1
I0
tp1026
bS'PCA'
p1027
tp1028
Rp1029
sg60
F0.2
sg47
g1021
sg61
g11
(g12
(S'S3'
p1030
I0
I1
tp1031
Rp1032
(I3
S'|'
p1033
NNNI3
I1
I0
tp1034
bS'VGG'
p1035
tp1036
Rp1037
sg34
g1018
sg70
g11
(g15
S'\xc9\xe9;\xbc\xaf\xbb\xf0?'
p1038
tp1039
Rp1040
sg74
g11
(g12
(S'S3'
p1041
I0
I1
tp1042
Rp1043
(I3
S'|'
p1044
NNNI3
I1
I0
tp1045
bS'SVM'
p1046
tp1047
Rp1048
sg83
I3
sg84
g85
sg86
g11
(g15
S'\xcb\xd7\xfes\xd3\xf1\xdc?'
p1049
tp1050
Rp1051
sg90
g91
sg92
g93
sbag4
(g5
g6
Ntp1052
Rp1053
(dp1054
g10
g11
(g15
S'\x00\x00\x00\x00\x00\x00\xf8\xff'
p1055
tp1056
Rp1057
sg100
g11
(g15
S'\x00\x00\x00\x00\x00\xc0r@'
p1058
tp1059
Rp1060
sg30
g31
sg145
g11
(g41
S'\x03\x00\x00\x00\x00\x00\x00\x00'
p1061
tp1062
Rp1063
sg32
(dp1064
g100
g1060
sg145
g1063
sg38
g11
(g41
S'\x03\x00\x00\x00\x00\x00\x00\x00'
p1065
tp1066
Rp1067
sg156
g11
(g41
S'\x03\x00\x00\x00\x00\x00\x00\x00'
p1068
tp1069
Rp1070
sg105
g11
(g15
S'\xe3\xe9Q\xab<\x04\xd6?'
p1071
tp1072
Rp1073
ssg51
g11
(g12
(S'S6'
p1074
I0
I1
tp1075
Rp1076
(I3
S'|'
p1077
NNNI6
I1
I0
tp1078
bS'ISOMAP'
p1079
tp1080
Rp1081
sg60
F0.2
sg156
g1070
sg61
g11
(g12
(S'S8'
p1082
I0
I1
tp1083
Rp1084
(I3
S'|'
p1085
NNNI8
I1
I0
tp1086
bS'haralick'
p1087
tp1088
Rp1089
sg38
g1067
sg70
g11
(g15
S'UM.\xaa\xf4\xf7\xfa?'
p1090
tp1091
Rp1092
sg74
g11
(g12
(S'S2'
p1093
I0
I1
tp1094
Rp1095
(I3
S'|'
p1096
NNNI2
I1
I0
tp1097
bS'RF'
p1098
tp1099
Rp1100
sg83
I3
sg105
g1073
sg84
g85
sg86
g11
(g15
S'\xd4\xb3\xa9\xe0\xda\x1e\xe4?'
p1101
tp1102
Rp1103
sg90
g91
sg92
g93
sbag140
ag4
(g5
g6
Ntp1104
Rp1105
(dp1106
g10
g11
(g15
S'\x00\x00\x00\x00\x00\x00\xf8\xff'
p1107
tp1108
Rp1109
sg21
g247
sg30
g31
sg32
(dp1110
g21
g247
sg34
g11
(g15
S'\xf3\xc8\xba\xc3\xc0\xd7\x1d@'
p1111
tp1112
Rp1113
sg47
g11
(g15
S'\xd3\xdc\xd5\xf3\xbb:\x0f@'
p1114
tp1115
Rp1116
ssg51
g11
(g12
(S'S3'
p1117
I0
I1
tp1118
Rp1119
(I3
S'|'
p1120
NNNI3
I1
I0
tp1121
bS'PCA'
p1122
tp1123
Rp1124
sg60
F0.2
sg47
g1116
sg61
g11
(g12
(S'S9'
p1125
I0
I1
tp1126
Rp1127
(I3
S'|'
p1128
NNNI9
I1
I0
tp1129
bS'inception'
p1130
tp1131
Rp1132
sg34
g1113
sg70
g11
(g15
S'\xe6\xba\x07\xee3>\xf0?'
p1133
tp1134
Rp1135
sg74
g11
(g12
(S'S3'
p1136
I0
I1
tp1137
Rp1138
(I3
S'|'
p1139
NNNI3
I1
I0
tp1140
bS'SVM'
p1141
tp1142
Rp1143
sg83
I3
sg84
g85
sg86
g11
(g15
S'\x81[\x95\xed\xa0e\xde?'
p1144
tp1145
Rp1146
sg90
g91
sg92
g93
sbag4
(g5
g6
Ntp1147
Rp1148
(dp1149
g10
g11
(g15
S'\x00\x00\x00\x00\x00\x00\xf8\xff'
p1150
tp1151
Rp1152
sg145
g11
(g41
S'\x05\x00\x00\x00\x00\x00\x00\x00'
p1153
tp1154
Rp1155
sg30
g31
sg32
(dp1156
g145
g1155
sg34
g11
(g15
S'\xbc\\\xcf\xf6\xa46V@'
p1157
tp1158
Rp1159
sg156
g11
(g41
S'\x04\x00\x00\x00\x00\x00\x00\x00'
p1160
tp1161
Rp1162
sg47
g11
(g15
S'\xd7W\x18{wY\t@'
p1163
tp1164
Rp1165
ssg47
g1165
sg51
g11
(g12
(S'S6'
p1166
I0
I1
tp1167
Rp1168
(I3
S'|'
p1169
NNNI6
I1
I0
tp1170
bS'ISOMAP'
p1171
tp1172
Rp1173
sg60
F0.2
sg156
g1162
sg61
g11
(g12
(S'S9'
p1174
I0
I1
tp1175
Rp1176
(I3
S'|'
p1177
NNNI9
I1
I0
tp1178
bS'inception'
p1179
tp1180
Rp1181
sg34
g1159
sg70
g11
(g15
S'\x93&\x88\x8b\xc2n\xf0?'
p1182
tp1183
Rp1184
sg74
g11
(g12
(S'S3'
p1185
I0
I1
tp1186
Rp1187
(I3
S'|'
p1188
NNNI3
I1
I0
tp1189
bS'SVM'
p1190
tp1191
Rp1192
sg83
I3
sg84
g85
sg86
g11
(g15
S'Lq7\xdf+g\xde?'
p1193
tp1194
Rp1195
sg90
g91
sg92
g93
sbag4
(g5
g6
Ntp1196
Rp1197
(dp1198
g10
g11
(g15
S'\x00\x00\x00\x00\x00\x00\xf8\xff'
p1199
tp1200
Rp1201
sg100
g11
(g15
S'\x00\x00\x00\x00\x00@a@'
p1202
tp1203
Rp1204
sg30
g31
sg145
g11
(g41
S'\x06\x00\x00\x00\x00\x00\x00\x00'
p1205
tp1206
Rp1207
sg32
(dp1208
g100
g1204
sg145
g1207
sg38
g11
(g41
S'\x02\x00\x00\x00\x00\x00\x00\x00'
p1209
tp1210
Rp1211
sg156
g11
(g41
S'\x02\x00\x00\x00\x00\x00\x00\x00'
p1212
tp1213
Rp1214
sg105
g11
(g15
S'p\x1d&/\xc9\xc9\xea?'
p1215
tp1216
Rp1217
ssg51
g11
(g12
(S'S6'
p1218
I0
I1
tp1219
Rp1220
(I3
S'|'
p1221
NNNI6
I1
I0
tp1222
bS'ISOMAP'
p1223
tp1224
Rp1225
sg60
F0.2
sg156
g1214
sg61
g11
(g12
(S'S8'
p1226
I0
I1
tp1227
Rp1228
(I3
S'|'
p1229
NNNI8
I1
I0
tp1230
bS'haralick'
p1231
tp1232
Rp1233
sg38
g1211
sg70
g11
(g15
S'?\x94\r\x8a\x8c\xbe\xf2?'
p1234
tp1235
Rp1236
sg74
g11
(g12
(S'S2'
p1237
I0
I1
tp1238
Rp1239
(I3
S'|'
p1240
NNNI2
I1
I0
tp1241
bS'RF'
p1242
tp1243
Rp1244
sg83
I3
sg105
g1217
sg84
g85
sg86
g11
(g15
S'H&m\xec\x149\xe4?'
p1245
tp1246
Rp1247
sg90
g91
sg92
g93
sbag4
(g5
g6
Ntp1248
Rp1249
(dp1250
g10
g11
(g15
S'\x00\x00\x00\x00\x00\x00\xf8\xff'
p1251
tp1252
Rp1253
sg21
g29
sg30
g31
sg32
(dp1254
g21
g29
sg34
g11
(g15
S'j"egsn9@'
p1255
tp1256
Rp1257
sg47
g11
(g15
S'\xb5\xf91\xf61C\xf1?'
p1258
tp1259
Rp1260
ssg51
g11
(g12
(S'S3'
p1261
I0
I1
tp1262
Rp1263
(I3
S'|'
p1264
NNNI3
I1
I0
tp1265
bS'PCA'
p1266
tp1267
Rp1268
sg60
F0.2
sg47
g1260
sg61
g11
(g12
(S'S3'
p1269
I0
I1
tp1270
Rp1271
(I3
S'|'
p1272
NNNI3
I1
I0
tp1273
bS'VGG'
p1274
tp1275
Rp1276
sg34
g1257
sg70
g11
(g15
S'#FLo\xb2\xaf\xec?'
p1277
tp1278
Rp1279
sg74
g11
(g12
(S'S3'
p1280
I0
I1
tp1281
Rp1282
(I3
S'|'
p1283
NNNI3
I1
I0
tp1284
bS'SVM'
p1285
tp1286
Rp1287
sg83
I3
sg84
g85
sg86
g11
(g15
S'\xaa\xe0\xda\x1e@\xf9\xe1?'
p1288
tp1289
Rp1290
sg90
g91
sg92
g93
sbag4
(g5
g6
Ntp1291
Rp1292
(dp1293
g10
g11
(g15
S'\x00\x00\x00\x00\x00\x00\xf8\xff'
p1294
tp1295
Rp1296
sg100
g11
(g15
S'\x00\x00\x00\x00\x00\x00 @'
p1297
tp1298
Rp1299
sg21
g29
sg30
g31
sg32
(dp1300
g100
g1299
sg105
g11
(g15
S'\\\x8c\x1aCj\xb0\xd3?'
p1301
tp1302
Rp1303
sg21
g29
ssg51
g11
(g12
(S'S3'
p1304
I0
I1
tp1305
Rp1306
(I3
S'|'
p1307
NNNI3
I1
I0
tp1308
bS'PCA'
p1309
tp1310
Rp1311
sg60
F0.2
sg61
g11
(g12
(S'S3'
p1312
I0
I1
tp1313
Rp1314
(I3
S'|'
p1315
NNNI3
I1
I0
tp1316
bS'VGG'
p1317
tp1318
Rp1319
sg70
g11
(g15
S'\xd6\x8e[\xac\xa2v\x02@'
p1320
tp1321
Rp1322
sg74
g11
(g12
(S'S2'
p1323
I0
I1
tp1324
Rp1325
(I3
S'|'
p1326
NNNI2
I1
I0
tp1327
bS'RF'
p1328
tp1329
Rp1330
sg83
I3
sg105
g1303
sg84
g85
sg86
g11
(g15
S'\x1b\xd2\xa3\xc3\xcd\x96\xe4?'
p1331
tp1332
Rp1333
sg90
g91
sg92
g93
sbag4
(g5
g6
Ntp1334
Rp1335
(dp1336
g10
g11
(g15
S'\x00\x00\x00\x00\x00\x00\xf8\xff'
p1337
tp1338
Rp1339
sg21
g247
sg30
g31
sg32
(dp1340
g21
g247
sg34
g11
(g15
S'p\x88\xc7\x8eB\xe7A@'
p1341
tp1342
Rp1343
sg38
g11
(g41
S'\x02\x00\x00\x00\x00\x00\x00\x00'
p1344
tp1345
Rp1346
sg47
g11
(g15
S'A\xb0b\x12\x0e\xdc\x19@'
p1347
tp1348
Rp1349
ssg51
g11
(g12
(S'S3'
p1350
I0
I1
tp1351
Rp1352
(I3
S'|'
p1353
NNNI3
I1
I0
tp1354
bS'PCA'
p1355
tp1356
Rp1357
sg60
F0.2
sg47
g1349
sg61
g11
(g12
(S'S8'
p1358
I0
I1
tp1359
Rp1360
(I3
S'|'
p1361
NNNI8
I1
I0
tp1362
bS'haralick'
p1363
tp1364
Rp1365
sg34
g1343
sg38
g1346
sg70
g11
(g15
S'd(L7\xb2\x16\xec?'
p1366
tp1367
Rp1368
sg74
g11
(g12
(S'S3'
p1369
I0
I1
tp1370
Rp1371
(I3
S'|'
p1372
NNNI3
I1
I0
tp1373
bS'SVM'
p1374
tp1375
Rp1376
sg83
I3
sg84
g85
sg86
g11
(g15
S'f P\xdf\x8c\x95\xe3?'
p1377
tp1378
Rp1379
sg90
g91
sg92
g93
sbag4
(g5
g6
Ntp1380
Rp1381
(dp1382
g10
g11
(g15
S'\x00\x00\x00\x00\x00\x00\xf8\xff'
p1383
tp1384
Rp1385
sg100
g11
(g15
S'\x00\x00\x00\x00\x00`i@'
p1386
tp1387
Rp1388
sg30
g31
sg145
g11
(g41
S'\x04\x00\x00\x00\x00\x00\x00\x00'
p1389
tp1390
Rp1391
sg32
(dp1392
g100
g1388
sg145
g1391
sg38
g11
(g41
S'\x02\x00\x00\x00\x00\x00\x00\x00'
p1393
tp1394
Rp1395
sg156
g11
(g41
S'\x04\x00\x00\x00\x00\x00\x00\x00'
p1396
tp1397
Rp1398
sg105
g11
(g15
S'D>\x0b[\xae\x0f\xe7?'
p1399
tp1400
Rp1401
ssg51
g11
(g12
(S'S6'
p1402
I0
I1
tp1403
Rp1404
(I3
S'|'
p1405
NNNI6
I1
I0
tp1406
bS'ISOMAP'
p1407
tp1408
Rp1409
sg60
F0.2
sg156
g1398
sg61
g11
(g12
(S'S8'
p1410
I0
I1
tp1411
Rp1412
(I3
S'|'
p1413
NNNI8
I1
I0
tp1414
bS'haralick'
p1415
tp1416
Rp1417
sg38
g1395
sg70
g11
(g15
S'\x182\xaf|3\xdd\xf7?'
p1418
tp1419
Rp1420
sg74
g11
(g12
(S'S2'
p1421
I0
I1
tp1422
Rp1423
(I3
S'|'
p1424
NNNI2
I1
I0
tp1425
bS'RF'
p1426
tp1427
Rp1428
sg83
I3
sg105
g1401
sg84
g85
sg86
g11
(g15
S'\x15\xe0\x94\x08\xb9\x1f\xe5?'
p1429
tp1430
Rp1431
sg90
g91
sg92
g93
sbag194
ag4
(g5
g6
Ntp1432
Rp1433
(dp1434
g10
g11
(g15
S'\x00\x00\x00\x00\x00\x00\xf8\xff'
p1435
tp1436
Rp1437
sg21
g29
sg30
g31
sg32
(dp1438
g21
g29
sg34
g11
(g15
S'E\xc9P\xa8nyX@'
p1439
tp1440
Rp1441
sg38
g11
(g41
S'\x03\x00\x00\x00\x00\x00\x00\x00'
p1442
tp1443
Rp1444
sg47
g11
(g15
S'?\x11\xca.\xb6\x17\xe6?'
p1445
tp1446
Rp1447
ssg51
g11
(g12
(S'S3'
p1448
I0
I1
tp1449
Rp1450
(I3
S'|'
p1451
NNNI3
I1
I0
tp1452
bS'PCA'
p1453
tp1454
Rp1455
sg60
F0.2
sg47
g1447
sg61
g11
(g12
(S'S8'
p1456
I0
I1
tp1457
Rp1458
(I3
S'|'
p1459
NNNI8
I1
I0
tp1460
bS'haralick'
p1461
tp1462
Rp1463
sg34
g1441
sg38
g1444
sg70
g11
(g15
S'_MM\xed\x15\xf4\xe8?'
p1464
tp1465
Rp1466
sg74
g11
(g12
(S'S3'
p1467
I0
I1
tp1468
Rp1469
(I3
S'|'
p1470
NNNI3
I1
I0
tp1471
bS'SVM'
p1472
tp1473
Rp1474
sg83
I3
sg84
g85
sg86
g11
(g15
S'`\xe8*\x9d\x9eM\xe5?'
p1475
tp1476
Rp1477
sg90
g91
sg92
g93
sbag4
(g5
g6
Ntp1478
Rp1479
(dp1480
g10
g11
(g15
S'\x00\x00\x00\x00\x00\x00\xf8\xff'
p1481
tp1482
Rp1483
sg21
g247
sg30
g31
sg32
(dp1484
g21
g247
sg34
g11
(g15
S'\x1eS\xc5#)\xf5A@'
p1485
tp1486
Rp1487
sg47
g11
(g15
S'\x82Z\xc2C:p\x17@'
p1488
tp1489
Rp1490
ssg51
g11
(g12
(S'S3'
p1491
I0
I1
tp1492
Rp1493
(I3
S'|'
p1494
NNNI3
I1
I0
tp1495
bS'PCA'
p1496
tp1497
Rp1498
sg60
F0.2
sg47
g1490
sg61
g11
(g12
(S'S9'
p1499
I0
I1
tp1500
Rp1501
(I3
S'|'
p1502
NNNI9
I1
I0
tp1503
bS'inception'
p1504
tp1505
Rp1506
sg34
g1487
sg70
g11
(g15
S'tc\xff\x98\xe8M\xf0?'
p1507
tp1508
Rp1509
sg74
g11
(g12
(S'S3'
p1510
I0
I1
tp1511
Rp1512
(I3
S'|'
p1513
NNNI3
I1
I0
tp1514
bS'SVM'
p1515
tp1516
Rp1517
sg83
I3
sg84
g85
sg86
g11
(g15
S'\r\xa3\xbbZ\x8dz\xdf?'
p1518
tp1519
Rp1520
sg90
g91
sg92
g93
sbag4
(g5
g6
Ntp1521
Rp1522
(dp1523
g10
g11
(g15
S'\x00\x00\x00\x00\x00\x00\xf8\xff'
p1524
tp1525
Rp1526
sg100
g11
(g15
S'\x00\x00\x00\x00\x00\x00 @'
p1527
tp1528
Rp1529
sg21
g247
sg30
g31
sg32
(dp1530
g100
g1529
sg105
g11
(g15
S'\x0f\x95\x16#|o\xe5?'
p1531
tp1532
Rp1533
sg21
g247
sg38
g11
(g41
S'\x03\x00\x00\x00\x00\x00\x00\x00'
p1534
tp1535
Rp1536
ssg51
g11
(g12
(S'S3'
p1537
I0
I1
tp1538
Rp1539
(I3
S'|'
p1540
NNNI3
I1
I0
tp1541
bS'PCA'
p1542
tp1543
Rp1544
sg60
F0.2
sg61
g11
(g12
(S'S8'
p1545
I0
I1
tp1546
Rp1547
(I3
S'|'
p1548
NNNI8
I1
I0
tp1549
bS'haralick'
p1550
tp1551
Rp1552
sg38
g1536
sg70
g11
(g15
S'\x013\x82\x9b\xff-\x11@'
p1553
tp1554
Rp1555
sg74
g11
(g12
(S'S2'
p1556
I0
I1
tp1557
Rp1558
(I3
S'|'
p1559
NNNI2
I1
I0
tp1560
bS'RF'
p1561
tp1562
Rp1563
sg83
I3
sg105
g1533
sg84
g85
sg86
g11
(g15
S')r\xa0\x80v\xad\xe3?'
p1564
tp1565
Rp1566
sg90
g91
sg92
g93
sbag4
(g5
g6
Ntp1567
Rp1568
(dp1569
g10
g11
(g15
S'\x00\x00\x00\x00\x00\x00\xf8\xff'
p1570
tp1571
Rp1572
sg100
g11
(g15
S'\x00\x00\x00\x00\x00@Z@'
p1573
tp1574
Rp1575
sg30
g31
sg145
g11
(g41
S'\x05\x00\x00\x00\x00\x00\x00\x00'
p1576
tp1577
Rp1578
sg32
(dp1579
g100
g1575
sg145
g1578
sg156
g11
(g41
S'\x03\x00\x00\x00\x00\x00\x00\x00'
p1580
tp1581
Rp1582
sg105
g11
(g15
S'\x8ag\x0e#\x17\xb9\xe9?'
p1583
tp1584
Rp1585
ssg51
g11
(g12
(S'S6'
p1586
I0
I1
tp1587
Rp1588
(I3
S'|'
p1589
NNNI6
I1
I0
tp1590
bS'ISOMAP'
p1591
tp1592
Rp1593
sg60
F0.2
sg156
g1582
sg61
g11
(g12
(S'S9'
p1594
I0
I1
tp1595
Rp1596
(I3
S'|'
p1597
NNNI9
I1
I0
tp1598
bS'inception'
p1599
tp1600
Rp1601
sg70
g11
(g15
S'E\x84#\xc0\xc3\xab\x02@'
p1602
tp1603
Rp1604
sg74
g11
(g12
(S'S2'
p1605
I0
I1
tp1606
Rp1607
(I3
S'|'
p1608
NNNI2
I1
I0
tp1609
bS'RF'
p1610
tp1611
Rp1612
sg83
I3
sg105
g1585
sg84
g85
sg86
g11
(g15
S'}\x9c\xf7\x08=\xd9\xdd?'
p1613
tp1614
Rp1615
sg90
g91
sg92
g93
sbag4
(g5
g6
Ntp1616
Rp1617
(dp1618
g10
g11
(g15
S'\x00\x00\x00\x00\x00\x00\xf8\xff'
p1619
tp1620
Rp1621
sg21
g247
sg30
g31
sg32
(dp1622
g21
g247
sg34
g11
(g15
S'\x1e\x7f\x06\xe7\xda\xc8X@'
p1623
tp1624
Rp1625
sg47
g11
(g15
S'\xdb\xef\x94\xf5Lw\xfa?'
p1626
tp1627
Rp1628
ssg51
g11
(g12
(S'S3'
p1629
I0
I1
tp1630
Rp1631
(I3
S'|'
p1632
NNNI3
I1
I0
tp1633
bS'PCA'
p1634
tp1635
Rp1636
sg60
F0.2
sg47
g1628
sg61
g11
(g12
(S'S9'
p1637
I0
I1
tp1638
Rp1639
(I3
S'|'
p1640
NNNI9
I1
I0
tp1641
bS'inception'
p1642
tp1643
Rp1644
sg34
g1625
sg70
g11
(g15
S'\xed\xcb\xde\xc4\xdcF\xf0?'
p1645
tp1646
Rp1647
sg74
g11
(g12
(S'S3'
p1648
I0
I1
tp1649
Rp1650
(I3
S'|'
p1651
NNNI3
I1
I0
tp1652
bS'SVM'
p1653
tp1654
Rp1655
sg83
I3
sg84
g85
sg86
g11
(g15
S'\xd1:"\x83Pc\xde?'
p1656
tp1657
Rp1658
sg90
g91
sg92
g93
sbag237
ag4
(g5
g6
Ntp1659
Rp1660
(dp1661
g10
g11
(g15
S'\x00\x00\x00\x00\x00\x00\xf8\xff'
p1662
tp1663
Rp1664
sg100
g11
(g15
S'\x00\x00\x00\x00\x00\x00 @'
p1665
tp1666
Rp1667
sg21
g29
sg30
g31
sg32
(dp1668
g100
g1667
sg105
g11
(g15
S'8\x8c\x9f\x05\xc5\x07\xdc?'
p1669
tp1670
Rp1671
sg21
g29
ssg51
g11
(g12
(S'S3'
p1672
I0
I1
tp1673
Rp1674
(I3
S'|'
p1675
NNNI3
I1
I0
tp1676
bS'PCA'
p1677
tp1678
Rp1679
sg60
F0.2
sg61
g11
(g12
(S'S3'
p1680
I0
I1
tp1681
Rp1682
(I3
S'|'
p1683
NNNI3
I1
I0
tp1684
bS'VGG'
p1685
tp1686
Rp1687
sg70
g11
(g15
S'P\xc9i\xa0\xc2m\xfe?'
p1688
tp1689
Rp1690
sg74
g11
(g12
(S'S2'
p1691
I0
I1
tp1692
Rp1693
(I3
S'|'
p1694
NNNI2
I1
I0
tp1695
bS'RF'
p1696
tp1697
Rp1698
sg83
I3
sg105
g1671
sg84
g85
sg86
g11
(g15
S'\xeb]\x0eu\xfe\xef\xe5?'
p1699
tp1700
Rp1701
sg90
g91
sg92
g93
sbag4
(g5
g6
Ntp1702
Rp1703
(dp1704
g10
g11
(g15
S'\x00\x00\x00\x00\x00\x00\xf8\xff'
p1705
tp1706
Rp1707
sg145
g11
(g41
S'\x07\x00\x00\x00\x00\x00\x00\x00'
p1708
tp1709
Rp1710
sg30
g31
sg32
(dp1711
g145
g1710
sg34
g11
(g15
S':CL\xa5\xb1GT@'
p1712
tp1713
Rp1714
sg38
g11
(g41
S'\x01\x00\x00\x00\x00\x00\x00\x00'
p1715
tp1716
Rp1717
sg156
g11
(g41
S'\x04\x00\x00\x00\x00\x00\x00\x00'
p1718
tp1719
Rp1720
sg47
g11
(g15
S'\xac!<\x8f\x8c\xe0\xfd?'
p1721
tp1722
Rp1723
ssg47
g1723
sg51
g11
(g12
(S'S6'
p1724
I0
I1
tp1725
Rp1726
(I3
S'|'
p1727
NNNI6
I1
I0
tp1728
bS'ISOMAP'
p1729
tp1730
Rp1731
sg60
F0.2
sg156
g1720
sg61
g11
(g12
(S'S8'
p1732
I0
I1
tp1733
Rp1734
(I3
S'|'
p1735
NNNI8
I1
I0
tp1736
bS'haralick'
p1737
tp1738
Rp1739
sg34
g1714
sg38
g1717
sg70
g11
(g15
S'\x15~Y\x1c\x95\x1e\xee?'
p1740
tp1741
Rp1742
sg74
g11
(g12
(S'S3'
p1743
I0
I1
tp1744
Rp1745
(I3
S'|'
p1746
NNNI3
I1
I0
tp1747
bS'SVM'
p1748
tp1749
Rp1750
sg83
I3
sg84
g85
sg86
g11
(g15
S'\xf8\xed$\x1fc\x84\xe1?'
p1751
tp1752
Rp1753
sg90
g91
sg92
g93
sbag4
(g5
g6
Ntp1754
Rp1755
(dp1756
g10
g11
(g15
S'\x00\x00\x00\x00\x00\x00\xf8\xff'
p1757
tp1758
Rp1759
sg145
g11
(g41
S'\x07\x00\x00\x00\x00\x00\x00\x00'
p1760
tp1761
Rp1762
sg30
g31
sg32
(dp1763
g145
g1762
sg34
g11
(g15
S'\xf5\xcd\x91\x94t\xc1P@'
p1764
tp1765
Rp1766
sg156
g11
(g41
S'\x04\x00\x00\x00\x00\x00\x00\x00'
p1767
tp1768
Rp1769
sg47
g11
(g15
S'a\xa7\xec3\xe9\xf4\x1c@'
p1770
tp1771
Rp1772
ssg47
g1772
sg51
g11
(g12
(S'S6'
p1773
I0
I1
tp1774
Rp1775
(I3
S'|'
p1776
NNNI6
I1
I0
tp1777
bS'ISOMAP'
p1778
tp1779
Rp1780
sg60
F0.2
sg156
g1769
sg61
g11
(g12
(S'S3'
p1781
I0
I1
tp1782
Rp1783
(I3
S'|'
p1784
NNNI3
I1
I0
tp1785
bS'VGG'
p1786
tp1787
Rp1788
sg34
g1766
sg70
g11
(g15
S'1~\xfb\xe8W\x16\xf0?'
p1789
tp1790
Rp1791
sg74
g11
(g12
(S'S3'
p1792
I0
I1
tp1793
Rp1794
(I3
S'|'
p1795
NNNI3
I1
I0
tp1796
bS'SVM'
p1797
tp1798
Rp1799
sg83
I3
sg84
g85
sg86
g11
(g15
S'\xebJi\xc4\xd5\t\xde?'
p1800
tp1801
Rp1802
sg90
g91
sg92
g93
sbag4
(g5
g6
Ntp1803
Rp1804
(dp1805
g10
g11
(g15
S'\x00\x00\x00\x00\x00\x00\xf8\xff'
p1806
tp1807
Rp1808
sg100
g11
(g15
S'\x00\x00\x00\x00\x00@a@'
p1809
tp1810
Rp1811
sg21
g29
sg30
g31
sg32
(dp1812
g100
g1811
sg105
g11
(g15
S'\xcc\xf7AX\x08\x7f\xd4?'
p1813
tp1814
Rp1815
sg21
g29
sg38
g11
(g41
S'\x02\x00\x00\x00\x00\x00\x00\x00'
p1816
tp1817
Rp1818
ssg51
g11
(g12
(S'S3'
p1819
I0
I1
tp1820
Rp1821
(I3
S'|'
p1822
NNNI3
I1
I0
tp1823
bS'PCA'
p1824
tp1825
Rp1826
sg60
F0.2
sg61
g11
(g12
(S'S8'
p1827
I0
I1
tp1828
Rp1829
(I3
S'|'
p1830
NNNI8
I1
I0
tp1831
bS'haralick'
p1832
tp1833
Rp1834
sg38
g1818
sg70
g11
(g15
S'PJ#\x89\xb5\xd7\xf6?'
p1835
tp1836
Rp1837
sg74
g11
(g12
(S'S2'
p1838
I0
I1
tp1839
Rp1840
(I3
S'|'
p1841
NNNI2
I1
I0
tp1842
bS'RF'
p1843
tp1844
Rp1845
sg83
I3
sg105
g1815
sg84
g85
sg86
g11
(g15
S'\x94\x00F\x16\x87\xd9\xe4?'
p1846
tp1847
Rp1848
sg90
g91
sg92
g93
sbag4
(g5
g6
Ntp1849
Rp1850
(dp1851
g10
g11
(g15
S'\x00\x00\x00\x00\x00\x00\xf8\xff'
p1852
tp1853
Rp1854
sg100
g11
(g15
S'\x00\x00\x00\x00\x00\x00 @'
p1855
tp1856
Rp1857
sg30
g31
sg145
g11
(g41
S'\x07\x00\x00\x00\x00\x00\x00\x00'
p1858
tp1859
Rp1860
sg32
(dp1861
g100
g1857
sg145
g1860
sg156
g11
(g41
S'\x02\x00\x00\x00\x00\x00\x00\x00'
p1862
tp1863
Rp1864
sg105
g11
(g15
S'\xbb\xfd\x03\xf5\x82\xd2\xd7?'
p1865
tp1866
Rp1867
ssg51
g11
(g12
(S'S6'
p1868
I0
I1
tp1869
Rp1870
(I3
S'|'
p1871
NNNI6
I1
I0
tp1872
bS'ISOMAP'
p1873
tp1874
Rp1875
sg60
F0.2
sg156
g1864
sg61
g11
(g12
(S'S3'
p1876
I0
I1
tp1877
Rp1878
(I3
S'|'
p1879
NNNI3
I1
I0
tp1880
bS'VGG'
p1881
tp1882
Rp1883
sg70
g11
(g15
S'(\x8c6\xff\x0f\xe3\x18@'
p1884
tp1885
Rp1886
sg74
g11
(g12
(S'S2'
p1887
I0
I1
tp1888
Rp1889
(I3
S'|'
p1890
NNNI2
I1
I0
tp1891
bS'RF'
p1892
tp1893
Rp1894
sg83
I3
sg105
g1867
sg84
g85
sg86
g11
(g15
S'\x1b+_\xfb\xcfM\xdf?'
p1895
tp1896
Rp1897
sg90
g91
sg92
g93
sbag4
(g5
g6
Ntp1898
Rp1899
(dp1900
g10
g11
(g15
S'\x00\x00\x00\x00\x00\x00\xf8\xff'
p1901
tp1902
Rp1903
sg100
g11
(g15
S'\x00\x00\x00\x00\x00\x00D@'
p1904
tp1905
Rp1906
sg21
g29
sg30
g31
sg32
(dp1907
g100
g1906
sg105
g11
(g15
S'\x86\xf9\xb9\x1b)G\xde?'
p1908
tp1909
Rp1910
sg21
g29
ssg51
g11
(g12
(S'S3'
p1911
I0
I1
tp1912
Rp1913
(I3
S'|'
p1914
NNNI3
I1
I0
tp1915
bS'PCA'
p1916
tp1917
Rp1918
sg60
F0.2
sg61
g11
(g12
(S'S9'
p1919
I0
I1
tp1920
Rp1921
(I3
S'|'
p1922
NNNI9
I1
I0
tp1923
bS'inception'
p1924
tp1925
Rp1926
sg70
g11
(g15
S'\x17\x1bi<H7\xff?'
p1927
tp1928
Rp1929
sg74
g11
(g12
(S'S2'
p1930
I0
I1
tp1931
Rp1932
(I3
S'|'
p1933
NNNI2
I1
I0
tp1934
bS'RF'
p1935
tp1936
Rp1937
sg83
I3
sg105
g1910
sg84
g85
sg86
g11
(g15
S'\nh\xd7z\xba\xce\xe0?'
p1938
tp1939
Rp1940
sg90
g91
sg92
g93
sbag4
(g5
g6
Ntp1941
Rp1942
(dp1943
g10
g11
(g15
S'\x00\x00\x00\x00\x00\x00\xf8\xff'
p1944
tp1945
Rp1946
sg100
g11
(g15
S'\x00\x00\x00\x00\x00@R@'
p1947
tp1948
Rp1949
sg21
g29
sg30
g31
sg32
(dp1950
g100
g1949
sg105
g11
(g15
S'x\x95V\xd5\xa6\x93\xea?'
p1951
tp1952
Rp1953
sg21
g29
ssg51
g11
(g12
(S'S3'
p1954
I0
I1
tp1955
Rp1956
(I3
S'|'
p1957
NNNI3
I1
I0
tp1958
bS'PCA'
p1959
tp1960
Rp1961
sg60
F0.2
sg61
g11
(g12
(S'S3'
p1962
I0
I1
tp1963
Rp1964
(I3
S'|'
p1965
NNNI3
I1
I0
tp1966
bS'VGG'
p1967
tp1968
Rp1969
sg70
g11
(g15
S'\x15\xc9\xc2\xacI4\xea?'
p1970
tp1971
Rp1972
sg74
g11
(g12
(S'S2'
p1973
I0
I1
tp1974
Rp1975
(I3
S'|'
p1976
NNNI2
I1
I0
tp1977
bS'RF'
p1978
tp1979
Rp1980
sg83
I3
sg105
g1953
sg84
g85
sg86
g11
(g15
S'#\x07\nh\xd7z\xe6?'
p1981
tp1982
Rp1983
sg90
g91
sg92
g93
sbag4
(g5
g6
Ntp1984
Rp1985
(dp1986
g10
g11
(g15
S'\x00\x00\x00\x00\x00\x00\xf8\xff'
p1987
tp1988
Rp1989
sg100
g11
(g15
S'\x00\x00\x00\x00\x00\x00D@'
p1990
tp1991
Rp1992
sg21
g29
sg30
g31
sg32
(dp1993
g100
g1992
sg105
g11
(g15
S'x\x81oA\xbc&\xd5?'
p1994
tp1995
Rp1996
sg21
g29
ssg51
g11
(g12
(S'S3'
p1997
I0
I1
tp1998
Rp1999
(I3
S'|'
p2000
NNNI3
I1
I0
tp2001
bS'PCA'
p2002
tp2003
Rp2004
sg60
F0.2
sg61
g11
(g12
(S'S9'
p2005
I0
I1
tp2006
Rp2007
(I3
S'|'
p2008
NNNI9
I1
I0
tp2009
bS'inception'
p2010
tp2011
Rp2012
sg70
g11
(g15
S'$c\xa6\xdeD\x9f\xfa?'
p2013
tp2014
Rp2015
sg74
g11
(g12
(S'S2'
p2016
I0
I1
tp2017
Rp2018
(I3
S'|'
p2019
NNNI2
I1
I0
tp2020
bS'RF'
p2021
tp2022
Rp2023
sg83
I3
sg105
g1996
sg84
g85
sg86
g11
(g15
S'\x00\x9f\xd1\xbe\xdb\x87\xe1?'
p2024
tp2025
Rp2026
sg90
g91
sg92
g93
sbag4
(g5
g6
Ntp2027
Rp2028
(dp2029
g10
g11
(g15
S'\x00\x00\x00\x00\x00\x00\xf8\xff'
p2030
tp2031
Rp2032
sg100
g11
(g15
S'\x00\x00\x00\x00\x00\x00D@'
p2033
tp2034
Rp2035
sg30
g31
sg145
g11
(g41
S'\x03\x00\x00\x00\x00\x00\x00\x00'
p2036
tp2037
Rp2038
sg32
(dp2039
g100
g2035
sg145
g2038
sg38
g11
(g41
S'\x03\x00\x00\x00\x00\x00\x00\x00'
p2040
tp2041
Rp2042
sg156
g11
(g41
S'\x03\x00\x00\x00\x00\x00\x00\x00'
p2043
tp2044
Rp2045
sg105
g11
(g15
S'\xa4\xed\xf5\\\xf9\x91\xde?'
p2046
tp2047
Rp2048
ssg51
g11
(g12
(S'S6'
p2049
I0
I1
tp2050
Rp2051
(I3
S'|'
p2052
NNNI6
I1
I0
tp2053
bS'ISOMAP'
p2054
tp2055
Rp2056
sg60
F0.2
sg156
g2045
sg61
g11
(g12
(S'S8'
p2057
I0
I1
tp2058
Rp2059
(I3
S'|'
p2060
NNNI8
I1
I0
tp2061
bS'haralick'
p2062
tp2063
Rp2064
sg38
g2042
sg70
g11
(g15
S'\xbd\xab9\xc7\xb0\x15\x05@'
p2065
tp2066
Rp2067
sg74
g11
(g12
(S'S2'
p2068
I0
I1
tp2069
Rp2070
(I3
S'|'
p2071
NNNI2
I1
I0
tp2072
bS'RF'
p2073
tp2074
Rp2075
sg83
I3
sg105
g2048
sg84
g85
sg86
g11
(g15
S'$\x80\x91\xc5a6\xe4?'
p2076
tp2077
Rp2078
sg90
g91
sg92
g93
sbag4
(g5
g6
Ntp2079
Rp2080
(dp2081
g10
g11
(g15
S'\x00\x00\x00\x00\x00\x00\xf8\xff'
p2082
tp2083
Rp2084
sg21
g247
sg30
g31
sg32
(dp2085
g21
g247
sg34
g11
(g15
S'\xdba<t:\xa1S@'
p2086
tp2087
Rp2088
sg47
g11
(g15
S'*\xd4\xf1f\t$\x15@'
p2089
tp2090
Rp2091
ssg51
g11
(g12
(S'S3'
p2092
I0
I1
tp2093
Rp2094
(I3
S'|'
p2095
NNNI3
I1
I0
tp2096
bS'PCA'
p2097
tp2098
Rp2099
sg60
F0.2
sg47
g2091
sg61
g11
(g12
(S'S9'
p2100
I0
I1
tp2101
Rp2102
(I3
S'|'
p2103
NNNI9
I1
I0
tp2104
bS'inception'
p2105
tp2106
Rp2107
sg34
g2088
sg70
g11
(g15
S'\x0fI\xa0\xc9\xfdP\xf0?'
p2108
tp2109
Rp2110
sg74
g11
(g12
(S'S3'
p2111
I0
I1
tp2112
Rp2113
(I3
S'|'
p2114
NNNI3
I1
I0
tp2115
bS'SVM'
p2116
tp2117
Rp2118
sg83
I3
sg84
g85
sg86
g11
(g15
S'5 \x8e\x82\nM\xdf?'
p2119
tp2120
Rp2121
sg90
g91
sg92
g93
sbag4
(g5
g6
Ntp2122
Rp2123
(dp2124
g10
g11
(g15
S'\x00\x00\x00\x00\x00\x00\xf8\xff'
p2125
tp2126
Rp2127
sg100
g11
(g15
S'\x00\x00\x00\x00\x00`i@'
p2128
tp2129
Rp2130
sg30
g31
sg145
g11
(g41
S'\x04\x00\x00\x00\x00\x00\x00\x00'
p2131
tp2132
Rp2133
sg32
(dp2134
g100
g2130
sg145
g2133
sg156
g11
(g41
S'\x04\x00\x00\x00\x00\x00\x00\x00'
p2135
tp2136
Rp2137
sg105
g11
(g15
S'd\xe6O\x00\xe8z\xd8?'
p2138
tp2139
Rp2140
ssg51
g11
(g12
(S'S6'
p2141
I0
I1
tp2142
Rp2143
(I3
S'|'
p2144
NNNI6
I1
I0
tp2145
bS'ISOMAP'
p2146
tp2147
Rp2148
sg60
F0.2
sg156
g2137
sg61
g11
(g12
(S'S9'
p2149
I0
I1
tp2150
Rp2151
(I3
S'|'
p2152
NNNI9
I1
I0
tp2153
bS'inception'
p2154
tp2155
Rp2156
sg70
g11
(g15
S'\xc4\x1c\x99,\x9f\xf9\xfe?'
p2157
tp2158
Rp2159
sg74
g11
(g12
(S'S2'
p2160
I0
I1
tp2161
Rp2162
(I3
S'|'
p2163
NNNI2
I1
I0
tp2164
bS'RF'
p2165
tp2166
Rp2167
sg83
I3
sg105
g2140
sg84
g85
sg86
g11
(g15
S'\x88J\xe5\n\xd1x\xdd?'
p2168
tp2169
Rp2170
sg90
g91
sg92
g93
sbag4
(g5
g6
Ntp2171
Rp2172
(dp2173
g10
g11
(g15
S'\x00\x00\x00\x00\x00\x00\xf8\xff'
p2174
tp2175
Rp2176
sg100
g11
(g15
S'\x00\x00\x00\x00\x00@R@'
p2177
tp2178
Rp2179
sg30
g31
sg145
g11
(g41
S'\x07\x00\x00\x00\x00\x00\x00\x00'
p2180
tp2181
Rp2182
sg32
(dp2183
g100
g2179
sg145
g2182
sg38
g11
(g41
S'\x02\x00\x00\x00\x00\x00\x00\x00'
p2184
tp2185
Rp2186
sg156
g11
(g41
S'\x03\x00\x00\x00\x00\x00\x00\x00'
p2187
tp2188
Rp2189
sg105
g11
(g15
S'r\x8cs\xc6]M\xed?'
p2190
tp2191
Rp2192
ssg51
g11
(g12
(S'S6'
p2193
I0
I1
tp2194
Rp2195
(I3
S'|'
p2196
NNNI6
I1
I0
tp2197
bS'ISOMAP'
p2198
tp2199
Rp2200
sg60
F0.2
sg156
g2189
sg61
g11
(g12
(S'S8'
p2201
I0
I1
tp2202
Rp2203
(I3
S'|'
p2204
NNNI8
I1
I0
tp2205
bS'haralick'
p2206
tp2207
Rp2208
sg38
g2186
sg70
g11
(g15
S'\xbf\x8d1|]\xce\xfa?'
p2209
tp2210
Rp2211
sg74
g11
(g12
(S'S2'
p2212
I0
I1
tp2213
Rp2214
(I3
S'|'
p2215
NNNI2
I1
I0
tp2216
bS'RF'
p2217
tp2218
Rp2219
sg83
I3
sg105
g2192
sg84
g85
sg86
g11
(g15
S'Q\x8eDg\xcf\x07\xe5?'
p2220
tp2221
Rp2222
sg90
g91
sg92
g93
sbag4
(g5
g6
Ntp2223
Rp2224
(dp2225
g10
g11
(g15
S'\x00\x00\x00\x00\x00\x00\xf8\xff'
p2226
tp2227
Rp2228
sg145
g11
(g41
S'\x03\x00\x00\x00\x00\x00\x00\x00'
p2229
tp2230
Rp2231
sg30
g31
sg32
(dp2232
g145
g2231
sg34
g11
(g15
S'z\x87\x01\xe0;\xc5@@'
p2233
tp2234
Rp2235
sg156
g11
(g41
S'\x04\x00\x00\x00\x00\x00\x00\x00'
p2236
tp2237
Rp2238
sg47
g11
(g15
S'#&\x02\xd0rp\x0b@'
p2239
tp2240
Rp2241
ssg47
g2241
sg51
g11
(g12
(S'S6'
p2242
I0
I1
tp2243
Rp2244
(I3
S'|'
p2245
NNNI6
I1
I0
tp2246
bS'ISOMAP'
p2247
tp2248
Rp2249
sg60
F0.2
sg156
g2238
sg61
g11
(g12
(S'S3'
p2250
I0
I1
tp2251
Rp2252
(I3
S'|'
p2253
NNNI3
I1
I0
tp2254
bS'VGG'
p2255
tp2256
Rp2257
sg34
g2235
sg70
g11
(g15
S'\x9f\xe3\x90\x03\x93\x1b\xf0?'
p2258
tp2259
Rp2260
sg74
g11
(g12
(S'S3'
p2261
I0
I1
tp2262
Rp2263
(I3
S'|'
p2264
NNNI3
I1
I0
tp2265
bS'SVM'
p2266
tp2267
Rp2268
sg83
I3
sg84
g85
sg86
g11
(g15
S'\xc5\x97f(\xc3\xe8\xde?'
p2269
tp2270
Rp2271
sg90
g91
sg92
g93
sbag4
(g5
g6
Ntp2272
Rp2273
(dp2274
g10
g11
(g15
S'\x00\x00\x00\x00\x00\x00\xf8\xff'
p2275
tp2276
Rp2277
sg145
g11
(g41
S'\x03\x00\x00\x00\x00\x00\x00\x00'
p2278
tp2279
Rp2280
sg30
g31
sg32
(dp2281
g145
g2280
sg34
g11
(g15
S'\x13\x1d\xe9\xb5\x8f\xa8D@'
p2282
tp2283
Rp2284
sg156
g11
(g41
S'\x04\x00\x00\x00\x00\x00\x00\x00'
p2285
tp2286
Rp2287
sg47
g11
(g15
S'\x17\xe6\x95o\xf9\x17\x10@'
p2288
tp2289
Rp2290
ssg47
g2290
sg51
g11
(g12
(S'S6'
p2291
I0
I1
tp2292
Rp2293
(I3
S'|'
p2294
NNNI6
I1
I0
tp2295
bS'ISOMAP'
p2296
tp2297
Rp2298
sg60
F0.2
sg156
g2287
sg61
g11
(g12
(S'S9'
p2299
I0
I1
tp2300
Rp2301
(I3
S'|'
p2302
NNNI9
I1
I0
tp2303
bS'inception'
p2304
tp2305
Rp2306
sg34
g2284
sg70
g11
(g15
S'\xcc9JI\xfeH\xf0?'
p2307
tp2308
Rp2309
sg74
g11
(g12
(S'S3'
p2310
I0
I1
tp2311
Rp2312
(I3
S'|'
p2313
NNNI3
I1
I0
tp2314
bS'SVM'
p2315
tp2316
Rp2317
sg83
I3
sg84
g85
sg86
g11
(g15
S'm\xaeq\xbb\x980\xe0?'
p2318
tp2319
Rp2320
sg90
g91
sg92
g93
sbag4
(g5
g6
Ntp2321
Rp2322
(dp2323
g10
g11
(g15
S'\x00\x00\x00\x00\x00\x00\xf8\xff'
p2324
tp2325
Rp2326
sg100
g11
(g15
S'\x00\x00\x00\x00\x00\x00D@'
p2327
tp2328
Rp2329
sg30
g31
sg145
g11
(g41
S'\x03\x00\x00\x00\x00\x00\x00\x00'
p2330
tp2331
Rp2332
sg32
(dp2333
g100
g2329
sg145
g2332
sg156
g11
(g41
S'\x03\x00\x00\x00\x00\x00\x00\x00'
p2334
tp2335
Rp2336
sg105
g11
(g15
S'\x9aC{\x1f\xbe\xfb\xe6?'
p2337
tp2338
Rp2339
ssg51
g11
(g12
(S'S6'
p2340
I0
I1
tp2341
Rp2342
(I3
S'|'
p2343
NNNI6
I1
I0
tp2344
bS'ISOMAP'
p2345
tp2346
Rp2347
sg60
F0.2
sg156
g2336
sg61
g11
(g12
(S'S3'
p2348
I0
I1
tp2349
Rp2350
(I3
S'|'
p2351
NNNI3
I1
I0
tp2352
bS'VGG'
p2353
tp2354
Rp2355
sg70
g11
(g15
S'\xbe\x94B|r"\x00@'
p2356
tp2357
Rp2358
sg74
g11
(g12
(S'S2'
p2359
I0
I1
tp2360
Rp2361
(I3
S'|'
p2362
NNNI2
I1
I0
tp2363
bS'RF'
p2364
tp2365
Rp2366
sg83
I3
sg105
g2339
sg84
g85
sg86
g11
(g15
S'\xfb(\t\xff50\xe0?'
p2367
tp2368
Rp2369
sg90
g91
sg92
g93
sbag4
(g5
g6
Ntp2370
Rp2371
(dp2372
g10
g11
(g15
S'\x00\x00\x00\x00\x00\x00\xf8\xff'
p2373
tp2374
Rp2375
sg100
g11
(g15
S'\x00\x00\x00\x00\x00\xc0p@'
p2376
tp2377
Rp2378
sg21
g29
sg30
g31
sg32
(dp2379
g100
g2378
sg105
g11
(g15
S'fM\x1b8\x80\x9c\xea?'
p2380
tp2381
Rp2382
sg21
g29
sg38
g11
(g41
S'\x02\x00\x00\x00\x00\x00\x00\x00'
p2383
tp2384
Rp2385
ssg51
g11
(g12
(S'S3'
p2386
I0
I1
tp2387
Rp2388
(I3
S'|'
p2389
NNNI3
I1
I0
tp2390
bS'PCA'
p2391
tp2392
Rp2393
sg60
F0.2
sg61
g11
(g12
(S'S8'
p2394
I0
I1
tp2395
Rp2396
(I3
S'|'
p2397
NNNI8
I1
I0
tp2398
bS'haralick'
p2399
tp2400
Rp2401
sg38
g2385
sg70
g11
(g15
S'yC\xa5\x1b\x0b\xf2\xf2?'
p2402
tp2403
Rp2404
sg74
g11
(g12
(S'S2'
p2405
I0
I1
tp2406
Rp2407
(I3
S'|'
p2408
NNNI2
I1
I0
tp2409
bS'RF'
p2410
tp2411
Rp2412
sg83
I3
sg105
g2382
sg84
g85
sg86
g11
(g15
S'\xff\xef\x19\xed\xbb}\xe4?'
p2413
tp2414
Rp2415
sg90
g91
sg92
g93
sbag4
(g5
g6
Ntp2416
Rp2417
(dp2418
g10
g11
(g15
S'\x00\x00\x00\x00\x00\x00\xf8\xff'
p2419
tp2420
Rp2421
sg100
g11
(g15
S'\x00\x00\x00\x00\x00@e@'
p2422
tp2423
Rp2424
sg21
g29
sg30
g31
sg32
(dp2425
g100
g2424
sg105
g11
(g15
S'2\x08\xd2\xca\xac\x11\xda?'
p2426
tp2427
Rp2428
sg21
g29
sg38
g11
(g41
S'\x02\x00\x00\x00\x00\x00\x00\x00'
p2429
tp2430
Rp2431
ssg51
g11
(g12
(S'S3'
p2432
I0
I1
tp2433
Rp2434
(I3
S'|'
p2435
NNNI3
I1
I0
tp2436
bS'PCA'
p2437
tp2438
Rp2439
sg60
F0.2
sg61
g11
(g12
(S'S8'
p2440
I0
I1
tp2441
Rp2442
(I3
S'|'
p2443
NNNI8
I1
I0
tp2444
bS'haralick'
p2445
tp2446
Rp2447
sg38
g2431
sg70
g11
(g15
S'V\xe7\xce\x07V*\xf4?'
p2448
tp2449
Rp2450
sg74
g11
(g12
(S'S2'
p2451
I0
I1
tp2452
Rp2453
(I3
S'|'
p2454
NNNI2
I1
I0
tp2455
bS'RF'
p2456
tp2457
Rp2458
sg83
I3
sg105
g2428
sg84
g85
sg86
g11
(g15
S'\xaf\xf5t\x9d\xc1\xd8\xe4?'
p2459
tp2460
Rp2461
sg90
g91
sg92
g93
sbag4
(g5
g6
Ntp2462
Rp2463
(dp2464
g10
g11
(g15
S'\x00\x00\x00\x00\x00\x00\xf8\xff'
p2465
tp2466
Rp2467
sg100
g11
(g15
S'\x00\x00\x00\x00\x00\x00 @'
p2468
tp2469
Rp2470
sg21
g247
sg30
g31
sg32
(dp2471
g100
g2470
sg105
g11
(g15
S'\xe1\xd2\x85\x03\x91\x96\xe1?'
p2472
tp2473
Rp2474
sg21
g247
sg38
g11
(g41
S'\x03\x00\x00\x00\x00\x00\x00\x00'
p2475
tp2476
Rp2477
ssg51
g11
(g12
(S'S3'
p2478
I0
I1
tp2479
Rp2480
(I3
S'|'
p2481
NNNI3
I1
I0
tp2482
bS'PCA'
p2483
tp2484
Rp2485
sg60
F0.2
sg61
g11
(g12
(S'S8'
p2486
I0
I1
tp2487
Rp2488
(I3
S'|'
p2489
NNNI8
I1
I0
tp2490
bS'haralick'
p2491
tp2492
Rp2493
sg38
g2477
sg70
g11
(g15
S'\x19\xca\xfe>\xf6\x15\x14@'
p2494
tp2495
Rp2496
sg74
g11
(g12
(S'S2'
p2497
I0
I1
tp2498
Rp2499
(I3
S'|'
p2500
NNNI2
I1
I0
tp2501
bS'RF'
p2502
tp2503
Rp2504
sg83
I3
sg105
g2474
sg84
g85
sg86
g11
(g15
S'\xf8+\xc8\x9c\x1a\x94\xe4?'
p2505
tp2506
Rp2507
sg90
g91
sg92
g93
sbag4
(g5
g6
Ntp2508
Rp2509
(dp2510
g10
g11
(g15
S'\x00\x00\x00\x00\x00\x00\xf8\xff'
p2511
tp2512
Rp2513
sg100
g11
(g15
S'\x00\x00\x00\x00\x00\x00D@'
p2514
tp2515
Rp2516
sg21
g29
sg30
g31
sg32
(dp2517
g100
g2516
sg105
g11
(g15
S'\x1el3\xc2\xaa\x82\xef?'
p2518
tp2519
Rp2520
sg21
g29
ssg51
g11
(g12
(S'S3'
p2521
I0
I1
tp2522
Rp2523
(I3
S'|'
p2524
NNNI3
I1
I0
tp2525
bS'PCA'
p2526
tp2527
Rp2528
sg60
F0.2
sg61
g11
(g12
(S'S3'
p2529
I0
I1
tp2530
Rp2531
(I3
S'|'
p2532
NNNI3
I1
I0
tp2533
bS'VGG'
p2534
tp2535
Rp2536
sg70
g11
(g15
S'\x84\x17\x13\xb7\x08\xc5\xe9?'
p2537
tp2538
Rp2539
sg74
g11
(g12
(S'S2'
p2540
I0
I1
tp2541
Rp2542
(I3
S'|'
p2543
NNNI2
I1
I0
tp2544
bS'RF'
p2545
tp2546
Rp2547
sg83
I3
sg105
g2520
sg84
g85
sg86
g11
(g15
S'ey\x0b\x17\x8fL\xe6?'
p2548
tp2549
Rp2550
sg90
g91
sg92
g93
sbag4
(g5
g6
Ntp2551
Rp2552
(dp2553
g10
g11
(g15
S'\x00\x00\x00\x00\x00\x00\xf8\xff'
p2554
tp2555
Rp2556
sg21
g247
sg30
g31
sg32
(dp2557
g21
g247
sg34
g11
(g15
S'\xbe[U\xa2\xc06X@'
p2558
tp2559
Rp2560
sg38
g11
(g41
S'\x02\x00\x00\x00\x00\x00\x00\x00'
p2561
tp2562
Rp2563
sg47
g11
(g15
S'v<\xfa\x8a\xef\xf7\x04@'
p2564
tp2565
Rp2566
ssg51
g11
(g12
(S'S3'
p2567
I0
I1
tp2568
Rp2569
(I3
S'|'
p2570
NNNI3
I1
I0
tp2571
bS'PCA'
p2572
tp2573
Rp2574
sg60
F0.2
sg47
g2566
sg61
g11
(g12
(S'S8'
p2575
I0
I1
tp2576
Rp2577
(I3
S'|'
p2578
NNNI8
I1
I0
tp2579
bS'haralick'
p2580
tp2581
Rp2582
sg34
g2560
sg38
g2563
sg70
g11
(g15
S'\xddm\xe7`\xa0\xf7\xeb?'
p2583
tp2584
Rp2585
sg74
g11
(g12
(S'S3'
p2586
I0
I1
tp2587
Rp2588
(I3
S'|'
p2589
NNNI3
I1
I0
tp2590
bS'SVM'
p2591
tp2592
Rp2593
sg83
I3
sg84
g85
sg86
g11
(g15
S'\xb5\x1a\xf5.\x87:\xe3?'
p2594
tp2595
Rp2596
sg90
g91
sg92
g93
sbag4
(g5
g6
Ntp2597
Rp2598
(dp2599
g10
g11
(g15
S'\x00\x00\x00\x00\x00\x00\xf8\xff'
p2600
tp2601
Rp2602
sg100
g11
(g15
S'\x00\x00\x00\x00\x00\xc0p@'
p2603
tp2604
Rp2605
sg30
g31
sg145
g11
(g41
S'\x05\x00\x00\x00\x00\x00\x00\x00'
p2606
tp2607
Rp2608
sg32
(dp2609
g100
g2605
sg145
g2608
sg156
g11
(g41
S'\x04\x00\x00\x00\x00\x00\x00\x00'
p2610
tp2611
Rp2612
sg105
g11
(g15
S">\x8f'h5\x8f\xef?"
p2613
tp2614
Rp2615
ssg51
g11
(g12
(S'S6'
p2616
I0
I1
tp2617
Rp2618
(I3
S'|'
p2619
NNNI6
I1
I0
tp2620
bS'ISOMAP'
p2621
tp2622
Rp2623
sg60
F0.2
sg156
g2612
sg61
g11
(g12
(S'S3'
p2624
I0
I1
tp2625
Rp2626
(I3
S'|'
p2627
NNNI3
I1
I0
tp2628
bS'VGG'
p2629
tp2630
Rp2631
sg70
g11
(g15
S':R+\xc4l5\xf1?'
p2632
tp2633
Rp2634
sg74
g11
(g12
(S'S2'
p2635
I0
I1
tp2636
Rp2637
(I3
S'|'
p2638
NNNI2
I1
I0
tp2639
bS'RF'
p2640
tp2641
Rp2642
sg83
I3
sg105
g2615
sg84
g85
sg86
g11
(g15
S'1\xe5\xa9\xa27\xa1\xe0?'
p2643
tp2644
Rp2645
sg90
g91
sg92
g93
sbag4
(g5
g6
Ntp2646
Rp2647
(dp2648
g10
g11
(g15
S'\x00\x00\x00\x00\x00\x00\xf8\xff'
p2649
tp2650
Rp2651
sg100
g11
(g15
S'\x00\x00\x00\x00\x00\x00D@'
p2652
tp2653
Rp2654
sg21
g29
sg30
g31
sg32
(dp2655
g100
g2654
sg105
g11
(g15
S'\x90}@\xe8\x95\xc8\xe2?'
p2656
tp2657
Rp2658
sg21
g29
sg38
g11
(g41
S'\x03\x00\x00\x00\x00\x00\x00\x00'
p2659
tp2660
Rp2661
ssg51
g11
(g12
(S'S3'
p2662
I0
I1
tp2663
Rp2664
(I3
S'|'
p2665
NNNI3
I1
I0
tp2666
bS'PCA'
p2667
tp2668
Rp2669
sg60
F0.2
sg61
g11
(g12
(S'S8'
p2670
I0
I1
tp2671
Rp2672
(I3
S'|'
p2673
NNNI8
I1
I0
tp2674
bS'haralick'
p2675
tp2676
Rp2677
sg38
g2661
sg70
g11
(g15
S'\x9fP\x0c&Z\xda\x00@'
p2678
tp2679
Rp2680
sg74
g11
(g12
(S'S2'
p2681
I0
I1
tp2682
Rp2683
(I3
S'|'
p2684
NNNI2
I1
I0
tp2685
bS'RF'
p2686
tp2687
Rp2688
sg83
I3
sg105
g2658
sg84
g85
sg86
g11
(g15
S'\x00\xc2\\\x82H\xf0\xe4?'
p2689
tp2690
Rp2691
sg90
g91
sg92
g93
sbag4
(g5
g6
Ntp2692
Rp2693
(dp2694
g10
g11
(g15
S'\x00\x00\x00\x00\x00\x00\xf8\xff'
p2695
tp2696
Rp2697
sg145
g11
(g41
S'\x05\x00\x00\x00\x00\x00\x00\x00'
p2698
tp2699
Rp2700
sg30
g31
sg32
(dp2701
g145
g2700
sg34
g11
(g15
S'G\xd5\x06\xb0S\xbeU@'
p2702
tp2703
Rp2704
sg38
g11
(g41
S'\x03\x00\x00\x00\x00\x00\x00\x00'
p2705
tp2706
Rp2707
sg156
g11
(g41
S'\x03\x00\x00\x00\x00\x00\x00\x00'
p2708
tp2709
Rp2710
sg47
g11
(g15
S'K\xc9\x15\xa7\\\xf6\x12@'
p2711
tp2712
Rp2713
ssg47
g2713
sg51
g11
(g12
(S'S6'
p2714
I0
I1
tp2715
Rp2716
(I3
S'|'
p2717
NNNI6
I1
I0
tp2718
bS'ISOMAP'
p2719
tp2720
Rp2721
sg60
F0.2
sg156
g2710
sg61
g11
(g12
(S'S8'
p2722
I0
I1
tp2723
Rp2724
(I3
S'|'
p2725
NNNI8
I1
I0
tp2726
bS'haralick'
p2727
tp2728
Rp2729
sg34
g2704
sg38
g2707
sg70
g11
(g15
S"'\xdcA4j\xf0\xed?"
p2730
tp2731
Rp2732
sg74
g11
(g12
(S'S3'
p2733
I0
I1
tp2734
Rp2735
(I3
S'|'
p2736
NNNI3
I1
I0
tp2737
bS'SVM'
p2738
tp2739
Rp2740
sg83
I3
sg84
g85
sg86
g11
(g15
S'\x03CW\xe9\xf4l\xe2?'
p2741
tp2742
Rp2743
sg90
g91
sg92
g93
sbag4
(g5
g6
Ntp2744
Rp2745
(dp2746
g10
g11
(g15
S'\x00\x00\x00\x00\x00\x00\xf8\xff'
p2747
tp2748
Rp2749
sg21
g247
sg30
g31
sg32
(dp2750
g21
g247
sg34
g11
(g15
S'4o\x00^\x85/U@'
p2751
tp2752
Rp2753
sg38
g11
(g41
S'\x02\x00\x00\x00\x00\x00\x00\x00'
p2754
tp2755
Rp2756
sg47
g11
(g15
S'\xb5\x9f\x19y\x02V\x1d@'
p2757
tp2758
Rp2759
ssg51
g11
(g12
(S'S3'
p2760
I0
I1
tp2761
Rp2762
(I3
S'|'
p2763
NNNI3
I1
I0
tp2764
bS'PCA'
p2765
tp2766
Rp2767
sg60
F0.2
sg47
g2759
sg61
g11
(g12
(S'S8'
p2768
I0
I1
tp2769
Rp2770
(I3
S'|'
p2771
NNNI8
I1
I0
tp2772
bS'haralick'
p2773
tp2774
Rp2775
sg34
g2753
sg38
g2756
sg70
g11
(g15
S'\x01\xbd\xca\xb6\xefv\xec?'
p2776
tp2777
Rp2778
sg74
g11
(g12
(S'S3'
p2779
I0
I1
tp2780
Rp2781
(I3
S'|'
p2782
NNNI3
I1
I0
tp2783
bS'SVM'
p2784
tp2785
Rp2786
sg83
I3
sg84
g85
sg86
g11
(g15
S'\x835K\x8cO\x99\xe2?'
p2787
tp2788
Rp2789
sg90
g91
sg92
g93
sbag4
(g5
g6
Ntp2790
Rp2791
(dp2792
g10
g11
(g15
S'\x00\x00\x00\x00\x00\x00\xf8\xff'
p2793
tp2794
Rp2795
sg21
g247
sg30
g31
sg32
(dp2796
g21
g247
sg34
g11
(g15
S'r\xea4\n\x1e\xd5N@'
p2797
tp2798
Rp2799
sg47
g11
(g15
S'\xf6&T\xe3E8\xe9?'
p2800
tp2801
Rp2802
ssg51
g11
(g12
(S'S3'
p2803
I0
I1
tp2804
Rp2805
(I3
S'|'
p2806
NNNI3
I1
I0
tp2807
bS'PCA'
p2808
tp2809
Rp2810
sg60
F0.2
sg47
g2802
sg61
g11
(g12
(S'S3'
p2811
I0
I1
tp2812
Rp2813
(I3
S'|'
p2814
NNNI3
I1
I0
tp2815
bS'VGG'
p2816
tp2817
Rp2818
sg34
g2799
sg70
g11
(g15
S"\x90\xac%\xed'\xce\xeb?"
p2819
tp2820
Rp2821
sg74
g11
(g12
(S'S3'
p2822
I0
I1
tp2823
Rp2824
(I3
S'|'
p2825
NNNI3
I1
I0
tp2826
bS'SVM'
p2827
tp2828
Rp2829
sg83
I3
sg84
g85
sg86
g11
(g15
S'w\x9a\x02;\xe4\xdf\xe2?'
p2830
tp2831
Rp2832
sg90
g91
sg92
g93
sbag4
(g5
g6
Ntp2833
Rp2834
(dp2835
g10
g11
(g15
S'\x00\x00\x00\x00\x00\x00\xf8\xff'
p2836
tp2837
Rp2838
sg21
g29
sg30
g31
sg32
(dp2839
g21
g29
sg34
g11
(g15
S'.\x86i4\x1ayG@'
p2840
tp2841
Rp2842
sg38
g11
(g41
S'\x03\x00\x00\x00\x00\x00\x00\x00'
p2843
tp2844
Rp2845
sg47
g11
(g15
S'\xc6\xe4\xafnX\x89\x13@'
p2846
tp2847
Rp2848
ssg51
g11
(g12
(S'S3'
p2849
I0
I1
tp2850
Rp2851
(I3
S'|'
p2852
NNNI3
I1
I0
tp2853
bS'PCA'
p2854
tp2855
Rp2856
sg60
F0.2
sg47
g2848
sg61
g11
(g12
(S'S8'
p2857
I0
I1
tp2858
Rp2859
(I3
S'|'
p2860
NNNI8
I1
I0
tp2861
bS'haralick'
p2862
tp2863
Rp2864
sg34
g2842
sg38
g2845
sg70
g11
(g15
S'0\xbe\xa3Pi\xae\xeb?'
p2865
tp2866
Rp2867
sg74
g11
(g12
(S'S3'
p2868
I0
I1
tp2869
Rp2870
(I3
S'|'
p2871
NNNI3
I1
I0
tp2872
bS'SVM'
p2873
tp2874
Rp2875
sg83
I3
sg84
g85
sg86
g11
(g15
S'\xdd\x97\xc7V\x04\r\xe3?'
p2876
tp2877
Rp2878
sg90
g91
sg92
g93
sbag4
(g5
g6
Ntp2879
Rp2880
(dp2881
g10
g11
(g15
S'\x00\x00\x00\x00\x00\x00\xf8\xff'
p2882
tp2883
Rp2884
sg21
g29
sg30
g31
sg32
(dp2885
g21
g29
sg34
g11
(g15
S'\xb6H\xe4\xf5\xd4LM@'
p2886
tp2887
Rp2888
sg47
g11
(g15
S'\x06?^\xa7_\x15\x00@'
p2889
tp2890
Rp2891
ssg51
g11
(g12
(S'S3'
p2892
I0
I1
tp2893
Rp2894
(I3
S'|'
p2895
NNNI3
I1
I0
tp2896
bS'PCA'
p2897
tp2898
Rp2899
sg60
F0.2
sg47
g2891
sg61
g11
(g12
(S'S9'
p2900
I0
I1
tp2901
Rp2902
(I3
S'|'
p2903
NNNI9
I1
I0
tp2904
bS'inception'
p2905
tp2906
Rp2907
sg34
g2888
sg70
g11
(g15
S'}\xf3d\x1c\x16G\xf0?'
p2908
tp2909
Rp2910
sg74
g11
(g12
(S'S3'
p2911
I0
I1
tp2912
Rp2913
(I3
S'|'
p2914
NNNI3
I1
I0
tp2915
bS'SVM'
p2916
tp2917
Rp2918
sg83
I3
sg84
g85
sg86
g11
(g15
S'\xb7E\xf3\xfb\x15d\xde?'
p2919
tp2920
Rp2921
sg90
g91
sg92
g93
sbag4
(g5
g6
Ntp2922
Rp2923
(dp2924
g10
g11
(g15
S'\x00\x00\x00\x00\x00\x00\xf8\xff'
p2925
tp2926
Rp2927
sg100
g11
(g15
S'\x00\x00\x00\x00\x00\xc0r@'
p2928
tp2929
Rp2930
sg30
g31
sg145
g11
(g41
S'\x06\x00\x00\x00\x00\x00\x00\x00'
p2931
tp2932
Rp2933
sg32
(dp2934
g100
g2930
sg145
g2933
sg156
g11
(g41
S'\x04\x00\x00\x00\x00\x00\x00\x00'
p2935
tp2936
Rp2937
sg105
g11
(g15
S'\x015q\xc1(M\xe4?'
p2938
tp2939
Rp2940
ssg51
g11
(g12
(S'S6'
p2941
I0
I1
tp2942
Rp2943
(I3
S'|'
p2944
NNNI6
I1
I0
tp2945
bS'ISOMAP'
p2946
tp2947
Rp2948
sg60
F0.2
sg156
g2937
sg61
g11
(g12
(S'S3'
p2949
I0
I1
tp2950
Rp2951
(I3
S'|'
p2952
NNNI3
I1
I0
tp2953
bS'VGG'
p2954
tp2955
Rp2956
sg70
g11
(g15
S'\x03I9\x19\xc6\xaa\xf1?'
p2957
tp2958
Rp2959
sg74
g11
(g12
(S'S2'
p2960
I0
I1
tp2961
Rp2962
(I3
S'|'
p2963
NNNI2
I1
I0
tp2964
bS'RF'
p2965
tp2966
Rp2967
sg83
I3
sg105
g2940
sg84
g85
sg86
g11
(g15
S"\x88'ZGd\x10\xe2?"
p2968
tp2969
Rp2970
sg90
g91
sg92
g93
sbag4
(g5
g6
Ntp2971
Rp2972
(dp2973
g10
g11
(g15
S'\x00\x00\x00\x00\x00\x00\xf8\xff'
p2974
tp2975
Rp2976
sg21
g247
sg30
g31
sg32
(dp2977
g21
g247
sg34
g11
(g15
S'_\xb4\x80=~\xbc#@'
p2978
tp2979
Rp2980
sg47
g11
(g15
S'\xd9a\xa1\x1a\x9b\x1e\n@'
p2981
tp2982
Rp2983
ssg51
g11
(g12
(S'S3'
p2984
I0
I1
tp2985
Rp2986
(I3
S'|'
p2987
NNNI3
I1
I0
tp2988
bS'PCA'
p2989
tp2990
Rp2991
sg60
F0.2
sg47
g2983
sg61
g11
(g12
(S'S3'
p2992
I0
I1
tp2993
Rp2994
(I3
S'|'
p2995
NNNI3
I1
I0
tp2996
bS'VGG'
p2997
tp2998
Rp2999
sg34
g2980
sg70
g11
(g15
S'\xabq\xd5(\x86\xd7\xef?'
p3000
tp3001
Rp3002
sg74
g11
(g12
(S'S3'
p3003
I0
I1
tp3004
Rp3005
(I3
S'|'
p3006
NNNI3
I1
I0
tp3007
bS'SVM'
p3008
tp3009
Rp3010
sg83
I3
sg84
g85
sg86
g11
(g15
S'\xe5\xcc-\xfb\r\xf1\xdc?'
p3011
tp3012
Rp3013
sg90
g91
sg92
g93
sbag4
(g5
g6
Ntp3014
Rp3015
(dp3016
g10
g11
(g15
S'\x00\x00\x00\x00\x00\x00\xf8\xff'
p3017
tp3018
Rp3019
sg100
g11
(g15
S'\x00\x00\x00\x00\x00`m@'
p3020
tp3021
Rp3022
sg30
g31
sg145
g11
(g41
S'\x07\x00\x00\x00\x00\x00\x00\x00'
p3023
tp3024
Rp3025
sg32
(dp3026
g100
g3022
sg145
g3025
sg38
g11
(g41
S'\x01\x00\x00\x00\x00\x00\x00\x00'
p3027
tp3028
Rp3029
sg156
g11
(g41
S'\x04\x00\x00\x00\x00\x00\x00\x00'
p3030
tp3031
Rp3032
sg105
g11
(g15
S'H\xea\xedK\xc2\xcb\xea?'
p3033
tp3034
Rp3035
ssg51
g11
(g12
(S'S6'
p3036
I0
I1
tp3037
Rp3038
(I3
S'|'
p3039
NNNI6
I1
I0
tp3040
bS'ISOMAP'
p3041
tp3042
Rp3043
sg60
F0.2
sg156
g3032
sg61
g11
(g12
(S'S8'
p3044
I0
I1
tp3045
Rp3046
(I3
S'|'
p3047
NNNI8
I1
I0
tp3048
bS'haralick'
p3049
tp3050
Rp3051
sg38
g3029
sg70
g11
(g15
S'k\xf9\xc2K\xd3B\xf8?'
p3052
tp3053
Rp3054
sg74
g11
(g12
(S'S2'
p3055
I0
I1
tp3056
Rp3057
(I3
S'|'
p3058
NNNI2
I1
I0
tp3059
bS'RF'
p3060
tp3061
Rp3062
sg83
I3
sg105
g3035
sg84
g85
sg86
g11
(g15
S'\xc3Aj\x8e\xa5\x95\xe4?'
p3063
tp3064
Rp3065
sg90
g91
sg92
g93
sbag4
(g5
g6
Ntp3066
Rp3067
(dp3068
g10
g11
(g15
S'\x00\x00\x00\x00\x00\x00\xf8\xff'
p3069
tp3070
Rp3071
sg145
g11
(g41
S'\x05\x00\x00\x00\x00\x00\x00\x00'
p3072
tp3073
Rp3074
sg30
g31
sg32
(dp3075
g145
g3074
sg34
g11
(g15
S'\x1e\xc1r\x81\x87{B@'
p3076
tp3077
Rp3078
sg38
g11
(g41
S'\x01\x00\x00\x00\x00\x00\x00\x00'
p3079
tp3080
Rp3081
sg156
g11
(g41
S'\x02\x00\x00\x00\x00\x00\x00\x00'
p3082
tp3083
Rp3084
sg47
g11
(g15
S'\x19k\xc3\xc9u\xef\xf7?'
p3085
tp3086
Rp3087
ssg47
g3087
sg51
g11
(g12
(S'S6'
p3088
I0
I1
tp3089
Rp3090
(I3
S'|'
p3091
NNNI6
I1
I0
tp3092
bS'ISOMAP'
p3093
tp3094
Rp3095
sg60
F0.2
sg156
g3084
sg61
g11
(g12
(S'S8'
p3096
I0
I1
tp3097
Rp3098
(I3
S'|'
p3099
NNNI8
I1
I0
tp3100
bS'haralick'
p3101
tp3102
Rp3103
sg34
g3078
sg38
g3081
sg70
g11
(g15
S'(R\x81}K\xda\xeb?'
p3104
tp3105
Rp3106
sg74
g11
(g12
(S'S3'
p3107
I0
I1
tp3108
Rp3109
(I3
S'|'
p3110
NNNI3
I1
I0
tp3111
bS'SVM'
p3112
tp3113
Rp3114
sg83
I3
sg84
g85
sg86
g11
(g15
S'h\r\xab.d\xaf\xe3?'
p3115
tp3116
Rp3117
sg90
g91
sg92
g93
sbag4
(g5
g6
Ntp3118
Rp3119
(dp3120
g10
g11
(g15
S'\x00\x00\x00\x00\x00\x00\xf8\xff'
p3121
tp3122
Rp3123
sg145
g11
(g41
S'\x07\x00\x00\x00\x00\x00\x00\x00'
p3124
tp3125
Rp3126
sg30
g31
sg32
(dp3127
g145
g3126
sg34
g11
(g15
S'n\xd2\xd9\xddC\xbc(@'
p3128
tp3129
Rp3130
sg38
g11
(g41
S'\x02\x00\x00\x00\x00\x00\x00\x00'
p3131
tp3132
Rp3133
sg156
g11
(g41
S'\x04\x00\x00\x00\x00\x00\x00\x00'
p3134
tp3135
Rp3136
sg47
g11
(g15
S'O\x8ea\x92\x0bd\xcf?'
p3137
tp3138
Rp3139
ssg47
g3139
sg51
g11
(g12
(S'S6'
p3140
I0
I1
tp3141
Rp3142
(I3
S'|'
p3143
NNNI6
I1
I0
tp3144
bS'ISOMAP'
p3145
tp3146
Rp3147
sg60
F0.2
sg156
g3136
sg61
g11
(g12
(S'S8'
p3148
I0
I1
tp3149
Rp3150
(I3
S'|'
p3151
NNNI8
I1
I0
tp3152
bS'haralick'
p3153
tp3154
Rp3155
sg34
g3130
sg38
g3133
sg70
g11
(g15
S'\x91.\x9dm\xdec\xea?'
p3156
tp3157
Rp3158
sg74
g11
(g12
(S'S3'
p3159
I0
I1
tp3160
Rp3161
(I3
S'|'
p3162
NNNI3
I1
I0
tp3163
bS'SVM'
p3164
tp3165
Rp3166
sg83
I3
sg84
g85
sg86
g11
(g15
S'8kXu!{\xe5?'
p3167
tp3168
Rp3169
sg90
g91
sg92
g93
sbag4
(g5
g6
Ntp3170
Rp3171
(dp3172
g10
g11
(g15
S'\x00\x00\x00\x00\x00\x00\xf8\xff'
p3173
tp3174
Rp3175
sg100
g11
(g15
S'\x00\x00\x00\x00\x00`i@'
p3176
tp3177
Rp3178
sg21
g247
sg30
g31
sg32
(dp3179
g100
g3178
sg105
g11
(g15
S'\x04\x8bON\xfdT\xd7?'
p3180
tp3181
Rp3182
sg21
g247
ssg51
g11
(g12
(S'S3'
p3183
I0
I1
tp3184
Rp3185
(I3
S'|'
p3186
NNNI3
I1
I0
tp3187
bS'PCA'
p3188
tp3189
Rp3190
sg60
F0.2
sg61
g11
(g12
(S'S9'
p3191
I0
I1
tp3192
Rp3193
(I3
S'|'
p3194
NNNI9
I1
I0
tp3195
bS'inception'
p3196
tp3197
Rp3198
sg70
g11
(g15
S'W\x07\xb4|\xa1\xf7\xf3?'
p3199
tp3200
Rp3201
sg74
g11
(g12
(S'S2'
p3202
I0
I1
tp3203
Rp3204
(I3
S'|'
p3205
NNNI2
I1
I0
tp3206
bS'RF'
p3207
tp3208
Rp3209
sg83
I3
sg105
g3182
sg84
g85
sg86
g11
(g15
S'\xa4j\x12_\x9a\xa1\xe0?'
p3210
tp3211
Rp3212
sg90
g91
sg92
g93
sbag4
(g5
g6
Ntp3213
Rp3214
(dp3215
g10
g11
(g15
S'\x00\x00\x00\x00\x00\x00\xf8\xff'
p3216
tp3217
Rp3218
sg21
g29
sg30
g31
sg32
(dp3219
g21
g29
sg34
g11
(g15
S'\xd1\x16~\x95\x12\x18F@'
p3220
tp3221
Rp3222
sg47
g11
(g15
S'\x11\xe4{\xab\x93\x8f\x15@'
p3223
tp3224
Rp3225
ssg51
g11
(g12
(S'S3'
p3226
I0
I1
tp3227
Rp3228
(I3
S'|'
p3229
NNNI3
I1
I0
tp3230
bS'PCA'
p3231
tp3232
Rp3233
sg60
F0.2
sg47
g3225
sg61
g11
(g12
(S'S3'
p3234
I0
I1
tp3235
Rp3236
(I3
S'|'
p3237
NNNI3
I1
I0
tp3238
bS'VGG'
p3239
tp3240
Rp3241
sg34
g3222
sg70
g11
(g15
S"'\xc3\x9b\xb0\xe2\x81\xf0?"
p3242
tp3243
Rp3244
sg74
g11
(g12
(S'S3'
p3245
I0
I1
tp3246
Rp3247
(I3
S'|'
p3248
NNNI3
I1
I0
tp3249
bS'SVM'
p3250
tp3251
Rp3252
sg83
I3
sg84
g85
sg86
g11
(g15
S'P\xbc\x01\xd2B\x95\xdc?'
p3253
tp3254
Rp3255
sg90
g91
sg92
g93
sbag4
(g5
g6
Ntp3256
Rp3257
(dp3258
g10
g11
(g15
S'\x00\x00\x00\x00\x00\x00\xf8\xff'
p3259
tp3260
Rp3261
sg145
g11
(g41
S'\x05\x00\x00\x00\x00\x00\x00\x00'
p3262
tp3263
Rp3264
sg30
g31
sg32
(dp3265
g145
g3264
sg34
g11
(g15
S' `\xad\x13\x7f\xa4P@'
p3266
tp3267
Rp3268
sg156
g11
(g41
S'\x02\x00\x00\x00\x00\x00\x00\x00'
p3269
tp3270
Rp3271
sg47
g11
(g15
S'Sf3\x80\x8f\x95\xfd?'
p3272
tp3273
Rp3274
ssg47
g3274
sg51
g11
(g12
(S'S6'
p3275
I0
I1
tp3276
Rp3277
(I3
S'|'
p3278
NNNI6
I1
I0
tp3279
bS'ISOMAP'
p3280
tp3281
Rp3282
sg60
F0.2
sg156
g3271
sg61
g11
(g12
(S'S3'
p3283
I0
I1
tp3284
Rp3285
(I3
S'|'
p3286
NNNI3
I1
I0
tp3287
bS'VGG'
p3288
tp3289
Rp3290
sg34
g3268
sg70
g11
(g15
S'|1\x00l\xdeE\xee?'
p3291
tp3292
Rp3293
sg74
g11
(g12
(S'S3'
p3294
I0
I1
tp3295
Rp3296
(I3
S'|'
p3297
NNNI3
I1
I0
tp3298
bS'SVM'
p3299
tp3300
Rp3301
sg83
I3
sg84
g85
sg86
g11
(g15
S'\xf76\xfaC!\xb9\xe0?'
p3302
tp3303
Rp3304
sg90
g91
sg92
g93
sbag4
(g5
g6
Ntp3305
Rp3306
(dp3307
g10
g11
(g15
S'\x00\x00\x00\x00\x00\x00\xf8\xff'
p3308
tp3309
Rp3310
sg21
g247
sg30
g31
sg32
(dp3311
g21
g247
sg34
g11
(g15
S'yO\x03\xb1L\x175@'
p3312
tp3313
Rp3314
sg47
g11
(g15
S'\xda\x19:\x9da\x9b\x17@'
p3315
tp3316
Rp3317
ssg51
g11
(g12
(S'S3'
p3318
I0
I1
tp3319
Rp3320
(I3
S'|'
p3321
NNNI3
I1
I0
tp3322
bS'PCA'
p3323
tp3324
Rp3325
sg60
F0.2
sg47
g3317
sg61
g11
(g12
(S'S3'
p3326
I0
I1
tp3327
Rp3328
(I3
S'|'
p3329
NNNI3
I1
I0
tp3330
bS'VGG'
p3331
tp3332
Rp3333
sg34
g3314
sg70
g11
(g15
S'\x8b\x829I\x8d\x9d\xf0?'
p3334
tp3335
Rp3336
sg74
g11
(g12
(S'S3'
p3337
I0
I1
tp3338
Rp3339
(I3
S'|'
p3340
NNNI3
I1
I0
tp3341
bS'SVM'
p3342
tp3343
Rp3344
sg83
I3
sg84
g85
sg86
g11
(g15
S'\rJ\x00#\x8b\xc3\xdc?'
p3345
tp3346
Rp3347
sg90
g91
sg92
g93
sbag4
(g5
g6
Ntp3348
Rp3349
(dp3350
g10
g11
(g15
S'\x00\x00\x00\x00\x00\x00\xf8\xff'
p3351
tp3352
Rp3353
sg100
g11
(g15
S'\x00\x00\x00\x00\x00`i@'
p3354
tp3355
Rp3356
sg30
g31
sg145
g11
(g41
S'\x06\x00\x00\x00\x00\x00\x00\x00'
p3357
tp3358
Rp3359
sg32
(dp3360
g100
g3356
sg145
g3359
sg156
g11
(g41
S'\x03\x00\x00\x00\x00\x00\x00\x00'
p3361
tp3362
Rp3363
sg105
g11
(g15
S'\xcc\x05\x94;\xf1"\xdc?'
p3364
tp3365
Rp3366
ssg51
g11
(g12
(S'S6'
p3367
I0
I1
tp3368
Rp3369
(I3
S'|'
p3370
NNNI6
I1
I0
tp3371
bS'ISOMAP'
p3372
tp3373
Rp3374
sg60
F0.2
sg156
g3363
sg61
g11
(g12
(S'S9'
p3375
I0
I1
tp3376
Rp3377
(I3
S'|'
p3378
NNNI9
I1
I0
tp3379
bS'inception'
p3380
tp3381
Rp3382
sg70
g11
(g15
S'i\xca(\xf3)\x89\xfd?'
p3383
tp3384
Rp3385
sg74
g11
(g12
(S'S2'
p3386
I0
I1
tp3387
Rp3388
(I3
S'|'
p3389
NNNI2
I1
I0
tp3390
bS'RF'
p3391
tp3392
Rp3393
sg83
I3
sg105
g3366
sg84
g85
sg86
g11
(g15
S'\x08\x96\x94\xe5-\\\xe0?'
p3394
tp3395
Rp3396
sg90
g91
sg92
g93
sbag4
(g5
g6
Ntp3397
Rp3398
(dp3399
g10
g11
(g15
S'\x00\x00\x00\x00\x00\x00\xf8\xff'
p3400
tp3401
Rp3402
sg145
g11
(g41
S'\x04\x00\x00\x00\x00\x00\x00\x00'
p3403
tp3404
Rp3405
sg30
g31
sg32
(dp3406
g145
g3405
sg34
g11
(g15
S'\xa7\xb0\x8e\xb4\xb7\xd7T@'
p3407
tp3408
Rp3409
sg156
g11
(g41
S'\x04\x00\x00\x00\x00\x00\x00\x00'
p3410
tp3411
Rp3412
sg47
g11
(g15
S'm\xb5\\\xc7t\x16\xbb?'
p3413
tp3414
Rp3415
ssg47
g3415
sg51
g11
(g12
(S'S6'
p3416
I0
I1
tp3417
Rp3418
(I3
S'|'
p3419
NNNI6
I1
I0
tp3420
bS'ISOMAP'
p3421
tp3422
Rp3423
sg60
F0.2
sg156
g3412
sg61
g11
(g12
(S'S9'
p3424
I0
I1
tp3425
Rp3426
(I3
S'|'
p3427
NNNI9
I1
I0
tp3428
bS'inception'
p3429
tp3430
Rp3431
sg34
g3409
sg70
g11
(g15
S'\xc9\xb7\x8cf\xf6O\xf0?'
p3432
tp3433
Rp3434
sg74
g11
(g12
(S'S3'
p3435
I0
I1
tp3436
Rp3437
(I3
S'|'
p3438
NNNI3
I1
I0
tp3439
bS'SVM'
p3440
tp3441
Rp3442
sg83
I3
sg84
g85
sg86
g11
(g15
S'\x81\xdfN\xf21F\xe0?'
p3443
tp3444
Rp3445
sg90
g91
sg92
g93
sbag283
ag4
(g5
g6
Ntp3446
Rp3447
(dp3448
g10
g11
(g15
S'\x00\x00\x00\x00\x00\x00\xf8\xff'
p3449
tp3450
Rp3451
sg145
g11
(g41
S'\x07\x00\x00\x00\x00\x00\x00\x00'
p3452
tp3453
Rp3454
sg30
g31
sg32
(dp3455
g145
g3454
sg34
g11
(g15
S'\x15\xd7\xa9u\xf3jX@'
p3456
tp3457
Rp3458
sg38
g11
(g41
S'\x02\x00\x00\x00\x00\x00\x00\x00'
p3459
tp3460
Rp3461
sg156
g11
(g41
S'\x03\x00\x00\x00\x00\x00\x00\x00'
p3462
tp3463
Rp3464
sg47
g11
(g15
S'\x04\xab<\x1e\xb9\x80\xfe?'
p3465
tp3466
Rp3467
ssg47
g3467
sg51
g11
(g12
(S'S6'
p3468
I0
I1
tp3469
Rp3470
(I3
S'|'
p3471
NNNI6
I1
I0
tp3472
bS'ISOMAP'
p3473
tp3474
Rp3475
sg60
F0.2
sg156
g3464
sg61
g11
(g12
(S'S8'
p3476
I0
I1
tp3477
Rp3478
(I3
S'|'
p3479
NNNI8
I1
I0
tp3480
bS'haralick'
p3481
tp3482
Rp3483
sg34
g3458
sg38
g3461
sg70
g11
(g15
S'\xe0\x06FV\tu\xed?'
p3484
tp3485
Rp3486
sg74
g11
(g12
(S'S3'
p3487
I0
I1
tp3488
Rp3489
(I3
S'|'
p3490
NNNI3
I1
I0
tp3491
bS'SVM'
p3492
tp3493
Rp3494
sg83
I3
sg84
g85
sg86
g11
(g15
S'\xef\x11z\xb2[W\xe2?'
p3495
tp3496
Rp3497
sg90
g91
sg92
g93
sbag4
(g5
g6
Ntp3498
Rp3499
(dp3500
g10
g11
(g15
S'\x00\x00\x00\x00\x00\x00\xf8\xff'
p3501
tp3502
Rp3503
sg100
g11
(g15
S'\x00\x00\x00\x00\x00@Z@'
p3504
tp3505
Rp3506
sg21
g29
sg30
g31
sg32
(dp3507
g100
g3506
sg105
g11
(g15
S'u\xc6\xab\x8amt\xe9?'
p3508
tp3509
Rp3510
sg21
g29
ssg51
g11
(g12
(S'S3'
p3511
I0
I1
tp3512
Rp3513
(I3
S'|'
p3514
NNNI3
I1
I0
tp3515
bS'PCA'
p3516
tp3517
Rp3518
sg60
F0.2
sg61
g11
(g12
(S'S3'
p3519
I0
I1
tp3520
Rp3521
(I3
S'|'
p3522
NNNI3
I1
I0
tp3523
bS'VGG'
p3524
tp3525
Rp3526
sg70
g11
(g15
S'\xc0\xd2\x9d\xcd\xad+\xe7?'
p3527
tp3528
Rp3529
sg74
g11
(g12
(S'S2'
p3530
I0
I1
tp3531
Rp3532
(I3
S'|'
p3533
NNNI2
I1
I0
tp3534
bS'RF'
p3535
tp3536
Rp3537
sg83
I3
sg105
g3510
sg84
g85
sg86
g11
(g15
S'\xd0h\xdf\xed\xc3\xf0\xe5?'
p3538
tp3539
Rp3540
sg90
g91
sg92
g93
sbag4
(g5
g6
Ntp3541
Rp3542
(dp3543
g10
g11
(g15
S'\x00\x00\x00\x00\x00\x00\xf8\xff'
p3544
tp3545
Rp3546
sg100
g11
(g15
S'\x00\x00\x00\x00\x00`i@'
p3547
tp3548
Rp3549
sg21
g247
sg30
g31
sg32
(dp3550
g100
g3549
sg105
g11
(g15
S'\xe4\x86\xbf\x19\xf2\x18\xec?'
p3551
tp3552
Rp3553
sg21
g247
ssg51
g11
(g12
(S'S3'
p3554
I0
I1
tp3555
Rp3556
(I3
S'|'
p3557
NNNI3
I1
I0
tp3558
bS'PCA'
p3559
tp3560
Rp3561
sg60
F0.2
sg61
g11
(g12
(S'S3'
p3562
I0
I1
tp3563
Rp3564
(I3
S'|'
p3565
NNNI3
I1
I0
tp3566
bS'VGG'
p3567
tp3568
Rp3569
sg70
g11
(g15
S'\x11\tt\x0c8(\xe7?'
p3570
tp3571
Rp3572
sg74
g11
(g12
(S'S2'
p3573
I0
I1
tp3574
Rp3575
(I3
S'|'
p3576
NNNI2
I1
I0
tp3577
bS'RF'
p3578
tp3579
Rp3580
sg83
I3
sg105
g3553
sg84
g85
sg86
g11
(g15
S'm\x0f\xa0\xfc\xbc\xa8\xe6?'
p3581
tp3582
Rp3583
sg90
g91
sg92
g93
sbag4
(g5
g6
Ntp3584
Rp3585
(dp3586
g10
g11
(g15
S'\x00\x00\x00\x00\x00\x00\xf8\xff'
p3587
tp3588
Rp3589
sg145
g11
(g41
S'\x03\x00\x00\x00\x00\x00\x00\x00'
p3590
tp3591
Rp3592
sg30
g31
sg32
(dp3593
g145
g3592
sg34
g11
(g15
S"'8\x8d\xdfI\x9cH@"
p3594
tp3595
Rp3596
sg156
g11
(g41
S'\x02\x00\x00\x00\x00\x00\x00\x00'
p3597
tp3598
Rp3599
sg47
g11
(g15
S'z]h\xc8\xd4)\x03@'
p3600
tp3601
Rp3602
ssg47
g3602
sg51
g11
(g12
(S'S6'
p3603
I0
I1
tp3604
Rp3605
(I3
S'|'
p3606
NNNI6
I1
I0
tp3607
bS'ISOMAP'
p3608
tp3609
Rp3610
sg60
F0.2
sg156
g3599
sg61
g11
(g12
(S'S9'
p3611
I0
I1
tp3612
Rp3613
(I3
S'|'
p3614
NNNI9
I1
I0
tp3615
bS'inception'
p3616
tp3617
Rp3618
sg34
g3596
sg70
g11
(g15
S'Er\x8f6\x10[\xf0?'
p3619
tp3620
Rp3621
sg74
g11
(g12
(S'S3'
p3622
I0
I1
tp3623
Rp3624
(I3
S'|'
p3625
NNNI3
I1
I0
tp3626
bS'SVM'
p3627
tp3628
Rp3629
sg83
I3
sg84
g85
sg86
g11
(g15
S'Yb|\xca\xb4s\xe0?'
p3630
tp3631
Rp3632
sg90
g91
sg92
g93
sbag4
(g5
g6
Ntp3633
Rp3634
(dp3635
g10
g11
(g15
S'\x00\x00\x00\x00\x00\x00\xf8\xff'
p3636
tp3637
Rp3638
sg100
g11
(g15
S'\x00\x00\x00\x00\x00\x00D@'
p3639
tp3640
Rp3641
sg21
g29
sg30
g31
sg32
(dp3642
g100
g3641
sg105
g11
(g15
S'\xa4y\x99\xd1z\xd0\xd6?'
p3643
tp3644
Rp3645
sg21
g29
ssg51
g11
(g12
(S'S3'
p3646
I0
I1
tp3647
Rp3648
(I3
S'|'
p3649
NNNI3
I1
I0
tp3650
bS'PCA'
p3651
tp3652
Rp3653
sg60
F0.2
sg61
g11
(g12
(S'S3'
p3654
I0
I1
tp3655
Rp3656
(I3
S'|'
p3657
NNNI3
I1
I0
tp3658
bS'VGG'
p3659
tp3660
Rp3661
sg70
g11
(g15
S'\xac\xcf\xe0Ok\x8a\xe9?'
p3662
tp3663
Rp3664
sg74
g11
(g12
(S'S2'
p3665
I0
I1
tp3666
Rp3667
(I3
S'|'
p3668
NNNI2
I1
I0
tp3669
bS'RF'
p3670
tp3671
Rp3672
sg83
I3
sg105
g3645
sg84
g85
sg86
g11
(g15
S'78\xe7\x9ep\x90\xe6?'
p3673
tp3674
Rp3675
sg90
g91
sg92
g93
sbag4
(g5
g6
Ntp3676
Rp3677
(dp3678
g10
g11
(g15
S'\x00\x00\x00\x00\x00\x00\xf8\xff'
p3679
tp3680
Rp3681
sg100
g11
(g15
S'\x00\x00\x00\x00\x00@R@'
p3682
tp3683
Rp3684
sg21
g29
sg30
g31
sg32
(dp3685
g100
g3684
sg105
g11
(g15
S'\xa89\x1b\x0f[\xda\xe1?'
p3686
tp3687
Rp3688
sg21
g29
sg38
g11
(g41
S'\x01\x00\x00\x00\x00\x00\x00\x00'
p3689
tp3690
Rp3691
ssg51
g11
(g12
(S'S3'
p3692
I0
I1
tp3693
Rp3694
(I3
S'|'
p3695
NNNI3
I1
I0
tp3696
bS'PCA'
p3697
tp3698
Rp3699
sg60
F0.2
sg61
g11
(g12
(S'S8'
p3700
I0
I1
tp3701
Rp3702
(I3
S'|'
p3703
NNNI8
I1
I0
tp3704
bS'haralick'
p3705
tp3706
Rp3707
sg38
g3691
sg70
g11
(g15
S'\x1f\x7f\xcaW\x0f\xb5\x12@'
p3708
tp3709
Rp3710
sg74
g11
(g12
(S'S2'
p3711
I0
I1
tp3712
Rp3713
(I3
S'|'
p3714
NNNI2
I1
I0
tp3715
bS'RF'
p3716
tp3717
Rp3718
sg83
I3
sg105
g3688
sg84
g85
sg86
g11
(g15
S'\x01\xd2B\x95\x8cr\xe0?'
p3719
tp3720
Rp3721
sg90
g91
sg92
g93
sbag4
(g5
g6
Ntp3722
Rp3723
(dp3724
g10
g11
(g15
S'\x00\x00\x00\x00\x00\x00\xf8\xff'
p3725
tp3726
Rp3727
sg145
g11
(g41
S'\x05\x00\x00\x00\x00\x00\x00\x00'
p3728
tp3729
Rp3730
sg30
g31
sg32
(dp3731
g145
g3730
sg34
g11
(g15
S'\x97\x0b\xc5\x84Y\x07T@'
p3732
tp3733
Rp3734
sg156
g11
(g41
S'\x04\x00\x00\x00\x00\x00\x00\x00'
p3735
tp3736
Rp3737
sg47
g11
(g15
S'\xd7!\x9cu\xfcQ\x1c@'
p3738
tp3739
Rp3740
ssg47
g3740
sg51
g11
(g12
(S'S6'
p3741
I0
I1
tp3742
Rp3743
(I3
S'|'
p3744
NNNI6
I1
I0
tp3745
bS'ISOMAP'
p3746
tp3747
Rp3748
sg60
F0.2
sg156
g3737
sg61
g11
(g12
(S'S3'
p3749
I0
I1
tp3750
Rp3751
(I3
S'|'
p3752
NNNI3
I1
I0
tp3753
bS'VGG'
p3754
tp3755
Rp3756
sg34
g3734
sg70
g11
(g15
S'\xb5\xee\xa7cf-\xf0?'
p3757
tp3758
Rp3759
sg74
g11
(g12
(S'S3'
p3760
I0
I1
tp3761
Rp3762
(I3
S'|'
p3763
NNNI3
I1
I0
tp3764
bS'SVM'
p3765
tp3766
Rp3767
sg83
I3
sg84
g85
sg86
g11
(g15
S'\x85\xff\x1a\x18\xbaJ\xdf?'
p3768
tp3769
Rp3770
sg90
g91
sg92
g93
sbag4
(g5
g6
Ntp3771
Rp3772
(dp3773
g10
g11
(g15
S'\x00\x00\x00\x00\x00\x00\xf8\xff'
p3774
tp3775
Rp3776
sg100
g11
(g15
S'\x00\x00\x00\x00\x00@e@'
p3777
tp3778
Rp3779
sg21
g247
sg30
g31
sg32
(dp3780
g100
g3779
sg105
g11
(g15
S'X\xa9!\xf82\xdc\xe2?'
p3781
tp3782
Rp3783
sg21
g247
ssg51
g11
(g12
(S'S3'
p3784
I0
I1
tp3785
Rp3786
(I3
S'|'
p3787
NNNI3
I1
I0
tp3788
bS'PCA'
p3789
tp3790
Rp3791
sg60
F0.2
sg61
g11
(g12
(S'S3'
p3792
I0
I1
tp3793
Rp3794
(I3
S'|'
p3795
NNNI3
I1
I0
tp3796
bS'VGG'
p3797
tp3798
Rp3799
sg70
g11
(g15
S'C\xb4\x98\xe4\x9e\xeb\xe6?'
p3800
tp3801
Rp3802
sg74
g11
(g12
(S'S2'
p3803
I0
I1
tp3804
Rp3805
(I3
S'|'
p3806
NNNI2
I1
I0
tp3807
bS'RF'
p3808
tp3809
Rp3810
sg83
I3
sg105
g3783
sg84
g85
sg86
g11
(g15
S'\x8f\xc8 \xd4\x98\x91\xe6?'
p3811
tp3812
Rp3813
sg90
g91
sg92
g93
sbag4
(g5
g6
Ntp3814
Rp3815
(dp3816
g10
g11
(g15
S'\x00\x00\x00\x00\x00\x00\xf8\xff'
p3817
tp3818
Rp3819
sg100
g11
(g15
S'\x00\x00\x00\x00\x00@R@'
p3820
tp3821
Rp3822
sg30
g31
sg145
g11
(g41
S'\x05\x00\x00\x00\x00\x00\x00\x00'
p3823
tp3824
Rp3825
sg32
(dp3826
g100
g3822
sg145
g3825
sg38
g11
(g41
S'\x03\x00\x00\x00\x00\x00\x00\x00'
p3827
tp3828
Rp3829
sg156
g11
(g41
S'\x03\x00\x00\x00\x00\x00\x00\x00'
p3830
tp3831
Rp3832
sg105
g11
(g15
S'\x08o\xfar2\xcf\xea?'
p3833
tp3834
Rp3835
ssg51
g11
(g12
(S'S6'
p3836
I0
I1
tp3837
Rp3838
(I3
S'|'
p3839
NNNI6
I1
I0
tp3840
bS'ISOMAP'
p3841
tp3842
Rp3843
sg60
F0.2
sg156
g3832
sg61
g11
(g12
(S'S8'
p3844
I0
I1
tp3845
Rp3846
(I3
S'|'
p3847
NNNI8
I1
I0
tp3848
bS'haralick'
p3849
tp3850
Rp3851
sg38
g3829
sg70
g11
(g15
S'\x05\xabh\x1a\x10\x15\x00@'
p3852
tp3853
Rp3854
sg74
g11
(g12
(S'S2'
p3855
I0
I1
tp3856
Rp3857
(I3
S'|'
p3858
NNNI2
I1
I0
tp3859
bS'RF'
p3860
tp3861
Rp3862
sg83
I3
sg105
g3835
sg84
g85
sg86
g11
(g15
S'\xb5\xb9\xc6\xedb\xc2\xe4?'
p3863
tp3864
Rp3865
sg90
g91
sg92
g93
sbag4
(g5
g6
Ntp3866
Rp3867
(dp3868
g10
g11
(g15
S'\x00\x00\x00\x00\x00\x00\xf8\xff'
p3869
tp3870
Rp3871
sg100
g11
(g15
S'\x00\x00\x00\x00\x00@R@'
p3872
tp3873
Rp3874
sg30
g31
sg145
g11
(g41
S'\x04\x00\x00\x00\x00\x00\x00\x00'
p3875
tp3876
Rp3877
sg32
(dp3878
g100
g3874
sg145
g3877
sg156
g11
(g41
S'\x04\x00\x00\x00\x00\x00\x00\x00'
p3879
tp3880
Rp3881
sg105
g11
(g15
S'\xed\xe7\x9e\xa7\x8bQ\xdb?'
p3882
tp3883
Rp3884
ssg51
g11
(g12
(S'S6'
p3885
I0
I1
tp3886
Rp3887
(I3
S'|'
p3888
NNNI6
I1
I0
tp3889
bS'ISOMAP'
p3890
tp3891
Rp3892
sg60
F0.2
sg156
g3881
sg61
g11
(g12
(S'S9'
p3893
I0
I1
tp3894
Rp3895
(I3
S'|'
p3896
NNNI9
I1
I0
tp3897
bS'inception'
p3898
tp3899
Rp3900
sg70
g11
(g15
S'\x94Ah\xff\xaci\x02@'
p3901
tp3902
Rp3903
sg74
g11
(g12
(S'S2'
p3904
I0
I1
tp3905
Rp3906
(I3
S'|'
p3907
NNNI2
I1
I0
tp3908
bS'RF'
p3909
tp3910
Rp3911
sg83
I3
sg105
g3884
sg84
g85
sg86
g11
(g15
S'`\xcd\x12\xe3S\xa6\xdd?'
p3912
tp3913
Rp3914
sg90
g91
sg92
g93
sbag4
(g5
g6
Ntp3915
Rp3916
(dp3917
g10
g11
(g15
S'\x00\x00\x00\x00\x00\x00\xf8\xff'
p3918
tp3919
Rp3920
sg145
g11
(g41
S'\x05\x00\x00\x00\x00\x00\x00\x00'
p3921
tp3922
Rp3923
sg30
g31
sg32
(dp3924
g145
g3923
sg34
g11
(g15
S'\x10\xd7\x0c\xed\xa9sD@'
p3925
tp3926
Rp3927
sg156
g11
(g41
S'\x03\x00\x00\x00\x00\x00\x00\x00'
p3928
tp3929
Rp3930
sg47
g11
(g15
S'\xd23\x99\xd6\x85,\x03@'
p3931
tp3932
Rp3933
ssg47
g3933
sg51
g11
(g12
(S'S6'
p3934
I0
I1
tp3935
Rp3936
(I3
S'|'
p3937
NNNI6
I1
I0
tp3938
bS'ISOMAP'
p3939
tp3940
Rp3941
sg60
F0.2
sg156
g3930
sg61
g11
(g12
(S'S9'
p3942
I0
I1
tp3943
Rp3944
(I3
S'|'
p3945
NNNI9
I1
I0
tp3946
bS'inception'
p3947
tp3948
Rp3949
sg34
g3927
sg70
g11
(g15
S'\xcf\xb8\xd61\xbc\x8a\xf0?'
p3950
tp3951
Rp3952
sg74
g11
(g12
(S'S3'
p3953
I0
I1
tp3954
Rp3955
(I3
S'|'
p3956
NNNI3
I1
I0
tp3957
bS'SVM'
p3958
tp3959
Rp3960
sg83
I3
sg84
g85
sg86
g11
(g15
S'\xa8\xd8g\x15\x1e8\xde?'
p3961
tp3962
Rp3963
sg90
g91
sg92
g93
sbag4
(g5
g6
Ntp3964
Rp3965
(dp3966
g10
g11
(g15
S'\x00\x00\x00\x00\x00\x00\xf8\xff'
p3967
tp3968
Rp3969
sg100
g11
(g15
S'\x00\x00\x00\x00\x00@a@'
p3970
tp3971
Rp3972
sg30
g31
sg145
g11
(g41
S'\x07\x00\x00\x00\x00\x00\x00\x00'
p3973
tp3974
Rp3975
sg32
(dp3976
g100
g3972
sg145
g3975
sg156
g11
(g41
S'\x02\x00\x00\x00\x00\x00\x00\x00'
p3977
tp3978
Rp3979
sg105
g11
(g15
S'\xac\x12{\xb3\x99\xe1\xea?'
p3980
tp3981
Rp3982
ssg51
g11
(g12
(S'S6'
p3983
I0
I1
tp3984
Rp3985
(I3
S'|'
p3986
NNNI6
I1
I0
tp3987
bS'ISOMAP'
p3988
tp3989
Rp3990
sg60
F0.2
sg156
g3979
sg61
g11
(g12
(S'S9'
p3991
I0
I1
tp3992
Rp3993
(I3
S'|'
p3994
NNNI9
I1
I0
tp3995
bS'inception'
p3996
tp3997
Rp3998
sg70
g11
(g15
S'\xc9\xe2\xceb\xd6B\x00@'
p3999
tp4000
Rp4001
sg74
g11
(g12
(S'S2'
p4002
I0
I1
tp4003
Rp4004
(I3
S'|'
p4005
NNNI2
I1
I0
tp4006
bS'RF'
p4007
tp4008
Rp4009
sg83
I3
sg105
g3982
sg84
g85
sg86
g11
(g15
S'\xa3\x98\xcf\xc9\r/\xe0?'
p4010
tp4011
Rp4012
sg90
g91
sg92
g93
sbag4
(g5
g6
Ntp4013
Rp4014
(dp4015
g10
g11
(g15
S'\x00\x00\x00\x00\x00\x00\xf8\xff'
p4016
tp4017
Rp4018
sg145
g11
(g41
S'\x03\x00\x00\x00\x00\x00\x00\x00'
p4019
tp4020
Rp4021
sg30
g31
sg32
(dp4022
g145
g4021
sg34
g11
(g15
S'm\r\x1b\xa8\x01hG@'
p4023
tp4024
Rp4025
sg38
g11
(g41
S'\x03\x00\x00\x00\x00\x00\x00\x00'
p4026
tp4027
Rp4028
sg156
g11
(g41
S'\x02\x00\x00\x00\x00\x00\x00\x00'
p4029
tp4030
Rp4031
sg47
g11
(g15
S'\xdf\xb7\x8eLQ4\x13@'
p4032
tp4033
Rp4034
ssg47
g4034
sg51
g11
(g12
(S'S6'
p4035
I0
I1
tp4036
Rp4037
(I3
S'|'
p4038
NNNI6
I1
I0
tp4039
bS'ISOMAP'
p4040
tp4041
Rp4042
sg60
F0.2
sg156
g4031
sg61
g11
(g12
(S'S8'
p4043
I0
I1
tp4044
Rp4045
(I3
S'|'
p4046
NNNI8
I1
I0
tp4047
bS'haralick'
p4048
tp4049
Rp4050
sg34
g4025
sg38
g4028
sg70
g11
(g15
S'\xdb$uo\x83\x17\xeb?'
p4051
tp4052
Rp4053
sg74
g11
(g12
(S'S3'
p4054
I0
I1
tp4055
Rp4056
(I3
S'|'
p4057
NNNI3
I1
I0
tp4058
bS'SVM'
p4059
tp4060
Rp4061
sg83
I3
sg84
g85
sg86
g11
(g15
S'+D\xe3\x15\x03 \xe4?'
p4062
tp4063
Rp4064
sg90
g91
sg92
g93
sbag4
(g5
g6
Ntp4065
Rp4066
(dp4067
g10
g11
(g15
S'\x00\x00\x00\x00\x00\x00\xf8\xff'
p4068
tp4069
Rp4070
sg145
g11
(g41
S'\x05\x00\x00\x00\x00\x00\x00\x00'
p4071
tp4072
Rp4073
sg30
g31
sg32
(dp4074
g145
g4073
sg34
g11
(g15
S'\x89\x88\x14\x88\xee\x96?@'
p4075
tp4076
Rp4077
sg156
g11
(g41
S'\x04\x00\x00\x00\x00\x00\x00\x00'
p4078
tp4079
Rp4080
sg47
g11
(g15
S'\xe5\xea\xfd\x96\xc3\xbc\xd5?'
p4081
tp4082
Rp4083
ssg47
g4083
sg51
g11
(g12
(S'S6'
p4084
I0
I1
tp4085
Rp4086
(I3
S'|'
p4087
NNNI6
I1
I0
tp4088
bS'ISOMAP'
p4089
tp4090
Rp4091
sg60
F0.2
sg156
g4080
sg61
g11
(g12
(S'S9'
p4092
I0
I1
tp4093
Rp4094
(I3
S'|'
p4095
NNNI9
I1
I0
tp4096
bS'inception'
p4097
tp4098
Rp4099
sg34
g4077
sg70
g11
(g15
S'\x03\x83\xba\n\x02\x87\xf0?'
p4100
tp4101
Rp4102
sg74
g11
(g12
(S'S3'
p4103
I0
I1
tp4104
Rp4105
(I3
S'|'
p4106
NNNI3
I1
I0
tp4107
bS'SVM'
p4108
tp4109
Rp4110
sg83
I3
sg84
g85
sg86
g11
(g15
S'\x19+_\xfb\xcfM\xdf?'
p4111
tp4112
Rp4113
sg90
g91
sg92
g93
sbag4
(g5
g6
Ntp4114
Rp4115
(dp4116
g10
g11
(g15
S'\x00\x00\x00\x00\x00\x00\xf8\xff'
p4117
tp4118
Rp4119
sg100
g11
(g15
S'\x00\x00\x00\x00\x00@a@'
p4120
tp4121
Rp4122
sg21
g29
sg30
g31
sg32
(dp4123
g100
g4122
sg105
g11
(g15
S'\x8a6R\xa4\xfcW\xdd?'
p4124
tp4125
Rp4126
sg21
g29
sg38
g11
(g41
S'\x03\x00\x00\x00\x00\x00\x00\x00'
p4127
tp4128
Rp4129
ssg51
g11
(g12
(S'S3'
p4130
I0
I1
tp4131
Rp4132
(I3
S'|'
p4133
NNNI3
I1
I0
tp4134
bS'PCA'
p4135
tp4136
Rp4137
sg60
F0.2
sg61
g11
(g12
(S'S8'
p4138
I0
I1
tp4139
Rp4140
(I3
S'|'
p4141
NNNI8
I1
I0
tp4142
bS'haralick'
p4143
tp4144
Rp4145
sg38
g4129
sg70
g11
(g15
S'\xad\xc7l\x1fl\xe4\xf6?'
p4146
tp4147
Rp4148
sg74
g11
(g12
(S'S2'
p4149
I0
I1
tp4150
Rp4151
(I3
S'|'
p4152
NNNI2
I1
I0
tp4153
bS'RF'
p4154
tp4155
Rp4156
sg83
I3
sg105
g4126
sg84
g85
sg86
g11
(g15
S'S`\x87\xfc[z\xe5?'
p4157
tp4158
Rp4159
sg90
g91
sg92
g93
sbag4
(g5
g6
Ntp4160
Rp4161
(dp4162
g10
g11
(g15
S'\x00\x00\x00\x00\x00\x00\xf8\xff'
p4163
tp4164
Rp4165
sg100
g11
(g15
S'\x00\x00\x00\x00\x00@R@'
p4166
tp4167
Rp4168
sg30
g31
sg145
g11
(g41
S'\x05\x00\x00\x00\x00\x00\x00\x00'
p4169
tp4170
Rp4171
sg32
(dp4172
g100
g4168
sg145
g4171
sg156
g11
(g41
S'\x04\x00\x00\x00\x00\x00\x00\x00'
p4173
tp4174
Rp4175
sg105
g11
(g15
S'8\x7f\xe8\x8a\x1dT\xd3?'
p4176
tp4177
Rp4178
ssg51
g11
(g12
(S'S6'
p4179
I0
I1
tp4180
Rp4181
(I3
S'|'
p4182
NNNI6
I1
I0
tp4183
bS'ISOMAP'
p4184
tp4185
Rp4186
sg60
F0.2
sg156
g4175
sg61
g11
(g12
(S'S9'
p4187
I0
I1
tp4188
Rp4189
(I3
S'|'
p4190
NNNI9
I1
I0
tp4191
bS'inception'
p4192
tp4193
Rp4194
sg70
g11
(g15
S'\x99e\x04\x98y\xd7\x03@'
p4195
tp4196
Rp4197
sg74
g11
(g12
(S'S2'
p4198
I0
I1
tp4199
Rp4200
(I3
S'|'
p4201
NNNI2
I1
I0
tp4202
bS'RF'
p4203
tp4204
Rp4205
sg83
I3
sg105
g4178
sg84
g85
sg86
g11
(g15
S'S`\x87\xfc[z\xdd?'
p4206
tp4207
Rp4208
sg90
g91
sg92
g93
sbag4
(g5
g6
Ntp4209
Rp4210
(dp4211
g10
g11
(g15
S'\x00\x00\x00\x00\x00\x00\xf8\xff'
p4212
tp4213
Rp4214
sg100
g11
(g15
S'\x00\x00\x00\x00\x00@Z@'
p4215
tp4216
Rp4217
sg21
g247
sg30
g31
sg32
(dp4218
g100
g4217
sg105
g11
(g15
S'\xe0$\xde\x8a\xe1T\xdf?'
p4219
tp4220
Rp4221
sg21
g247
ssg51
g11
(g12
(S'S3'
p4222
I0
I1
tp4223
Rp4224
(I3
S'|'
p4225
NNNI3
I1
I0
tp4226
bS'PCA'
p4227
tp4228
Rp4229
sg60
F0.2
sg61
g11
(g12
(S'S9'
p4230
I0
I1
tp4231
Rp4232
(I3
S'|'
p4233
NNNI9
I1
I0
tp4234
bS'inception'
p4235
tp4236
Rp4237
sg70
g11
(g15
S'\xc8\xf1\xd1\xb8\xe5\xc7\xf6?'
p4238
tp4239
Rp4240
sg74
g11
(g12
(S'S2'
p4241
I0
I1
tp4242
Rp4243
(I3
S'|'
p4244
NNNI2
I1
I0
tp4245
bS'RF'
p4246
tp4247
Rp4248
sg83
I3
sg105
g4221
sg84
g85
sg86
g11
(g15
S'\x97\xe2n\xbeW\xce\xe0?'
p4249
tp4250
Rp4251
sg90
g91
sg92
g93
sbag4
(g5
g6
Ntp4252
Rp4253
(dp4254
g10
g11
(g15
S'\x00\x00\x00\x00\x00\x00\xf8\xff'
p4255
tp4256
Rp4257
sg100
g11
(g15
S'\x00\x00\x00\x00\x00`i@'
p4258
tp4259
Rp4260
sg21
g247
sg30
g31
sg32
(dp4261
g100
g4260
sg105
g11
(g15
S'\x9c\xed\xd5b\xf7y\xe6?'
p4262
tp4263
Rp4264
sg21
g247
ssg51
g11
(g12
(S'S3'
p4265
I0
I1
tp4266
Rp4267
(I3
S'|'
p4268
NNNI3
I1
I0
tp4269
bS'PCA'
p4270
tp4271
Rp4272
sg60
F0.2
sg61
g11
(g12
(S'S9'
p4273
I0
I1
tp4274
Rp4275
(I3
S'|'
p4276
NNNI9
I1
I0
tp4277
bS'inception'
p4278
tp4279
Rp4280
sg70
g11
(g15
S'\xdcK\xbcTo?\xf7?'
p4281
tp4282
Rp4283
sg74
g11
(g12
(S'S2'
p4284
I0
I1
tp4285
Rp4286
(I3
S'|'
p4287
NNNI2
I1
I0
tp4288
bS'RF'
p4289
tp4290
Rp4291
sg83
I3
sg105
g4264
sg84
g85
sg86
g11
(g15
S'\x9d\xa6\xc0\x0e\xf9\xb7\xe0?'
p4292
tp4293
Rp4294
sg90
g91
sg92
g93
sbag4
(g5
g6
Ntp4295
Rp4296
(dp4297
g10
g11
(g15
S'\x00\x00\x00\x00\x00\x00\xf8\xff'
p4298
tp4299
Rp4300
sg21
g29
sg30
g31
sg32
(dp4301
g21
g29
sg34
g11
(g15
S'\xfa)\xe3\xdd\xc8\x91=@'
p4302
tp4303
Rp4304
sg47
g11
(g15
S'\x15a\xf5\xa4\xacn\x1c@'
p4305
tp4306
Rp4307
ssg51
g11
(g12
(S'S3'
p4308
I0
I1
tp4309
Rp4310
(I3
S'|'
p4311
NNNI3
I1
I0
tp4312
bS'PCA'
p4313
tp4314
Rp4315
sg60
F0.2
sg47
g4307
sg61
g11
(g12
(S'S9'
p4316
I0
I1
tp4317
Rp4318
(I3
S'|'
p4319
NNNI9
I1
I0
tp4320
bS'inception'
p4321
tp4322
Rp4323
sg34
g4304
sg70
g11
(g15
S'\xc3\xf7\xb4\xfd\xb7T\xf0?'
p4324
tp4325
Rp4326
sg74
g11
(g12
(S'S3'
p4327
I0
I1
tp4328
Rp4329
(I3
S'|'
p4330
NNNI3
I1
I0
tp4331
bS'SVM'
p4332
tp4333
Rp4334
sg83
I3
sg84
g85
sg86
g11
(g15
S'4 \x8e\x82\nM\xdf?'
p4335
tp4336
Rp4337
sg90
g91
sg92
g93
sbag4
(g5
g6
Ntp4338
Rp4339
(dp4340
g10
g11
(g15
S'\x00\x00\x00\x00\x00\x00\xf8\xff'
p4341
tp4342
Rp4343
sg21
g29
sg30
g31
sg32
(dp4344
g21
g29
sg34
g11
(g15
S'\xbcM\xff$\x9d\xe4K@'
p4345
tp4346
Rp4347
sg38
g11
(g41
S'\x02\x00\x00\x00\x00\x00\x00\x00'
p4348
tp4349
Rp4350
sg47
g11
(g15
S'=\x7f\n:\xf0)\x12@'
p4351
tp4352
Rp4353
ssg51
g11
(g12
(S'S3'
p4354
I0
I1
tp4355
Rp4356
(I3
S'|'
p4357
NNNI3
I1
I0
tp4358
bS'PCA'
p4359
tp4360
Rp4361
sg60
F0.2
sg47
g4353
sg61
g11
(g12
(S'S8'
p4362
I0
I1
tp4363
Rp4364
(I3
S'|'
p4365
NNNI8
I1
I0
tp4366
bS'haralick'
p4367
tp4368
Rp4369
sg34
g4347
sg38
g4350
sg70
g11
(g15
S'\x85^\xca\x94\xa3\xa8\xeb?'
p4370
tp4371
Rp4372
sg74
g11
(g12
(S'S3'
p4373
I0
I1
tp4374
Rp4375
(I3
S'|'
p4376
NNNI3
I1
I0
tp4377
bS'SVM'
p4378
tp4379
Rp4380
sg83
I3
sg84
g85
sg86
g11
(g15
S'/I\x97\x81@}\xe3?'
p4381
tp4382
Rp4383
sg90
g91
sg92
g93
sbag4
(g5
g6
Ntp4384
Rp4385
(dp4386
g10
g11
(g15
S'\x00\x00\x00\x00\x00\x00\xf8\xff'
p4387
tp4388
Rp4389
sg145
g11
(g41
S'\x06\x00\x00\x00\x00\x00\x00\x00'
p4390
tp4391
Rp4392
sg30
g31
sg32
(dp4393
g145
g4392
sg34
g11
(g15
S'\xc5\x88\x11\xabM\xc4W@'
p4394
tp4395
Rp4396
sg38
g11
(g41
S'\x03\x00\x00\x00\x00\x00\x00\x00'
p4397
tp4398
Rp4399
sg156
g11
(g41
S'\x03\x00\x00\x00\x00\x00\x00\x00'
p4400
tp4401
Rp4402
sg47
g11
(g15
S'&\xfb\x04j\xf6N\x1f@'
p4403
tp4404
Rp4405
ssg47
g4405
sg51
g11
(g12
(S'S6'
p4406
I0
I1
tp4407
Rp4408
(I3
S'|'
p4409
NNNI6
I1
I0
tp4410
bS'ISOMAP'
p4411
tp4412
Rp4413
sg60
F0.2
sg156
g4402
sg61
g11
(g12
(S'S8'
p4414
I0
I1
tp4415
Rp4416
(I3
S'|'
p4417
NNNI8
I1
I0
tp4418
bS'haralick'
p4419
tp4420
Rp4421
sg34
g4396
sg38
g4399
sg70
g11
(g15
S'\xf02BiV\x14\xee?'
p4422
tp4423
Rp4424
sg74
g11
(g12
(S'S3'
p4425
I0
I1
tp4426
Rp4427
(I3
S'|'
p4428
NNNI3
I1
I0
tp4429
bS'SVM'
p4430
tp4431
Rp4432
sg83
I3
sg84
g85
sg86
g11
(g15
S'\xc0\xe3\xfa\xeae\x81\xe2?'
p4433
tp4434
Rp4435
sg90
g91
sg92
g93
sbag4
(g5
g6
Ntp4436
Rp4437
(dp4438
g10
g11
(g15
S'\x00\x00\x00\x00\x00\x00\xf8\xff'
p4439
tp4440
Rp4441
sg100
g11
(g15
S'\x00\x00\x00\x00\x00\xc0r@'
p4442
tp4443
Rp4444
sg21
g29
sg30
g31
sg32
(dp4445
g100
g4444
sg105
g11
(g15
S'\xc4\xc8\xdd>\x8c\xe5\xea?'
p4446
tp4447
Rp4448
sg21
g29
ssg51
g11
(g12
(S'S3'
p4449
I0
I1
tp4450
Rp4451
(I3
S'|'
p4452
NNNI3
I1
I0
tp4453
bS'PCA'
p4454
tp4455
Rp4456
sg60
F0.2
sg61
g11
(g12
(S'S9'
p4457
I0
I1
tp4458
Rp4459
(I3
S'|'
p4460
NNNI9
I1
I0
tp4461
bS'inception'
p4462
tp4463
Rp4464
sg70
g11
(g15
S'\xfc\xed\xf6\xfa>\xc5\xf4?'
p4465
tp4466
Rp4467
sg74
g11
(g12
(S'S2'
p4468
I0
I1
tp4469
Rp4470
(I3
S'|'
p4471
NNNI2
I1
I0
tp4472
bS'RF'
p4473
tp4474
Rp4475
sg83
I3
sg105
g4448
sg84
g85
sg86
g11
(g15
S'\xa4j\x12_\x9a\xa1\xe0?'
p4476
tp4477
Rp4478
sg90
g91
sg92
g93
sbag4
(g5
g6
Ntp4479
Rp4480
(dp4481
g10
g11
(g15
S'\x00\x00\x00\x00\x00\x00\xf8\xff'
p4482
tp4483
Rp4484
sg21
g247
sg30
g31
sg32
(dp4485
g21
g247
sg34
g11
(g15
S'L\xba\x12fB\xb7!@'
p4486
tp4487
Rp4488
sg47
g11
(g15
S'\x11\x19\x0b\xcfk2\xd3?'
p4489
tp4490
Rp4491
ssg51
g11
(g12
(S'S3'
p4492
I0
I1
tp4493
Rp4494
(I3
S'|'
p4495
NNNI3
I1
I0
tp4496
bS'PCA'
p4497
tp4498
Rp4499
sg60
F0.2
sg47
g4491
sg61
g11
(g12
(S'S3'
p4500
I0
I1
tp4501
Rp4502
(I3
S'|'
p4503
NNNI3
I1
I0
tp4504
bS'VGG'
p4505
tp4506
Rp4507
sg34
g4488
sg70
g11
(g15
S'\xd3\xd8=m\xa6\xea\xe8?'
p4508
tp4509
Rp4510
sg74
g11
(g12
(S'S3'
p4511
I0
I1
tp4512
Rp4513
(I3
S'|'
p4514
NNNI3
I1
I0
tp4515
bS'SVM'
p4516
tp4517
Rp4518
sg83
I3
sg84
g85
sg86
g11
(g15
S'\xa9\x1e~\x9c\xf7\x08\xe5?'
p4519
tp4520
Rp4521
sg90
g91
sg92
g93
sbag4
(g5
g6
Ntp4522
Rp4523
(dp4524
g10
g11
(g15
S'\x00\x00\x00\x00\x00\x00\xf8\xff'
p4525
tp4526
Rp4527
sg21
g29
sg30
g31
sg32
(dp4528
g21
g29
sg34
g11
(g15
S'\xc5\xa3\xebo\xc7\x11=@'
p4529
tp4530
Rp4531
sg47
g11
(g15
S'n\x94\x8c6\xe7m\x01@'
p4532
tp4533
Rp4534
ssg51
g11
(g12
(S'S3'
p4535
I0
I1
tp4536
Rp4537
(I3
S'|'
p4538
NNNI3
I1
I0
tp4539
bS'PCA'
p4540
tp4541
Rp4542
sg60
F0.2
sg47
g4534
sg61
g11
(g12
(S'S9'
p4543
I0
I1
tp4544
Rp4545
(I3
S'|'
p4546
NNNI9
I1
I0
tp4547
bS'inception'
p4548
tp4549
Rp4550
sg34
g4531
sg70
g11
(g15
S'\xbeN*\xc4\xf5*\xf0?'
p4551
tp4552
Rp4553
sg74
g11
(g12
(S'S3'
p4554
I0
I1
tp4555
Rp4556
(I3
S'|'
p4557
NNNI3
I1
I0
tp4558
bS'SVM'
p4559
tp4560
Rp4561
sg83
I3
sg84
g85
sg86
g11
(g15
S'\xb7E\xf3\xfb\x15d\xde?'
p4562
tp4563
Rp4564
sg90
g91
sg92
g93
sbag4
(g5
g6
Ntp4565
Rp4566
(dp4567
g10
g11
(g15
S'\x00\x00\x00\x00\x00\x00\xf8\xff'
p4568
tp4569
Rp4570
sg145
g11
(g41
S'\x07\x00\x00\x00\x00\x00\x00\x00'
p4571
tp4572
Rp4573
sg30
g31
sg32
(dp4574
g145
g4573
sg34
g11
(g15
S"\x10\x08^|\x8d'\x05@"
p4575
tp4576
Rp4577
sg38
g11
(g41
S'\x02\x00\x00\x00\x00\x00\x00\x00'
p4578
tp4579
Rp4580
sg156
g11
(g41
S'\x04\x00\x00\x00\x00\x00\x00\x00'
p4581
tp4582
Rp4583
sg47
g11
(g15
S'\xbf\x90\xe3\x9a\xa9\xa0\x14@'
p4584
tp4585
Rp4586
ssg47
g4586
sg51
g11
(g12
(S'S6'
p4587
I0
I1
tp4588
Rp4589
(I3
S'|'
p4590
NNNI6
I1
I0
tp4591
bS'ISOMAP'
p4592
tp4593
Rp4594
sg60
F0.2
sg156
g4583
sg61
g11
(g12
(S'S8'
p4595
I0
I1
tp4596
Rp4597
(I3
S'|'
p4598
NNNI8
I1
I0
tp4599
bS'haralick'
p4600
tp4601
Rp4602
sg34
g4577
sg38
g4580
sg70
g11
(g15
S'\x9dt+\xff1\xe4\xec?'
p4603
tp4604
Rp4605
sg74
g11
(g12
(S'S3'
p4606
I0
I1
tp4607
Rp4608
(I3
S'|'
p4609
NNNI3
I1
I0
tp4610
bS'SVM'
p4611
tp4612
Rp4613
sg83
I3
sg84
g85
sg86
g11
(g15
S'IY\xde\xc2\xc5#\xe3?'
p4614
tp4615
Rp4616
sg90
g91
sg92
g93
sbag4
(g5
g6
Ntp4617
Rp4618
(dp4619
g10
g11
(g15
S'\x00\x00\x00\x00\x00\x00\xf8\xff'
p4620
tp4621
Rp4622
sg100
g11
(g15
S'\x00\x00\x00\x00\x00`i@'
p4623
tp4624
Rp4625
sg21
g29
sg30
g31
sg32
(dp4626
g100
g4625
sg105
g11
(g15
S'\x9e\xcf]\xbay\xc0\xea?'
p4627
tp4628
Rp4629
sg21
g29
ssg51
g11
(g12
(S'S3'
p4630
I0
I1
tp4631
Rp4632
(I3
S'|'
p4633
NNNI3
I1
I0
tp4634
bS'PCA'
p4635
tp4636
Rp4637
sg60
F0.2
sg61
g11
(g12
(S'S9'
p4638
I0
I1
tp4639
Rp4640
(I3
S'|'
p4641
NNNI9
I1
I0
tp4642
bS'inception'
p4643
tp4644
Rp4645
sg70
g11
(g15
S'\x8c\x9c\xea\xc2[K\xf7?'
p4646
tp4647
Rp4648
sg74
g11
(g12
(S'S2'
p4649
I0
I1
tp4650
Rp4651
(I3
S'|'
p4652
NNNI2
I1
I0
tp4653
bS'RF'
p4654
tp4655
Rp4656
sg83
I3
sg105
g4629
sg84
g85
sg86
g11
(g15
S'Tpm\x0f\xa0\xfc\xe0?'
p4657
tp4658
Rp4659
sg90
g91
sg92
g93
sbag4
(g5
g6
Ntp4660
Rp4661
(dp4662
g10
g11
(g15
S'\x00\x00\x00\x00\x00\x00\xf8\xff'
p4663
tp4664
Rp4665
sg21
g29
sg30
g31
sg32
(dp4666
g21
g29
sg34
g11
(g15
S'BM\xc8\x8f\xff\x94U@'
p4667
tp4668
Rp4669
sg38
g11
(g41
S'\x02\x00\x00\x00\x00\x00\x00\x00'
p4670
tp4671
Rp4672
sg47
g11
(g15
S'\xc9\x84\n\xabR\x98\xde?'
p4673
tp4674
Rp4675
ssg51
g11
(g12
(S'S3'
p4676
I0
I1
tp4677
Rp4678
(I3
S'|'
p4679
NNNI3
I1
I0
tp4680
bS'PCA'
p4681
tp4682
Rp4683
sg60
F0.2
sg47
g4675
sg61
g11
(g12
(S'S8'
p4684
I0
I1
tp4685
Rp4686
(I3
S'|'
p4687
NNNI8
I1
I0
tp4688
bS'haralick'
p4689
tp4690
Rp4691
sg34
g4669
sg38
g4672
sg70
g11
(g15
S'\xf9\xb3\x89\x83\x80(\xe9?'
p4692
tp4693
Rp4694
sg74
g11
(g12
(S'S3'
p4695
I0
I1
tp4696
Rp4697
(I3
S'|'
p4698
NNNI3
I1
I0
tp4699
bS'SVM'
p4700
tp4701
Rp4702
sg83
I3
sg84
g85
sg86
g11
(g15
S'\xd5?\xd6\xee\x8d\xc0\xe5?'
p4703
tp4704
Rp4705
sg90
g91
sg92
g93
sbag4
(g5
g6
Ntp4706
Rp4707
(dp4708
g10
g11
(g15
S'\x00\x00\x00\x00\x00\x00\xf8\xff'
p4709
tp4710
Rp4711
sg145
g11
(g41
S'\x03\x00\x00\x00\x00\x00\x00\x00'
p4712
tp4713
Rp4714
sg30
g31
sg32
(dp4715
g145
g4714
sg34
g11
(g15
S'\xe7\xce\xe13\x85\tX@'
p4716
tp4717
Rp4718
sg156
g11
(g41
S'\x04\x00\x00\x00\x00\x00\x00\x00'
p4719
tp4720
Rp4721
sg47
g11
(g15
S'$\rV\x81\x05n\xf8?'
p4722
tp4723
Rp4724
ssg47
g4724
sg51
g11
(g12
(S'S6'
p4725
I0
I1
tp4726
Rp4727
(I3
S'|'
p4728
NNNI6
I1
I0
tp4729
bS'ISOMAP'
p4730
tp4731
Rp4732
sg60
F0.2
sg156
g4721
sg61
g11
(g12
(S'S3'
p4733
I0
I1
tp4734
Rp4735
(I3
S'|'
p4736
NNNI3
I1
I0
tp4737
bS'VGG'
p4738
tp4739
Rp4740
sg34
g4718
sg70
g11
(g15
S'\xcds\xaf\x8e\xf5\xcd\xef?'
p4741
tp4742
Rp4743
sg74
g11
(g12
(S'S3'
p4744
I0
I1
tp4745
Rp4746
(I3
S'|'
p4747
NNNI3
I1
I0
tp4748
bS'SVM'
p4749
tp4750
Rp4751
sg83
I3
sg84
g85
sg86
g11
(g15
S'\x81@}3V\xbe\xde?'
p4752
tp4753
Rp4754
sg90
g91
sg92
g93
sbag4
(g5
g6
Ntp4755
Rp4756
(dp4757
g10
g11
(g15
S'\x00\x00\x00\x00\x00\x00\xf8\xff'
p4758
tp4759
Rp4760
sg145
g11
(g41
S'\x04\x00\x00\x00\x00\x00\x00\x00'
p4761
tp4762
Rp4763
sg30
g31
sg32
(dp4764
g145
g4763
sg34
g11
(g15
S'J,\xc9v]p=@'
p4765
tp4766
Rp4767
sg38
g11
(g41
S'\x01\x00\x00\x00\x00\x00\x00\x00'
p4768
tp4769
Rp4770
sg156
g11
(g41
S'\x04\x00\x00\x00\x00\x00\x00\x00'
p4771
tp4772
Rp4773
sg47
g11
(g15
S'n\xf03\x05\xcfA\xfd?'
p4774
tp4775
Rp4776
ssg47
g4776
sg51
g11
(g12
(S'S6'
p4777
I0
I1
tp4778
Rp4779
(I3
S'|'
p4780
NNNI6
I1
I0
tp4781
bS'ISOMAP'
p4782
tp4783
Rp4784
sg60
F0.2
sg156
g4773
sg61
g11
(g12
(S'S8'
p4785
I0
I1
tp4786
Rp4787
(I3
S'|'
p4788
NNNI8
I1
I0
tp4789
bS'haralick'
p4790
tp4791
Rp4792
sg34
g4767
sg38
g4770
sg70
g11
(g15
S';\x93i\xb8H\\\xed?'
p4793
tp4794
Rp4795
sg74
g11
(g12
(S'S3'
p4796
I0
I1
tp4797
Rp4798
(I3
S'|'
p4799
NNNI3
I1
I0
tp4800
bS'SVM'
p4801
tp4802
Rp4803
sg83
I3
sg84
g85
sg86
g11
(g15
S'\x89\xf9\x9c\xdc\xf0\x82\xe2?'
p4804
tp4805
Rp4806
sg90
g91
sg92
g93
sbag4
(g5
g6
Ntp4807
Rp4808
(dp4809
g10
g11
(g15
S'\x00\x00\x00\x00\x00\x00\xf8\xff'
p4810
tp4811
Rp4812
sg145
g11
(g41
S'\x06\x00\x00\x00\x00\x00\x00\x00'
p4813
tp4814
Rp4815
sg30
g31
sg32
(dp4816
g145
g4815
sg34
g11
(g15
S'T\xc3\x1a\x9d\x8a\xcaT@'
p4817
tp4818
Rp4819
sg156
g11
(g41
S'\x04\x00\x00\x00\x00\x00\x00\x00'
p4820
tp4821
Rp4822
sg47
g11
(g15
S'\x93\x969=[\xb3\x04@'
p4823
tp4824
Rp4825
ssg47
g4825
sg51
g11
(g12
(S'S6'
p4826
I0
I1
tp4827
Rp4828
(I3
S'|'
p4829
NNNI6
I1
I0
tp4830
bS'ISOMAP'
p4831
tp4832
Rp4833
sg60
F0.2
sg156
g4822
sg61
g11
(g12
(S'S3'
p4834
I0
I1
tp4835
Rp4836
(I3
S'|'
p4837
NNNI3
I1
I0
tp4838
bS'VGG'
p4839
tp4840
Rp4841
sg34
g4819
sg70
g11
(g15
S'\xc7\xc4\x98\xb6\x15;\xf0?'
p4842
tp4843
Rp4844
sg74
g11
(g12
(S'S3'
p4845
I0
I1
tp4846
Rp4847
(I3
S'|'
p4848
NNNI3
I1
I0
tp4849
bS'SVM'
p4850
tp4851
Rp4852
sg83
I3
sg84
g85
sg86
g11
(g15
S'L\xf5\xf0\xe3\xbcG\xe0?'
p4853
tp4854
Rp4855
sg90
g91
sg92
g93
sbag4
(g5
g6
Ntp4856
Rp4857
(dp4858
g10
g11
(g15
S'\x00\x00\x00\x00\x00\x00\xf8\xff'
p4859
tp4860
Rp4861
sg100
g11
(g15
S'\x00\x00\x00\x00\x00`i@'
p4862
tp4863
Rp4864
sg21
g247
sg30
g31
sg32
(dp4865
g100
g4864
sg105
g11
(g15
S'8\x9aCy\xb1\xf4\xeb?'
p4866
tp4867
Rp4868
sg21
g247
ssg51
g11
(g12
(S'S3'
p4869
I0
I1
tp4870
Rp4871
(I3
S'|'
p4872
NNNI3
I1
I0
tp4873
bS'PCA'
p4874
tp4875
Rp4876
sg60
F0.2
sg61
g11
(g12
(S'S9'
p4877
I0
I1
tp4878
Rp4879
(I3
S'|'
p4880
NNNI9
I1
I0
tp4881
bS'inception'
p4882
tp4883
Rp4884
sg70
g11
(g15
S'\x95m\xb4:\xd5\xe8\xf4?'
p4885
tp4886
Rp4887
sg74
g11
(g12
(S'S2'
p4888
I0
I1
tp4889
Rp4890
(I3
S'|'
p4891
NNNI2
I1
I0
tp4892
bS'RF'
p4893
tp4894
Rp4895
sg83
I3
sg105
g4868
sg84
g85
sg86
g11
(g15
S'\x83\xb1\x91\x87\xbe\xb8\xe0?'
p4896
tp4897
Rp4898
sg90
g91
sg92
g93
sbag4
(g5
g6
Ntp4899
Rp4900
(dp4901
g10
g11
(g15
S'\x00\x00\x00\x00\x00\x00\xf8\xff'
p4902
tp4903
Rp4904
sg145
g11
(g41
S'\x04\x00\x00\x00\x00\x00\x00\x00'
p4905
tp4906
Rp4907
sg30
g31
sg32
(dp4908
g145
g4907
sg34
g11
(g15
S'8\xfa:\x87!\x1b:@'
p4909
tp4910
Rp4911
sg156
g11
(g41
S'\x02\x00\x00\x00\x00\x00\x00\x00'
p4912
tp4913
Rp4914
sg47
g11
(g15
S'\xdb)\xd64}\x0e\x1a@'
p4915
tp4916
Rp4917
ssg47
g4917
sg51
g11
(g12
(S'S6'
p4918
I0
I1
tp4919
Rp4920
(I3
S'|'
p4921
NNNI6
I1
I0
tp4922
bS'ISOMAP'
p4923
tp4924
Rp4925
sg60
F0.2
sg156
g4914
sg61
g11
(g12
(S'S9'
p4926
I0
I1
tp4927
Rp4928
(I3
S'|'
p4929
NNNI9
I1
I0
tp4930
bS'inception'
p4931
tp4932
Rp4933
sg34
g4911
sg70
g11
(g15
S'\xcb\xa5\x9cn\xd7x\xf0?'
p4934
tp4935
Rp4936
sg74
g11
(g12
(S'S3'
p4937
I0
I1
tp4938
Rp4939
(I3
S'|'
p4940
NNNI3
I1
I0
tp4941
bS'SVM'
p4942
tp4943
Rp4944
sg83
I3
sg84
g85
sg86
g11
(g15
S'\x05%\x80\x91\xc5a\xde?'
p4945
tp4946
Rp4947
sg90
g91
sg92
g93
sbag4
(g5
g6
Ntp4948
Rp4949
(dp4950
g10
g11
(g15
S'\x00\x00\x00\x00\x00\x00\xf8\xff'
p4951
tp4952
Rp4953
sg145
g11
(g41
S'\x07\x00\x00\x00\x00\x00\x00\x00'
p4954
tp4955
Rp4956
sg30
g31
sg32
(dp4957
g145
g4956
sg34
g11
(g15
S'\xb8@{\x05\xf0\x99A@'
p4958
tp4959
Rp4960
sg156
g11
(g41
S'\x03\x00\x00\x00\x00\x00\x00\x00'
p4961
tp4962
Rp4963
sg47
g11
(g15
S'V\x1a\x83\x89H\xa4\xda?'
p4964
tp4965
Rp4966
ssg47
g4966
sg51
g11
(g12
(S'S6'
p4967
I0
I1
tp4968
Rp4969
(I3
S'|'
p4970
NNNI6
I1
I0
tp4971
bS'ISOMAP'
p4972
tp4973
Rp4974
sg60
F0.2
sg156
g4963
sg61
g11
(g12
(S'S3'
p4975
I0
I1
tp4976
Rp4977
(I3
S'|'
p4978
NNNI3
I1
I0
tp4979
bS'VGG'
p4980
tp4981
Rp4982
sg34
g4960
sg70
g11
(g15
S'\xac5\xf9\xea\x93\x86\xee?'
p4983
tp4984
Rp4985
sg74
g11
(g12
(S'S3'
p4986
I0
I1
tp4987
Rp4988
(I3
S'|'
p4989
NNNI3
I1
I0
tp4990
bS'SVM'
p4991
tp4992
Rp4993
sg83
I3
sg84
g85
sg86
g11
(g15
S'\x08\x96\x94\xe5-\\\xe0?'
p4994
tp4995
Rp4996
sg90
g91
sg92
g93
sbag4
(g5
g6
Ntp4997
Rp4998
(dp4999
g10
g11
(g15
S'\x00\x00\x00\x00\x00\x00\xf8\xff'
p5000
tp5001
Rp5002
sg145
g11
(g41
S'\x06\x00\x00\x00\x00\x00\x00\x00'
p5003
tp5004
Rp5005
sg30
g31
sg32
(dp5006
g145
g5005
sg34
g11
(g15
S'\x03\xf9\x83\xe7\xd8\xe1\x18@'
p5007
tp5008
Rp5009
sg156
g11
(g41
S'\x03\x00\x00\x00\x00\x00\x00\x00'
p5010
tp5011
Rp5012
sg47
g11
(g15
S'\x18\x8c\xdf8\x80\xb3\t@'
p5013
tp5014
Rp5015
ssg47
g5015
sg51
g11
(g12
(S'S6'
p5016
I0
I1
tp5017
Rp5018
(I3
S'|'
p5019
NNNI6
I1
I0
tp5020
bS'ISOMAP'
p5021
tp5022
Rp5023
sg60
F0.2
sg156
g5012
sg61
g11
(g12
(S'S3'
p5024
I0
I1
tp5025
Rp5026
(I3
S'|'
p5027
NNNI3
I1
I0
tp5028
bS'VGG'
p5029
tp5030
Rp5031
sg34
g5009
sg70
g11
(g15
S'\xec_T\xf1\xa3\xc5\xef?'
p5032
tp5033
Rp5034
sg74
g11
(g12
(S'S3'
p5035
I0
I1
tp5036
Rp5037
(I3
S'|'
p5038
NNNI3
I1
I0
tp5039
bS'SVM'
p5040
tp5041
Rp5042
sg83
I3
sg84
g85
sg86
g11
(g15
S'\xb0\x05[\xb0\x05[\xe0?'
p5043
tp5044
Rp5045
sg90
g91
sg92
g93
sbag4
(g5
g6
Ntp5046
Rp5047
(dp5048
g10
g11
(g15
S'\x00\x00\x00\x00\x00\x00\xf8\xff'
p5049
tp5050
Rp5051
sg145
g11
(g41
S'\x05\x00\x00\x00\x00\x00\x00\x00'
p5052
tp5053
Rp5054
sg30
g31
sg32
(dp5055
g145
g5054
sg34
g11
(g15
S'yS\x8f\x8d&\x9bH@'
p5056
tp5057
Rp5058
sg38
g11
(g41
S'\x02\x00\x00\x00\x00\x00\x00\x00'
p5059
tp5060
Rp5061
sg156
g11
(g41
S'\x02\x00\x00\x00\x00\x00\x00\x00'
p5062
tp5063
Rp5064
sg47
g11
(g15
S'\xd5u\n\xf9\xc8i\xf4?'
p5065
tp5066
Rp5067
ssg47
g5067
sg51
g11
(g12
(S'S6'
p5068
I0
I1
tp5069
Rp5070
(I3
S'|'
p5071
NNNI6
I1
I0
tp5072
bS'ISOMAP'
p5073
tp5074
Rp5075
sg60
F0.2
sg156
g5064
sg61
g11
(g12
(S'S8'
p5076
I0
I1
tp5077
Rp5078
(I3
S'|'
p5079
NNNI8
I1
I0
tp5080
bS'haralick'
p5081
tp5082
Rp5083
sg34
g5058
sg38
g5061
sg70
g11
(g15
S'\xad\x10\xc8@a\xf9\xe9?'
p5084
tp5085
Rp5086
sg74
g11
(g12
(S'S3'
p5087
I0
I1
tp5088
Rp5089
(I3
S'|'
p5090
NNNI3
I1
I0
tp5091
bS'SVM'
p5092
tp5093
Rp5094
sg83
I3
sg84
g85
sg86
g11
(g15
S'\xb1\xc7\xb72NK\xe5?'
p5095
tp5096
Rp5097
sg90
g91
sg92
g93
sbag4
(g5
g6
Ntp5098
Rp5099
(dp5100
g10
g11
(g15
S'\x00\x00\x00\x00\x00\x00\xf8\xff'
p5101
tp5102
Rp5103
sg100
g11
(g15
S'\x00\x00\x00\x00\x00@Z@'
p5104
tp5105
Rp5106
sg21
g247
sg30
g31
sg32
(dp5107
g100
g5106
sg105
g11
(g15
S'\xa2\xb2\x12\x95\xea\xb7\xe9?'
p5108
tp5109
Rp5110
sg21
g247
ssg51
g11
(g12
(S'S3'
p5111
I0
I1
tp5112
Rp5113
(I3
S'|'
p5114
NNNI3
I1
I0
tp5115
bS'PCA'
p5116
tp5117
Rp5118
sg60
F0.2
sg61
g11
(g12
(S'S3'
p5119
I0
I1
tp5120
Rp5121
(I3
S'|'
p5122
NNNI3
I1
I0
tp5123
bS'VGG'
p5124
tp5125
Rp5126
sg70
g11
(g15
S'D\xfa\xc9\x06}@\xe7?'
p5127
tp5128
Rp5129
sg74
g11
(g12
(S'S2'
p5130
I0
I1
tp5131
Rp5132
(I3
S'|'
p5133
NNNI2
I1
I0
tp5134
bS'RF'
p5135
tp5136
Rp5137
sg83
I3
sg105
g5110
sg84
g85
sg86
g11
(g15
S'\x1cC\xb8\x176\x91\xe6?'
p5138
tp5139
Rp5140
sg90
g91
sg92
g93
sbag4
(g5
g6
Ntp5141
Rp5142
(dp5143
g10
g11
(g15
S'\x00\x00\x00\x00\x00\x00\xf8\xff'
p5144
tp5145
Rp5146
sg100
g11
(g15
S'\x00\x00\x00\x00\x00@Z@'
p5147
tp5148
Rp5149
sg30
g31
sg145
g11
(g41
S'\x04\x00\x00\x00\x00\x00\x00\x00'
p5150
tp5151
Rp5152
sg32
(dp5153
g100
g5149
sg145
g5152
sg156
g11
(g41
S'\x04\x00\x00\x00\x00\x00\x00\x00'
p5154
tp5155
Rp5156
sg105
g11
(g15
S'8//\xb1\x96\x92\xd9?'
p5157
tp5158
Rp5159
ssg51
g11
(g12
(S'S6'
p5160
I0
I1
tp5161
Rp5162
(I3
S'|'
p5163
NNNI6
I1
I0
tp5164
bS'ISOMAP'
p5165
tp5166
Rp5167
sg60
F0.2
sg156
g5156
sg61
g11
(g12
(S'S9'
p5168
I0
I1
tp5169
Rp5170
(I3
S'|'
p5171
NNNI9
I1
I0
tp5172
bS'inception'
p5173
tp5174
Rp5175
sg70
g11
(g15
S'?]|:\xc2\x1b\x02@'
p5176
tp5177
Rp5178
sg74
g11
(g12
(S'S2'
p5179
I0
I1
tp5180
Rp5181
(I3
S'|'
p5182
NNNI2
I1
I0
tp5183
bS'RF'
p5184
tp5185
Rp5186
sg83
I3
sg105
g5159
sg84
g85
sg86
g11
(g15
S'\xb7*\xdbA\xcb\xbc\xde?'
p5187
tp5188
Rp5189
sg90
g91
sg92
g93
sbag4
(g5
g6
Ntp5190
Rp5191
(dp5192
g10
g11
(g15
S'\x00\x00\x00\x00\x00\x00\xf8\xff'
p5193
tp5194
Rp5195
sg21
g247
sg30
g31
sg32
(dp5196
g21
g247
sg34
g11
(g15
S'\x94\xa0\x1e,\xa0\xa6E@'
p5197
tp5198
Rp5199
sg47
g11
(g15
S'\x17\x85\xe3 \xf24\x16@'
p5200
tp5201
Rp5202
ssg51
g11
(g12
(S'S3'
p5203
I0
I1
tp5204
Rp5205
(I3
S'|'
p5206
NNNI3
I1
I0
tp5207
bS'PCA'
p5208
tp5209
Rp5210
sg60
F0.2
sg47
g5202
sg61
g11
(g12
(S'S9'
p5211
I0
I1
tp5212
Rp5213
(I3
S'|'
p5214
NNNI9
I1
I0
tp5215
bS'inception'
p5216
tp5217
Rp5218
sg34
g5199
sg70
g11
(g15
S'\xbdW)u\xe48\xf0?'
p5219
tp5220
Rp5221
sg74
g11
(g12
(S'S3'
p5222
I0
I1
tp5223
Rp5224
(I3
S'|'
p5225
NNNI3
I1
I0
tp5226
bS'SVM'
p5227
tp5228
Rp5229
sg83
I3
sg84
g85
sg86
g11
(g15
S'\xcb0\xba\xab\xd5\xa8\xdf?'
p5230
tp5231
Rp5232
sg90
g91
sg92
g93
sbag4
(g5
g6
Ntp5233
Rp5234
(dp5235
g10
g11
(g15
S'\x00\x00\x00\x00\x00\x00\xf8\xff'
p5236
tp5237
Rp5238
sg100
g11
(g15
S'\x00\x00\x00\x00\x00@R@'
p5239
tp5240
Rp5241
sg30
g31
sg145
g11
(g41
S'\x07\x00\x00\x00\x00\x00\x00\x00'
p5242
tp5243
Rp5244
sg32
(dp5245
g100
g5241
sg145
g5244
sg38
g11
(g41
S'\x03\x00\x00\x00\x00\x00\x00\x00'
p5246
tp5247
Rp5248
sg156
g11
(g41
S'\x04\x00\x00\x00\x00\x00\x00\x00'
p5249
tp5250
Rp5251
sg105
g11
(g15
S'\x8c\xcf<R\xd0w\xe4?'
p5252
tp5253
Rp5254
ssg51
g11
(g12
(S'S6'
p5255
I0
I1
tp5256
Rp5257
(I3
S'|'
p5258
NNNI6
I1
I0
tp5259
bS'ISOMAP'
p5260
tp5261
Rp5262
sg60
F0.2
sg156
g5251
sg61
g11
(g12
(S'S8'
p5263
I0
I1
tp5264
Rp5265
(I3
S'|'
p5266
NNNI8
I1
I0
tp5267
bS'haralick'
p5268
tp5269
Rp5270
sg38
g5248
sg70
g11
(g15
S'\xfdF+\xb0\x19\xe7\xfa?'
p5271
tp5272
Rp5273
sg74
g11
(g12
(S'S2'
p5274
I0
I1
tp5275
Rp5276
(I3
S'|'
p5277
NNNI2
I1
I0
tp5278
bS'RF'
p5279
tp5280
Rp5281
sg83
I3
sg105
g5254
sg84
g85
sg86
g11
(g15
S'\x07\x86\xae\xd2\xe9\xd9\xe4?'
p5282
tp5283
Rp5284
sg90
g91
sg92
g93
sbag4
(g5
g6
Ntp5285
Rp5286
(dp5287
g10
g11
(g15
S'\x00\x00\x00\x00\x00\x00\xf8\xff'
p5288
tp5289
Rp5290
sg145
g11
(g41
S'\x04\x00\x00\x00\x00\x00\x00\x00'
p5291
tp5292
Rp5293
sg30
g31
sg32
(dp5294
g145
g5293
sg34
g11
(g15
S'~\xda\x10c>\x97X@'
p5295
tp5296
Rp5297
sg156
g11
(g41
S'\x03\x00\x00\x00\x00\x00\x00\x00'
p5298
tp5299
Rp5300
sg47
g11
(g15
S'\xdb\x07 UJu\xf4?'
p5301
tp5302
Rp5303
ssg47
g5303
sg51
g11
(g12
(S'S6'
p5304
I0
I1
tp5305
Rp5306
(I3
S'|'
p5307
NNNI6
I1
I0
tp5308
bS'ISOMAP'
p5309
tp5310
Rp5311
sg60
F0.2
sg156
g5300
sg61
g11
(g12
(S'S3'
p5312
I0
I1
tp5313
Rp5314
(I3
S'|'
p5315
NNNI3
I1
I0
tp5316
bS'VGG'
p5317
tp5318
Rp5319
sg34
g5297
sg70
g11
(g15
S'\x10w\x17{\x82\xc7\xee?'
p5320
tp5321
Rp5322
sg74
g11
(g12
(S'S3'
p5323
I0
I1
tp5324
Rp5325
(I3
S'|'
p5326
NNNI3
I1
I0
tp5327
bS'SVM'
p5328
tp5329
Rp5330
sg83
I3
sg84
g85
sg86
g11
(g15
S'\xe9\xaeV\xa3\xde\xe5\xe0?'
p5331
tp5332
Rp5333
sg90
g91
sg92
g93
sbag4
(g5
g6
Ntp5334
Rp5335
(dp5336
g10
g11
(g15
S'\x00\x00\x00\x00\x00\x00\xf8\xff'
p5337
tp5338
Rp5339
sg100
g11
(g15
S'\x00\x00\x00\x00\x00@Z@'
p5340
tp5341
Rp5342
sg21
g247
sg30
g31
sg32
(dp5343
g100
g5342
sg105
g11
(g15
S'Jz\xe7M^\x9b\xe9?'
p5344
tp5345
Rp5346
sg21
g247
sg38
g11
(g41
S'\x02\x00\x00\x00\x00\x00\x00\x00'
p5347
tp5348
Rp5349
ssg51
g11
(g12
(S'S3'
p5350
I0
I1
tp5351
Rp5352
(I3
S'|'
p5353
NNNI3
I1
I0
tp5354
bS'PCA'
p5355
tp5356
Rp5357
sg60
F0.2
sg61
g11
(g12
(S'S8'
p5358
I0
I1
tp5359
Rp5360
(I3
S'|'
p5361
NNNI8
I1
I0
tp5362
bS'haralick'
p5363
tp5364
Rp5365
sg38
g5349
sg70
g11
(g15
S'`9M\x94R&\xf4?'
p5366
tp5367
Rp5368
sg74
g11
(g12
(S'S2'
p5369
I0
I1
tp5370
Rp5371
(I3
S'|'
p5372
NNNI2
I1
I0
tp5373
bS'RF'
p5374
tp5375
Rp5376
sg83
I3
sg105
g5346
sg84
g85
sg86
g11
(g15
S'\xaf\xf5t\x9d\xc1\xd8\xe4?'
p5377
tp5378
Rp5379
sg90
g91
sg92
g93
sbag4
(g5
g6
Ntp5380
Rp5381
(dp5382
g10
g11
(g15
S'\x00\x00\x00\x00\x00\x00\xf8\xff'
p5383
tp5384
Rp5385
sg21
g29
sg30
g31
sg32
(dp5386
g21
g29
sg34
g11
(g15
S'\x00\xd6U\xea%\x1bS@'
p5387
tp5388
Rp5389
sg38
g11
(g41
S'\x01\x00\x00\x00\x00\x00\x00\x00'
p5390
tp5391
Rp5392
sg47
g11
(g15
S'1\xa0\x18\xfcwe\x1a@'
p5393
tp5394
Rp5395
ssg51
g11
(g12
(S'S3'
p5396
I0
I1
tp5397
Rp5398
(I3
S'|'
p5399
NNNI3
I1
I0
tp5400
bS'PCA'
p5401
tp5402
Rp5403
sg60
F0.2
sg47
g5395
sg61
g11
(g12
(S'S8'
p5404
I0
I1
tp5405
Rp5406
(I3
S'|'
p5407
NNNI8
I1
I0
tp5408
bS'haralick'
p5409
tp5410
Rp5411
sg34
g5389
sg38
g5392
sg70
g11
(g15
S'\xa7\xad\xe5_\x13\xa8\xee?'
p5412
tp5413
Rp5414
sg74
g11
(g12
(S'S3'
p5415
I0
I1
tp5416
Rp5417
(I3
S'|'
p5418
NNNI3
I1
I0
tp5419
bS'SVM'
p5420
tp5421
Rp5422
sg83
I3
sg84
g85
sg86
g11
(g15
S'\xed\xa0e^\xf3\\\xe0?'
p5423
tp5424
Rp5425
sg90
g91
sg92
g93
sbag4
(g5
g6
Ntp5426
Rp5427
(dp5428
g10
g11
(g15
S'\x00\x00\x00\x00\x00\x00\xf8\xff'
p5429
tp5430
Rp5431
sg100
g11
(g15
S'\x00\x00\x00\x00\x00@e@'
p5432
tp5433
Rp5434
sg30
g31
sg145
g11
(g41
S'\x07\x00\x00\x00\x00\x00\x00\x00'
p5435
tp5436
Rp5437
sg32
(dp5438
g100
g5434
sg145
g5437
sg156
g11
(g41
S'\x02\x00\x00\x00\x00\x00\x00\x00'
p5439
tp5440
Rp5441
sg105
g11
(g15
S'-\x97 \x15Cs\xe0?'
p5442
tp5443
Rp5444
ssg51
g11
(g12
(S'S6'
p5445
I0
I1
tp5446
Rp5447
(I3
S'|'
p5448
NNNI6
I1
I0
tp5449
bS'ISOMAP'
p5450
tp5451
Rp5452
sg60
F0.2
sg156
g5441
sg61
g11
(g12
(S'S3'
p5453
I0
I1
tp5454
Rp5455
(I3
S'|'
p5456
NNNI3
I1
I0
tp5457
bS'VGG'
p5458
tp5459
Rp5460
sg70
g11
(g15
S'`D\xda\x82\xbb\x84\xf5?'
p5461
tp5462
Rp5463
sg74
g11
(g12
(S'S2'
p5464
I0
I1
tp5465
Rp5466
(I3
S'|'
p5467
NNNI2
I1
I0
tp5468
bS'RF'
p5469
tp5470
Rp5471
sg83
I3
sg105
g5444
sg84
g85
sg86
g11
(g15
S'\x14\xad#2\x085\xde?'
p5472
tp5473
Rp5474
sg90
g91
sg92
g93
sbag4
(g5
g6
Ntp5475
Rp5476
(dp5477
g10
g11
(g15
S'\x00\x00\x00\x00\x00\x00\xf8\xff'
p5478
tp5479
Rp5480
sg145
g11
(g41
S'\x05\x00\x00\x00\x00\x00\x00\x00'
p5481
tp5482
Rp5483
sg30
g31
sg32
(dp5484
g145
g5483
sg34
g11
(g15
S'\x1e\xff\x92\xb9m\x16S@'
p5485
tp5486
Rp5487
sg156
g11
(g41
S'\x04\x00\x00\x00\x00\x00\x00\x00'
p5488
tp5489
Rp5490
sg47
g11
(g15
S'\xbe\xf5\xfb\xf7\xf1\xf3\x17@'
p5491
tp5492
Rp5493
ssg47
g5493
sg51
g11
(g12
(S'S6'
p5494
I0
I1
tp5495
Rp5496
(I3
S'|'
p5497
NNNI6
I1
I0
tp5498
bS'ISOMAP'
p5499
tp5500
Rp5501
sg60
F0.2
sg156
g5490
sg61
g11
(g12
(S'S3'
p5502
I0
I1
tp5503
Rp5504
(I3
S'|'
p5505
NNNI3
I1
I0
tp5506
bS'VGG'
p5507
tp5508
Rp5509
sg34
g5487
sg70
g11
(g15
S'\x03\xdb\x1c*\xbc>\xf0?'
p5510
tp5511
Rp5512
sg74
g11
(g12
(S'S3'
p5513
I0
I1
tp5514
Rp5515
(I3
S'|'
p5516
NNNI3
I1
I0
tp5517
bS'SVM'
p5518
tp5519
Rp5520
sg83
I3
sg84
g85
sg86
g11
(g15
S'\x85\xff\x1a\x18\xbaJ\xdf?'
p5521
tp5522
Rp5523
sg90
g91
sg92
g93
sbag4
(g5
g6
Ntp5524
Rp5525
(dp5526
g10
g11
(g15
S'\x00\x00\x00\x00\x00\x00\xf8\xff'
p5527
tp5528
Rp5529
sg100
g11
(g15
S'\x00\x00\x00\x00\x00\x00D@'
p5530
tp5531
Rp5532
sg30
g31
sg145
g11
(g41
S'\x06\x00\x00\x00\x00\x00\x00\x00'
p5533
tp5534
Rp5535
sg32
(dp5536
g100
g5532
sg145
g5535
sg38
g11
(g41
S'\x03\x00\x00\x00\x00\x00\x00\x00'
p5537
tp5538
Rp5539
sg156
g11
(g41
S'\x04\x00\x00\x00\x00\x00\x00\x00'
p5540
tp5541
Rp5542
sg105
g11
(g15
S'\xe2\x05\x93\xc3\xd97\xd8?'
p5543
tp5544
Rp5545
ssg51
g11
(g12
(S'S6'
p5546
I0
I1
tp5547
Rp5548
(I3
S'|'
p5549
NNNI6
I1
I0
tp5550
bS'ISOMAP'
p5551
tp5552
Rp5553
sg60
F0.2
sg156
g5542
sg61
g11
(g12
(S'S8'
p5554
I0
I1
tp5555
Rp5556
(I3
S'|'
p5557
NNNI8
I1
I0
tp5558
bS'haralick'
p5559
tp5560
Rp5561
sg38
g5539
sg70
g11
(g15
S'\x10\xa9\xaaR;\xbc\xf5?'
p5562
tp5563
Rp5564
sg74
g11
(g12
(S'S2'
p5565
I0
I1
tp5566
Rp5567
(I3
S'|'
p5568
NNNI2
I1
I0
tp5569
bS'RF'
p5570
tp5571
Rp5572
sg83
I3
sg105
g5545
sg84
g85
sg86
g11
(g15
S'\xa5,o\xe1\xe2\x91\xe5?'
p5573
tp5574
Rp5575
sg90
g91
sg92
g93
sbag4
(g5
g6
Ntp5576
Rp5577
(dp5578
g10
g11
(g15
S'\x00\x00\x00\x00\x00\x00\xf8\xff'
p5579
tp5580
Rp5581
sg145
g11
(g41
S'\x07\x00\x00\x00\x00\x00\x00\x00'
p5582
tp5583
Rp5584
sg30
g31
sg32
(dp5585
g145
g5584
sg34
g11
(g15
S'A\x19e{^\x9cV@'
p5586
tp5587
Rp5588
sg156
g11
(g41
S'\x04\x00\x00\x00\x00\x00\x00\x00'
p5589
tp5590
Rp5591
sg47
g11
(g15
S'\x98(\xd8|XS\x10@'
p5592
tp5593
Rp5594
ssg47
g5594
sg51
g11
(g12
(S'S6'
p5595
I0
I1
tp5596
Rp5597
(I3
S'|'
p5598
NNNI6
I1
I0
tp5599
bS'ISOMAP'
p5600
tp5601
Rp5602
sg60
F0.2
sg156
g5591
sg61
g11
(g12
(S'S3'
p5603
I0
I1
tp5604
Rp5605
(I3
S'|'
p5606
NNNI3
I1
I0
tp5607
bS'VGG'
p5608
tp5609
Rp5610
sg34
g5588
sg70
g11
(g15
S'\xdd\xdd\xb5,\xa5\xf3\xef?'
p5611
tp5612
Rp5613
sg74
g11
(g12
(S'S3'
p5614
I0
I1
tp5615
Rp5616
(I3
S'|'
p5617
NNNI3
I1
I0
tp5618
bS'SVM'
p5619
tp5620
Rp5621
sg83
I3
sg84
g85
sg86
g11
(g15
S'\x91\xa2\xd6rG\xc5\xde?'
p5622
tp5623
Rp5624
sg90
g91
sg92
g93
sbag4
(g5
g6
Ntp5625
Rp5626
(dp5627
g10
g11
(g15
S'\x00\x00\x00\x00\x00\x00\xf8\xff'
p5628
tp5629
Rp5630
sg21
g247
sg30
g31
sg32
(dp5631
g21
g247
sg34
g11
(g15
S'\x12\x84Q%S9$@'
p5632
tp5633
Rp5634
sg47
g11
(g15
S'\x92\xdc\x8e\x14\xb8\x08\x12@'
p5635
tp5636
Rp5637
ssg51
g11
(g12
(S'S3'
p5638
I0
I1
tp5639
Rp5640
(I3
S'|'
p5641
NNNI3
I1
I0
tp5642
bS'PCA'
p5643
tp5644
Rp5645
sg60
F0.2
sg47
g5637
sg61
g11
(g12
(S'S3'
p5646
I0
I1
tp5647
Rp5648
(I3
S'|'
p5649
NNNI3
I1
I0
tp5650
bS'VGG'
p5651
tp5652
Rp5653
sg34
g5634
sg70
g11
(g15
S'Q}\xf5\x00IW\xf0?'
p5654
tp5655
Rp5656
sg74
g11
(g12
(S'S3'
p5657
I0
I1
tp5658
Rp5659
(I3
S'|'
p5660
NNNI3
I1
I0
tp5661
bS'SVM'
p5662
tp5663
Rp5664
sg83
I3
sg84
g85
sg86
g11
(g15
S'P\xbc\x01\xd2B\x95\xdc?'
p5665
tp5666
Rp5667
sg90
g91
sg92
g93
sbag4
(g5
g6
Ntp5668
Rp5669
(dp5670
g10
g11
(g15
S'\x00\x00\x00\x00\x00\x00\xf8\xff'
p5671
tp5672
Rp5673
sg100
g11
(g15
S'\x00\x00\x00\x00\x00\x00D@'
p5674
tp5675
Rp5676
sg21
g247
sg30
g31
sg32
(dp5677
g100
g5676
sg105
g11
(g15
S'FO\x8c\xce3t\xde?'
p5678
tp5679
Rp5680
sg21
g247
sg38
g11
(g41
S'\x03\x00\x00\x00\x00\x00\x00\x00'
p5681
tp5682
Rp5683
ssg51
g11
(g12
(S'S3'
p5684
I0
I1
tp5685
Rp5686
(I3
S'|'
p5687
NNNI3
I1
I0
tp5688
bS'PCA'
p5689
tp5690
Rp5691
sg60
F0.2
sg61
g11
(g12
(S'S8'
p5692
I0
I1
tp5693
Rp5694
(I3
S'|'
p5695
NNNI8
I1
I0
tp5696
bS'haralick'
p5697
tp5698
Rp5699
sg38
g5683
sg70
g11
(g15
S'-f\xe8\xd1\xf3%\x02@'
p5700
tp5701
Rp5702
sg74
g11
(g12
(S'S2'
p5703
I0
I1
tp5704
Rp5705
(I3
S'|'
p5706
NNNI2
I1
I0
tp5707
bS'RF'
p5708
tp5709
Rp5710
sg83
I3
sg105
g5680
sg84
g85
sg86
g11
(g15
S',\xe3\xb4\xd4\xde\xa7\xe5?'
p5711
tp5712
Rp5713
sg90
g91
sg92
g93
sbag4
(g5
g6
Ntp5714
Rp5715
(dp5716
g10
g11
(g15
S'\x00\x00\x00\x00\x00\x00\xf8\xff'
p5717
tp5718
Rp5719
sg100
g11
(g15
S'\x00\x00\x00\x00\x00`m@'
p5720
tp5721
Rp5722
sg30
g31
sg145
g11
(g41
S'\x04\x00\x00\x00\x00\x00\x00\x00'
p5723
tp5724
Rp5725
sg32
(dp5726
g100
g5722
sg145
g5725
sg38
g11
(g41
S'\x03\x00\x00\x00\x00\x00\x00\x00'
p5727
tp5728
Rp5729
sg156
g11
(g41
S'\x03\x00\x00\x00\x00\x00\x00\x00'
p5730
tp5731
Rp5732
sg105
g11
(g15
S'Zb1@%\x93\xef?'
p5733
tp5734
Rp5735
ssg51
g11
(g12
(S'S6'
p5736
I0
I1
tp5737
Rp5738
(I3
S'|'
p5739
NNNI6
I1
I0
tp5740
bS'ISOMAP'
p5741
tp5742
Rp5743
sg60
F0.2
sg156
g5732
sg61
g11
(g12
(S'S8'
p5744
I0
I1
tp5745
Rp5746
(I3
S'|'
p5747
NNNI8
I1
I0
tp5748
bS'haralick'
p5749
tp5750
Rp5751
sg38
g5729
sg70
g11
(g15
S'x2\x87\x06\x8b\xf0\xf4?'
p5752
tp5753
Rp5754
sg74
g11
(g12
(S'S2'
p5755
I0
I1
tp5756
Rp5757
(I3
S'|'
p5758
NNNI2
I1
I0
tp5759
bS'RF'
p5760
tp5761
Rp5762
sg83
I3
sg105
g5735
sg84
g85
sg86
g11
(g15
S'\x05S=\xfc8\xef\xe5?'
p5763
tp5764
Rp5765
sg90
g91
sg92
g93
sbag4
(g5
g6
Ntp5766
Rp5767
(dp5768
g10
g11
(g15
S'\x00\x00\x00\x00\x00\x00\xf8\xff'
p5769
tp5770
Rp5771
sg100
g11
(g15
S'\x00\x00\x00\x00\x00`i@'
p5772
tp5773
Rp5774
sg30
g31
sg145
g11
(g41
S'\x03\x00\x00\x00\x00\x00\x00\x00'
p5775
tp5776
Rp5777
sg32
(dp5778
g100
g5774
sg145
g5777
sg156
g11
(g41
S'\x03\x00\x00\x00\x00\x00\x00\x00'
p5779
tp5780
Rp5781
sg105
g11
(g15
S'"\x08\xe9Y\xd2\xd4\xea?'
p5782
tp5783
Rp5784
ssg51
g11
(g12
(S'S6'
p5785
I0
I1
tp5786
Rp5787
(I3
S'|'
p5788
NNNI6
I1
I0
tp5789
bS'ISOMAP'
p5790
tp5791
Rp5792
sg60
F0.2
sg156
g5781
sg61
g11
(g12
(S'S9'
p5793
I0
I1
tp5794
Rp5795
(I3
S'|'
p5796
NNNI9
I1
I0
tp5797
bS'inception'
p5798
tp5799
Rp5800
sg70
g11
(g15
S'\x17\xfd\xc5\x06h\xdd\x03@'
p5801
tp5802
Rp5803
sg74
g11
(g12
(S'S2'
p5804
I0
I1
tp5805
Rp5806
(I3
S'|'
p5807
NNNI2
I1
I0
tp5808
bS'RF'
p5809
tp5810
Rp5811
sg83
I3
sg105
g5784
sg84
g85
sg86
g11
(g15
S'8\x86p/l"\xdd?'
p5812
tp5813
Rp5814
sg90
g91
sg92
g93
sbag4
(g5
g6
Ntp5815
Rp5816
(dp5817
g10
g11
(g15
S'\x00\x00\x00\x00\x00\x00\xf8\xff'
p5818
tp5819
Rp5820
sg145
g11
(g41
S'\x03\x00\x00\x00\x00\x00\x00\x00'
p5821
tp5822
Rp5823
sg30
g31
sg32
(dp5824
g145
g5823
sg34
g11
(g15
S'\xff\xcb\xb6\xfdk\x1bQ@'
p5825
tp5826
Rp5827
sg156
g11
(g41
S'\x03\x00\x00\x00\x00\x00\x00\x00'
p5828
tp5829
Rp5830
sg47
g11
(g15
S'\xc1\x9c\xac\x08\xcf\xb0\x16@'
p5831
tp5832
Rp5833
ssg47
g5833
sg51
g11
(g12
(S'S6'
p5834
I0
I1
tp5835
Rp5836
(I3
S'|'
p5837
NNNI6
I1
I0
tp5838
bS'ISOMAP'
p5839
tp5840
Rp5841
sg60
F0.2
sg156
g5830
sg61
g11
(g12
(S'S9'
p5842
I0
I1
tp5843
Rp5844
(I3
S'|'
p5845
NNNI9
I1
I0
tp5846
bS'inception'
p5847
tp5848
Rp5849
sg34
g5827
sg70
g11
(g15
S'\xb1>e\xc6[K\xf0?'
p5850
tp5851
Rp5852
sg74
g11
(g12
(S'S3'
p5853
I0
I1
tp5854
Rp5855
(I3
S'|'
p5856
NNNI3
I1
I0
tp5857
bS'SVM'
p5858
tp5859
Rp5860
sg83
I3
sg84
g85
sg86
g11
(g15
S'5\x05v\xc8\xbf\xa5\xdf?'
p5861
tp5862
Rp5863
sg90
g91
sg92
g93
sbag4
(g5
g6
Ntp5864
Rp5865
(dp5866
g10
g11
(g15
S'\x00\x00\x00\x00\x00\x00\xf8\xff'
p5867
tp5868
Rp5869
sg21
g247
sg30
g31
sg32
(dp5870
g21
g247
sg34
g11
(g15
S'\x92\x9a{Xo\x05L@'
p5871
tp5872
Rp5873
sg47
g11
(g15
S'\xb2\xb4\xb8y:\xc9\xfd?'
p5874
tp5875
Rp5876
ssg51
g11
(g12
(S'S3'
p5877
I0
I1
tp5878
Rp5879
(I3
S'|'
p5880
NNNI3
I1
I0
tp5881
bS'PCA'
p5882
tp5883
Rp5884
sg60
F0.2
sg47
g5876
sg61
g11
(g12
(S'S3'
p5885
I0
I1
tp5886
Rp5887
(I3
S'|'
p5888
NNNI3
I1
I0
tp5889
bS'VGG'
p5890
tp5891
Rp5892
sg34
g5873
sg70
g11
(g15
S'\x15\xc5@\xd4Y\xa2\xee?'
p5893
tp5894
Rp5895
sg74
g11
(g12
(S'S3'
p5896
I0
I1
tp5897
Rp5898
(I3
S'|'
p5899
NNNI3
I1
I0
tp5900
bS'SVM'
p5901
tp5902
Rp5903
sg83
I3
sg84
g85
sg86
g11
(g15
S'\xe1fKN\xac\x1b\xdf?'
p5904
tp5905
Rp5906
sg90
g91
sg92
g93
sbasS'error_curve'
p5907
(lp5908
g73
ag73
ag73
ag73
ag73
ag73
ag73
ag127
ag127
ag127
ag127
ag127
ag127
ag127
ag127
ag127
ag127
ag181
ag181
ag181
ag181
ag181
ag181
ag181
ag181
ag224
ag224
ag224
ag224
ag224
ag224
ag270
ag270
ag270
ag270
ag270
ag270
ag270
ag270
ag270
ag270
ag270
ag270
ag270
ag270
ag270
ag270
ag270
ag270
ag270
ag270
ag270
ag270
ag270
ag270
ag270
ag270
ag270
ag270
ag270
ag270
ag270
ag270
ag270
ag270
ag270
ag270
ag270
ag270
ag270
ag313
ag313
ag313
ag313
ag313
ag313
ag313
ag313
ag313
ag313
ag313
ag313
ag313
ag313
ag313
ag313
ag313
ag313
ag313
ag313
ag313
ag313
ag313
ag313
ag313
ag313
ag313
ag313
ag313
ag313
ag313
ag313
ag313
ag313
ag313
ag313
ag313
ag313
ag313
ag313
ag313
ag313
ag313
ag313
ag313
ag313
ag313
ag313
ag313
ag313
ag313
ag313
ag313
asS'iters'
p5909
I51
sg30
g31
sS'results_loc'
p5910
S'/gpfs/u/home/CGHI/CGHIarch/barn/EP_project/results/'
p5911
sS'times'
p5912
(lp5913
F22.84329891204834
aF46.40750002861023
aF46.63428282737732
aF47.09140992164612
aF48.44202399253845
aF48.920050859451294
aF51.521190881729126
aF52.03616786003113
aF52.23809099197388
aF76.43559384346008
aF77.74431300163269
aF78.23092889785767
aF102.4515929222107
aF103.06221604347229
aF125.16331696510315
aF125.38188600540161
aF151.47551798820496
aF173.81609201431274
aF173.99852085113525
aF174.47246384620667
aF197.30360794067383
aF197.50278496742249
aF197.6811180114746
aF219.487694978714
aF243.32753205299377
aF243.80437397956848
aF265.5224058628082
aF265.7125630378723
aF289.82882595062256
aF291.07133197784424
aF291.26418590545654
aF291.74174404144287
aF291.93732500076294
aF316.12796902656555
aF316.75687193870544
aF341.55803990364075
aF342.17051792144775
aF342.6162610054016
aF343.46054100990295
aF344.0320119857788
aF366.97607684135437
aF367.1734218597412
aF369.1313428878784
aF393.142746925354
aF393.707083940506
aF394.1575520038605
aF394.9678108692169
aF420.727854013443
aF445.58650398254395
aF471.24123096466064
aF471.7681908607483
aF494.0608320236206
aF496.75923800468445
aF519.3208148479462
aF541.7416708469391
aF564.8035509586334
aF565.0029139518738
aF588.5209829807281
aF588.7148609161377
aF591.6282079219818
aF591.8512568473816
aF615.3849039077759
aF638.372395992279
aF663.5747709274292
aF665.2924349308014
aF665.5106768608093
aF666.1319489479065
aF666.3636319637299
aF668.3436288833618
aF668.8155739307404
aF671.3025829792023
aF693.3360919952393
aF694.4953780174255
aF696.6565270423889
aF697.1068060398102
aF697.5656909942627
aF719.7215819358826
aF720.3206429481506
aF722.0199818611145
aF747.2735710144043
aF748.2375349998474
aF748.70458984375
aF750.2611429691315
aF774.6250560283661
aF775.0885679721832
aF800.5531468391418
aF801.5183908939362
aF802.469694852829
aF804.2613668441772
aF804.4527230262756
aF828.2774209976196
aF853.0665328502655
aF855.7246890068054
aF855.9202029705048
aF856.1080210208893
aF878.1712129116058
aF880.0194280147552
aF902.1080958843231
aF902.6732029914856
aF924.2925808429718
aF924.9038138389587
aF926.753828048706
aF927.20578789711
aF927.8228209018707
aF928.4149408340454
aF951.4379968643188
aF952.5987720489502
aF953.8057990074158
aF953.9951560497284
aF976.8327078819275
aF977.4399559497833
aF1000.9735288619995
aF1026.085037946701
aF1027.9488048553467
aF1028.5560948848724
aF1052.1004240512848
aF1052.7149438858032
aF1052.9397418498993
aF1076.801374912262
aF1102.1437578201294
aF1104.136442899704
aF1104.5890719890594
aF1104.7935178279877
asS'data_loc'
p5914
g93
sS'run'
p5915
I2
sg90
S'random_MCMC'
p5916
sb.