(iprototypes.random_based_mcmc1
random_MCMC
p0
(dp1
S'best_pipelines'
p2
(lp3
ccopy_reg
_reconstructor
p4
(cprototypes.data_analytic_pipeline
image_classification_pipeline
p5
c__builtin__
object
p6
Ntp7
Rp8
(dp9
S'f1_score'
p10
cnumpy.core.multiarray
scalar
p11
(cnumpy
dtype
p12
(S'f8'
p13
I0
I1
tp14
Rp15
(I3
S'<'
p16
NNNI-1
I-1
I0
tp17
bS'\x00\x00\x00\x00\x00\x00\xf8\xff'
p18
tp19
Rp20
sS'pca_whiten'
p21
g11
(g12
(S'b1'
p22
I0
I1
tp23
Rp24
(I3
S'|'
p25
NNNI-1
I-1
I0
tp26
bS'\x01'
p27
tp28
Rp29
sS'data_name'
p30
S'brain'
p31
sS'kwargs'
p32
(dp33
g21
g29
sS'svm_C'
p34
g11
(g15
S'V<;f\x83UK@'
p35
tp36
Rp37
sS'haralick_distance'
p38
g11
(g12
(S'i8'
p39
I0
I1
tp40
Rp41
(I3
S'<'
p42
NNNI-1
I-1
I0
tp43
bS'\x03\x00\x00\x00\x00\x00\x00\x00'
p44
tp45
Rp46
sS'svm_gamma'
p47
g11
(g15
S'"fs\xb3\x82u\xee?'
p48
tp49
Rp50
ssS'dimensionality_reduction'
p51
g11
(g12
(S'S3'
p52
I0
I1
tp53
Rp54
(I3
S'|'
p55
NNNI3
I1
I0
tp56
bS'PCA'
p57
tp58
Rp59
sS'test_size'
p60
F0.2
sg47
g50
sS'feature_extraction'
p61
g11
(g12
(S'S8'
p62
I0
I1
tp63
Rp64
(I3
S'|'
p65
NNNI8
I1
I0
tp66
bS'haralick'
p67
tp68
Rp69
sg34
g37
sg38
g46
sS'result'
p70
g11
(g15
S'\xe5\x19Z~\xe1\x81\xdf?'
p71
tp72
Rp73
sS'learning_algorithm'
p74
g11
(g12
(S'S3'
p75
I0
I1
tp76
Rp77
(I3
S'|'
p78
NNNI3
I1
I0
tp79
bS'SVM'
p80
tp81
Rp82
sS'val_splits'
p83
I3
sS'ml_type'
p84
S'validation'
p85
sS'accuracy'
p86
g11
(g15
S'\xac\x1e\xe6d{\xdd\xe5?'
p87
tp88
Rp89
sS'type1'
p90
S'random1'
p91
sS'data_location'
p92
S'/gpfs/u/home/CGHI/CGHIarch/barn/EP_project/data/'
p93
sbag4
(g5
g6
Ntp94
Rp95
(dp96
g10
g11
(g15
S'\x00\x00\x00\x00\x00\x00\xf8\xff'
p97
tp98
Rp99
sS'n_estimators'
p100
g11
(g15
S'\x00\x00\x00\x00\x00@Z@'
p101
tp102
Rp103
sg21
g11
(g24
S'\x00'
p104
tp105
Rp106
sg30
g31
sg32
(dp107
g100
g103
sS'max_features'
p108
g11
(g15
S's!\xd9\xd1\x04\xdf\xd9?'
p109
tp110
Rp111
sg21
g106
ssg51
g11
(g12
(S'S3'
p112
I0
I1
tp113
Rp114
(I3
S'|'
p115
NNNI3
I1
I0
tp116
bS'PCA'
p117
tp118
Rp119
sg60
F0.2
sg61
g11
(g12
(S'S3'
p120
I0
I1
tp121
Rp122
(I3
S'|'
p123
NNNI3
I1
I0
tp124
bS'VGG'
p125
tp126
Rp127
sg70
g11
(g15
S'\x915\x15\xbf\xa5\xef\xd9?'
p128
tp129
Rp130
sg74
g11
(g12
(S'S2'
p131
I0
I1
tp132
Rp133
(I3
S'|'
p134
NNNI2
I1
I0
tp135
bS'RF'
p136
tp137
Rp138
sg83
I3
sg108
g111
sg84
g85
sg86
g11
(g15
S'\xbcs\x1e/\x15\x90\xea?'
p139
tp140
Rp141
sg90
g91
sg92
g93
sbasS'paths'
p142
(lp143
(lp144
S'VGG'
p145
aS'PCA'
p146
aS'SVM'
p147
aa(lp148
g145
ag146
aS'RF'
p149
aa(lp150
g145
aS'ISOMAP'
p151
ag147
aa(lp152
g145
ag151
ag149
aa(lp153
S'haralick'
p154
ag146
ag147
aa(lp155
g154
ag146
ag149
aa(lp156
g154
ag151
ag147
aa(lp157
g154
ag151
ag149
aa(lp158
S'inception'
p159
ag146
ag147
aa(lp160
g159
ag146
ag149
aa(lp161
g159
ag151
ag147
aa(lp162
g159
ag151
ag149
aasS'pipeline'
p163
(dp164
S'n_neighbors'
p165
(lp166
I3
aI4
aI5
aI6
aI7
asg21
(lp167
I01
aI00
asg100
cnumpy.core.multiarray
_reconstruct
p168
(cnumpy
ndarray
p169
(I0
tp170
S'b'
p171
tp172
Rp173
(I1
(I10
tp174
g15
I00
S'\x00\x00\x00\x00\x00\x00 @\x00\x00\x00\x00\x00\x00D@\x00\x00\x00\x00\x00@R@\x00\x00\x00\x00\x00@Z@\x00\x00\x00\x00\x00@a@\x00\x00\x00\x00\x00@e@\x00\x00\x00\x00\x00`i@\x00\x00\x00\x00\x00`m@\x00\x00\x00\x00\x00\xc0p@\x00\x00\x00\x00\x00\xc0r@'
p175
tp176
bsg51
(lp177
g146
ag151
asg47
g168
(g169
(I0
tp178
g171
tp179
Rp180
(I1
(I10
tp181
g15
I00
S"{\x14\xaeG\xe1z\x84?\x102Tv\x98\xba\xec?\xe7\xd5\xc4\xb3\xa2\x91\xfc?b\xc9/\x96\xfcb\x05@\xd2'}\xd2'}\x0c@!Ce\x87\xa9\xcb\x11@X\xf2\x8b%\xbfX\x15@\x90\xa1\xb2\xc3\xd4\xe5\x18@\xc8P\xd9a\xear\x1c@\x00\x00\x00\x00\x00\x00 @"
p182
tp183
bsg61
(lp184
g145
ag154
ag159
asg38
(lp185
I1
aI2
aI3
asS'n_components'
p186
(lp187
I2
aI3
aI4
asg74
(lp188
g147
ag149
asg108
g168
(g169
(I0
tp189
g171
tp190
Rp191
(I1
(I5
tp192
g15
I00
S'333333\xd3?\x9a\x99\x99\x99\x99\x99\xd9?\x00\x00\x00\x00\x00\x00\xe0?433333\xe3?hfffff\xe6?'
p193
tp194
bsg34
g168
(g169
(I0
tp195
g171
tp196
Rp197
(I1
(I10
tp198
g15
I00
S'\x9a\x99\x99\x99\x99\x99\xb9?gfffff&@\xce\xcc\xcc\xcc\xccL6@43333\xb3@@\x01\x00\x00\x00\x00@F@\xce\xcc\xcc\xcc\xcc\xccK@\xcd\xcc\xcc\xcc\xcc\xacP@43333sS@\x9a\x99\x99\x99\x999V@\x00\x00\x00\x00\x00\x00Y@'
p199
tp200
bssS'pipelines'
p201
(lp202
g8
ag4
(g5
g6
Ntp203
Rp204
(dp205
g10
g11
(g15
S'\x00\x00\x00\x00\x00\x00\xf8\xff'
p206
tp207
Rp208
sg100
g11
(g15
S'\x00\x00\x00\x00\x00\xc0p@'
p209
tp210
Rp211
sg30
g31
sg165
g11
(g41
S'\x04\x00\x00\x00\x00\x00\x00\x00'
p212
tp213
Rp214
sg32
(dp215
g100
g211
sg165
g214
sg186
g11
(g41
S'\x03\x00\x00\x00\x00\x00\x00\x00'
p216
tp217
Rp218
sg108
g11
(g15
S'r\xa4\x94\x8b\x80\r\xdb?'
p219
tp220
Rp221
ssg51
g11
(g12
(S'S6'
p222
I0
I1
tp223
Rp224
(I3
S'|'
p225
NNNI6
I1
I0
tp226
bS'ISOMAP'
p227
tp228
Rp229
sg60
F0.2
sg186
g218
sg61
g11
(g12
(S'S3'
p230
I0
I1
tp231
Rp232
(I3
S'|'
p233
NNNI3
I1
I0
tp234
bS'VGG'
p235
tp236
Rp237
sg70
g11
(g15
S'\xf3\x87&\xe4s\x88\xe5?'
p238
tp239
Rp240
sg74
g11
(g12
(S'S2'
p241
I0
I1
tp242
Rp243
(I3
S'|'
p244
NNNI2
I1
I0
tp245
bS'RF'
p246
tp247
Rp248
sg83
I3
sg108
g221
sg84
g85
sg86
g11
(g15
S'\x9fzG\xdb\xd7\xd1\xe9?'
p249
tp250
Rp251
sg90
g91
sg92
g93
sbag4
(g5
g6
Ntp252
Rp253
(dp254
g10
g11
(g15
S'\x00\x00\x00\x00\x00\x00\xf8\xff'
p255
tp256
Rp257
sg165
g11
(g41
S'\x04\x00\x00\x00\x00\x00\x00\x00'
p258
tp259
Rp260
sg30
g31
sg32
(dp261
g165
g260
sg34
g11
(g15
S'\xedq\x1f:\x99\xb2E@'
p262
tp263
Rp264
sg186
g11
(g41
S'\x04\x00\x00\x00\x00\x00\x00\x00'
p265
tp266
Rp267
sg47
g11
(g15
S"\x99'\xf2kZ\xcf\x0b@"
p268
tp269
Rp270
ssg47
g270
sg51
g11
(g12
(S'S6'
p271
I0
I1
tp272
Rp273
(I3
S'|'
p274
NNNI6
I1
I0
tp275
bS'ISOMAP'
p276
tp277
Rp278
sg60
F0.2
sg186
g267
sg61
g11
(g12
(S'S3'
p279
I0
I1
tp280
Rp281
(I3
S'|'
p282
NNNI3
I1
I0
tp283
bS'VGG'
p284
tp285
Rp286
sg34
g264
sg70
g11
(g15
S'\xc7\xb9\xb3\x89\x90\x12\xe2?'
p287
tp288
Rp289
sg74
g11
(g12
(S'S3'
p290
I0
I1
tp291
Rp292
(I3
S'|'
p293
NNNI3
I1
I0
tp294
bS'SVM'
p295
tp296
Rp297
sg83
I3
sg84
g85
sg86
g11
(g15
S'\x7f\x8c\xe6#\xce\x85\xe8?'
p298
tp299
Rp300
sg90
g91
sg92
g93
sbag4
(g5
g6
Ntp301
Rp302
(dp303
g10
g11
(g15
S'\x00\x00\x00\x00\x00\x00\xf8\xff'
p304
tp305
Rp306
sg100
g11
(g15
S'\x00\x00\x00\x00\x00`m@'
p307
tp308
Rp309
sg21
g29
sg30
g31
sg32
(dp310
g100
g309
sg108
g11
(g15
S'\xa8\x86}ez\x9b\xe5?'
p311
tp312
Rp313
sg21
g29
sg38
g11
(g41
S'\x03\x00\x00\x00\x00\x00\x00\x00'
p314
tp315
Rp316
ssg51
g11
(g12
(S'S3'
p317
I0
I1
tp318
Rp319
(I3
S'|'
p320
NNNI3
I1
I0
tp321
bS'PCA'
p322
tp323
Rp324
sg60
F0.2
sg61
g11
(g12
(S'S8'
p325
I0
I1
tp326
Rp327
(I3
S'|'
p328
NNNI8
I1
I0
tp329
bS'haralick'
p330
tp331
Rp332
sg38
g316
sg70
g11
(g15
S'\x05\x0f\xf6\xc7[\xdc\x00@'
p333
tp334
Rp335
sg74
g11
(g12
(S'S2'
p336
I0
I1
tp337
Rp338
(I3
S'|'
p339
NNNI2
I1
I0
tp340
bS'RF'
p341
tp342
Rp343
sg83
I3
sg108
g313
sg84
g85
sg86
g11
(g15
S'\x94\x8a\xcaK\x1a~\xe6?'
p344
tp345
Rp346
sg90
g91
sg92
g93
sbag95
ag4
(g5
g6
Ntp347
Rp348
(dp349
g10
g11
(g15
S'\x00\x00\x00\x00\x00\x00\xf8\xff'
p350
tp351
Rp352
sg165
g11
(g41
S'\x04\x00\x00\x00\x00\x00\x00\x00'
p353
tp354
Rp355
sg30
g31
sg32
(dp356
g165
g355
sg34
g11
(g15
S"'\xb9\xeft\xaf\xcbW@"
p357
tp358
Rp359
sg38
g11
(g41
S'\x02\x00\x00\x00\x00\x00\x00\x00'
p360
tp361
Rp362
sg186
g11
(g41
S'\x03\x00\x00\x00\x00\x00\x00\x00'
p363
tp364
Rp365
sg47
g11
(g15
S'\xcd\xab\xa4\x88j\xc0\x91?'
p366
tp367
Rp368
ssg47
g368
sg51
g11
(g12
(S'S6'
p369
I0
I1
tp370
Rp371
(I3
S'|'
p372
NNNI6
I1
I0
tp373
bS'ISOMAP'
p374
tp375
Rp376
sg60
F0.2
sg186
g365
sg61
g11
(g12
(S'S8'
p377
I0
I1
tp378
Rp379
(I3
S'|'
p380
NNNI8
I1
I0
tp381
bS'haralick'
p382
tp383
Rp384
sg34
g359
sg38
g362
sg70
g11
(g15
S'\x03\xabq\x99\x16^\xe0?'
p385
tp386
Rp387
sg74
g11
(g12
(S'S3'
p388
I0
I1
tp389
Rp390
(I3
S'|'
p391
NNNI3
I1
I0
tp392
bS'SVM'
p393
tp394
Rp395
sg83
I3
sg84
g85
sg86
g11
(g15
S'\xed\x1f\xc9=\x10\x0c\xe7?'
p396
tp397
Rp398
sg90
g91
sg92
g93
sbag4
(g5
g6
Ntp399
Rp400
(dp401
g10
g11
(g15
S'\x00\x00\x00\x00\x00\x00\xf8\xff'
p402
tp403
Rp404
sg100
g11
(g15
S'\x00\x00\x00\x00\x00@R@'
p405
tp406
Rp407
sg30
g31
sg165
g11
(g41
S'\x05\x00\x00\x00\x00\x00\x00\x00'
p408
tp409
Rp410
sg32
(dp411
g100
g407
sg165
g410
sg38
g11
(g41
S'\x01\x00\x00\x00\x00\x00\x00\x00'
p412
tp413
Rp414
sg186
g11
(g41
S'\x04\x00\x00\x00\x00\x00\x00\x00'
p415
tp416
Rp417
sg108
g11
(g15
S'\xc5\xc9\xdc\xb5\xd3\xa0\xd6?'
p418
tp419
Rp420
ssg51
g11
(g12
(S'S6'
p421
I0
I1
tp422
Rp423
(I3
S'|'
p424
NNNI6
I1
I0
tp425
bS'ISOMAP'
p426
tp427
Rp428
sg60
F0.2
sg186
g417
sg61
g11
(g12
(S'S8'
p429
I0
I1
tp430
Rp431
(I3
S'|'
p432
NNNI8
I1
I0
tp433
bS'haralick'
p434
tp435
Rp436
sg38
g414
sg70
g11
(g15
S'k\x9e\x8a\x85<\xfb\xf0?'
p437
tp438
Rp439
sg74
g11
(g12
(S'S2'
p440
I0
I1
tp441
Rp442
(I3
S'|'
p443
NNNI2
I1
I0
tp444
bS'RF'
p445
tp446
Rp447
sg83
I3
sg108
g420
sg84
g85
sg86
g11
(g15
S'\xb5\x17\x89\xce\x0fE\xe9?'
p448
tp449
Rp450
sg90
g91
sg92
g93
sbag4
(g5
g6
Ntp451
Rp452
(dp453
g10
g11
(g15
S'\x00\x00\x00\x00\x00\x00\xf8\xff'
p454
tp455
Rp456
sg100
g11
(g15
S'\x00\x00\x00\x00\x00\xc0r@'
p457
tp458
Rp459
sg21
g29
sg30
g31
sg32
(dp460
g100
g459
sg108
g11
(g15
S'\xea}\xfeD\t\xbb\xe9?'
p461
tp462
Rp463
sg21
g29
ssg51
g11
(g12
(S'S3'
p464
I0
I1
tp465
Rp466
(I3
S'|'
p467
NNNI3
I1
I0
tp468
bS'PCA'
p469
tp470
Rp471
sg60
F0.2
sg61
g11
(g12
(S'S3'
p472
I0
I1
tp473
Rp474
(I3
S'|'
p475
NNNI3
I1
I0
tp476
bS'VGG'
p477
tp478
Rp479
sg70
g11
(g15
S'<m\x0e\x91+ \xda?'
p480
tp481
Rp482
sg74
g11
(g12
(S'S2'
p483
I0
I1
tp484
Rp485
(I3
S'|'
p486
NNNI2
I1
I0
tp487
bS'RF'
p488
tp489
Rp490
sg83
I3
sg108
g463
sg84
g85
sg86
g11
(g15
S'P\x01eot`\xea?'
p491
tp492
Rp493
sg90
g91
sg92
g93
sbag4
(g5
g6
Ntp494
Rp495
(dp496
g10
g11
(g15
S'\x00\x00\x00\x00\x00\x00\xf8\xff'
p497
tp498
Rp499
sg21
g106
sg30
g31
sg32
(dp500
g21
g106
sg34
g11
(g15
S'iM<?\xa0\xa2A@'
p501
tp502
Rp503
sg47
g11
(g15
S'#\xa9op\xb7*\x0e@'
p504
tp505
Rp506
ssg51
g11
(g12
(S'S3'
p507
I0
I1
tp508
Rp509
(I3
S'|'
p510
NNNI3
I1
I0
tp511
bS'PCA'
p512
tp513
Rp514
sg60
F0.2
sg47
g506
sg61
g11
(g12
(S'S3'
p515
I0
I1
tp516
Rp517
(I3
S'|'
p518
NNNI3
I1
I0
tp519
bS'VGG'
p520
tp521
Rp522
sg34
g503
sg70
g11
(g15
S'/\xe1P\'"\xf1\xe4?'
p523
tp524
Rp525
sg74
g11
(g12
(S'S3'
p526
I0
I1
tp527
Rp528
(I3
S'|'
p529
NNNI3
I1
I0
tp530
bS'SVM'
p531
tp532
Rp533
sg83
I3
sg84
g85
sg86
g11
(g15
S'H\x97\x93\xf4\xf6\xaa\xe6?'
p534
tp535
Rp536
sg90
g91
sg92
g93
sbag4
(g5
g6
Ntp537
Rp538
(dp539
g10
g11
(g15
S'\x00\x00\x00\x00\x00\x00\xf8\xff'
p540
tp541
Rp542
sg165
g11
(g41
S'\x06\x00\x00\x00\x00\x00\x00\x00'
p543
tp544
Rp545
sg30
g31
sg32
(dp546
g165
g545
sg34
g11
(g15
S'\xc2?\x8f\x1b\x8e~6@'
p547
tp548
Rp549
sg186
g11
(g41
S'\x03\x00\x00\x00\x00\x00\x00\x00'
p550
tp551
Rp552
sg47
g11
(g15
S'n\xe6]\xa2gr\x1f@'
p553
tp554
Rp555
ssg47
g555
sg51
g11
(g12
(S'S6'
p556
I0
I1
tp557
Rp558
(I3
S'|'
p559
NNNI6
I1
I0
tp560
bS'ISOMAP'
p561
tp562
Rp563
sg60
F0.2
sg186
g552
sg61
g11
(g12
(S'S9'
p564
I0
I1
tp565
Rp566
(I3
S'|'
p567
NNNI9
I1
I0
tp568
bS'inception'
p569
tp570
Rp571
sg34
g549
sg70
g11
(g15
S'\x87\xc0\xa1\xcd\xa3A\xe5?'
p572
tp573
Rp574
sg74
g11
(g12
(S'S3'
p575
I0
I1
tp576
Rp577
(I3
S'|'
p578
NNNI3
I1
I0
tp579
bS'SVM'
p580
tp581
Rp582
sg83
I3
sg84
g85
sg86
g11
(g15
S'A\x91\xf2u\xb3\xee\xe4?'
p583
tp584
Rp585
sg90
g91
sg92
g93
sbag4
(g5
g6
Ntp586
Rp587
(dp588
g10
g11
(g15
S'\x00\x00\x00\x00\x00\x00\xf8\xff'
p589
tp590
Rp591
sg21
g29
sg30
g31
sg32
(dp592
g21
g29
sg34
g11
(g15
S'\xfc\x17_"\x8a\x1bN@'
p593
tp594
Rp595
sg47
g11
(g15
S'@\x03\xf4\xdc\x1ds\x05@'
p596
tp597
Rp598
ssg51
g11
(g12
(S'S3'
p599
I0
I1
tp600
Rp601
(I3
S'|'
p602
NNNI3
I1
I0
tp603
bS'PCA'
p604
tp605
Rp606
sg60
F0.2
sg47
g598
sg61
g11
(g12
(S'S9'
p607
I0
I1
tp608
Rp609
(I3
S'|'
p610
NNNI9
I1
I0
tp611
bS'inception'
p612
tp613
Rp614
sg34
g595
sg70
g11
(g15
S'\x18B\x0c3\xe3>\xe3?'
p615
tp616
Rp617
sg74
g11
(g12
(S'S3'
p618
I0
I1
tp619
Rp620
(I3
S'|'
p621
NNNI3
I1
I0
tp622
bS'SVM'
p623
tp624
Rp625
sg83
I3
sg84
g85
sg86
g11
(g15
S'{\xfa1\xe9\x05\x8e\xe5?'
p626
tp627
Rp628
sg90
g91
sg92
g93
sbag4
(g5
g6
Ntp629
Rp630
(dp631
g10
g11
(g15
S'\x00\x00\x00\x00\x00\x00\xf8\xff'
p632
tp633
Rp634
sg165
g11
(g41
S'\x05\x00\x00\x00\x00\x00\x00\x00'
p635
tp636
Rp637
sg30
g31
sg32
(dp638
g165
g637
sg34
g11
(g15
S'\x8b\xdf\xe2\t\x8d\x11;@'
p639
tp640
Rp641
sg186
g11
(g41
S'\x03\x00\x00\x00\x00\x00\x00\x00'
p642
tp643
Rp644
sg47
g11
(g15
S'5\xa5\xa6\xc0Q\x9f\x19@'
p645
tp646
Rp647
ssg47
g647
sg51
g11
(g12
(S'S6'
p648
I0
I1
tp649
Rp650
(I3
S'|'
p651
NNNI6
I1
I0
tp652
bS'ISOMAP'
p653
tp654
Rp655
sg60
F0.2
sg186
g644
sg61
g11
(g12
(S'S3'
p656
I0
I1
tp657
Rp658
(I3
S'|'
p659
NNNI3
I1
I0
tp660
bS'VGG'
p661
tp662
Rp663
sg34
g641
sg70
g11
(g15
S'K\xa6?x\x82\xc6\xe1?'
p664
tp665
Rp666
sg74
g11
(g12
(S'S3'
p667
I0
I1
tp668
Rp669
(I3
S'|'
p670
NNNI3
I1
I0
tp671
bS'SVM'
p672
tp673
Rp674
sg83
I3
sg84
g85
sg86
g11
(g15
S'CG\x06\xf0Z&\xe8?'
p675
tp676
Rp677
sg90
g91
sg92
g93
sbag4
(g5
g6
Ntp678
Rp679
(dp680
g10
g11
(g15
S'\x00\x00\x00\x00\x00\x00\xf8\xff'
p681
tp682
Rp683
sg165
g11
(g41
S'\x06\x00\x00\x00\x00\x00\x00\x00'
p684
tp685
Rp686
sg30
g31
sg32
(dp687
g165
g686
sg34
g11
(g15
S'\\2\x1b\n\n\x07>@'
p688
tp689
Rp690
sg186
g11
(g41
S'\x04\x00\x00\x00\x00\x00\x00\x00'
p691
tp692
Rp693
sg47
g11
(g15
S'!g\xcc%DL\xc5?'
p694
tp695
Rp696
ssg47
g696
sg51
g11
(g12
(S'S6'
p697
I0
I1
tp698
Rp699
(I3
S'|'
p700
NNNI6
I1
I0
tp701
bS'ISOMAP'
p702
tp703
Rp704
sg60
F0.2
sg186
g693
sg61
g11
(g12
(S'S9'
p705
I0
I1
tp706
Rp707
(I3
S'|'
p708
NNNI9
I1
I0
tp709
bS'inception'
p710
tp711
Rp712
sg34
g690
sg70
g11
(g15
S'\r\x90\x1a\x12\xddR\xe5?'
p713
tp714
Rp715
sg74
g11
(g12
(S'S3'
p716
I0
I1
tp717
Rp718
(I3
S'|'
p719
NNNI3
I1
I0
tp720
bS'SVM'
p721
tp722
Rp723
sg83
I3
sg84
g85
sg86
g11
(g15
S'\xefHP\x90q\xc4\xe3?'
p724
tp725
Rp726
sg90
g91
sg92
g93
sbag4
(g5
g6
Ntp727
Rp728
(dp729
g10
g11
(g15
S'\x00\x00\x00\x00\x00\x00\xf8\xff'
p730
tp731
Rp732
sg21
g106
sg30
g31
sg32
(dp733
g21
g106
sg34
g11
(g15
S'9\x1f\xe1\x9c\x82\xcdF@'
p734
tp735
Rp736
sg47
g11
(g15
S'\x16q1VFM\x10@'
p737
tp738
Rp739
ssg51
g11
(g12
(S'S3'
p740
I0
I1
tp741
Rp742
(I3
S'|'
p743
NNNI3
I1
I0
tp744
bS'PCA'
p745
tp746
Rp747
sg60
F0.2
sg47
g739
sg61
g11
(g12
(S'S9'
p748
I0
I1
tp749
Rp750
(I3
S'|'
p751
NNNI9
I1
I0
tp752
bS'inception'
p753
tp754
Rp755
sg34
g736
sg70
g11
(g15
S'u\x8d\xa8\x17\xc1M\xe3?'
p756
tp757
Rp758
sg74
g11
(g12
(S'S3'
p759
I0
I1
tp760
Rp761
(I3
S'|'
p762
NNNI3
I1
I0
tp763
bS'SVM'
p764
tp765
Rp766
sg83
I3
sg84
g85
sg86
g11
(g15
S'\xe8J\x88q\xb7\x9d\xe5?'
p767
tp768
Rp769
sg90
g91
sg92
g93
sbag4
(g5
g6
Ntp770
Rp771
(dp772
g10
g11
(g15
S'\x00\x00\x00\x00\x00\x00\xf8\xff'
p773
tp774
Rp775
sg100
g11
(g15
S'\x00\x00\x00\x00\x00@a@'
p776
tp777
Rp778
sg30
g31
sg165
g11
(g41
S'\x05\x00\x00\x00\x00\x00\x00\x00'
p779
tp780
Rp781
sg32
(dp782
g100
g778
sg165
g781
sg186
g11
(g41
S'\x04\x00\x00\x00\x00\x00\x00\x00'
p783
tp784
Rp785
sg108
g11
(g15
S'\x90\x9f\x06\xb8\x1b\x82\xdb?'
p786
tp787
Rp788
ssg51
g11
(g12
(S'S6'
p789
I0
I1
tp790
Rp791
(I3
S'|'
p792
NNNI6
I1
I0
tp793
bS'ISOMAP'
p794
tp795
Rp796
sg60
F0.2
sg186
g785
sg61
g11
(g12
(S'S3'
p797
I0
I1
tp798
Rp799
(I3
S'|'
p800
NNNI3
I1
I0
tp801
bS'VGG'
p802
tp803
Rp804
sg70
g11
(g15
S'\xa3\xbfF\xcaJ`\xe2?'
p805
tp806
Rp807
sg74
g11
(g12
(S'S2'
p808
I0
I1
tp809
Rp810
(I3
S'|'
p811
NNNI2
I1
I0
tp812
bS'RF'
p813
tp814
Rp815
sg83
I3
sg108
g788
sg84
g85
sg86
g11
(g15
S'\xfb\x7f\xae\x90\xdd!\xea?'
p816
tp817
Rp818
sg90
g91
sg92
g93
sbag4
(g5
g6
Ntp819
Rp820
(dp821
g10
g11
(g15
S'\x00\x00\x00\x00\x00\x00\xf8\xff'
p822
tp823
Rp824
sg165
g11
(g41
S'\x03\x00\x00\x00\x00\x00\x00\x00'
p825
tp826
Rp827
sg30
g31
sg32
(dp828
g165
g827
sg34
g11
(g15
S'\xe2\xb2\x11\x8a\xef\x99>@'
p829
tp830
Rp831
sg186
g11
(g41
S'\x03\x00\x00\x00\x00\x00\x00\x00'
p832
tp833
Rp834
sg47
g11
(g15
S'.1\x1f\xcc\x0c\x91\x16@'
p835
tp836
Rp837
ssg47
g837
sg51
g11
(g12
(S'S6'
p838
I0
I1
tp839
Rp840
(I3
S'|'
p841
NNNI6
I1
I0
tp842
bS'ISOMAP'
p843
tp844
Rp845
sg60
F0.2
sg186
g834
sg61
g11
(g12
(S'S9'
p846
I0
I1
tp847
Rp848
(I3
S'|'
p849
NNNI9
I1
I0
tp850
bS'inception'
p851
tp852
Rp853
sg34
g831
sg70
g11
(g15
S'\x9cv\xff\xe1j\xa6\xe7?'
p854
tp855
Rp856
sg74
g11
(g12
(S'S3'
p857
I0
I1
tp858
Rp859
(I3
S'|'
p860
NNNI3
I1
I0
tp861
bS'SVM'
p862
tp863
Rp864
sg83
I3
sg84
g85
sg86
g11
(g15
S'I\xdd\x87jo3\xe3?'
p865
tp866
Rp867
sg90
g91
sg92
g93
sbag4
(g5
g6
Ntp868
Rp869
(dp870
g10
g11
(g15
S'\x00\x00\x00\x00\x00\x00\xf8\xff'
p871
tp872
Rp873
sg100
g11
(g15
S'\x00\x00\x00\x00\x00\xc0r@'
p874
tp875
Rp876
sg30
g31
sg165
g11
(g41
S'\x03\x00\x00\x00\x00\x00\x00\x00'
p877
tp878
Rp879
sg32
(dp880
g100
g876
sg165
g879
sg38
g11
(g41
S'\x03\x00\x00\x00\x00\x00\x00\x00'
p881
tp882
Rp883
sg186
g11
(g41
S'\x04\x00\x00\x00\x00\x00\x00\x00'
p884
tp885
Rp886
sg108
g11
(g15
S'\x06\x87X\x14\x19\xd0\xe1?'
p887
tp888
Rp889
ssg51
g11
(g12
(S'S6'
p890
I0
I1
tp891
Rp892
(I3
S'|'
p893
NNNI6
I1
I0
tp894
bS'ISOMAP'
p895
tp896
Rp897
sg60
F0.2
sg186
g886
sg61
g11
(g12
(S'S8'
p898
I0
I1
tp899
Rp900
(I3
S'|'
p901
NNNI8
I1
I0
tp902
bS'haralick'
p903
tp904
Rp905
sg38
g883
sg70
g11
(g15
S'\x909\xf8\xe3\xbb\xc9\xf8?'
p906
tp907
Rp908
sg74
g11
(g12
(S'S2'
p909
I0
I1
tp910
Rp911
(I3
S'|'
p912
NNNI2
I1
I0
tp913
bS'RF'
p914
tp915
Rp916
sg83
I3
sg108
g889
sg84
g85
sg86
g11
(g15
S'\xe8\xc8\xbd\xac U\xe9?'
p917
tp918
Rp919
sg90
g91
sg92
g93
sbag4
(g5
g6
Ntp920
Rp921
(dp922
g10
g11
(g15
S'\x00\x00\x00\x00\x00\x00\xf8\xff'
p923
tp924
Rp925
sg100
g11
(g15
S'\x00\x00\x00\x00\x00@e@'
p926
tp927
Rp928
sg21
g29
sg30
g31
sg32
(dp929
g100
g928
sg108
g11
(g15
S'\xe8\x95/J1\x02\xef?'
p930
tp931
Rp932
sg21
g29
ssg51
g11
(g12
(S'S3'
p933
I0
I1
tp934
Rp935
(I3
S'|'
p936
NNNI3
I1
I0
tp937
bS'PCA'
p938
tp939
Rp940
sg60
F0.2
sg61
g11
(g12
(S'S9'
p941
I0
I1
tp942
Rp943
(I3
S'|'
p944
NNNI9
I1
I0
tp945
bS'inception'
p946
tp947
Rp948
sg70
g11
(g15
S'\x8f\n\x91\x871\xf1\xe6?'
p949
tp950
Rp951
sg74
g11
(g12
(S'S2'
p952
I0
I1
tp953
Rp954
(I3
S'|'
p955
NNNI2
I1
I0
tp956
bS'RF'
p957
tp958
Rp959
sg83
I3
sg108
g932
sg84
g85
sg86
g11
(g15
S'u\xf98\xd2cF\xe8?'
p960
tp961
Rp962
sg90
g91
sg92
g93
sbag4
(g5
g6
Ntp963
Rp964
(dp965
g10
g11
(g15
S'\x00\x00\x00\x00\x00\x00\xf8\xff'
p966
tp967
Rp968
sg100
g11
(g15
S'\x00\x00\x00\x00\x00\x00D@'
p969
tp970
Rp971
sg21
g29
sg30
g31
sg32
(dp972
g100
g971
sg108
g11
(g15
S'\xfa\xb4P\xd4\xf87\xe3?'
p973
tp974
Rp975
sg21
g29
ssg51
g11
(g12
(S'S3'
p976
I0
I1
tp977
Rp978
(I3
S'|'
p979
NNNI3
I1
I0
tp980
bS'PCA'
p981
tp982
Rp983
sg60
F0.2
sg61
g11
(g12
(S'S9'
p984
I0
I1
tp985
Rp986
(I3
S'|'
p987
NNNI9
I1
I0
tp988
bS'inception'
p989
tp990
Rp991
sg70
g11
(g15
S'\x1d\x80I\x8c\xf4.\xed?'
p992
tp993
Rp994
sg74
g11
(g12
(S'S2'
p995
I0
I1
tp996
Rp997
(I3
S'|'
p998
NNNI2
I1
I0
tp999
bS'RF'
p1000
tp1001
Rp1002
sg83
I3
sg108
g975
sg84
g85
sg86
g11
(g15
S'\x15\x173XE&\xe8?'
p1003
tp1004
Rp1005
sg90
g91
sg92
g93
sbag4
(g5
g6
Ntp1006
Rp1007
(dp1008
g10
g11
(g15
S'\x00\x00\x00\x00\x00\x00\xf8\xff'
p1009
tp1010
Rp1011
sg100
g11
(g15
S'\x00\x00\x00\x00\x00\x00D@'
p1012
tp1013
Rp1014
sg21
g106
sg30
g31
sg32
(dp1015
g100
g1014
sg108
g11
(g15
S'\xb4\xfa\x04&\xa0E\xdd?'
p1016
tp1017
Rp1018
sg21
g106
sg38
g11
(g41
S'\x03\x00\x00\x00\x00\x00\x00\x00'
p1019
tp1020
Rp1021
ssg51
g11
(g12
(S'S3'
p1022
I0
I1
tp1023
Rp1024
(I3
S'|'
p1025
NNNI3
I1
I0
tp1026
bS'PCA'
p1027
tp1028
Rp1029
sg60
F0.2
sg61
g11
(g12
(S'S8'
p1030
I0
I1
tp1031
Rp1032
(I3
S'|'
p1033
NNNI8
I1
I0
tp1034
bS'haralick'
p1035
tp1036
Rp1037
sg38
g1021
sg70
g11
(g15
S'7\x8f=n\x18m\x07@'
p1038
tp1039
Rp1040
sg74
g11
(g12
(S'S2'
p1041
I0
I1
tp1042
Rp1043
(I3
S'|'
p1044
NNNI2
I1
I0
tp1045
bS'RF'
p1046
tp1047
Rp1048
sg83
I3
sg108
g1018
sg84
g85
sg86
g11
(g15
S'%<p\xcbX\x8e\xe6?'
p1049
tp1050
Rp1051
sg90
g91
sg92
g93
sbag4
(g5
g6
Ntp1052
Rp1053
(dp1054
g10
g11
(g15
S'\x00\x00\x00\x00\x00\x00\xf8\xff'
p1055
tp1056
Rp1057
sg165
g11
(g41
S'\x05\x00\x00\x00\x00\x00\x00\x00'
p1058
tp1059
Rp1060
sg30
g31
sg32
(dp1061
g165
g1060
sg34
g11
(g15
S'\x89W\xadZ\xe3\x87J@'
p1062
tp1063
Rp1064
sg38
g11
(g41
S'\x02\x00\x00\x00\x00\x00\x00\x00'
p1065
tp1066
Rp1067
sg186
g11
(g41
S'\x02\x00\x00\x00\x00\x00\x00\x00'
p1068
tp1069
Rp1070
sg47
g11
(g15
S'\xf7m\xe8\x8e\x02w\x03@'
p1071
tp1072
Rp1073
ssg47
g1073
sg51
g11
(g12
(S'S6'
p1074
I0
I1
tp1075
Rp1076
(I3
S'|'
p1077
NNNI6
I1
I0
tp1078
bS'ISOMAP'
p1079
tp1080
Rp1081
sg60
F0.2
sg186
g1070
sg61
g11
(g12
(S'S8'
p1082
I0
I1
tp1083
Rp1084
(I3
S'|'
p1085
NNNI8
I1
I0
tp1086
bS'haralick'
p1087
tp1088
Rp1089
sg34
g1064
sg38
g1067
sg70
g11
(g15
S'\x9b\xfduU\x1b,\xe0?'
p1090
tp1091
Rp1092
sg74
g11
(g12
(S'S3'
p1093
I0
I1
tp1094
Rp1095
(I3
S'|'
p1096
NNNI3
I1
I0
tp1097
bS'SVM'
p1098
tp1099
Rp1100
sg83
I3
sg84
g85
sg86
g11
(g15
S'd\xef\xd9\x88X\xdd\xe6?'
p1101
tp1102
Rp1103
sg90
g91
sg92
g93
sbag4
(g5
g6
Ntp1104
Rp1105
(dp1106
g10
g11
(g15
S'\x00\x00\x00\x00\x00\x00\xf8\xff'
p1107
tp1108
Rp1109
sg100
g11
(g15
S'\x00\x00\x00\x00\x00\x00D@'
p1110
tp1111
Rp1112
sg30
g31
sg165
g11
(g41
S'\x06\x00\x00\x00\x00\x00\x00\x00'
p1113
tp1114
Rp1115
sg32
(dp1116
g100
g1112
sg165
g1115
sg38
g11
(g41
S'\x03\x00\x00\x00\x00\x00\x00\x00'
p1117
tp1118
Rp1119
sg186
g11
(g41
S'\x03\x00\x00\x00\x00\x00\x00\x00'
p1120
tp1121
Rp1122
sg108
g11
(g15
S'\x0e\xdf\xb4\xbcY\xfc\xe5?'
p1123
tp1124
Rp1125
ssg51
g11
(g12
(S'S6'
p1126
I0
I1
tp1127
Rp1128
(I3
S'|'
p1129
NNNI6
I1
I0
tp1130
bS'ISOMAP'
p1131
tp1132
Rp1133
sg60
F0.2
sg186
g1122
sg61
g11
(g12
(S'S8'
p1134
I0
I1
tp1135
Rp1136
(I3
S'|'
p1137
NNNI8
I1
I0
tp1138
bS'haralick'
p1139
tp1140
Rp1141
sg38
g1119
sg70
g11
(g15
S'\x88\xf1\x16\xcbn+\xf6?'
p1142
tp1143
Rp1144
sg74
g11
(g12
(S'S2'
p1145
I0
I1
tp1146
Rp1147
(I3
S'|'
p1148
NNNI2
I1
I0
tp1149
bS'RF'
p1150
tp1151
Rp1152
sg83
I3
sg108
g1125
sg84
g85
sg86
g11
(g15
S'4\xd2\x00it\x13\xea?'
p1153
tp1154
Rp1155
sg90
g91
sg92
g93
sbag4
(g5
g6
Ntp1156
Rp1157
(dp1158
g10
g11
(g15
S'\x00\x00\x00\x00\x00\x00\xf8\xff'
p1159
tp1160
Rp1161
sg100
g11
(g15
S'\x00\x00\x00\x00\x00\x00 @'
p1162
tp1163
Rp1164
sg21
g106
sg30
g31
sg32
(dp1165
g100
g1164
sg108
g11
(g15
S'\xc2\x0cc\x1b\x01\xef\xe3?'
p1166
tp1167
Rp1168
sg21
g106
sg38
g11
(g41
S'\x03\x00\x00\x00\x00\x00\x00\x00'
p1169
tp1170
Rp1171
ssg51
g11
(g12
(S'S3'
p1172
I0
I1
tp1173
Rp1174
(I3
S'|'
p1175
NNNI3
I1
I0
tp1176
bS'PCA'
p1177
tp1178
Rp1179
sg60
F0.2
sg61
g11
(g12
(S'S8'
p1180
I0
I1
tp1181
Rp1182
(I3
S'|'
p1183
NNNI8
I1
I0
tp1184
bS'haralick'
p1185
tp1186
Rp1187
sg38
g1171
sg70
g11
(g15
S'i%.\xaf\x9a\xca\x11@'
p1188
tp1189
Rp1190
sg74
g11
(g12
(S'S2'
p1191
I0
I1
tp1192
Rp1193
(I3
S'|'
p1194
NNNI2
I1
I0
tp1195
bS'RF'
p1196
tp1197
Rp1198
sg83
I3
sg108
g1168
sg84
g85
sg86
g11
(g15
S'\xd0\xee\x13\xab\x94\xcd\xe6?'
p1199
tp1200
Rp1201
sg90
g91
sg92
g93
sbag4
(g5
g6
Ntp1202
Rp1203
(dp1204
g10
g11
(g15
S'\x00\x00\x00\x00\x00\x00\xf8\xff'
p1205
tp1206
Rp1207
sg100
g11
(g15
S'\x00\x00\x00\x00\x00\x00D@'
p1208
tp1209
Rp1210
sg21
g106
sg30
g31
sg32
(dp1211
g100
g1210
sg108
g11
(g15
S'\x9f\xbc\xe0\xb2\xca\x80\xe0?'
p1212
tp1213
Rp1214
sg21
g106
ssg51
g11
(g12
(S'S3'
p1215
I0
I1
tp1216
Rp1217
(I3
S'|'
p1218
NNNI3
I1
I0
tp1219
bS'PCA'
p1220
tp1221
Rp1222
sg60
F0.2
sg61
g11
(g12
(S'S9'
p1223
I0
I1
tp1224
Rp1225
(I3
S'|'
p1226
NNNI9
I1
I0
tp1227
bS'inception'
p1228
tp1229
Rp1230
sg70
g11
(g15
S'=\xfbU\x8a\xd1\x95\xe8?'
p1231
tp1232
Rp1233
sg74
g11
(g12
(S'S2'
p1234
I0
I1
tp1235
Rp1236
(I3
S'|'
p1237
NNNI2
I1
I0
tp1238
bS'RF'
p1239
tp1240
Rp1241
sg83
I3
sg108
g1214
sg84
g85
sg86
g11
(g15
S'\x98\xabO\xab\xda\x94\xe8?'
p1242
tp1243
Rp1244
sg90
g91
sg92
g93
sbag4
(g5
g6
Ntp1245
Rp1246
(dp1247
g10
g11
(g15
S'\x00\x00\x00\x00\x00\x00\xf8\xff'
p1248
tp1249
Rp1250
sg21
g106
sg30
g31
sg32
(dp1251
g21
g106
sg34
g11
(g15
S"\x1f\x0b\xd1'I\x99P@"
p1252
tp1253
Rp1254
sg47
g11
(g15
S'>2l\x88\xbf\xe7\x11@'
p1255
tp1256
Rp1257
ssg51
g11
(g12
(S'S3'
p1258
I0
I1
tp1259
Rp1260
(I3
S'|'
p1261
NNNI3
I1
I0
tp1262
bS'PCA'
p1263
tp1264
Rp1265
sg60
F0.2
sg47
g1257
sg61
g11
(g12
(S'S3'
p1266
I0
I1
tp1267
Rp1268
(I3
S'|'
p1269
NNNI3
I1
I0
tp1270
bS'VGG'
p1271
tp1272
Rp1273
sg34
g1254
sg70
g11
(g15
S'\xeb\x14\xf9\xd0\x05\x0f\xe6?'
p1274
tp1275
Rp1276
sg74
g11
(g12
(S'S3'
p1277
I0
I1
tp1278
Rp1279
(I3
S'|'
p1280
NNNI3
I1
I0
tp1281
bS'SVM'
p1282
tp1283
Rp1284
sg83
I3
sg84
g85
sg86
g11
(g15
S'\xe9~7\xb4\x15\xed\xe5?'
p1285
tp1286
Rp1287
sg90
g91
sg92
g93
sbag4
(g5
g6
Ntp1288
Rp1289
(dp1290
g10
g11
(g15
S'\x00\x00\x00\x00\x00\x00\xf8\xff'
p1291
tp1292
Rp1293
sg21
g106
sg30
g31
sg32
(dp1294
g21
g106
sg34
g11
(g15
S', aO\xb7\xf6I@'
p1295
tp1296
Rp1297
sg47
g11
(g15
S'\xd0\x11\xca\xf3\xe6\x9e\x0c@'
p1298
tp1299
Rp1300
ssg51
g11
(g12
(S'S3'
p1301
I0
I1
tp1302
Rp1303
(I3
S'|'
p1304
NNNI3
I1
I0
tp1305
bS'PCA'
p1306
tp1307
Rp1308
sg60
F0.2
sg47
g1300
sg61
g11
(g12
(S'S9'
p1309
I0
I1
tp1310
Rp1311
(I3
S'|'
p1312
NNNI9
I1
I0
tp1313
bS'inception'
p1314
tp1315
Rp1316
sg34
g1297
sg70
g11
(g15
S'\xa9\x9cU1\xab]\xe3?'
p1317
tp1318
Rp1319
sg74
g11
(g12
(S'S3'
p1320
I0
I1
tp1321
Rp1322
(I3
S'|'
p1323
NNNI3
I1
I0
tp1324
bS'SVM'
p1325
tp1326
Rp1327
sg83
I3
sg84
g85
sg86
g11
(g15
S'\xe8K\x86u\xaf\xad\xe5?'
p1328
tp1329
Rp1330
sg90
g91
sg92
g93
sbag4
(g5
g6
Ntp1331
Rp1332
(dp1333
g10
g11
(g15
S'\x00\x00\x00\x00\x00\x00\xf8\xff'
p1334
tp1335
Rp1336
sg165
g11
(g41
S'\x04\x00\x00\x00\x00\x00\x00\x00'
p1337
tp1338
Rp1339
sg30
g31
sg32
(dp1340
g165
g1339
sg34
g11
(g15
S'LT\x05\x12\xdf\xbcT@'
p1341
tp1342
Rp1343
sg186
g11
(g41
S'\x02\x00\x00\x00\x00\x00\x00\x00'
p1344
tp1345
Rp1346
sg47
g11
(g15
S'L\xa0\xaeP\xbd\xc0\xec?'
p1347
tp1348
Rp1349
ssg47
g1349
sg51
g11
(g12
(S'S6'
p1350
I0
I1
tp1351
Rp1352
(I3
S'|'
p1353
NNNI6
I1
I0
tp1354
bS'ISOMAP'
p1355
tp1356
Rp1357
sg60
F0.2
sg186
g1346
sg61
g11
(g12
(S'S9'
p1358
I0
I1
tp1359
Rp1360
(I3
S'|'
p1361
NNNI9
I1
I0
tp1362
bS'inception'
p1363
tp1364
Rp1365
sg34
g1343
sg70
g11
(g15
S'\xec\x92\x13K[@\xe8?'
p1366
tp1367
Rp1368
sg74
g11
(g12
(S'S3'
p1369
I0
I1
tp1370
Rp1371
(I3
S'|'
p1372
NNNI3
I1
I0
tp1373
bS'SVM'
p1374
tp1375
Rp1376
sg83
I3
sg84
g85
sg86
g11
(g15
S'\xe9s-\\\xa46\xe3?'
p1377
tp1378
Rp1379
sg90
g91
sg92
g93
sbag4
(g5
g6
Ntp1380
Rp1381
(dp1382
g10
g11
(g15
S'\x00\x00\x00\x00\x00\x00\xf8\xff'
p1383
tp1384
Rp1385
sg100
g11
(g15
S'\x00\x00\x00\x00\x00\xc0p@'
p1386
tp1387
Rp1388
sg21
g29
sg30
g31
sg32
(dp1389
g100
g1388
sg108
g11
(g15
S'\xc2\xcdD\xb3Nq\xd8?'
p1390
tp1391
Rp1392
sg21
g29
ssg51
g11
(g12
(S'S3'
p1393
I0
I1
tp1394
Rp1395
(I3
S'|'
p1396
NNNI3
I1
I0
tp1397
bS'PCA'
p1398
tp1399
Rp1400
sg60
F0.2
sg61
g11
(g12
(S'S9'
p1401
I0
I1
tp1402
Rp1403
(I3
S'|'
p1404
NNNI9
I1
I0
tp1405
bS'inception'
p1406
tp1407
Rp1408
sg70
g11
(g15
S'LB\xc7\xe5\\9\xe1?'
p1409
tp1410
Rp1411
sg74
g11
(g12
(S'S2'
p1412
I0
I1
tp1413
Rp1414
(I3
S'|'
p1415
NNNI2
I1
I0
tp1416
bS'RF'
p1417
tp1418
Rp1419
sg83
I3
sg108
g1392
sg84
g85
sg86
g11
(g15
S'\xa7\xc7\xda\xd3\x8b&\xe8?'
p1420
tp1421
Rp1422
sg90
g91
sg92
g93
sbag4
(g5
g6
Ntp1423
Rp1424
(dp1425
g10
g11
(g15
S'\x00\x00\x00\x00\x00\x00\xf8\xff'
p1426
tp1427
Rp1428
sg100
g11
(g15
S'\x00\x00\x00\x00\x00\xc0p@'
p1429
tp1430
Rp1431
sg21
g29
sg30
g31
sg32
(dp1432
g100
g1431
sg108
g11
(g15
S'\xcb\xe7\xda\x89-c\xe9?'
p1433
tp1434
Rp1435
sg21
g29
ssg51
g11
(g12
(S'S3'
p1436
I0
I1
tp1437
Rp1438
(I3
S'|'
p1439
NNNI3
I1
I0
tp1440
bS'PCA'
p1441
tp1442
Rp1443
sg60
F0.2
sg61
g11
(g12
(S'S3'
p1444
I0
I1
tp1445
Rp1446
(I3
S'|'
p1447
NNNI3
I1
I0
tp1448
bS'VGG'
p1449
tp1450
Rp1451
sg70
g11
(g15
S'k\xe8*\xdaM%\xda?'
p1452
tp1453
Rp1454
sg74
g11
(g12
(S'S2'
p1455
I0
I1
tp1456
Rp1457
(I3
S'|'
p1458
NNNI2
I1
I0
tp1459
bS'RF'
p1460
tp1461
Rp1462
sg83
I3
sg108
g1435
sg84
g85
sg86
g11
(g15
S'Y\xb4y\xf0\xdd\x9f\xea?'
p1463
tp1464
Rp1465
sg90
g91
sg92
g93
sbag4
(g5
g6
Ntp1466
Rp1467
(dp1468
g10
g11
(g15
S'\x00\x00\x00\x00\x00\x00\xf8\xff'
p1469
tp1470
Rp1471
sg165
g11
(g41
S'\x06\x00\x00\x00\x00\x00\x00\x00'
p1472
tp1473
Rp1474
sg30
g31
sg32
(dp1475
g165
g1474
sg34
g11
(g15
S'|\xf2\x91\xe9Z\xdeH@'
p1476
tp1477
Rp1478
sg38
g11
(g41
S'\x02\x00\x00\x00\x00\x00\x00\x00'
p1479
tp1480
Rp1481
sg186
g11
(g41
S'\x04\x00\x00\x00\x00\x00\x00\x00'
p1482
tp1483
Rp1484
sg47
g11
(g15
S'\xbej\xd7\x8fVI\x16@'
p1485
tp1486
Rp1487
ssg47
g1487
sg51
g11
(g12
(S'S6'
p1488
I0
I1
tp1489
Rp1490
(I3
S'|'
p1491
NNNI6
I1
I0
tp1492
bS'ISOMAP'
p1493
tp1494
Rp1495
sg60
F0.2
sg186
g1484
sg61
g11
(g12
(S'S8'
p1496
I0
I1
tp1497
Rp1498
(I3
S'|'
p1499
NNNI8
I1
I0
tp1500
bS'haralick'
p1501
tp1502
Rp1503
sg34
g1478
sg38
g1481
sg70
g11
(g15
S'\xbe\x85\x99\x87\xdcA\xe1?'
p1504
tp1505
Rp1506
sg74
g11
(g12
(S'S3'
p1507
I0
I1
tp1508
Rp1509
(I3
S'|'
p1510
NNNI3
I1
I0
tp1511
bS'SVM'
p1512
tp1513
Rp1514
sg83
I3
sg84
g85
sg86
g11
(g15
S'\xc5\x19-P\x1d\xf9\xe7?'
p1515
tp1516
Rp1517
sg90
g91
sg92
g93
sbag4
(g5
g6
Ntp1518
Rp1519
(dp1520
g10
g11
(g15
S'\x00\x00\x00\x00\x00\x00\xf8\xff'
p1521
tp1522
Rp1523
sg100
g11
(g15
S'\x00\x00\x00\x00\x00@Z@'
p1524
tp1525
Rp1526
sg21
g29
sg30
g31
sg32
(dp1527
g100
g1526
sg108
g11
(g15
S'\xda\xdd\xb0vD\x89\xe6?'
p1528
tp1529
Rp1530
sg21
g29
sg38
g11
(g41
S'\x02\x00\x00\x00\x00\x00\x00\x00'
p1531
tp1532
Rp1533
ssg51
g11
(g12
(S'S3'
p1534
I0
I1
tp1535
Rp1536
(I3
S'|'
p1537
NNNI3
I1
I0
tp1538
bS'PCA'
p1539
tp1540
Rp1541
sg60
F0.2
sg61
g11
(g12
(S'S8'
p1542
I0
I1
tp1543
Rp1544
(I3
S'|'
p1545
NNNI8
I1
I0
tp1546
bS'haralick'
p1547
tp1548
Rp1549
sg38
g1533
sg70
g11
(g15
S'\x01rSf\x8c\xb5\x01@'
p1550
tp1551
Rp1552
sg74
g11
(g12
(S'S2'
p1553
I0
I1
tp1554
Rp1555
(I3
S'|'
p1556
NNNI2
I1
I0
tp1557
bS'RF'
p1558
tp1559
Rp1560
sg83
I3
sg108
g1530
sg84
g85
sg86
g11
(g15
S'D\xf1H\xfa\x98\x88\xe7?'
p1561
tp1562
Rp1563
sg90
g91
sg92
g93
sbag4
(g5
g6
Ntp1564
Rp1565
(dp1566
g10
g11
(g15
S'\x00\x00\x00\x00\x00\x00\xf8\xff'
p1567
tp1568
Rp1569
sg100
g11
(g15
S'\x00\x00\x00\x00\x00\xc0p@'
p1570
tp1571
Rp1572
sg21
g29
sg30
g31
sg32
(dp1573
g100
g1572
sg108
g11
(g15
S'sX\xe4v\x8b=\xd5?'
p1574
tp1575
Rp1576
sg21
g29
sg38
g11
(g41
S'\x03\x00\x00\x00\x00\x00\x00\x00'
p1577
tp1578
Rp1579
ssg51
g11
(g12
(S'S3'
p1580
I0
I1
tp1581
Rp1582
(I3
S'|'
p1583
NNNI3
I1
I0
tp1584
bS'PCA'
p1585
tp1586
Rp1587
sg60
F0.2
sg61
g11
(g12
(S'S8'
p1588
I0
I1
tp1589
Rp1590
(I3
S'|'
p1591
NNNI8
I1
I0
tp1592
bS'haralick'
p1593
tp1594
Rp1595
sg38
g1579
sg70
g11
(g15
S'\xd4k:\x9c\x86\xc0\x00@'
p1596
tp1597
Rp1598
sg74
g11
(g12
(S'S2'
p1599
I0
I1
tp1600
Rp1601
(I3
S'|'
p1602
NNNI2
I1
I0
tp1603
bS'RF'
p1604
tp1605
Rp1606
sg83
I3
sg108
g1576
sg84
g85
sg86
g11
(g15
S'\x94\x8a\xcaK\x1a~\xe6?'
p1607
tp1608
Rp1609
sg90
g91
sg92
g93
sbag4
(g5
g6
Ntp1610
Rp1611
(dp1612
g10
g11
(g15
S'\x00\x00\x00\x00\x00\x00\xf8\xff'
p1613
tp1614
Rp1615
sg100
g11
(g15
S'\x00\x00\x00\x00\x00@Z@'
p1616
tp1617
Rp1618
sg21
g106
sg30
g31
sg32
(dp1619
g100
g1618
sg108
g11
(g15
S'\xa7\xbc\x90"e\xe8\xdf?'
p1620
tp1621
Rp1622
sg21
g106
sg38
g11
(g41
S'\x03\x00\x00\x00\x00\x00\x00\x00'
p1623
tp1624
Rp1625
ssg51
g11
(g12
(S'S3'
p1626
I0
I1
tp1627
Rp1628
(I3
S'|'
p1629
NNNI3
I1
I0
tp1630
bS'PCA'
p1631
tp1632
Rp1633
sg60
F0.2
sg61
g11
(g12
(S'S8'
p1634
I0
I1
tp1635
Rp1636
(I3
S'|'
p1637
NNNI8
I1
I0
tp1638
bS'haralick'
p1639
tp1640
Rp1641
sg38
g1625
sg70
g11
(g15
S'@\xe4v\x85a\x85\x04@'
p1642
tp1643
Rp1644
sg74
g11
(g12
(S'S2'
p1645
I0
I1
tp1646
Rp1647
(I3
S'|'
p1648
NNNI2
I1
I0
tp1649
bS'RF'
p1650
tp1651
Rp1652
sg83
I3
sg108
g1622
sg84
g85
sg86
g11
(g15
S'\x94\x8a\xcaK\x1a~\xe6?'
p1653
tp1654
Rp1655
sg90
g91
sg92
g93
sbag4
(g5
g6
Ntp1656
Rp1657
(dp1658
g10
g11
(g15
S'\x00\x00\x00\x00\x00\x00\xf8\xff'
p1659
tp1660
Rp1661
sg100
g11
(g15
S'\x00\x00\x00\x00\x00\x00D@'
p1662
tp1663
Rp1664
sg21
g106
sg30
g31
sg32
(dp1665
g100
g1664
sg108
g11
(g15
S'P\x9e\xfb\xeb\x81\xa3\xe3?'
p1666
tp1667
Rp1668
sg21
g106
ssg51
g11
(g12
(S'S3'
p1669
I0
I1
tp1670
Rp1671
(I3
S'|'
p1672
NNNI3
I1
I0
tp1673
bS'PCA'
p1674
tp1675
Rp1676
sg60
F0.2
sg61
g11
(g12
(S'S3'
p1677
I0
I1
tp1678
Rp1679
(I3
S'|'
p1680
NNNI3
I1
I0
tp1681
bS'VGG'
p1682
tp1683
Rp1684
sg70
g11
(g15
S'\x0f\xd03\xd3\xee\xcd\xda?'
p1685
tp1686
Rp1687
sg74
g11
(g12
(S'S2'
p1688
I0
I1
tp1689
Rp1690
(I3
S'|'
p1691
NNNI2
I1
I0
tp1692
bS'RF'
p1693
tp1694
Rp1695
sg83
I3
sg108
g1668
sg84
g85
sg86
g11
(g15
S'\xbfP\xbd\xf3-`\xea?'
p1696
tp1697
Rp1698
sg90
g91
sg92
g93
sbag4
(g5
g6
Ntp1699
Rp1700
(dp1701
g10
g11
(g15
S'\x00\x00\x00\x00\x00\x00\xf8\xff'
p1702
tp1703
Rp1704
sg21
g29
sg30
g31
sg32
(dp1705
g21
g29
sg34
g11
(g15
S'|\x8f\x12P\xd5>:@'
p1706
tp1707
Rp1708
sg38
g11
(g41
S'\x02\x00\x00\x00\x00\x00\x00\x00'
p1709
tp1710
Rp1711
sg47
g11
(g15
S'\xc5\xa3XYd\x9c\x11@'
p1712
tp1713
Rp1714
ssg51
g11
(g12
(S'S3'
p1715
I0
I1
tp1716
Rp1717
(I3
S'|'
p1718
NNNI3
I1
I0
tp1719
bS'PCA'
p1720
tp1721
Rp1722
sg60
F0.2
sg47
g1714
sg61
g11
(g12
(S'S8'
p1723
I0
I1
tp1724
Rp1725
(I3
S'|'
p1726
NNNI8
I1
I0
tp1727
bS'haralick'
p1728
tp1729
Rp1730
sg34
g1708
sg38
g1711
sg70
g11
(g15
S'\xcar|\xf3uu\xe0?'
p1731
tp1732
Rp1733
sg74
g11
(g12
(S'S3'
p1734
I0
I1
tp1735
Rp1736
(I3
S'|'
p1737
NNNI3
I1
I0
tp1738
bS'SVM'
p1739
tp1740
Rp1741
sg83
I3
sg84
g85
sg86
g11
(g15
S'\xdd\x80\x86U\x92\xb0\xe4?'
p1742
tp1743
Rp1744
sg90
g91
sg92
g93
sbag4
(g5
g6
Ntp1745
Rp1746
(dp1747
g10
g11
(g15
S'\x00\x00\x00\x00\x00\x00\xf8\xff'
p1748
tp1749
Rp1750
sg100
g11
(g15
S'\x00\x00\x00\x00\x00\xc0p@'
p1751
tp1752
Rp1753
sg21
g106
sg30
g31
sg32
(dp1754
g100
g1753
sg108
g11
(g15
S'z\xa8\x9e\x14\x9f\x82\xea?'
p1755
tp1756
Rp1757
sg21
g106
ssg51
g11
(g12
(S'S3'
p1758
I0
I1
tp1759
Rp1760
(I3
S'|'
p1761
NNNI3
I1
I0
tp1762
bS'PCA'
p1763
tp1764
Rp1765
sg60
F0.2
sg61
g11
(g12
(S'S9'
p1766
I0
I1
tp1767
Rp1768
(I3
S'|'
p1769
NNNI9
I1
I0
tp1770
bS'inception'
p1771
tp1772
Rp1773
sg70
g11
(g15
S'7U\xc7"r\xe5\xe4?'
p1774
tp1775
Rp1776
sg74
g11
(g12
(S'S2'
p1777
I0
I1
tp1778
Rp1779
(I3
S'|'
p1780
NNNI2
I1
I0
tp1781
bS'RF'
p1782
tp1783
Rp1784
sg83
I3
sg108
g1757
sg84
g85
sg86
g11
(g15
S',:\x94\xef1u\xe8?'
p1785
tp1786
Rp1787
sg90
g91
sg92
g93
sbag4
(g5
g6
Ntp1788
Rp1789
(dp1790
g10
g11
(g15
S'\x00\x00\x00\x00\x00\x00\xf8\xff'
p1791
tp1792
Rp1793
sg21
g106
sg30
g31
sg32
(dp1794
g21
g106
sg34
g11
(g15
S'\xee\x8c\x17\xfeRpS@'
p1795
tp1796
Rp1797
sg47
g11
(g15
S'\xf1\x92J\xf8?\xd0\x1c@'
p1798
tp1799
Rp1800
ssg51
g11
(g12
(S'S3'
p1801
I0
I1
tp1802
Rp1803
(I3
S'|'
p1804
NNNI3
I1
I0
tp1805
bS'PCA'
p1806
tp1807
Rp1808
sg60
F0.2
sg47
g1800
sg61
g11
(g12
(S'S9'
p1809
I0
I1
tp1810
Rp1811
(I3
S'|'
p1812
NNNI9
I1
I0
tp1813
bS'inception'
p1814
tp1815
Rp1816
sg34
g1797
sg70
g11
(g15
S'\xbc\xec\rM\x00\xee\xe3?'
p1817
tp1818
Rp1819
sg74
g11
(g12
(S'S3'
p1820
I0
I1
tp1821
Rp1822
(I3
S'|'
p1823
NNNI3
I1
I0
tp1824
bS'SVM'
p1825
tp1826
Rp1827
sg83
I3
sg84
g85
sg86
g11
(g15
S'\x10\x86|!u>\xe5?'
p1828
tp1829
Rp1830
sg90
g91
sg92
g93
sbag4
(g5
g6
Ntp1831
Rp1832
(dp1833
g10
g11
(g15
S'\x00\x00\x00\x00\x00\x00\xf8\xff'
p1834
tp1835
Rp1836
sg100
g11
(g15
S'\x00\x00\x00\x00\x00\xc0p@'
p1837
tp1838
Rp1839
sg21
g29
sg30
g31
sg32
(dp1840
g100
g1839
sg108
g11
(g15
S'J:9y\xf1\xbe\xe9?'
p1841
tp1842
Rp1843
sg21
g29
sg38
g11
(g41
S'\x01\x00\x00\x00\x00\x00\x00\x00'
p1844
tp1845
Rp1846
ssg51
g11
(g12
(S'S3'
p1847
I0
I1
tp1848
Rp1849
(I3
S'|'
p1850
NNNI3
I1
I0
tp1851
bS'PCA'
p1852
tp1853
Rp1854
sg60
F0.2
sg61
g11
(g12
(S'S8'
p1855
I0
I1
tp1856
Rp1857
(I3
S'|'
p1858
NNNI8
I1
I0
tp1859
bS'haralick'
p1860
tp1861
Rp1862
sg38
g1846
sg70
g11
(g15
S'\x0e*\xc8h\x10\x1d\x02@'
p1863
tp1864
Rp1865
sg74
g11
(g12
(S'S2'
p1866
I0
I1
tp1867
Rp1868
(I3
S'|'
p1869
NNNI2
I1
I0
tp1870
bS'RF'
p1871
tp1872
Rp1873
sg83
I3
sg108
g1843
sg84
g85
sg86
g11
(g15
S'\xbd\x80\x8b\xe6\xe2Y\xe7?'
p1874
tp1875
Rp1876
sg90
g91
sg92
g93
sbag4
(g5
g6
Ntp1877
Rp1878
(dp1879
g10
g11
(g15
S'\x00\x00\x00\x00\x00\x00\xf8\xff'
p1880
tp1881
Rp1882
sg165
g11
(g41
S'\x06\x00\x00\x00\x00\x00\x00\x00'
p1883
tp1884
Rp1885
sg30
g31
sg32
(dp1886
g165
g1885
sg34
g11
(g15
S'\xe5Mm{\x9c/L@'
p1887
tp1888
Rp1889
sg38
g11
(g41
S'\x02\x00\x00\x00\x00\x00\x00\x00'
p1890
tp1891
Rp1892
sg186
g11
(g41
S'\x04\x00\x00\x00\x00\x00\x00\x00'
p1893
tp1894
Rp1895
sg47
g11
(g15
S'\x83\xb1\xcbO\xe4\x19\x18@'
p1896
tp1897
Rp1898
ssg47
g1898
sg51
g11
(g12
(S'S6'
p1899
I0
I1
tp1900
Rp1901
(I3
S'|'
p1902
NNNI6
I1
I0
tp1903
bS'ISOMAP'
p1904
tp1905
Rp1906
sg60
F0.2
sg186
g1895
sg61
g11
(g12
(S'S8'
p1907
I0
I1
tp1908
Rp1909
(I3
S'|'
p1910
NNNI8
I1
I0
tp1911
bS'haralick'
p1912
tp1913
Rp1914
sg34
g1889
sg38
g1892
sg70
g11
(g15
S'[J>Fl@\xe1?'
p1915
tp1916
Rp1917
sg74
g11
(g12
(S'S3'
p1918
I0
I1
tp1919
Rp1920
(I3
S'|'
p1921
NNNI3
I1
I0
tp1922
bS'SVM'
p1923
tp1924
Rp1925
sg83
I3
sg84
g85
sg86
g11
(g15
S'\xc4\x1b)X\r\x19\xe8?'
p1926
tp1927
Rp1928
sg90
g91
sg92
g93
sbag4
(g5
g6
Ntp1929
Rp1930
(dp1931
g10
g11
(g15
S'\x00\x00\x00\x00\x00\x00\xf8\xff'
p1932
tp1933
Rp1934
sg100
g11
(g15
S'\x00\x00\x00\x00\x00\xc0p@'
p1935
tp1936
Rp1937
sg30
g31
sg165
g11
(g41
S'\x05\x00\x00\x00\x00\x00\x00\x00'
p1938
tp1939
Rp1940
sg32
(dp1941
g100
g1937
sg165
g1940
sg38
g11
(g41
S'\x02\x00\x00\x00\x00\x00\x00\x00'
p1942
tp1943
Rp1944
sg186
g11
(g41
S'\x04\x00\x00\x00\x00\x00\x00\x00'
p1945
tp1946
Rp1947
sg108
g11
(g15
S'A\x98,\xe3\x85\xe9\xdd?'
p1948
tp1949
Rp1950
ssg51
g11
(g12
(S'S6'
p1951
I0
I1
tp1952
Rp1953
(I3
S'|'
p1954
NNNI6
I1
I0
tp1955
bS'ISOMAP'
p1956
tp1957
Rp1958
sg60
F0.2
sg186
g1947
sg61
g11
(g12
(S'S8'
p1959
I0
I1
tp1960
Rp1961
(I3
S'|'
p1962
NNNI8
I1
I0
tp1963
bS'haralick'
p1964
tp1965
Rp1966
sg38
g1944
sg70
g11
(g15
S'/\x00\xb6W\x10\xee\xe4?'
p1967
tp1968
Rp1969
sg74
g11
(g12
(S'S2'
p1970
I0
I1
tp1971
Rp1972
(I3
S'|'
p1973
NNNI2
I1
I0
tp1974
bS'RF'
p1975
tp1976
Rp1977
sg83
I3
sg108
g1950
sg84
g85
sg86
g11
(g15
S'\x9c\xdd\xae+\xdc\x85\xe9?'
p1978
tp1979
Rp1980
sg90
g91
sg92
g93
sbag4
(g5
g6
Ntp1981
Rp1982
(dp1983
g10
g11
(g15
S'\x00\x00\x00\x00\x00\x00\xf8\xff'
p1984
tp1985
Rp1986
sg165
g11
(g41
S'\x03\x00\x00\x00\x00\x00\x00\x00'
p1987
tp1988
Rp1989
sg30
g31
sg32
(dp1990
g165
g1989
sg34
g11
(g15
S'\x95k&\xb52\x9c;@'
p1991
tp1992
Rp1993
sg186
g11
(g41
S'\x02\x00\x00\x00\x00\x00\x00\x00'
p1994
tp1995
Rp1996
sg47
g11
(g15
S'\\`et\xd4\xf6\xd9?'
p1997
tp1998
Rp1999
ssg47
g1999
sg51
g11
(g12
(S'S6'
p2000
I0
I1
tp2001
Rp2002
(I3
S'|'
p2003
NNNI6
I1
I0
tp2004
bS'ISOMAP'
p2005
tp2006
Rp2007
sg60
F0.2
sg186
g1996
sg61
g11
(g12
(S'S3'
p2008
I0
I1
tp2009
Rp2010
(I3
S'|'
p2011
NNNI3
I1
I0
tp2012
bS'VGG'
p2013
tp2014
Rp2015
sg34
g1993
sg70
g11
(g15
S'\xa4Gj\x80+1\xe1?'
p2016
tp2017
Rp2018
sg74
g11
(g12
(S'S3'
p2019
I0
I1
tp2020
Rp2021
(I3
S'|'
p2022
NNNI3
I1
I0
tp2023
bS'SVM'
p2024
tp2025
Rp2026
sg83
I3
sg84
g85
sg86
g11
(g15
S'\xf1\xc5\x138n.\xe6?'
p2027
tp2028
Rp2029
sg90
g91
sg92
g93
sbag4
(g5
g6
Ntp2030
Rp2031
(dp2032
g10
g11
(g15
S'\x00\x00\x00\x00\x00\x00\xf8\xff'
p2033
tp2034
Rp2035
sg165
g11
(g41
S'\x03\x00\x00\x00\x00\x00\x00\x00'
p2036
tp2037
Rp2038
sg30
g31
sg32
(dp2039
g165
g2038
sg34
g11
(g15
S'p\xee\xaf\x869SL@'
p2040
tp2041
Rp2042
sg186
g11
(g41
S'\x02\x00\x00\x00\x00\x00\x00\x00'
p2043
tp2044
Rp2045
sg47
g11
(g15
S'\xde~\xba\xef\xd9n\x01@'
p2046
tp2047
Rp2048
ssg47
g2048
sg51
g11
(g12
(S'S6'
p2049
I0
I1
tp2050
Rp2051
(I3
S'|'
p2052
NNNI6
I1
I0
tp2053
bS'ISOMAP'
p2054
tp2055
Rp2056
sg60
F0.2
sg186
g2045
sg61
g11
(g12
(S'S9'
p2057
I0
I1
tp2058
Rp2059
(I3
S'|'
p2060
NNNI9
I1
I0
tp2061
bS'inception'
p2062
tp2063
Rp2064
sg34
g2042
sg70
g11
(g15
S'\x04\x83\x8f\xad\xdbp\xe8?'
p2065
tp2066
Rp2067
sg74
g11
(g12
(S'S3'
p2068
I0
I1
tp2069
Rp2070
(I3
S'|'
p2071
NNNI3
I1
I0
tp2072
bS'SVM'
p2073
tp2074
Rp2075
sg83
I3
sg84
g85
sg86
g11
(g15
S'%H\xde\xb4\x0f\xb5\xe2?'
p2076
tp2077
Rp2078
sg90
g91
sg92
g93
sbag4
(g5
g6
Ntp2079
Rp2080
(dp2081
g10
g11
(g15
S'\x00\x00\x00\x00\x00\x00\xf8\xff'
p2082
tp2083
Rp2084
sg100
g11
(g15
S'\x00\x00\x00\x00\x00@R@'
p2085
tp2086
Rp2087
sg30
g31
sg165
g11
(g41
S'\x04\x00\x00\x00\x00\x00\x00\x00'
p2088
tp2089
Rp2090
sg32
(dp2091
g100
g2087
sg165
g2090
sg186
g11
(g41
S'\x03\x00\x00\x00\x00\x00\x00\x00'
p2092
tp2093
Rp2094
sg108
g11
(g15
S'Pg\xc2r(\xbf\xe0?'
p2095
tp2096
Rp2097
ssg51
g11
(g12
(S'S6'
p2098
I0
I1
tp2099
Rp2100
(I3
S'|'
p2101
NNNI6
I1
I0
tp2102
bS'ISOMAP'
p2103
tp2104
Rp2105
sg60
F0.2
sg186
g2094
sg61
g11
(g12
(S'S9'
p2106
I0
I1
tp2107
Rp2108
(I3
S'|'
p2109
NNNI9
I1
I0
tp2110
bS'inception'
p2111
tp2112
Rp2113
sg70
g11
(g15
S'y1H\xd80\xb5\xf2?'
p2114
tp2115
Rp2116
sg74
g11
(g12
(S'S2'
p2117
I0
I1
tp2118
Rp2119
(I3
S'|'
p2120
NNNI2
I1
I0
tp2121
bS'RF'
p2122
tp2123
Rp2124
sg83
I3
sg108
g2097
sg84
g85
sg86
g11
(g15
S'\xb0\xf4\x06\x9d@{\xe6?'
p2125
tp2126
Rp2127
sg90
g91
sg92
g93
sbag4
(g5
g6
Ntp2128
Rp2129
(dp2130
g10
g11
(g15
S'\x00\x00\x00\x00\x00\x00\xf8\xff'
p2131
tp2132
Rp2133
sg165
g11
(g41
S'\x04\x00\x00\x00\x00\x00\x00\x00'
p2134
tp2135
Rp2136
sg30
g31
sg32
(dp2137
g165
g2136
sg34
g11
(g15
S"p\xd7mJ'\x1c-@"
p2138
tp2139
Rp2140
sg186
g11
(g41
S'\x04\x00\x00\x00\x00\x00\x00\x00'
p2141
tp2142
Rp2143
sg47
g11
(g15
S'P\xf7\x05\xe3\xbcK\t@'
p2144
tp2145
Rp2146
ssg47
g2146
sg51
g11
(g12
(S'S6'
p2147
I0
I1
tp2148
Rp2149
(I3
S'|'
p2150
NNNI6
I1
I0
tp2151
bS'ISOMAP'
p2152
tp2153
Rp2154
sg60
F0.2
sg186
g2143
sg61
g11
(g12
(S'S3'
p2155
I0
I1
tp2156
Rp2157
(I3
S'|'
p2158
NNNI3
I1
I0
tp2159
bS'VGG'
p2160
tp2161
Rp2162
sg34
g2140
sg70
g11
(g15
S'\xdf\x81\xce\x94!\xc8\xe1?'
p2163
tp2164
Rp2165
sg74
g11
(g12
(S'S3'
p2166
I0
I1
tp2167
Rp2168
(I3
S'|'
p2169
NNNI3
I1
I0
tp2170
bS'SVM'
p2171
tp2172
Rp2173
sg83
I3
sg84
g85
sg86
g11
(g15
S'\x90\xa5w@\x97\xe7\xe7?'
p2174
tp2175
Rp2176
sg90
g91
sg92
g93
sbag4
(g5
g6
Ntp2177
Rp2178
(dp2179
g10
g11
(g15
S'\x00\x00\x00\x00\x00\x00\xf8\xff'
p2180
tp2181
Rp2182
sg21
g29
sg30
g31
sg32
(dp2183
g21
g29
sg34
g11
(g15
S'+\x8a\x9eO\x84\x18P@'
p2184
tp2185
Rp2186
sg47
g11
(g15
S'\n:"\xaa\xca\x04\x10@'
p2187
tp2188
Rp2189
ssg51
g11
(g12
(S'S3'
p2190
I0
I1
tp2191
Rp2192
(I3
S'|'
p2193
NNNI3
I1
I0
tp2194
bS'PCA'
p2195
tp2196
Rp2197
sg60
F0.2
sg47
g2189
sg61
g11
(g12
(S'S3'
p2198
I0
I1
tp2199
Rp2200
(I3
S'|'
p2201
NNNI3
I1
I0
tp2202
bS'VGG'
p2203
tp2204
Rp2205
sg34
g2186
sg70
g11
(g15
S'\x10\xe6\xfa\x000A\xe5?'
p2206
tp2207
Rp2208
sg74
g11
(g12
(S'S3'
p2209
I0
I1
tp2210
Rp2211
(I3
S'|'
p2212
NNNI3
I1
I0
tp2213
bS'SVM'
p2214
tp2215
Rp2216
sg83
I3
sg84
g85
sg86
g11
(g15
S'\xd0\xb3\x8f\x1a\xdb[\xe6?'
p2217
tp2218
Rp2219
sg90
g91
sg92
g93
sbag4
(g5
g6
Ntp2220
Rp2221
(dp2222
g10
g11
(g15
S'\x00\x00\x00\x00\x00\x00\xf8\xff'
p2223
tp2224
Rp2225
sg100
g11
(g15
S'\x00\x00\x00\x00\x00@R@'
p2226
tp2227
Rp2228
sg30
g31
sg165
g11
(g41
S'\x04\x00\x00\x00\x00\x00\x00\x00'
p2229
tp2230
Rp2231
sg32
(dp2232
g100
g2228
sg165
g2231
sg38
g11
(g41
S'\x03\x00\x00\x00\x00\x00\x00\x00'
p2233
tp2234
Rp2235
sg186
g11
(g41
S'\x02\x00\x00\x00\x00\x00\x00\x00'
p2236
tp2237
Rp2238
sg108
g11
(g15
S'h:c\x87\x80\xf6\xe9?'
p2239
tp2240
Rp2241
ssg51
g11
(g12
(S'S6'
p2242
I0
I1
tp2243
Rp2244
(I3
S'|'
p2245
NNNI6
I1
I0
tp2246
bS'ISOMAP'
p2247
tp2248
Rp2249
sg60
F0.2
sg186
g2238
sg61
g11
(g12
(S'S8'
p2250
I0
I1
tp2251
Rp2252
(I3
S'|'
p2253
NNNI8
I1
I0
tp2254
bS'haralick'
p2255
tp2256
Rp2257
sg38
g2235
sg70
g11
(g15
S'\xa9\x16l}\x9d]\xf1?'
p2258
tp2259
Rp2260
sg74
g11
(g12
(S'S2'
p2261
I0
I1
tp2262
Rp2263
(I3
S'|'
p2264
NNNI2
I1
I0
tp2265
bS'RF'
p2266
tp2267
Rp2268
sg83
I3
sg108
g2241
sg84
g85
sg86
g11
(g15
S'\xb8*~Y\xeb\xb2\xe9?'
p2269
tp2270
Rp2271
sg90
g91
sg92
g93
sbag4
(g5
g6
Ntp2272
Rp2273
(dp2274
g10
g11
(g15
S'\x00\x00\x00\x00\x00\x00\xf8\xff'
p2275
tp2276
Rp2277
sg21
g106
sg30
g31
sg32
(dp2278
g21
g106
sg34
g11
(g15
S'\xeb\xf2\xba\x82h\x8bT@'
p2279
tp2280
Rp2281
sg47
g11
(g15
S'C?\x87\xd3p\xcf\xf2?'
p2282
tp2283
Rp2284
ssg51
g11
(g12
(S'S3'
p2285
I0
I1
tp2286
Rp2287
(I3
S'|'
p2288
NNNI3
I1
I0
tp2289
bS'PCA'
p2290
tp2291
Rp2292
sg60
F0.2
sg47
g2284
sg61
g11
(g12
(S'S3'
p2293
I0
I1
tp2294
Rp2295
(I3
S'|'
p2296
NNNI3
I1
I0
tp2297
bS'VGG'
p2298
tp2299
Rp2300
sg34
g2281
sg70
g11
(g15
S'\xc7\xa4\x84 \x87Q\xe0?'
p2301
tp2302
Rp2303
sg74
g11
(g12
(S'S3'
p2304
I0
I1
tp2305
Rp2306
(I3
S'|'
p2307
NNNI3
I1
I0
tp2308
bS'SVM'
p2309
tp2310
Rp2311
sg83
I3
sg84
g85
sg86
g11
(g15
S'\xf4\x01~B\xca2\xe9?'
p2312
tp2313
Rp2314
sg90
g91
sg92
g93
sbag4
(g5
g6
Ntp2315
Rp2316
(dp2317
g10
g11
(g15
S'\x00\x00\x00\x00\x00\x00\xf8\xff'
p2318
tp2319
Rp2320
sg100
g11
(g15
S'\x00\x00\x00\x00\x00@Z@'
p2321
tp2322
Rp2323
sg21
g106
sg30
g31
sg32
(dp2324
g100
g2323
sg108
g11
(g15
S'\xae\xc6o\xd2iF\xea?'
p2325
tp2326
Rp2327
sg21
g106
ssg51
g11
(g12
(S'S3'
p2328
I0
I1
tp2329
Rp2330
(I3
S'|'
p2331
NNNI3
I1
I0
tp2332
bS'PCA'
p2333
tp2334
Rp2335
sg60
F0.2
sg61
g11
(g12
(S'S9'
p2336
I0
I1
tp2337
Rp2338
(I3
S'|'
p2339
NNNI9
I1
I0
tp2340
bS'inception'
p2341
tp2342
Rp2343
sg70
g11
(g15
S'8\x12\x7f\xf7!\xea\xe6?'
p2344
tp2345
Rp2346
sg74
g11
(g12
(S'S2'
p2347
I0
I1
tp2348
Rp2349
(I3
S'|'
p2350
NNNI2
I1
I0
tp2351
bS'RF'
p2352
tp2353
Rp2354
sg83
I3
sg108
g2327
sg84
g85
sg86
g11
(g15
S'\x8f\xf8:*qU\xe8?'
p2355
tp2356
Rp2357
sg90
g91
sg92
g93
sbag4
(g5
g6
Ntp2358
Rp2359
(dp2360
g10
g11
(g15
S'\x00\x00\x00\x00\x00\x00\xf8\xff'
p2361
tp2362
Rp2363
sg100
g11
(g15
S'\x00\x00\x00\x00\x00`m@'
p2364
tp2365
Rp2366
sg21
g106
sg30
g31
sg32
(dp2367
g100
g2366
sg108
g11
(g15
S'x\xe3]\x8c\xb2`\xe6?'
p2368
tp2369
Rp2370
sg21
g106
sg38
g11
(g41
S'\x02\x00\x00\x00\x00\x00\x00\x00'
p2371
tp2372
Rp2373
ssg51
g11
(g12
(S'S3'
p2374
I0
I1
tp2375
Rp2376
(I3
S'|'
p2377
NNNI3
I1
I0
tp2378
bS'PCA'
p2379
tp2380
Rp2381
sg60
F0.2
sg61
g11
(g12
(S'S8'
p2382
I0
I1
tp2383
Rp2384
(I3
S'|'
p2385
NNNI8
I1
I0
tp2386
bS'haralick'
p2387
tp2388
Rp2389
sg38
g2373
sg70
g11
(g15
S'u\xc4\xd2{oT\x00@'
p2390
tp2391
Rp2392
sg74
g11
(g12
(S'S2'
p2393
I0
I1
tp2394
Rp2395
(I3
S'|'
p2396
NNNI2
I1
I0
tp2397
bS'RF'
p2398
tp2399
Rp2400
sg83
I3
sg108
g2370
sg84
g85
sg86
g11
(g15
S'D\xf1H\xfa\x98\x88\xe7?'
p2401
tp2402
Rp2403
sg90
g91
sg92
g93
sbag4
(g5
g6
Ntp2404
Rp2405
(dp2406
g10
g11
(g15
S'\x00\x00\x00\x00\x00\x00\xf8\xff'
p2407
tp2408
Rp2409
sg100
g11
(g15
S'\x00\x00\x00\x00\x00@a@'
p2410
tp2411
Rp2412
sg21
g29
sg30
g31
sg32
(dp2413
g100
g2412
sg108
g11
(g15
S'}\xb0{wHI\xd3?'
p2414
tp2415
Rp2416
sg21
g29
ssg51
g11
(g12
(S'S3'
p2417
I0
I1
tp2418
Rp2419
(I3
S'|'
p2420
NNNI3
I1
I0
tp2421
bS'PCA'
p2422
tp2423
Rp2424
sg60
F0.2
sg61
g11
(g12
(S'S9'
p2425
I0
I1
tp2426
Rp2427
(I3
S'|'
p2428
NNNI9
I1
I0
tp2429
bS'inception'
p2430
tp2431
Rp2432
sg70
g11
(g15
S'|N\xfe\n\xe0;\xe1?'
p2433
tp2434
Rp2435
sg74
g11
(g12
(S'S2'
p2436
I0
I1
tp2437
Rp2438
(I3
S'|'
p2439
NNNI2
I1
I0
tp2440
bS'RF'
p2441
tp2442
Rp2443
sg83
I3
sg108
g2416
sg84
g85
sg86
g11
(g15
S'E\x086\x95T6\xe8?'
p2444
tp2445
Rp2446
sg90
g91
sg92
g93
sbag4
(g5
g6
Ntp2447
Rp2448
(dp2449
g10
g11
(g15
S'\x00\x00\x00\x00\x00\x00\xf8\xff'
p2450
tp2451
Rp2452
sg165
g11
(g41
S'\x05\x00\x00\x00\x00\x00\x00\x00'
p2453
tp2454
Rp2455
sg30
g31
sg32
(dp2456
g165
g2455
sg34
g11
(g15
S'G\x13gY\xfc\xc5I@'
p2457
tp2458
Rp2459
sg38
g11
(g41
S'\x03\x00\x00\x00\x00\x00\x00\x00'
p2460
tp2461
Rp2462
sg186
g11
(g41
S'\x02\x00\x00\x00\x00\x00\x00\x00'
p2463
tp2464
Rp2465
sg47
g11
(g15
S'\xe0\x98\x97\x16[\xa7\x00@'
p2466
tp2467
Rp2468
ssg47
g2468
sg51
g11
(g12
(S'S6'
p2469
I0
I1
tp2470
Rp2471
(I3
S'|'
p2472
NNNI6
I1
I0
tp2473
bS'ISOMAP'
p2474
tp2475
Rp2476
sg60
F0.2
sg186
g2465
sg61
g11
(g12
(S'S8'
p2477
I0
I1
tp2478
Rp2479
(I3
S'|'
p2480
NNNI8
I1
I0
tp2481
bS'haralick'
p2482
tp2483
Rp2484
sg34
g2459
sg38
g2462
sg70
g11
(g15
S'\xab\xd3X\x19\xf8\x88\xdd?'
p2485
tp2486
Rp2487
sg74
g11
(g12
(S'S3'
p2488
I0
I1
tp2489
Rp2490
(I3
S'|'
p2491
NNNI3
I1
I0
tp2492
bS'SVM'
p2493
tp2494
Rp2495
sg83
I3
sg84
g85
sg86
g11
(g15
S'\xfb\x14\x00\x08P\xf6\xe8?'
p2496
tp2497
Rp2498
sg90
g91
sg92
g93
sbag4
(g5
g6
Ntp2499
Rp2500
(dp2501
g10
g11
(g15
S'\x00\x00\x00\x00\x00\x00\xf8\xff'
p2502
tp2503
Rp2504
sg21
g106
sg30
g31
sg32
(dp2505
g21
g106
sg34
g11
(g15
S'\xf3\r\xfds\x1d\x9bV@'
p2506
tp2507
Rp2508
sg47
g11
(g15
S'\xbe8`\x90w\xca\x15@'
p2509
tp2510
Rp2511
ssg51
g11
(g12
(S'S3'
p2512
I0
I1
tp2513
Rp2514
(I3
S'|'
p2515
NNNI3
I1
I0
tp2516
bS'PCA'
p2517
tp2518
Rp2519
sg60
F0.2
sg47
g2511
sg61
g11
(g12
(S'S3'
p2520
I0
I1
tp2521
Rp2522
(I3
S'|'
p2523
NNNI3
I1
I0
tp2524
bS'VGG'
p2525
tp2526
Rp2527
sg34
g2508
sg70
g11
(g15
S'\x15\xa5\x9a\xc5\xe8\x0b\xe7?'
p2528
tp2529
Rp2530
sg74
g11
(g12
(S'S3'
p2531
I0
I1
tp2532
Rp2533
(I3
S'|'
p2534
NNNI3
I1
I0
tp2535
bS'SVM'
p2536
tp2537
Rp2538
sg83
I3
sg84
g85
sg86
g11
(g15
S'\xb0\xaa\xbdG\xaa_\xe5?'
p2539
tp2540
Rp2541
sg90
g91
sg92
g93
sbag4
(g5
g6
Ntp2542
Rp2543
(dp2544
g10
g11
(g15
S'\x00\x00\x00\x00\x00\x00\xf8\xff'
p2545
tp2546
Rp2547
sg100
g11
(g15
S'\x00\x00\x00\x00\x00@R@'
p2548
tp2549
Rp2550
sg30
g31
sg165
g11
(g41
S'\x06\x00\x00\x00\x00\x00\x00\x00'
p2551
tp2552
Rp2553
sg32
(dp2554
g100
g2550
sg165
g2553
sg186
g11
(g41
S'\x03\x00\x00\x00\x00\x00\x00\x00'
p2555
tp2556
Rp2557
sg108
g11
(g15
S'd\xae\xc1P\xd2\xfd\xe3?'
p2558
tp2559
Rp2560
ssg51
g11
(g12
(S'S6'
p2561
I0
I1
tp2562
Rp2563
(I3
S'|'
p2564
NNNI6
I1
I0
tp2565
bS'ISOMAP'
p2566
tp2567
Rp2568
sg60
F0.2
sg186
g2557
sg61
g11
(g12
(S'S9'
p2569
I0
I1
tp2570
Rp2571
(I3
S'|'
p2572
NNNI9
I1
I0
tp2573
bS'inception'
p2574
tp2575
Rp2576
sg70
g11
(g15
S'4-T\xc9v~\xf0?'
p2577
tp2578
Rp2579
sg74
g11
(g12
(S'S2'
p2580
I0
I1
tp2581
Rp2582
(I3
S'|'
p2583
NNNI2
I1
I0
tp2584
bS'RF'
p2585
tp2586
Rp2587
sg83
I3
sg108
g2560
sg84
g85
sg86
g11
(g15
S'}&e\x9b\x18\x9b\xe6?'
p2588
tp2589
Rp2590
sg90
g91
sg92
g93
sbag4
(g5
g6
Ntp2591
Rp2592
(dp2593
g10
g11
(g15
S'\x00\x00\x00\x00\x00\x00\xf8\xff'
p2594
tp2595
Rp2596
sg100
g11
(g15
S'\x00\x00\x00\x00\x00@a@'
p2597
tp2598
Rp2599
sg30
g31
sg165
g11
(g41
S'\x03\x00\x00\x00\x00\x00\x00\x00'
p2600
tp2601
Rp2602
sg32
(dp2603
g100
g2599
sg165
g2602
sg186
g11
(g41
S'\x03\x00\x00\x00\x00\x00\x00\x00'
p2604
tp2605
Rp2606
sg108
g11
(g15
S'T\xbc\x0f\xeb7\xb0\xeb?'
p2607
tp2608
Rp2609
ssg51
g11
(g12
(S'S6'
p2610
I0
I1
tp2611
Rp2612
(I3
S'|'
p2613
NNNI6
I1
I0
tp2614
bS'ISOMAP'
p2615
tp2616
Rp2617
sg60
F0.2
sg186
g2606
sg61
g11
(g12
(S'S9'
p2618
I0
I1
tp2619
Rp2620
(I3
S'|'
p2621
NNNI9
I1
I0
tp2622
bS'inception'
p2623
tp2624
Rp2625
sg70
g11
(g15
S'hM\xf9\xaa\xf05\xf7?'
p2626
tp2627
Rp2628
sg74
g11
(g12
(S'S2'
p2629
I0
I1
tp2630
Rp2631
(I3
S'|'
p2632
NNNI2
I1
I0
tp2633
bS'RF'
p2634
tp2635
Rp2636
sg83
I3
sg108
g2609
sg84
g85
sg86
g11
(g15
S'W\xd3\xbc8\xa7-\xe5?'
p2637
tp2638
Rp2639
sg90
g91
sg92
g93
sbag4
(g5
g6
Ntp2640
Rp2641
(dp2642
g10
g11
(g15
S'\x00\x00\x00\x00\x00\x00\xf8\xff'
p2643
tp2644
Rp2645
sg165
g11
(g41
S'\x06\x00\x00\x00\x00\x00\x00\x00'
p2646
tp2647
Rp2648
sg30
g31
sg32
(dp2649
g165
g2648
sg34
g11
(g15
S'\xa9>\xff\xfd;{M@'
p2650
tp2651
Rp2652
sg186
g11
(g41
S'\x02\x00\x00\x00\x00\x00\x00\x00'
p2653
tp2654
Rp2655
sg47
g11
(g15
S'\xc8\x0c\x04\xb7i\x0c\x1d@'
p2656
tp2657
Rp2658
ssg47
g2658
sg51
g11
(g12
(S'S6'
p2659
I0
I1
tp2660
Rp2661
(I3
S'|'
p2662
NNNI6
I1
I0
tp2663
bS'ISOMAP'
p2664
tp2665
Rp2666
sg60
F0.2
sg186
g2655
sg61
g11
(g12
(S'S3'
p2667
I0
I1
tp2668
Rp2669
(I3
S'|'
p2670
NNNI3
I1
I0
tp2671
bS'VGG'
p2672
tp2673
Rp2674
sg34
g2652
sg70
g11
(g15
S'\x90a\xba\x90\x87A\xe3?'
p2675
tp2676
Rp2677
sg74
g11
(g12
(S'S3'
p2678
I0
I1
tp2679
Rp2680
(I3
S'|'
p2681
NNNI3
I1
I0
tp2682
bS'SVM'
p2683
tp2684
Rp2685
sg83
I3
sg84
g85
sg86
g11
(g15
S'3\x8b\x1f\xf8\xc5\t\xe7?'
p2686
tp2687
Rp2688
sg90
g91
sg92
g93
sbag4
(g5
g6
Ntp2689
Rp2690
(dp2691
g10
g11
(g15
S'\x00\x00\x00\x00\x00\x00\xf8\xff'
p2692
tp2693
Rp2694
sg21
g29
sg30
g31
sg32
(dp2695
g21
g29
sg34
g11
(g15
S'pz\xa4+V\xb2T@'
p2696
tp2697
Rp2698
sg38
g11
(g41
S'\x03\x00\x00\x00\x00\x00\x00\x00'
p2699
tp2700
Rp2701
sg47
g11
(g15
S'\xfek\x95BF\xaf\xf6?'
p2702
tp2703
Rp2704
ssg51
g11
(g12
(S'S3'
p2705
I0
I1
tp2706
Rp2707
(I3
S'|'
p2708
NNNI3
I1
I0
tp2709
bS'PCA'
p2710
tp2711
Rp2712
sg60
F0.2
sg47
g2704
sg61
g11
(g12
(S'S8'
p2713
I0
I1
tp2714
Rp2715
(I3
S'|'
p2716
NNNI8
I1
I0
tp2717
bS'haralick'
p2718
tp2719
Rp2720
sg34
g2698
sg38
g2701
sg70
g11
(g15
S'\xc1Ws\xbdv\xf4\xdf?'
p2721
tp2722
Rp2723
sg74
g11
(g12
(S'S3'
p2724
I0
I1
tp2725
Rp2726
(I3
S'|'
p2727
NNNI3
I1
I0
tp2728
bS'SVM'
p2729
tp2730
Rp2731
sg83
I3
sg84
g85
sg86
g11
(g15
S'49\xe6\x82on\xe5?'
p2732
tp2733
Rp2734
sg90
g91
sg92
g93
sbag4
(g5
g6
Ntp2735
Rp2736
(dp2737
g10
g11
(g15
S'\x00\x00\x00\x00\x00\x00\xf8\xff'
p2738
tp2739
Rp2740
sg165
g11
(g41
S'\x03\x00\x00\x00\x00\x00\x00\x00'
p2741
tp2742
Rp2743
sg30
g31
sg32
(dp2744
g165
g2743
sg34
g11
(g15
S'^\xa8S< \xa2\x17@'
p2745
tp2746
Rp2747
sg38
g11
(g41
S'\x01\x00\x00\x00\x00\x00\x00\x00'
p2748
tp2749
Rp2750
sg186
g11
(g41
S'\x02\x00\x00\x00\x00\x00\x00\x00'
p2751
tp2752
Rp2753
sg47
g11
(g15
S')y\x8f\xd6\xbf\xe0\x10@'
p2754
tp2755
Rp2756
ssg47
g2756
sg51
g11
(g12
(S'S6'
p2757
I0
I1
tp2758
Rp2759
(I3
S'|'
p2760
NNNI6
I1
I0
tp2761
bS'ISOMAP'
p2762
tp2763
Rp2764
sg60
F0.2
sg186
g2753
sg61
g11
(g12
(S'S8'
p2765
I0
I1
tp2766
Rp2767
(I3
S'|'
p2768
NNNI8
I1
I0
tp2769
bS'haralick'
p2770
tp2771
Rp2772
sg34
g2747
sg38
g2750
sg70
g11
(g15
S'a\xeb\xea\xb2G\x00\xe9?'
p2773
tp2774
Rp2775
sg74
g11
(g12
(S'S3'
p2776
I0
I1
tp2777
Rp2778
(I3
S'|'
p2779
NNNI3
I1
I0
tp2780
bS'SVM'
p2781
tp2782
Rp2783
sg83
I3
sg84
g85
sg86
g11
(g15
S'\xaf\xd4B\x9e\x03(\xe2?'
p2784
tp2785
Rp2786
sg90
g91
sg92
g93
sbasS'error_curve'
p2787
(lp2788
g73
ag73
ag73
ag73
ag130
ag130
ag130
ag130
ag130
ag130
ag130
ag130
ag130
ag130
ag130
ag130
ag130
ag130
ag130
ag130
ag130
ag130
ag130
ag130
ag130
ag130
ag130
ag130
ag130
ag130
ag130
ag130
ag130
ag130
ag130
ag130
ag130
ag130
ag130
ag130
ag130
ag130
ag130
ag130
ag130
ag130
ag130
ag130
ag130
ag130
ag130
ag130
ag130
ag130
ag130
ag130
ag130
asS'iters'
p2789
I51
sg30
g31
sS'results_loc'
p2790
S'/gpfs/u/home/CGHI/CGHIarch/barn/EP_project/results/'
p2791
sS'times'
p2792
(lp2793
F19.653735876083374
aF385.3970220088959
aF386.60538506507874
aF402.1501929759979
aF403.1920280456543
aF415.9279398918152
aF429.3538498878479
aF432.26907205581665
aF432.60176396369934
aF920.7427089214325
aF921.0469379425049
aF922.292398929596
aF923.2190668582916
aF923.5282170772552
aF925.717896938324
aF926.5830669403076
aF945.4830739498138
aF947.3486180305481
aF947.8969850540161
aF961.3186860084534
aF974.0288228988647
aF987.0612359046936
aF999.6418459415436
aF1000.1493570804596
aF1000.4838819503784
aF1000.774209022522
aF1001.6647748947144
aF1004.0428059101105
aF1007.2461240291595
aF1019.9674830436707
aF1033.2545609474182
aF1047.8775680065155
aF1061.542636871338
aF1062.0465939044952
aF1074.5990190505981
aF1077.3564820289612
aF1077.6722819805145
aF1092.0985970497131
aF1104.8408980369568
aF1121.5301718711853
aF1122.656322002411
aF1123.5296349525452
aF1124.9164988994598
aF1126.1279208660126
aF1126.4711530208588
aF1139.7852630615234
aF1140.097599029541
aF1141.289633989334
aF1155.6256120204926
aF1156.951891899109
aF1169.7701818943024
aF1170.1270439624786
aF1171.5699560642242
aF1173.459321975708
aF1174.720447063446
aF1187.3894488811493
aF1199.9142010211945
asS'data_loc'
p2794
g93
sS'run'
p2795
I1
sg90
S'random_MCMC'
p2796
sb.