(iprototypes.random_based_mcmc1
random_MCMC
p0
(dp1
S'best_pipelines'
p2
(lp3
ccopy_reg
_reconstructor
p4
(cprototypes.data_analytic_pipeline
image_classification_pipeline
p5
c__builtin__
object
p6
Ntp7
Rp8
(dp9
S'f1_score'
p10
cnumpy.core.multiarray
scalar
p11
(cnumpy
dtype
p12
(S'f8'
p13
I0
I1
tp14
Rp15
(I3
S'<'
p16
NNNI-1
I-1
I0
tp17
bS'\x00\x00\x00\x00\x00\x00\xf8\xff'
p18
tp19
Rp20
sS'n_neighbors'
p21
g11
(g12
(S'i8'
p22
I0
I1
tp23
Rp24
(I3
S'<'
p25
NNNI-1
I-1
I0
tp26
bS'\x06\x00\x00\x00\x00\x00\x00\x00'
p27
tp28
Rp29
sS'data_name'
p30
S'brain'
p31
sS'kwargs'
p32
(dp33
g21
g29
sS'svm_C'
p34
g11
(g15
S'\x07j\xc8Y\xc4\x9cX@'
p35
tp36
Rp37
sS'haralick_distance'
p38
g11
(g24
S'\x01\x00\x00\x00\x00\x00\x00\x00'
p39
tp40
Rp41
sS'n_components'
p42
g11
(g24
S'\x03\x00\x00\x00\x00\x00\x00\x00'
p43
tp44
Rp45
sS'svm_gamma'
p46
g11
(g15
S'\xf7\x9b|M\x91!\x03@'
p47
tp48
Rp49
ssg46
g49
sS'dimensionality_reduction'
p50
g11
(g12
(S'S6'
p51
I0
I1
tp52
Rp53
(I3
S'|'
p54
NNNI6
I1
I0
tp55
bS'ISOMAP'
p56
tp57
Rp58
sS'test_size'
p59
F0.2
sg42
g45
sS'feature_extraction'
p60
g11
(g12
(S'S8'
p61
I0
I1
tp62
Rp63
(I3
S'|'
p64
NNNI8
I1
I0
tp65
bS'haralick'
p66
tp67
Rp68
sg34
g37
sg38
g41
sS'result'
p69
g11
(g15
S'\xcf\x17]\xc8\xee\xfa\xe1?'
p70
tp71
Rp72
sS'learning_algorithm'
p73
g11
(g12
(S'S3'
p74
I0
I1
tp75
Rp76
(I3
S'|'
p77
NNNI3
I1
I0
tp78
bS'SVM'
p79
tp80
Rp81
sS'val_splits'
p82
I3
sS'ml_type'
p83
S'validation'
p84
sS'accuracy'
p85
g11
(g15
S'--\x8e\x8f\xd0\x9e\xe5?'
p86
tp87
Rp88
sS'type1'
p89
S'random1'
p90
sS'data_location'
p91
S'/gpfs/u/home/CGHI/CGHIarch/barn/EP_project/data/'
p92
sbag4
(g5
g6
Ntp93
Rp94
(dp95
g10
g11
(g15
S'\x00\x00\x00\x00\x00\x00\xf8\xff'
p96
tp97
Rp98
sS'n_estimators'
p99
g11
(g15
S'\x00\x00\x00\x00\x00`m@'
p100
tp101
Rp102
sS'pca_whiten'
p103
g11
(g12
(S'b1'
p104
I0
I1
tp105
Rp106
(I3
S'|'
p107
NNNI-1
I-1
I0
tp108
bS'\x01'
p109
tp110
Rp111
sg30
g31
sg32
(dp112
g99
g102
sS'max_features'
p113
g11
(g15
S',]\x83\x11\xefn\xe2?'
p114
tp115
Rp116
sg103
g111
ssg50
g11
(g12
(S'S3'
p117
I0
I1
tp118
Rp119
(I3
S'|'
p120
NNNI3
I1
I0
tp121
bS'PCA'
p122
tp123
Rp124
sg59
F0.2
sg60
g11
(g12
(S'S9'
p125
I0
I1
tp126
Rp127
(I3
S'|'
p128
NNNI9
I1
I0
tp129
bS'inception'
p130
tp131
Rp132
sg69
g11
(g15
S'\xbdv#\xbcXK\xe1?'
p133
tp134
Rp135
sg73
g11
(g12
(S'S2'
p136
I0
I1
tp137
Rp138
(I3
S'|'
p139
NNNI2
I1
I0
tp140
bS'RF'
p141
tp142
Rp143
sg82
I3
sg113
g116
sg83
g84
sg85
g11
(g15
S'\xed\xda@\xa4\x8fu\xe8?'
p144
tp145
Rp146
sg89
g90
sg91
g92
sbag4
(g5
g6
Ntp147
Rp148
(dp149
g10
g11
(g15
S'\x00\x00\x00\x00\x00\x00\xf8\xff'
p150
tp151
Rp152
sg21
g11
(g24
S'\x06\x00\x00\x00\x00\x00\x00\x00'
p153
tp154
Rp155
sg30
g31
sg32
(dp156
g21
g155
sg34
g11
(g15
S'\x0b\xd1b\xdb\xa1HJ@'
p157
tp158
Rp159
sg38
g11
(g24
S'\x03\x00\x00\x00\x00\x00\x00\x00'
p160
tp161
Rp162
sg42
g11
(g24
S'\x02\x00\x00\x00\x00\x00\x00\x00'
p163
tp164
Rp165
sg46
g11
(g15
S'`\xeee\x8cB"\xff?'
p166
tp167
Rp168
ssg46
g168
sg50
g11
(g12
(S'S6'
p169
I0
I1
tp170
Rp171
(I3
S'|'
p172
NNNI6
I1
I0
tp173
bS'ISOMAP'
p174
tp175
Rp176
sg59
F0.2
sg42
g165
sg60
g11
(g12
(S'S8'
p177
I0
I1
tp178
Rp179
(I3
S'|'
p180
NNNI8
I1
I0
tp181
bS'haralick'
p182
tp183
Rp184
sg34
g159
sg38
g162
sg69
g11
(g15
S'\x81\xc4\xa6H\x90t\xdd?'
p185
tp186
Rp187
sg73
g11
(g12
(S'S3'
p188
I0
I1
tp189
Rp190
(I3
S'|'
p191
NNNI3
I1
I0
tp192
bS'SVM'
p193
tp194
Rp195
sg82
I3
sg83
g84
sg85
g11
(g15
S'\xa5Vt\x0c\x84T\xe8?'
p196
tp197
Rp198
sg89
g90
sg91
g92
sbag4
(g5
g6
Ntp199
Rp200
(dp201
g10
g11
(g15
S'\x00\x00\x00\x00\x00\x00\xf8\xff'
p202
tp203
Rp204
sg99
g11
(g15
S'\x00\x00\x00\x00\x00`i@'
p205
tp206
Rp207
sg103
g11
(g106
S'\x00'
p208
tp209
Rp210
sg30
g31
sg32
(dp211
g99
g207
sg113
g11
(g15
S'\xdco\xa3\x900z\xd9?'
p212
tp213
Rp214
sg103
g210
ssg50
g11
(g12
(S'S3'
p215
I0
I1
tp216
Rp217
(I3
S'|'
p218
NNNI3
I1
I0
tp219
bS'PCA'
p220
tp221
Rp222
sg59
F0.2
sg60
g11
(g12
(S'S3'
p223
I0
I1
tp224
Rp225
(I3
S'|'
p226
NNNI3
I1
I0
tp227
bS'VGG'
p228
tp229
Rp230
sg69
g11
(g15
S'\x80]\xe2\xf0\x91b\xda?'
p231
tp232
Rp233
sg73
g11
(g12
(S'S2'
p234
I0
I1
tp235
Rp236
(I3
S'|'
p237
NNNI2
I1
I0
tp238
bS'RF'
p239
tp240
Rp241
sg82
I3
sg113
g214
sg83
g84
sg85
g11
(g15
S'83\xc3\xc9Q\x9f\xea?'
p242
tp243
Rp244
sg89
g90
sg91
g92
sbag4
(g5
g6
Ntp245
Rp246
(dp247
g10
g11
(g15
S'\x00\x00\x00\x00\x00\x00\xf8\xff'
p248
tp249
Rp250
sg99
g11
(g15
S'\x00\x00\x00\x00\x00\xc0r@'
p251
tp252
Rp253
sg103
g210
sg30
g31
sg32
(dp254
g99
g253
sg113
g11
(g15
S'\x8e\xb1\x85e\x92\x05\xea?'
p255
tp256
Rp257
sg103
g210
ssg50
g11
(g12
(S'S3'
p258
I0
I1
tp259
Rp260
(I3
S'|'
p261
NNNI3
I1
I0
tp262
bS'PCA'
p263
tp264
Rp265
sg59
F0.2
sg60
g11
(g12
(S'S3'
p266
I0
I1
tp267
Rp268
(I3
S'|'
p269
NNNI3
I1
I0
tp270
bS'VGG'
p271
tp272
Rp273
sg69
g11
(g15
S'\x91\xf3\xc7\xd8\xa6\xff\xd9?'
p274
tp275
Rp276
sg73
g11
(g12
(S'S2'
p277
I0
I1
tp278
Rp279
(I3
S'|'
p280
NNNI2
I1
I0
tp281
bS'RF'
p282
tp283
Rp284
sg82
I3
sg113
g257
sg83
g84
sg85
g11
(g15
S'\xbcs\x1e/\x15\x90\xea?'
p285
tp286
Rp287
sg89
g90
sg91
g92
sbag4
(g5
g6
Ntp288
Rp289
(dp290
g10
g11
(g15
S'\x00\x00\x00\x00\x00\x00\xf8\xff'
p291
tp292
Rp293
sg99
g11
(g15
S'\x00\x00\x00\x00\x00`i@'
p294
tp295
Rp296
sg103
g210
sg30
g31
sg32
(dp297
g99
g296
sg113
g11
(g15
S'va\x18<\x00(\xe0?'
p298
tp299
Rp300
sg103
g210
ssg50
g11
(g12
(S'S3'
p301
I0
I1
tp302
Rp303
(I3
S'|'
p304
NNNI3
I1
I0
tp305
bS'PCA'
p306
tp307
Rp308
sg59
F0.2
sg60
g11
(g12
(S'S3'
p309
I0
I1
tp310
Rp311
(I3
S'|'
p312
NNNI3
I1
I0
tp313
bS'VGG'
p314
tp315
Rp316
sg69
g11
(g15
S'\xfb\xdc2 T\xf1\xd9?'
p317
tp318
Rp319
sg73
g11
(g12
(S'S2'
p320
I0
I1
tp321
Rp322
(I3
S'|'
p323
NNNI2
I1
I0
tp324
bS'RF'
p325
tp326
Rp327
sg82
I3
sg113
g300
sg83
g84
sg85
g11
(g15
S'\xecc#h,\x90\xea?'
p328
tp329
Rp330
sg89
g90
sg91
g92
sbag4
(g5
g6
Ntp331
Rp332
(dp333
g10
g11
(g15
S'\x00\x00\x00\x00\x00\x00\xf8\xff'
p334
tp335
Rp336
sg103
g111
sg30
g31
sg32
(dp337
g103
g111
sg34
g11
(g15
S'\xdah\x06=?\xb0\x1e@'
p338
tp339
Rp340
sg46
g11
(g15
S'\xf1^"\t\x8a\xd0\xb1?'
p341
tp342
Rp343
ssg50
g11
(g12
(S'S3'
p344
I0
I1
tp345
Rp346
(I3
S'|'
p347
NNNI3
I1
I0
tp348
bS'PCA'
p349
tp350
Rp351
sg59
F0.2
sg46
g343
sg60
g11
(g12
(S'S3'
p352
I0
I1
tp353
Rp354
(I3
S'|'
p355
NNNI3
I1
I0
tp356
bS'VGG'
p357
tp358
Rp359
sg34
g340
sg69
g11
(g15
S'\xedpC\xd4\xbcs\xd6?'
p360
tp361
Rp362
sg73
g11
(g12
(S'S3'
p363
I0
I1
tp364
Rp365
(I3
S'|'
p366
NNNI3
I1
I0
tp367
bS'SVM'
p368
tp369
Rp370
sg82
I3
sg83
g84
sg85
g11
(g15
S'\x0f4\xa5h\xb2\xbe\xea?'
p371
tp372
Rp373
sg89
g90
sg91
g92
sbasS'paths'
p374
(lp375
(lp376
S'VGG'
p377
aS'PCA'
p378
aS'SVM'
p379
aa(lp380
g377
ag378
aS'RF'
p381
aa(lp382
g377
aS'ISOMAP'
p383
ag379
aa(lp384
g377
ag383
ag381
aa(lp385
S'haralick'
p386
ag378
ag379
aa(lp387
g386
ag378
ag381
aa(lp388
g386
ag383
ag379
aa(lp389
g386
ag383
ag381
aa(lp390
S'inception'
p391
ag378
ag379
aa(lp392
g391
ag378
ag381
aa(lp393
g391
ag383
ag379
aa(lp394
g391
ag383
ag381
aasS'pipeline'
p395
(dp396
g21
(lp397
I3
aI4
aI5
aI6
aI7
asg103
(lp398
I01
aI00
asg99
cnumpy.core.multiarray
_reconstruct
p399
(cnumpy
ndarray
p400
(I0
tp401
S'b'
p402
tp403
Rp404
(I1
(I10
tp405
g15
I00
S'\x00\x00\x00\x00\x00\x00 @\x00\x00\x00\x00\x00\x00D@\x00\x00\x00\x00\x00@R@\x00\x00\x00\x00\x00@Z@\x00\x00\x00\x00\x00@a@\x00\x00\x00\x00\x00@e@\x00\x00\x00\x00\x00`i@\x00\x00\x00\x00\x00`m@\x00\x00\x00\x00\x00\xc0p@\x00\x00\x00\x00\x00\xc0r@'
p406
tp407
bsg50
(lp408
g378
ag383
asg46
g399
(g400
(I0
tp409
g402
tp410
Rp411
(I1
(I10
tp412
g15
I00
S"{\x14\xaeG\xe1z\x84?\x102Tv\x98\xba\xec?\xe7\xd5\xc4\xb3\xa2\x91\xfc?b\xc9/\x96\xfcb\x05@\xd2'}\xd2'}\x0c@!Ce\x87\xa9\xcb\x11@X\xf2\x8b%\xbfX\x15@\x90\xa1\xb2\xc3\xd4\xe5\x18@\xc8P\xd9a\xear\x1c@\x00\x00\x00\x00\x00\x00 @"
p413
tp414
bsg60
(lp415
g377
ag386
ag391
asg38
(lp416
I1
aI2
aI3
asg42
(lp417
I2
aI3
aI4
asg73
(lp418
g379
ag381
asg113
g399
(g400
(I0
tp419
g402
tp420
Rp421
(I1
(I5
tp422
g15
I00
S'333333\xd3?\x9a\x99\x99\x99\x99\x99\xd9?\x00\x00\x00\x00\x00\x00\xe0?433333\xe3?hfffff\xe6?'
p423
tp424
bsg34
g399
(g400
(I0
tp425
g402
tp426
Rp427
(I1
(I10
tp428
g15
I00
S'\x9a\x99\x99\x99\x99\x99\xb9?gfffff&@\xce\xcc\xcc\xcc\xccL6@43333\xb3@@\x01\x00\x00\x00\x00@F@\xce\xcc\xcc\xcc\xcc\xccK@\xcd\xcc\xcc\xcc\xcc\xacP@43333sS@\x9a\x99\x99\x99\x999V@\x00\x00\x00\x00\x00\x00Y@'
p429
tp430
bssS'pipelines'
p431
(lp432
g8
ag94
ag4
(g5
g6
Ntp433
Rp434
(dp435
g10
g11
(g15
S'\x00\x00\x00\x00\x00\x00\xf8\xff'
p436
tp437
Rp438
sg103
g111
sg30
g31
sg32
(dp439
g103
g111
sg34
g11
(g15
S'\x95\xab"\xf7d\x15Q@'
p440
tp441
Rp442
sg46
g11
(g15
S'L0CM\x7f\xe1\xfe?'
p443
tp444
Rp445
ssg50
g11
(g12
(S'S3'
p446
I0
I1
tp447
Rp448
(I3
S'|'
p449
NNNI3
I1
I0
tp450
bS'PCA'
p451
tp452
Rp453
sg59
F0.2
sg46
g445
sg60
g11
(g12
(S'S3'
p454
I0
I1
tp455
Rp456
(I3
S'|'
p457
NNNI3
I1
I0
tp458
bS'VGG'
p459
tp460
Rp461
sg34
g442
sg69
g11
(g15
S'\xb3\xed\xf7Vd\xd0\xe1?'
p462
tp463
Rp464
sg73
g11
(g12
(S'S3'
p465
I0
I1
tp466
Rp467
(I3
S'|'
p468
NNNI3
I1
I0
tp469
bS'SVM'
p470
tp471
Rp472
sg82
I3
sg83
g84
sg85
g11
(g15
S'\xd3\x15\x19\x93\xb0\x06\xe8?'
p473
tp474
Rp475
sg89
g90
sg91
g92
sbag4
(g5
g6
Ntp476
Rp477
(dp478
g10
g11
(g15
S'\x00\x00\x00\x00\x00\x00\xf8\xff'
p479
tp480
Rp481
sg99
g11
(g15
S'\x00\x00\x00\x00\x00@R@'
p482
tp483
Rp484
sg103
g111
sg30
g31
sg32
(dp485
g99
g484
sg113
g11
(g15
S'\xaf\xd4J\x11D\xbd\xde?'
p486
tp487
Rp488
sg103
g111
ssg50
g11
(g12
(S'S3'
p489
I0
I1
tp490
Rp491
(I3
S'|'
p492
NNNI3
I1
I0
tp493
bS'PCA'
p494
tp495
Rp496
sg59
F0.2
sg60
g11
(g12
(S'S9'
p497
I0
I1
tp498
Rp499
(I3
S'|'
p500
NNNI9
I1
I0
tp501
bS'inception'
p502
tp503
Rp504
sg69
g11
(g15
S'}D`\xe1\xa4\xfb\xe2?'
p505
tp506
Rp507
sg73
g11
(g12
(S'S2'
p508
I0
I1
tp509
Rp510
(I3
S'|'
p511
NNNI2
I1
I0
tp512
bS'RF'
p513
tp514
Rp515
sg82
I3
sg113
g488
sg83
g84
sg85
g11
(g15
S'9v\x86G\xe2\x06\xe8?'
p516
tp517
Rp518
sg89
g90
sg91
g92
sbag4
(g5
g6
Ntp519
Rp520
(dp521
g10
g11
(g15
S'\x00\x00\x00\x00\x00\x00\xf8\xff'
p522
tp523
Rp524
sg99
g11
(g15
S'\x00\x00\x00\x00\x00`i@'
p525
tp526
Rp527
sg30
g31
sg21
g11
(g24
S'\x04\x00\x00\x00\x00\x00\x00\x00'
p528
tp529
Rp530
sg32
(dp531
g99
g527
sg21
g530
sg42
g11
(g24
S'\x04\x00\x00\x00\x00\x00\x00\x00'
p532
tp533
Rp534
sg113
g11
(g15
S'\xc4\xc6T\xecz\xd2\xde?'
p535
tp536
Rp537
ssg50
g11
(g12
(S'S6'
p538
I0
I1
tp539
Rp540
(I3
S'|'
p541
NNNI6
I1
I0
tp542
bS'ISOMAP'
p543
tp544
Rp545
sg59
F0.2
sg42
g534
sg60
g11
(g12
(S'S9'
p546
I0
I1
tp547
Rp548
(I3
S'|'
p549
NNNI9
I1
I0
tp550
bS'inception'
p551
tp552
Rp553
sg69
g11
(g15
S'\x1d\xebt\xf0\xc8f\xe8?'
p554
tp555
Rp556
sg73
g11
(g12
(S'S2'
p557
I0
I1
tp558
Rp559
(I3
S'|'
p560
NNNI2
I1
I0
tp561
bS'RF'
p562
tp563
Rp564
sg82
I3
sg113
g537
sg83
g84
sg85
g11
(g15
S'\xf8\x06oiL\xba\xe6?'
p565
tp566
Rp567
sg89
g90
sg91
g92
sbag4
(g5
g6
Ntp568
Rp569
(dp570
g10
g11
(g15
S'\x00\x00\x00\x00\x00\x00\xf8\xff'
p571
tp572
Rp573
sg21
g11
(g24
S'\x07\x00\x00\x00\x00\x00\x00\x00'
p574
tp575
Rp576
sg30
g31
sg32
(dp577
g21
g576
sg34
g11
(g15
S'\x94\xa0\x9c{B\xfbS@'
p578
tp579
Rp580
sg38
g11
(g24
S'\x01\x00\x00\x00\x00\x00\x00\x00'
p581
tp582
Rp583
sg42
g11
(g24
S'\x04\x00\x00\x00\x00\x00\x00\x00'
p584
tp585
Rp586
sg46
g11
(g15
S'\x16\xa9\xea\xbe\xe3E\x1f@'
p587
tp588
Rp589
ssg46
g589
sg50
g11
(g12
(S'S6'
p590
I0
I1
tp591
Rp592
(I3
S'|'
p593
NNNI6
I1
I0
tp594
bS'ISOMAP'
p595
tp596
Rp597
sg59
F0.2
sg42
g586
sg60
g11
(g12
(S'S8'
p598
I0
I1
tp599
Rp600
(I3
S'|'
p601
NNNI8
I1
I0
tp602
bS'haralick'
p603
tp604
Rp605
sg34
g580
sg38
g583
sg69
g11
(g15
S'\x03E)\x80\x19[\xe2?'
p606
tp607
Rp608
sg73
g11
(g12
(S'S3'
p609
I0
I1
tp610
Rp611
(I3
S'|'
p612
NNNI3
I1
I0
tp613
bS'SVM'
p614
tp615
Rp616
sg82
I3
sg83
g84
sg85
g11
(g15
S'\x14\x00F\xbd\x89x\xe7?'
p617
tp618
Rp619
sg89
g90
sg91
g92
sbag4
(g5
g6
Ntp620
Rp621
(dp622
g10
g11
(g15
S'\x00\x00\x00\x00\x00\x00\xf8\xff'
p623
tp624
Rp625
sg99
g11
(g15
S'\x00\x00\x00\x00\x00@Z@'
p626
tp627
Rp628
sg103
g111
sg30
g31
sg32
(dp629
g99
g628
sg113
g11
(g15
S'\x14\xf2\xbe>\xc2\xc1\xe6?'
p630
tp631
Rp632
sg103
g111
ssg50
g11
(g12
(S'S3'
p633
I0
I1
tp634
Rp635
(I3
S'|'
p636
NNNI3
I1
I0
tp637
bS'PCA'
p638
tp639
Rp640
sg59
F0.2
sg60
g11
(g12
(S'S9'
p641
I0
I1
tp642
Rp643
(I3
S'|'
p644
NNNI9
I1
I0
tp645
bS'inception'
p646
tp647
Rp648
sg69
g11
(g15
S'\xcd\xc2\x1a0B\x05\xe7?'
p649
tp650
Rp651
sg73
g11
(g12
(S'S2'
p652
I0
I1
tp653
Rp654
(I3
S'|'
p655
NNNI2
I1
I0
tp656
bS'RF'
p657
tp658
Rp659
sg82
I3
sg113
g632
sg83
g84
sg85
g11
(g15
S'E\x086\x95T6\xe8?'
p660
tp661
Rp662
sg89
g90
sg91
g92
sbag4
(g5
g6
Ntp663
Rp664
(dp665
g10
g11
(g15
S'\x00\x00\x00\x00\x00\x00\xf8\xff'
p666
tp667
Rp668
sg21
g11
(g24
S'\x06\x00\x00\x00\x00\x00\x00\x00'
p669
tp670
Rp671
sg30
g31
sg32
(dp672
g21
g671
sg34
g11
(g15
S'\xea\xf3iv>\x134@'
p673
tp674
Rp675
sg42
g11
(g24
S'\x02\x00\x00\x00\x00\x00\x00\x00'
p676
tp677
Rp678
sg46
g11
(g15
S'rE\x1e\xfc{A\x1b@'
p679
tp680
Rp681
ssg46
g681
sg50
g11
(g12
(S'S6'
p682
I0
I1
tp683
Rp684
(I3
S'|'
p685
NNNI6
I1
I0
tp686
bS'ISOMAP'
p687
tp688
Rp689
sg59
F0.2
sg42
g678
sg60
g11
(g12
(S'S9'
p690
I0
I1
tp691
Rp692
(I3
S'|'
p693
NNNI9
I1
I0
tp694
bS'inception'
p695
tp696
Rp697
sg34
g675
sg69
g11
(g15
S'`\x83\xfc\xff\x98E\xe7?'
p698
tp699
Rp700
sg73
g11
(g12
(S'S3'
p701
I0
I1
tp702
Rp703
(I3
S'|'
p704
NNNI3
I1
I0
tp705
bS'SVM'
p706
tp707
Rp708
sg82
I3
sg83
g84
sg85
g11
(g15
S'\xbfu\xb8zq\x94\xe3?'
p709
tp710
Rp711
sg89
g90
sg91
g92
sbag4
(g5
g6
Ntp712
Rp713
(dp714
g10
g11
(g15
S'\x00\x00\x00\x00\x00\x00\xf8\xff'
p715
tp716
Rp717
sg99
g11
(g15
S'\x00\x00\x00\x00\x00@e@'
p718
tp719
Rp720
sg30
g31
sg21
g11
(g24
S'\x05\x00\x00\x00\x00\x00\x00\x00'
p721
tp722
Rp723
sg32
(dp724
g99
g720
sg21
g723
sg38
g11
(g24
S'\x01\x00\x00\x00\x00\x00\x00\x00'
p725
tp726
Rp727
sg42
g11
(g24
S'\x03\x00\x00\x00\x00\x00\x00\x00'
p728
tp729
Rp730
sg113
g11
(g15
S'\xe8\x97Jl\xc3\xe6\xe2?'
p731
tp732
Rp733
ssg50
g11
(g12
(S'S6'
p734
I0
I1
tp735
Rp736
(I3
S'|'
p737
NNNI6
I1
I0
tp738
bS'ISOMAP'
p739
tp740
Rp741
sg59
F0.2
sg42
g730
sg60
g11
(g12
(S'S8'
p742
I0
I1
tp743
Rp744
(I3
S'|'
p745
NNNI8
I1
I0
tp746
bS'haralick'
p747
tp748
Rp749
sg38
g727
sg69
g11
(g15
S'`\x13\x90\x1fp2\xf7?'
p750
tp751
Rp752
sg73
g11
(g12
(S'S2'
p753
I0
I1
tp754
Rp755
(I3
S'|'
p756
NNNI2
I1
I0
tp757
bS'RF'
p758
tp759
Rp760
sg82
I3
sg113
g733
sg83
g84
sg85
g11
(g15
S'\xd8\x81\x89F\xe0\x88\xe7?'
p761
tp762
Rp763
sg89
g90
sg91
g92
sbag148
ag4
(g5
g6
Ntp764
Rp765
(dp766
g10
g11
(g15
S'\x00\x00\x00\x00\x00\x00\xf8\xff'
p767
tp768
Rp769
sg103
g210
sg30
g31
sg32
(dp770
g103
g210
sg34
g11
(g15
S'P3\xc8\xd7\x88IS@'
p771
tp772
Rp773
sg38
g11
(g24
S'\x02\x00\x00\x00\x00\x00\x00\x00'
p774
tp775
Rp776
sg46
g11
(g15
S'3VMT<w\x18@'
p777
tp778
Rp779
ssg50
g11
(g12
(S'S3'
p780
I0
I1
tp781
Rp782
(I3
S'|'
p783
NNNI3
I1
I0
tp784
bS'PCA'
p785
tp786
Rp787
sg59
F0.2
sg46
g779
sg60
g11
(g12
(S'S8'
p788
I0
I1
tp789
Rp790
(I3
S'|'
p791
NNNI8
I1
I0
tp792
bS'haralick'
p793
tp794
Rp795
sg34
g773
sg38
g776
sg69
g11
(g15
S'\xe9\x91\x1e\xdf\x8f6\xe0?'
p796
tp797
Rp798
sg73
g11
(g12
(S'S3'
p799
I0
I1
tp800
Rp801
(I3
S'|'
p802
NNNI3
I1
I0
tp803
bS'SVM'
p804
tp805
Rp806
sg82
I3
sg83
g84
sg85
g11
(g15
S'\xfd\x063\x90\xf6\x00\xe5?'
p807
tp808
Rp809
sg89
g90
sg91
g92
sbag4
(g5
g6
Ntp810
Rp811
(dp812
g10
g11
(g15
S'\x00\x00\x00\x00\x00\x00\xf8\xff'
p813
tp814
Rp815
sg103
g210
sg30
g31
sg32
(dp816
g103
g210
sg34
g11
(g15
S'\xe9`S\x82WR4@'
p817
tp818
Rp819
sg38
g11
(g24
S'\x01\x00\x00\x00\x00\x00\x00\x00'
p820
tp821
Rp822
sg46
g11
(g15
S', Z*\xfe\xe5\x0e@'
p823
tp824
Rp825
ssg50
g11
(g12
(S'S3'
p826
I0
I1
tp827
Rp828
(I3
S'|'
p829
NNNI3
I1
I0
tp830
bS'PCA'
p831
tp832
Rp833
sg59
F0.2
sg46
g825
sg60
g11
(g12
(S'S8'
p834
I0
I1
tp835
Rp836
(I3
S'|'
p837
NNNI8
I1
I0
tp838
bS'haralick'
p839
tp840
Rp841
sg34
g819
sg38
g822
sg69
g11
(g15
S'/\xc9B\xbf9W\xe0?'
p842
tp843
Rp844
sg73
g11
(g12
(S'S3'
p845
I0
I1
tp846
Rp847
(I3
S'|'
p848
NNNI3
I1
I0
tp849
bS'SVM'
p850
tp851
Rp852
sg82
I3
sg83
g84
sg85
g11
(g15
S'?\x1fW\xbe\xb3\x1b\xe6?'
p853
tp854
Rp855
sg89
g90
sg91
g92
sbag4
(g5
g6
Ntp856
Rp857
(dp858
g10
g11
(g15
S'\x00\x00\x00\x00\x00\x00\xf8\xff'
p859
tp860
Rp861
sg103
g111
sg30
g31
sg32
(dp862
g103
g111
sg34
g11
(g15
S'I\x97\xdco(\xc02@'
p863
tp864
Rp865
sg46
g11
(g15
S'\x92p+#\x80#\x1c@'
p866
tp867
Rp868
ssg50
g11
(g12
(S'S3'
p869
I0
I1
tp870
Rp871
(I3
S'|'
p872
NNNI3
I1
I0
tp873
bS'PCA'
p874
tp875
Rp876
sg59
F0.2
sg46
g868
sg60
g11
(g12
(S'S3'
p877
I0
I1
tp878
Rp879
(I3
S'|'
p880
NNNI3
I1
I0
tp881
bS'VGG'
p882
tp883
Rp884
sg34
g865
sg69
g11
(g15
S'\xd4\xa5\x9b\xcd\x11;\xe8?'
p885
tp886
Rp887
sg73
g11
(g12
(S'S3'
p888
I0
I1
tp889
Rp890
(I3
S'|'
p891
NNNI3
I1
I0
tp892
bS'SVM'
p893
tp894
Rp895
sg82
I3
sg83
g84
sg85
g11
(g15
S'v\xb4\xe0\xa3O\xb2\xe4?'
p896
tp897
Rp898
sg89
g90
sg91
g92
sbag4
(g5
g6
Ntp899
Rp900
(dp901
g10
g11
(g15
S'\x00\x00\x00\x00\x00\x00\xf8\xff'
p902
tp903
Rp904
sg99
g11
(g15
S'\x00\x00\x00\x00\x00\xc0r@'
p905
tp906
Rp907
sg30
g31
sg21
g11
(g24
S'\x05\x00\x00\x00\x00\x00\x00\x00'
p908
tp909
Rp910
sg32
(dp911
g99
g907
sg21
g910
sg38
g11
(g24
S'\x03\x00\x00\x00\x00\x00\x00\x00'
p912
tp913
Rp914
sg42
g11
(g24
S'\x02\x00\x00\x00\x00\x00\x00\x00'
p915
tp916
Rp917
sg113
g11
(g15
S'TO\x0f\xe5Th\xee?'
p918
tp919
Rp920
ssg50
g11
(g12
(S'S6'
p921
I0
I1
tp922
Rp923
(I3
S'|'
p924
NNNI6
I1
I0
tp925
bS'ISOMAP'
p926
tp927
Rp928
sg59
F0.2
sg42
g917
sg60
g11
(g12
(S'S8'
p929
I0
I1
tp930
Rp931
(I3
S'|'
p932
NNNI8
I1
I0
tp933
bS'haralick'
p934
tp935
Rp936
sg38
g914
sg69
g11
(g15
S'\x85\xfb\xf0>\xb3\xf7\xec?'
p937
tp938
Rp939
sg73
g11
(g12
(S'S2'
p940
I0
I1
tp941
Rp942
(I3
S'|'
p943
NNNI2
I1
I0
tp944
bS'RF'
p945
tp946
Rp947
sg82
I3
sg113
g920
sg83
g84
sg85
g11
(g15
S'\x1f\x15XF=\xa0\xea?'
p948
tp949
Rp950
sg89
g90
sg91
g92
sbag4
(g5
g6
Ntp951
Rp952
(dp953
g10
g11
(g15
S'\x00\x00\x00\x00\x00\x00\xf8\xff'
p954
tp955
Rp956
sg99
g11
(g15
S'\x00\x00\x00\x00\x00@Z@'
p957
tp958
Rp959
sg30
g31
sg21
g11
(g24
S'\x05\x00\x00\x00\x00\x00\x00\x00'
p960
tp961
Rp962
sg32
(dp963
g99
g959
sg21
g962
sg42
g11
(g24
S'\x04\x00\x00\x00\x00\x00\x00\x00'
p964
tp965
Rp966
sg113
g11
(g15
S'\xe2:V\xd1\xfaO\xef?'
p967
tp968
Rp969
ssg50
g11
(g12
(S'S6'
p970
I0
I1
tp971
Rp972
(I3
S'|'
p973
NNNI6
I1
I0
tp974
bS'ISOMAP'
p975
tp976
Rp977
sg59
F0.2
sg42
g966
sg60
g11
(g12
(S'S3'
p978
I0
I1
tp979
Rp980
(I3
S'|'
p981
NNNI3
I1
I0
tp982
bS'VGG'
p983
tp984
Rp985
sg69
g11
(g15
S' O\xba\x07q\x07\xe8?'
p986
tp987
Rp988
sg73
g11
(g12
(S'S2'
p989
I0
I1
tp990
Rp991
(I3
S'|'
p992
NNNI2
I1
I0
tp993
bS'RF'
p994
tp995
Rp996
sg82
I3
sg113
g969
sg83
g84
sg85
g11
(g15
S'\xf1\xea\x047\x83\xc2\xe9?'
p997
tp998
Rp999
sg89
g90
sg91
g92
sbag4
(g5
g6
Ntp1000
Rp1001
(dp1002
g10
g11
(g15
S'\x00\x00\x00\x00\x00\x00\xf8\xff'
p1003
tp1004
Rp1005
sg99
g11
(g15
S'\x00\x00\x00\x00\x00\xc0r@'
p1006
tp1007
Rp1008
sg103
g111
sg30
g31
sg32
(dp1009
g99
g1008
sg113
g11
(g15
S'N=\xae\xc9\x1a\xdb\xd7?'
p1010
tp1011
Rp1012
sg103
g111
sg38
g11
(g24
S'\x03\x00\x00\x00\x00\x00\x00\x00'
p1013
tp1014
Rp1015
ssg50
g11
(g12
(S'S3'
p1016
I0
I1
tp1017
Rp1018
(I3
S'|'
p1019
NNNI3
I1
I0
tp1020
bS'PCA'
p1021
tp1022
Rp1023
sg59
F0.2
sg60
g11
(g12
(S'S8'
p1024
I0
I1
tp1025
Rp1026
(I3
S'|'
p1027
NNNI8
I1
I0
tp1028
bS'haralick'
p1029
tp1030
Rp1031
sg38
g1015
sg69
g11
(g15
S'tR\x80\x97\x92C\xfd?'
p1032
tp1033
Rp1034
sg73
g11
(g12
(S'S2'
p1035
I0
I1
tp1036
Rp1037
(I3
S'|'
p1038
NNNI2
I1
I0
tp1039
bS'RF'
p1040
tp1041
Rp1042
sg82
I3
sg113
g1012
sg83
g84
sg85
g11
(g15
S'\x94\x8a\xcaK\x1a~\xe6?'
p1043
tp1044
Rp1045
sg89
g90
sg91
g92
sbag4
(g5
g6
Ntp1046
Rp1047
(dp1048
g10
g11
(g15
S'\x00\x00\x00\x00\x00\x00\xf8\xff'
p1049
tp1050
Rp1051
sg99
g11
(g15
S'\x00\x00\x00\x00\x00`m@'
p1052
tp1053
Rp1054
sg30
g31
sg21
g11
(g24
S'\x03\x00\x00\x00\x00\x00\x00\x00'
p1055
tp1056
Rp1057
sg32
(dp1058
g99
g1054
sg21
g1057
sg42
g11
(g24
S'\x02\x00\x00\x00\x00\x00\x00\x00'
p1059
tp1060
Rp1061
sg113
g11
(g15
S'\xa8b\xf8)\xdd\xae\xe6?'
p1062
tp1063
Rp1064
ssg50
g11
(g12
(S'S6'
p1065
I0
I1
tp1066
Rp1067
(I3
S'|'
p1068
NNNI6
I1
I0
tp1069
bS'ISOMAP'
p1070
tp1071
Rp1072
sg59
F0.2
sg42
g1061
sg60
g11
(g12
(S'S3'
p1073
I0
I1
tp1074
Rp1075
(I3
S'|'
p1076
NNNI3
I1
I0
tp1077
bS'VGG'
p1078
tp1079
Rp1080
sg69
g11
(g15
S'\x93\xe1\x9a\\\x9a\x86\xf2?'
p1081
tp1082
Rp1083
sg73
g11
(g12
(S'S2'
p1084
I0
I1
tp1085
Rp1086
(I3
S'|'
p1087
NNNI2
I1
I0
tp1088
bS'RF'
p1089
tp1090
Rp1091
sg82
I3
sg113
g1064
sg83
g84
sg85
g11
(g15
S'@\x11$\xb9\x0c\xc6\xe8?'
p1092
tp1093
Rp1094
sg89
g90
sg91
g92
sbag4
(g5
g6
Ntp1095
Rp1096
(dp1097
g10
g11
(g15
S'\x00\x00\x00\x00\x00\x00\xf8\xff'
p1098
tp1099
Rp1100
sg103
g210
sg30
g31
sg32
(dp1101
g103
g210
sg34
g11
(g15
S'Xm\x94K@^W@'
p1102
tp1103
Rp1104
sg46
g11
(g15
S'sH\xa7\xca\x18e\x17@'
p1105
tp1106
Rp1107
ssg50
g11
(g12
(S'S3'
p1108
I0
I1
tp1109
Rp1110
(I3
S'|'
p1111
NNNI3
I1
I0
tp1112
bS'PCA'
p1113
tp1114
Rp1115
sg59
F0.2
sg46
g1107
sg60
g11
(g12
(S'S3'
p1116
I0
I1
tp1117
Rp1118
(I3
S'|'
p1119
NNNI3
I1
I0
tp1120
bS'VGG'
p1121
tp1122
Rp1123
sg34
g1104
sg69
g11
(g15
S'\x15\xbf\x89\x9c*\xd1\xe6?'
p1124
tp1125
Rp1126
sg73
g11
(g12
(S'S3'
p1127
I0
I1
tp1128
Rp1129
(I3
S'|'
p1130
NNNI3
I1
I0
tp1131
bS'SVM'
p1132
tp1133
Rp1134
sg82
I3
sg83
g84
sg85
g11
(g15
S'\xa3\x19\x0c\xfe/@\xe5?'
p1135
tp1136
Rp1137
sg89
g90
sg91
g92
sbag4
(g5
g6
Ntp1138
Rp1139
(dp1140
g10
g11
(g15
S'\x00\x00\x00\x00\x00\x00\xf8\xff'
p1141
tp1142
Rp1143
sg99
g11
(g15
S'\x00\x00\x00\x00\x00\x00 @'
p1144
tp1145
Rp1146
sg103
g210
sg30
g31
sg32
(dp1147
g99
g1146
sg113
g11
(g15
S'\x97\xd4\xda4\xf5&\xe0?'
p1148
tp1149
Rp1150
sg103
g210
ssg50
g11
(g12
(S'S3'
p1151
I0
I1
tp1152
Rp1153
(I3
S'|'
p1154
NNNI3
I1
I0
tp1155
bS'PCA'
p1156
tp1157
Rp1158
sg59
F0.2
sg60
g11
(g12
(S'S3'
p1159
I0
I1
tp1160
Rp1161
(I3
S'|'
p1162
NNNI3
I1
I0
tp1163
bS'VGG'
p1164
tp1165
Rp1166
sg69
g11
(g15
S'\xdd\xd0\xc9K@\xc6\xfe?'
p1167
tp1168
Rp1169
sg73
g11
(g12
(S'S2'
p1170
I0
I1
tp1171
Rp1172
(I3
S'|'
p1173
NNNI2
I1
I0
tp1174
bS'RF'
p1175
tp1176
Rp1177
sg82
I3
sg113
g1150
sg83
g84
sg85
g11
(g15
S'!,\xd1Q\x84\x10\xea?'
p1178
tp1179
Rp1180
sg89
g90
sg91
g92
sbag200
ag246
ag4
(g5
g6
Ntp1181
Rp1182
(dp1183
g10
g11
(g15
S'\x00\x00\x00\x00\x00\x00\xf8\xff'
p1184
tp1185
Rp1186
sg103
g111
sg30
g31
sg32
(dp1187
g103
g111
sg34
g11
(g15
S' \xc5\x18\xeeUO&@'
p1188
tp1189
Rp1190
sg46
g11
(g15
S'\x19\xf7\xbc\xfc<\x05\x12@'
p1191
tp1192
Rp1193
ssg50
g11
(g12
(S'S3'
p1194
I0
I1
tp1195
Rp1196
(I3
S'|'
p1197
NNNI3
I1
I0
tp1198
bS'PCA'
p1199
tp1200
Rp1201
sg59
F0.2
sg46
g1193
sg60
g11
(g12
(S'S3'
p1202
I0
I1
tp1203
Rp1204
(I3
S'|'
p1205
NNNI3
I1
I0
tp1206
bS'VGG'
p1207
tp1208
Rp1209
sg34
g1190
sg69
g11
(g15
S'\x87\xdd~B"\xd1\xe5?'
p1210
tp1211
Rp1212
sg73
g11
(g12
(S'S3'
p1213
I0
I1
tp1214
Rp1215
(I3
S'|'
p1216
NNNI3
I1
I0
tp1217
bS'SVM'
p1218
tp1219
Rp1220
sg82
I3
sg83
g84
sg85
g11
(g15
S'|.\xe1+d\xdd\xe5?'
p1221
tp1222
Rp1223
sg89
g90
sg91
g92
sbag4
(g5
g6
Ntp1224
Rp1225
(dp1226
g10
g11
(g15
S'\x00\x00\x00\x00\x00\x00\xf8\xff'
p1227
tp1228
Rp1229
sg99
g11
(g15
S'\x00\x00\x00\x00\x00\xc0p@'
p1230
tp1231
Rp1232
sg103
g210
sg30
g31
sg32
(dp1233
g99
g1232
sg113
g11
(g15
S'\xf2\xd7H\x10,e\xe4?'
p1234
tp1235
Rp1236
sg103
g210
ssg50
g11
(g12
(S'S3'
p1237
I0
I1
tp1238
Rp1239
(I3
S'|'
p1240
NNNI3
I1
I0
tp1241
bS'PCA'
p1242
tp1243
Rp1244
sg59
F0.2
sg60
g11
(g12
(S'S9'
p1245
I0
I1
tp1246
Rp1247
(I3
S'|'
p1248
NNNI9
I1
I0
tp1249
bS'inception'
p1250
tp1251
Rp1252
sg69
g11
(g15
S'g\xb8\xbac\xad\xee\xe4?'
p1253
tp1254
Rp1255
sg73
g11
(g12
(S'S2'
p1256
I0
I1
tp1257
Rp1258
(I3
S'|'
p1259
NNNI2
I1
I0
tp1260
bS'RF'
p1261
tp1262
Rp1263
sg82
I3
sg113
g1236
sg83
g84
sg85
g11
(g15
S'\x1f\xc9I\xd5\xb6U\xe8?'
p1264
tp1265
Rp1266
sg89
g90
sg91
g92
sbag4
(g5
g6
Ntp1267
Rp1268
(dp1269
g10
g11
(g15
S'\x00\x00\x00\x00\x00\x00\xf8\xff'
p1270
tp1271
Rp1272
sg99
g11
(g15
S'\x00\x00\x00\x00\x00\xc0p@'
p1273
tp1274
Rp1275
sg103
g111
sg30
g31
sg32
(dp1276
g99
g1275
sg113
g11
(g15
S' \x89\\\x87\x8f\x86\xe6?'
p1277
tp1278
Rp1279
sg103
g111
sg38
g11
(g24
S'\x01\x00\x00\x00\x00\x00\x00\x00'
p1280
tp1281
Rp1282
ssg50
g11
(g12
(S'S3'
p1283
I0
I1
tp1284
Rp1285
(I3
S'|'
p1286
NNNI3
I1
I0
tp1287
bS'PCA'
p1288
tp1289
Rp1290
sg59
F0.2
sg60
g11
(g12
(S'S8'
p1291
I0
I1
tp1292
Rp1293
(I3
S'|'
p1294
NNNI8
I1
I0
tp1295
bS'haralick'
p1296
tp1297
Rp1298
sg38
g1282
sg69
g11
(g15
S'\xb4\x81\xc4`\xe3\xa4\x02@'
p1299
tp1300
Rp1301
sg73
g11
(g12
(S'S2'
p1302
I0
I1
tp1303
Rp1304
(I3
S'|'
p1305
NNNI2
I1
I0
tp1306
bS'RF'
p1307
tp1308
Rp1309
sg82
I3
sg113
g1279
sg83
g84
sg85
g11
(g15
S'\xbd\x80\x8b\xe6\xe2Y\xe7?'
p1310
tp1311
Rp1312
sg89
g90
sg91
g92
sbag4
(g5
g6
Ntp1313
Rp1314
(dp1315
g10
g11
(g15
S'\x00\x00\x00\x00\x00\x00\xf8\xff'
p1316
tp1317
Rp1318
sg99
g11
(g15
S'\x00\x00\x00\x00\x00@R@'
p1319
tp1320
Rp1321
sg30
g31
sg21
g11
(g24
S'\x07\x00\x00\x00\x00\x00\x00\x00'
p1322
tp1323
Rp1324
sg32
(dp1325
g99
g1321
sg21
g1324
sg42
g11
(g24
S'\x03\x00\x00\x00\x00\x00\x00\x00'
p1326
tp1327
Rp1328
sg113
g11
(g15
S'x\xbc\xe2\xa8\xde@\xe9?'
p1329
tp1330
Rp1331
ssg50
g11
(g12
(S'S6'
p1332
I0
I1
tp1333
Rp1334
(I3
S'|'
p1335
NNNI6
I1
I0
tp1336
bS'ISOMAP'
p1337
tp1338
Rp1339
sg59
F0.2
sg42
g1328
sg60
g11
(g12
(S'S3'
p1340
I0
I1
tp1341
Rp1342
(I3
S'|'
p1343
NNNI3
I1
I0
tp1344
bS'VGG'
p1345
tp1346
Rp1347
sg69
g11
(g15
S'\xb4\x02\r4>G\xf1?'
p1348
tp1349
Rp1350
sg73
g11
(g12
(S'S2'
p1351
I0
I1
tp1352
Rp1353
(I3
S'|'
p1354
NNNI2
I1
I0
tp1355
bS'RF'
p1356
tp1357
Rp1358
sg82
I3
sg113
g1331
sg83
g84
sg85
g11
(g15
S'\xa9+`TQ\xf1\xe9?'
p1359
tp1360
Rp1361
sg89
g90
sg91
g92
sbag4
(g5
g6
Ntp1362
Rp1363
(dp1364
g10
g11
(g15
S'\x00\x00\x00\x00\x00\x00\xf8\xff'
p1365
tp1366
Rp1367
sg21
g11
(g24
S'\x03\x00\x00\x00\x00\x00\x00\x00'
p1368
tp1369
Rp1370
sg30
g31
sg32
(dp1371
g21
g1370
sg34
g11
(g15
S']<\xd41\xcdqU@'
p1372
tp1373
Rp1374
sg42
g11
(g24
S'\x02\x00\x00\x00\x00\x00\x00\x00'
p1375
tp1376
Rp1377
sg46
g11
(g15
S'W(:\x8a<\x94\x1c@'
p1378
tp1379
Rp1380
ssg46
g1380
sg50
g11
(g12
(S'S6'
p1381
I0
I1
tp1382
Rp1383
(I3
S'|'
p1384
NNNI6
I1
I0
tp1385
bS'ISOMAP'
p1386
tp1387
Rp1388
sg59
F0.2
sg42
g1377
sg60
g11
(g12
(S'S9'
p1389
I0
I1
tp1390
Rp1391
(I3
S'|'
p1392
NNNI9
I1
I0
tp1393
bS'inception'
p1394
tp1395
Rp1396
sg34
g1374
sg69
g11
(g15
S'\x19pV\xbf\xc8t\xe9?'
p1397
tp1398
Rp1399
sg73
g11
(g12
(S'S3'
p1400
I0
I1
tp1401
Rp1402
(I3
S'|'
p1403
NNNI3
I1
I0
tp1404
bS'SVM'
p1405
tp1406
Rp1407
sg82
I3
sg83
g84
sg85
g11
(g15
S'%I\xdc\xb8\x07\xc5\xe2?'
p1408
tp1409
Rp1410
sg89
g90
sg91
g92
sbag4
(g5
g6
Ntp1411
Rp1412
(dp1413
g10
g11
(g15
S'\x00\x00\x00\x00\x00\x00\xf8\xff'
p1414
tp1415
Rp1416
sg99
g11
(g15
S'\x00\x00\x00\x00\x00\x00 @'
p1417
tp1418
Rp1419
sg30
g31
sg21
g11
(g24
S'\x07\x00\x00\x00\x00\x00\x00\x00'
p1420
tp1421
Rp1422
sg32
(dp1423
g99
g1419
sg21
g1422
sg38
g11
(g24
S'\x02\x00\x00\x00\x00\x00\x00\x00'
p1424
tp1425
Rp1426
sg42
g11
(g24
S'\x02\x00\x00\x00\x00\x00\x00\x00'
p1427
tp1428
Rp1429
sg113
g11
(g15
S'Z\xd00P\xaf\xc3\xe5?'
p1430
tp1431
Rp1432
ssg50
g11
(g12
(S'S6'
p1433
I0
I1
tp1434
Rp1435
(I3
S'|'
p1436
NNNI6
I1
I0
tp1437
bS'ISOMAP'
p1438
tp1439
Rp1440
sg59
F0.2
sg42
g1429
sg60
g11
(g12
(S'S8'
p1441
I0
I1
tp1442
Rp1443
(I3
S'|'
p1444
NNNI8
I1
I0
tp1445
bS'haralick'
p1446
tp1447
Rp1448
sg38
g1426
sg69
g11
(g15
S'\x85\xc2\xd4y\x01\x9f\x04@'
p1449
tp1450
Rp1451
sg73
g11
(g12
(S'S2'
p1452
I0
I1
tp1453
Rp1454
(I3
S'|'
p1455
NNNI2
I1
I0
tp1456
bS'RF'
p1457
tp1458
Rp1459
sg82
I3
sg113
g1432
sg83
g84
sg85
g11
(g15
S'\x10u\xe0m\xc7C\xe9?'
p1460
tp1461
Rp1462
sg89
g90
sg91
g92
sbag4
(g5
g6
Ntp1463
Rp1464
(dp1465
g10
g11
(g15
S'\x00\x00\x00\x00\x00\x00\xf8\xff'
p1466
tp1467
Rp1468
sg99
g11
(g15
S'\x00\x00\x00\x00\x00\xc0p@'
p1469
tp1470
Rp1471
sg103
g210
sg30
g31
sg32
(dp1472
g99
g1471
sg113
g11
(g15
S'\x08\xf0\xfc^\xb2]\xe2?'
p1473
tp1474
Rp1475
sg103
g210
ssg50
g11
(g12
(S'S3'
p1476
I0
I1
tp1477
Rp1478
(I3
S'|'
p1479
NNNI3
I1
I0
tp1480
bS'PCA'
p1481
tp1482
Rp1483
sg59
F0.2
sg60
g11
(g12
(S'S9'
p1484
I0
I1
tp1485
Rp1486
(I3
S'|'
p1487
NNNI9
I1
I0
tp1488
bS'inception'
p1489
tp1490
Rp1491
sg69
g11
(g15
S'1r\xdb\xa4qQ\xe1?'
p1492
tp1493
Rp1494
sg73
g11
(g12
(S'S2'
p1495
I0
I1
tp1496
Rp1497
(I3
S'|'
p1498
NNNI2
I1
I0
tp1499
bS'RF'
p1500
tp1501
Rp1502
sg82
I3
sg113
g1475
sg83
g84
sg85
g11
(g15
S'\x8c\x19\xa0]he\xe8?'
p1503
tp1504
Rp1505
sg89
g90
sg91
g92
sbag4
(g5
g6
Ntp1506
Rp1507
(dp1508
g10
g11
(g15
S'\x00\x00\x00\x00\x00\x00\xf8\xff'
p1509
tp1510
Rp1511
sg99
g11
(g15
S'\x00\x00\x00\x00\x00\xc0p@'
p1512
tp1513
Rp1514
sg103
g210
sg30
g31
sg32
(dp1515
g99
g1514
sg113
g11
(g15
S'x\xb7\x1f\xbf\xae\xae\xe1?'
p1516
tp1517
Rp1518
sg103
g210
ssg50
g11
(g12
(S'S3'
p1519
I0
I1
tp1520
Rp1521
(I3
S'|'
p1522
NNNI3
I1
I0
tp1523
bS'PCA'
p1524
tp1525
Rp1526
sg59
F0.2
sg60
g11
(g12
(S'S3'
p1527
I0
I1
tp1528
Rp1529
(I3
S'|'
p1530
NNNI3
I1
I0
tp1531
bS'VGG'
p1532
tp1533
Rp1534
sg69
g11
(g15
S'\xb3e\x8f*\x0c\x91\xda?'
p1535
tp1536
Rp1537
sg73
g11
(g12
(S'S2'
p1538
I0
I1
tp1539
Rp1540
(I3
S'|'
p1541
NNNI2
I1
I0
tp1542
bS'RF'
p1543
tp1544
Rp1545
sg82
I3
sg113
g1518
sg83
g84
sg85
g11
(g15
S'C\x92\x16]\xe9`\xea?'
p1546
tp1547
Rp1548
sg89
g90
sg91
g92
sbag4
(g5
g6
Ntp1549
Rp1550
(dp1551
g10
g11
(g15
S'\x00\x00\x00\x00\x00\x00\xf8\xff'
p1552
tp1553
Rp1554
sg99
g11
(g15
S'\x00\x00\x00\x00\x00\xc0r@'
p1555
tp1556
Rp1557
sg103
g210
sg30
g31
sg32
(dp1558
g99
g1557
sg113
g11
(g15
S'\xaa\x80\xdd\xd1p4\xe6?'
p1559
tp1560
Rp1561
sg103
g210
sg38
g11
(g24
S'\x01\x00\x00\x00\x00\x00\x00\x00'
p1562
tp1563
Rp1564
ssg50
g11
(g12
(S'S3'
p1565
I0
I1
tp1566
Rp1567
(I3
S'|'
p1568
NNNI3
I1
I0
tp1569
bS'PCA'
p1570
tp1571
Rp1572
sg59
F0.2
sg60
g11
(g12
(S'S8'
p1573
I0
I1
tp1574
Rp1575
(I3
S'|'
p1576
NNNI8
I1
I0
tp1577
bS'haralick'
p1578
tp1579
Rp1580
sg38
g1564
sg69
g11
(g15
S'A\x9e\xd4w)\x9b\x02@'
p1581
tp1582
Rp1583
sg73
g11
(g12
(S'S2'
p1584
I0
I1
tp1585
Rp1586
(I3
S'|'
p1587
NNNI2
I1
I0
tp1588
bS'RF'
p1589
tp1590
Rp1591
sg82
I3
sg113
g1561
sg83
g84
sg85
g11
(g15
S'\xbd\x80\x8b\xe6\xe2Y\xe7?'
p1592
tp1593
Rp1594
sg89
g90
sg91
g92
sbag4
(g5
g6
Ntp1595
Rp1596
(dp1597
g10
g11
(g15
S'\x00\x00\x00\x00\x00\x00\xf8\xff'
p1598
tp1599
Rp1600
sg99
g11
(g15
S'\x00\x00\x00\x00\x00@a@'
p1601
tp1602
Rp1603
sg30
g31
sg21
g11
(g24
S'\x03\x00\x00\x00\x00\x00\x00\x00'
p1604
tp1605
Rp1606
sg32
(dp1607
g99
g1603
sg21
g1606
sg42
g11
(g24
S'\x04\x00\x00\x00\x00\x00\x00\x00'
p1608
tp1609
Rp1610
sg113
g11
(g15
S'~\x9enE\xd0\x9a\xef?'
p1611
tp1612
Rp1613
ssg50
g11
(g12
(S'S6'
p1614
I0
I1
tp1615
Rp1616
(I3
S'|'
p1617
NNNI6
I1
I0
tp1618
bS'ISOMAP'
p1619
tp1620
Rp1621
sg59
F0.2
sg42
g1610
sg60
g11
(g12
(S'S9'
p1622
I0
I1
tp1623
Rp1624
(I3
S'|'
p1625
NNNI9
I1
I0
tp1626
bS'inception'
p1627
tp1628
Rp1629
sg69
g11
(g15
S'\xf18\x8d\xfc\xebG\xf5?'
p1630
tp1631
Rp1632
sg73
g11
(g12
(S'S2'
p1633
I0
I1
tp1634
Rp1635
(I3
S'|'
p1636
NNNI2
I1
I0
tp1637
bS'RF'
p1638
tp1639
Rp1640
sg82
I3
sg113
g1613
sg83
g84
sg85
g11
(g15
S'3tiI\nM\xe5?'
p1641
tp1642
Rp1643
sg89
g90
sg91
g92
sbag4
(g5
g6
Ntp1644
Rp1645
(dp1646
g10
g11
(g15
S'\x00\x00\x00\x00\x00\x00\xf8\xff'
p1647
tp1648
Rp1649
sg103
g210
sg30
g31
sg32
(dp1650
g103
g210
sg34
g11
(g15
S'\x8b\x0e\xd5g\xdd\xf2O@'
p1651
tp1652
Rp1653
sg38
g11
(g24
S'\x01\x00\x00\x00\x00\x00\x00\x00'
p1654
tp1655
Rp1656
sg46
g11
(g15
S'\n\xc8\xef\xbf\x7f\xb9\x10@'
p1657
tp1658
Rp1659
ssg50
g11
(g12
(S'S3'
p1660
I0
I1
tp1661
Rp1662
(I3
S'|'
p1663
NNNI3
I1
I0
tp1664
bS'PCA'
p1665
tp1666
Rp1667
sg59
F0.2
sg46
g1659
sg60
g11
(g12
(S'S8'
p1668
I0
I1
tp1669
Rp1670
(I3
S'|'
p1671
NNNI8
I1
I0
tp1672
bS'haralick'
p1673
tp1674
Rp1675
sg34
g1653
sg38
g1656
sg69
g11
(g15
S'\x80}7\x89\xcfk\xe0?'
p1676
tp1677
Rp1678
sg73
g11
(g12
(S'S3'
p1679
I0
I1
tp1680
Rp1681
(I3
S'|'
p1682
NNNI3
I1
I0
tp1683
bS'SVM'
p1684
tp1685
Rp1686
sg82
I3
sg83
g84
sg85
g11
(g15
S'\xeb{=\xa8-\xbd\xe5?'
p1687
tp1688
Rp1689
sg89
g90
sg91
g92
sbag4
(g5
g6
Ntp1690
Rp1691
(dp1692
g10
g11
(g15
S'\x00\x00\x00\x00\x00\x00\xf8\xff'
p1693
tp1694
Rp1695
sg99
g11
(g15
S'\x00\x00\x00\x00\x00\x00 @'
p1696
tp1697
Rp1698
sg30
g31
sg21
g11
(g24
S'\x07\x00\x00\x00\x00\x00\x00\x00'
p1699
tp1700
Rp1701
sg32
(dp1702
g99
g1698
sg21
g1701
sg42
g11
(g24
S'\x04\x00\x00\x00\x00\x00\x00\x00'
p1703
tp1704
Rp1705
sg113
g11
(g15
S'p\xc3U\xebZ\xd6\xea?'
p1706
tp1707
Rp1708
ssg50
g11
(g12
(S'S6'
p1709
I0
I1
tp1710
Rp1711
(I3
S'|'
p1712
NNNI6
I1
I0
tp1713
bS'ISOMAP'
p1714
tp1715
Rp1716
sg59
F0.2
sg42
g1705
sg60
g11
(g12
(S'S3'
p1717
I0
I1
tp1718
Rp1719
(I3
S'|'
p1720
NNNI3
I1
I0
tp1721
bS'VGG'
p1722
tp1723
Rp1724
sg69
g11
(g15
S'\xc5\xccb]q\xa9\xfe?'
p1725
tp1726
Rp1727
sg73
g11
(g12
(S'S2'
p1728
I0
I1
tp1729
Rp1730
(I3
S'|'
p1731
NNNI2
I1
I0
tp1732
bS'RF'
p1733
tp1734
Rp1735
sg82
I3
sg113
g1708
sg83
g84
sg85
g11
(g15
S'(\x93K\xf1\xdbB\xe9?'
p1736
tp1737
Rp1738
sg89
g90
sg91
g92
sbag4
(g5
g6
Ntp1739
Rp1740
(dp1741
g10
g11
(g15
S'\x00\x00\x00\x00\x00\x00\xf8\xff'
p1742
tp1743
Rp1744
sg21
g11
(g24
S'\x06\x00\x00\x00\x00\x00\x00\x00'
p1745
tp1746
Rp1747
sg30
g31
sg32
(dp1748
g21
g1747
sg34
g11
(g15
S'\x8a\x8c>\x98!\x1aW@'
p1749
tp1750
Rp1751
sg42
g11
(g24
S'\x03\x00\x00\x00\x00\x00\x00\x00'
p1752
tp1753
Rp1754
sg46
g11
(g15
S'7\x83\xec\xfdd\xc0\x14@'
p1755
tp1756
Rp1757
ssg46
g1757
sg50
g11
(g12
(S'S6'
p1758
I0
I1
tp1759
Rp1760
(I3
S'|'
p1761
NNNI6
I1
I0
tp1762
bS'ISOMAP'
p1763
tp1764
Rp1765
sg59
F0.2
sg42
g1754
sg60
g11
(g12
(S'S3'
p1766
I0
I1
tp1767
Rp1768
(I3
S'|'
p1769
NNNI3
I1
I0
tp1770
bS'VGG'
p1771
tp1772
Rp1773
sg34
g1751
sg69
g11
(g15
S'\xe4r\x91\x824\xd9\xe2?'
p1774
tp1775
Rp1776
sg73
g11
(g12
(S'S3'
p1777
I0
I1
tp1778
Rp1779
(I3
S'|'
p1780
NNNI3
I1
I0
tp1781
bS'SVM'
p1782
tp1783
Rp1784
sg82
I3
sg83
g84
sg85
g11
(g15
S'x\x83\x14\xad\xa2\xa8\xe7?'
p1785
tp1786
Rp1787
sg89
g90
sg91
g92
sbag4
(g5
g6
Ntp1788
Rp1789
(dp1790
g10
g11
(g15
S'\x00\x00\x00\x00\x00\x00\xf8\xff'
p1791
tp1792
Rp1793
sg99
g11
(g15
S'\x00\x00\x00\x00\x00`m@'
p1794
tp1795
Rp1796
sg103
g210
sg30
g31
sg32
(dp1797
g99
g1796
sg113
g11
(g15
S'\x06m\xccE\xfb\xda\xd7?'
p1798
tp1799
Rp1800
sg103
g210
sg38
g11
(g24
S'\x03\x00\x00\x00\x00\x00\x00\x00'
p1801
tp1802
Rp1803
ssg50
g11
(g12
(S'S3'
p1804
I0
I1
tp1805
Rp1806
(I3
S'|'
p1807
NNNI3
I1
I0
tp1808
bS'PCA'
p1809
tp1810
Rp1811
sg59
F0.2
sg60
g11
(g12
(S'S8'
p1812
I0
I1
tp1813
Rp1814
(I3
S'|'
p1815
NNNI8
I1
I0
tp1816
bS'haralick'
p1817
tp1818
Rp1819
sg38
g1803
sg69
g11
(g15
S'YG\xbd\xa2\xefH\x01@'
p1820
tp1821
Rp1822
sg73
g11
(g12
(S'S2'
p1823
I0
I1
tp1824
Rp1825
(I3
S'|'
p1826
NNNI2
I1
I0
tp1827
bS'RF'
p1828
tp1829
Rp1830
sg82
I3
sg113
g1800
sg83
g84
sg85
g11
(g15
S'\x94\x8a\xcaK\x1a~\xe6?'
p1831
tp1832
Rp1833
sg89
g90
sg91
g92
sbag4
(g5
g6
Ntp1834
Rp1835
(dp1836
g10
g11
(g15
S'\x00\x00\x00\x00\x00\x00\xf8\xff'
p1837
tp1838
Rp1839
sg99
g11
(g15
S'\x00\x00\x00\x00\x00`m@'
p1840
tp1841
Rp1842
sg103
g210
sg30
g31
sg32
(dp1843
g99
g1842
sg113
g11
(g15
S'\xa8-V\x98\\.\xe3?'
p1844
tp1845
Rp1846
sg103
g210
sg38
g11
(g24
S'\x01\x00\x00\x00\x00\x00\x00\x00'
p1847
tp1848
Rp1849
ssg50
g11
(g12
(S'S3'
p1850
I0
I1
tp1851
Rp1852
(I3
S'|'
p1853
NNNI3
I1
I0
tp1854
bS'PCA'
p1855
tp1856
Rp1857
sg59
F0.2
sg60
g11
(g12
(S'S8'
p1858
I0
I1
tp1859
Rp1860
(I3
S'|'
p1861
NNNI8
I1
I0
tp1862
bS'haralick'
p1863
tp1864
Rp1865
sg38
g1849
sg69
g11
(g15
S'\xac\x8f\xaeUF\xb0\x01@'
p1866
tp1867
Rp1868
sg73
g11
(g12
(S'S2'
p1869
I0
I1
tp1870
Rp1871
(I3
S'|'
p1872
NNNI2
I1
I0
tp1873
bS'RF'
p1874
tp1875
Rp1876
sg82
I3
sg113
g1846
sg83
g84
sg85
g11
(g15
S'\xbd\x80\x8b\xe6\xe2Y\xe7?'
p1877
tp1878
Rp1879
sg89
g90
sg91
g92
sbag4
(g5
g6
Ntp1880
Rp1881
(dp1882
g10
g11
(g15
S'\x00\x00\x00\x00\x00\x00\xf8\xff'
p1883
tp1884
Rp1885
sg21
g11
(g24
S'\x03\x00\x00\x00\x00\x00\x00\x00'
p1886
tp1887
Rp1888
sg30
g31
sg32
(dp1889
g21
g1888
sg34
g11
(g15
S'AP\xfa\xa6\x95\xd8N@'
p1890
tp1891
Rp1892
sg42
g11
(g24
S'\x04\x00\x00\x00\x00\x00\x00\x00'
p1893
tp1894
Rp1895
sg46
g11
(g15
S'\xb8\x8e\xc4W\xcc\xcb\t@'
p1896
tp1897
Rp1898
ssg46
g1898
sg50
g11
(g12
(S'S6'
p1899
I0
I1
tp1900
Rp1901
(I3
S'|'
p1902
NNNI6
I1
I0
tp1903
bS'ISOMAP'
p1904
tp1905
Rp1906
sg59
F0.2
sg42
g1895
sg60
g11
(g12
(S'S3'
p1907
I0
I1
tp1908
Rp1909
(I3
S'|'
p1910
NNNI3
I1
I0
tp1911
bS'VGG'
p1912
tp1913
Rp1914
sg34
g1892
sg69
g11
(g15
S'\xe5\x88\x13\xeb\x89}\xe2?'
p1915
tp1916
Rp1917
sg73
g11
(g12
(S'S3'
p1918
I0
I1
tp1919
Rp1920
(I3
S'|'
p1921
NNNI3
I1
I0
tp1922
bS'SVM'
p1923
tp1924
Rp1925
sg82
I3
sg83
g84
sg85
g11
(g15
S'\xed,\x06\x8aq\xd3\xe8?'
p1926
tp1927
Rp1928
sg89
g90
sg91
g92
sbag4
(g5
g6
Ntp1929
Rp1930
(dp1931
g10
g11
(g15
S'\x00\x00\x00\x00\x00\x00\xf8\xff'
p1932
tp1933
Rp1934
sg99
g11
(g15
S'\x00\x00\x00\x00\x00`i@'
p1935
tp1936
Rp1937
sg103
g210
sg30
g31
sg32
(dp1938
g99
g1937
sg113
g11
(g15
S'i\xef\x8b\xd7\xd8\xaa\xdb?'
p1939
tp1940
Rp1941
sg103
g210
ssg50
g11
(g12
(S'S3'
p1942
I0
I1
tp1943
Rp1944
(I3
S'|'
p1945
NNNI3
I1
I0
tp1946
bS'PCA'
p1947
tp1948
Rp1949
sg59
F0.2
sg60
g11
(g12
(S'S3'
p1950
I0
I1
tp1951
Rp1952
(I3
S'|'
p1953
NNNI3
I1
I0
tp1954
bS'VGG'
p1955
tp1956
Rp1957
sg69
g11
(g15
S'L(\x83\x923\xd9\xda?'
p1958
tp1959
Rp1960
sg73
g11
(g12
(S'S2'
p1961
I0
I1
tp1962
Rp1963
(I3
S'|'
p1964
NNNI2
I1
I0
tp1965
bS'RF'
p1966
tp1967
Rp1968
sg82
I3
sg113
g1941
sg83
g84
sg85
g11
(g15
S'\xc8\x03\xd2t\x97\x9f\xea?'
p1969
tp1970
Rp1971
sg89
g90
sg91
g92
sbag4
(g5
g6
Ntp1972
Rp1973
(dp1974
g10
g11
(g15
S'\x00\x00\x00\x00\x00\x00\xf8\xff'
p1975
tp1976
Rp1977
sg99
g11
(g15
S'\x00\x00\x00\x00\x00@a@'
p1978
tp1979
Rp1980
sg103
g111
sg30
g31
sg32
(dp1981
g99
g1980
sg113
g11
(g15
S'\xba/\x9b\x87C&\xe8?'
p1982
tp1983
Rp1984
sg103
g111
ssg50
g11
(g12
(S'S3'
p1985
I0
I1
tp1986
Rp1987
(I3
S'|'
p1988
NNNI3
I1
I0
tp1989
bS'PCA'
p1990
tp1991
Rp1992
sg59
F0.2
sg60
g11
(g12
(S'S3'
p1993
I0
I1
tp1994
Rp1995
(I3
S'|'
p1996
NNNI3
I1
I0
tp1997
bS'VGG'
p1998
tp1999
Rp2000
sg69
g11
(g15
S'\xfbn%M\xa2I\xda?'
p2001
tp2002
Rp2003
sg73
g11
(g12
(S'S2'
p2004
I0
I1
tp2005
Rp2006
(I3
S'|'
p2007
NNNI2
I1
I0
tp2008
bS'RF'
p2009
tp2010
Rp2011
sg82
I3
sg113
g1984
sg83
g84
sg85
g11
(g15
S'\x8c\x82\x1b\xf2\x05\x80\xea?'
p2012
tp2013
Rp2014
sg89
g90
sg91
g92
sbag4
(g5
g6
Ntp2015
Rp2016
(dp2017
g10
g11
(g15
S'\x00\x00\x00\x00\x00\x00\xf8\xff'
p2018
tp2019
Rp2020
sg99
g11
(g15
S'\x00\x00\x00\x00\x00@a@'
p2021
tp2022
Rp2023
sg30
g31
sg21
g11
(g24
S'\x05\x00\x00\x00\x00\x00\x00\x00'
p2024
tp2025
Rp2026
sg32
(dp2027
g99
g2023
sg21
g2026
sg42
g11
(g24
S'\x02\x00\x00\x00\x00\x00\x00\x00'
p2028
tp2029
Rp2030
sg113
g11
(g15
S'\xca6\x11`\x08\x1f\xe2?'
p2031
tp2032
Rp2033
ssg50
g11
(g12
(S'S6'
p2034
I0
I1
tp2035
Rp2036
(I3
S'|'
p2037
NNNI6
I1
I0
tp2038
bS'ISOMAP'
p2039
tp2040
Rp2041
sg59
F0.2
sg42
g2030
sg60
g11
(g12
(S'S9'
p2042
I0
I1
tp2043
Rp2044
(I3
S'|'
p2045
NNNI9
I1
I0
tp2046
bS'inception'
p2047
tp2048
Rp2049
sg69
g11
(g15
S'\x8f\xba\xdd\xe0\xc6\xf3\xf1?'
p2050
tp2051
Rp2052
sg73
g11
(g12
(S'S2'
p2053
I0
I1
tp2054
Rp2055
(I3
S'|'
p2056
NNNI2
I1
I0
tp2057
bS'RF'
p2058
tp2059
Rp2060
sg82
I3
sg113
g2033
sg83
g84
sg85
g11
(g15
S'\xd3\x06\x8b\xba\xd3M\xe6?'
p2061
tp2062
Rp2063
sg89
g90
sg91
g92
sbag4
(g5
g6
Ntp2064
Rp2065
(dp2066
g10
g11
(g15
S'\x00\x00\x00\x00\x00\x00\xf8\xff'
p2067
tp2068
Rp2069
sg99
g11
(g15
S'\x00\x00\x00\x00\x00@Z@'
p2070
tp2071
Rp2072
sg30
g31
sg21
g11
(g24
S'\x05\x00\x00\x00\x00\x00\x00\x00'
p2073
tp2074
Rp2075
sg32
(dp2076
g99
g2072
sg21
g2075
sg42
g11
(g24
S'\x02\x00\x00\x00\x00\x00\x00\x00'
p2077
tp2078
Rp2079
sg113
g11
(g15
S'n\x1d\xc5o\xd4\xce\xe8?'
p2080
tp2081
Rp2082
ssg50
g11
(g12
(S'S6'
p2083
I0
I1
tp2084
Rp2085
(I3
S'|'
p2086
NNNI6
I1
I0
tp2087
bS'ISOMAP'
p2088
tp2089
Rp2090
sg59
F0.2
sg42
g2079
sg60
g11
(g12
(S'S3'
p2091
I0
I1
tp2092
Rp2093
(I3
S'|'
p2094
NNNI3
I1
I0
tp2095
bS'VGG'
p2096
tp2097
Rp2098
sg69
g11
(g15
S'Y\x1eD!\x90|\xf2?'
p2099
tp2100
Rp2101
sg73
g11
(g12
(S'S2'
p2102
I0
I1
tp2103
Rp2104
(I3
S'|'
p2105
NNNI2
I1
I0
tp2106
bS'RF'
p2107
tp2108
Rp2109
sg82
I3
sg113
g2082
sg83
g84
sg85
g11
(g15
S'_X\xc8\xe2K\xa2\xe9?'
p2110
tp2111
Rp2112
sg89
g90
sg91
g92
sbag4
(g5
g6
Ntp2113
Rp2114
(dp2115
g10
g11
(g15
S'\x00\x00\x00\x00\x00\x00\xf8\xff'
p2116
tp2117
Rp2118
sg103
g210
sg30
g31
sg32
(dp2119
g103
g210
sg34
g11
(g15
S'>\xe0\x1b\xcf\x89\tH@'
p2120
tp2121
Rp2122
sg46
g11
(g15
S'E\x8eIu~\xc6\x11@'
p2123
tp2124
Rp2125
ssg50
g11
(g12
(S'S3'
p2126
I0
I1
tp2127
Rp2128
(I3
S'|'
p2129
NNNI3
I1
I0
tp2130
bS'PCA'
p2131
tp2132
Rp2133
sg59
F0.2
sg46
g2125
sg60
g11
(g12
(S'S3'
p2134
I0
I1
tp2135
Rp2136
(I3
S'|'
p2137
NNNI3
I1
I0
tp2138
bS'VGG'
p2139
tp2140
Rp2141
sg34
g2122
sg69
g11
(g15
S'\xd3\xe1\x1d\x8c7\xc1\xe5?'
p2142
tp2143
Rp2144
sg73
g11
(g12
(S'S3'
p2145
I0
I1
tp2146
Rp2147
(I3
S'|'
p2148
NNNI3
I1
I0
tp2149
bS'SVM'
p2150
tp2151
Rp2152
sg82
I3
sg83
g84
sg85
g11
(g15
S'X\xcf\x8d<\xc7\xfc\xe5?'
p2153
tp2154
Rp2155
sg89
g90
sg91
g92
sbag4
(g5
g6
Ntp2156
Rp2157
(dp2158
g10
g11
(g15
S'\x00\x00\x00\x00\x00\x00\xf8\xff'
p2159
tp2160
Rp2161
sg21
g11
(g24
S'\x04\x00\x00\x00\x00\x00\x00\x00'
p2162
tp2163
Rp2164
sg30
g31
sg32
(dp2165
g21
g2164
sg34
g11
(g15
S'\xa8\x97X\x1fG\xe6D@'
p2166
tp2167
Rp2168
sg42
g11
(g24
S'\x03\x00\x00\x00\x00\x00\x00\x00'
p2169
tp2170
Rp2171
sg46
g11
(g15
S'\xecD\xfa>\x1c\x04\xe6?'
p2172
tp2173
Rp2174
ssg46
g2174
sg50
g11
(g12
(S'S6'
p2175
I0
I1
tp2176
Rp2177
(I3
S'|'
p2178
NNNI6
I1
I0
tp2179
bS'ISOMAP'
p2180
tp2181
Rp2182
sg59
F0.2
sg42
g2171
sg60
g11
(g12
(S'S3'
p2183
I0
I1
tp2184
Rp2185
(I3
S'|'
p2186
NNNI3
I1
I0
tp2187
bS'VGG'
p2188
tp2189
Rp2190
sg34
g2168
sg69
g11
(g15
S'\xefx#\xf0\xe8(\xe0?'
p2191
tp2192
Rp2193
sg73
g11
(g12
(S'S3'
p2194
I0
I1
tp2195
Rp2196
(I3
S'|'
p2197
NNNI3
I1
I0
tp2198
bS'SVM'
p2199
tp2200
Rp2201
sg82
I3
sg83
g84
sg85
g11
(g15
S'\x19\r\x10D\x95\x95\xe8?'
p2202
tp2203
Rp2204
sg89
g90
sg91
g92
sbag289
ag4
(g5
g6
Ntp2205
Rp2206
(dp2207
g10
g11
(g15
S'\x00\x00\x00\x00\x00\x00\xf8\xff'
p2208
tp2209
Rp2210
sg103
g210
sg30
g31
sg32
(dp2211
g103
g210
sg34
g11
(g15
S'U{\xec\xbbR\x94I@'
p2212
tp2213
Rp2214
sg46
g11
(g15
S'\xcf\x91\xb3\x9a\x0f\x8d\x1a@'
p2215
tp2216
Rp2217
ssg50
g11
(g12
(S'S3'
p2218
I0
I1
tp2219
Rp2220
(I3
S'|'
p2221
NNNI3
I1
I0
tp2222
bS'PCA'
p2223
tp2224
Rp2225
sg59
F0.2
sg46
g2217
sg60
g11
(g12
(S'S9'
p2226
I0
I1
tp2227
Rp2228
(I3
S'|'
p2229
NNNI9
I1
I0
tp2230
bS'inception'
p2231
tp2232
Rp2233
sg34
g2214
sg69
g11
(g15
S'\x0f\x00*\xd1d\xc7\xe3?'
p2234
tp2235
Rp2236
sg73
g11
(g12
(S'S3'
p2237
I0
I1
tp2238
Rp2239
(I3
S'|'
p2240
NNNI3
I1
I0
tp2241
bS'SVM'
p2242
tp2243
Rp2244
sg82
I3
sg83
g84
sg85
g11
(g15
S'\x1c\x17.k\xef]\xe5?'
p2245
tp2246
Rp2247
sg89
g90
sg91
g92
sbag4
(g5
g6
Ntp2248
Rp2249
(dp2250
g10
g11
(g15
S'\x00\x00\x00\x00\x00\x00\xf8\xff'
p2251
tp2252
Rp2253
sg99
g11
(g15
S'\x00\x00\x00\x00\x00`i@'
p2254
tp2255
Rp2256
sg30
g31
sg21
g11
(g24
S'\x07\x00\x00\x00\x00\x00\x00\x00'
p2257
tp2258
Rp2259
sg32
(dp2260
g99
g2256
sg21
g2259
sg38
g11
(g24
S'\x02\x00\x00\x00\x00\x00\x00\x00'
p2261
tp2262
Rp2263
sg42
g11
(g24
S'\x02\x00\x00\x00\x00\x00\x00\x00'
p2264
tp2265
Rp2266
sg113
g11
(g15
S'\xa9\xa3\xf1\xe3I\xf6\xd9?'
p2267
tp2268
Rp2269
ssg50
g11
(g12
(S'S6'
p2270
I0
I1
tp2271
Rp2272
(I3
S'|'
p2273
NNNI6
I1
I0
tp2274
bS'ISOMAP'
p2275
tp2276
Rp2277
sg59
F0.2
sg42
g2266
sg60
g11
(g12
(S'S8'
p2278
I0
I1
tp2279
Rp2280
(I3
S'|'
p2281
NNNI8
I1
I0
tp2282
bS'haralick'
p2283
tp2284
Rp2285
sg38
g2263
sg69
g11
(g15
S'|\x94Y\x88\xff\x82\xe9?'
p2286
tp2287
Rp2288
sg73
g11
(g12
(S'S2'
p2289
I0
I1
tp2290
Rp2291
(I3
S'|'
p2292
NNNI2
I1
I0
tp2293
bS'RF'
p2294
tp2295
Rp2296
sg82
I3
sg113
g2269
sg83
g84
sg85
g11
(g15
S'\xe86\xf2\xb1!s\xe9?'
p2297
tp2298
Rp2299
sg89
g90
sg91
g92
sbag4
(g5
g6
Ntp2300
Rp2301
(dp2302
g10
g11
(g15
S'\x00\x00\x00\x00\x00\x00\xf8\xff'
p2303
tp2304
Rp2305
sg103
g210
sg30
g31
sg32
(dp2306
g103
g210
sg34
g11
(g15
S'zz\x0b\xc9-PU@'
p2307
tp2308
Rp2309
sg38
g11
(g24
S'\x03\x00\x00\x00\x00\x00\x00\x00'
p2310
tp2311
Rp2312
sg46
g11
(g15
S'z\x9c\xc07\xc2\xe9\xe0?'
p2313
tp2314
Rp2315
ssg50
g11
(g12
(S'S3'
p2316
I0
I1
tp2317
Rp2318
(I3
S'|'
p2319
NNNI3
I1
I0
tp2320
bS'PCA'
p2321
tp2322
Rp2323
sg59
F0.2
sg46
g2315
sg60
g11
(g12
(S'S8'
p2324
I0
I1
tp2325
Rp2326
(I3
S'|'
p2327
NNNI8
I1
I0
tp2328
bS'haralick'
p2329
tp2330
Rp2331
sg34
g2309
sg38
g2312
sg69
g11
(g15
S'\xf0I\xc9o\xff<\xdf?'
p2332
tp2333
Rp2334
sg73
g11
(g12
(S'S3'
p2335
I0
I1
tp2336
Rp2337
(I3
S'|'
p2338
NNNI3
I1
I0
tp2339
bS'SVM'
p2340
tp2341
Rp2342
sg82
I3
sg83
g84
sg85
g11
(g15
S'U\xd5\x81T\x97\\\xe6?'
p2343
tp2344
Rp2345
sg89
g90
sg91
g92
sbag4
(g5
g6
Ntp2346
Rp2347
(dp2348
g10
g11
(g15
S'\x00\x00\x00\x00\x00\x00\xf8\xff'
p2349
tp2350
Rp2351
sg21
g11
(g24
S'\x07\x00\x00\x00\x00\x00\x00\x00'
p2352
tp2353
Rp2354
sg30
g31
sg32
(dp2355
g21
g2354
sg34
g11
(g15
S'@[\xaeZtoU@'
p2356
tp2357
Rp2358
sg42
g11
(g24
S'\x04\x00\x00\x00\x00\x00\x00\x00'
p2359
tp2360
Rp2361
sg46
g11
(g15
S'z\xa7e\xd7F.\xf2?'
p2362
tp2363
Rp2364
ssg46
g2364
sg50
g11
(g12
(S'S6'
p2365
I0
I1
tp2366
Rp2367
(I3
S'|'
p2368
NNNI6
I1
I0
tp2369
bS'ISOMAP'
p2370
tp2371
Rp2372
sg59
F0.2
sg42
g2361
sg60
g11
(g12
(S'S3'
p2373
I0
I1
tp2374
Rp2375
(I3
S'|'
p2376
NNNI3
I1
I0
tp2377
bS'VGG'
p2378
tp2379
Rp2380
sg34
g2358
sg69
g11
(g15
S'+\xe6\xccg\xcc\xdc\xe0?'
p2381
tp2382
Rp2383
sg73
g11
(g12
(S'S3'
p2384
I0
I1
tp2385
Rp2386
(I3
S'|'
p2387
NNNI3
I1
I0
tp2388
bS'SVM'
p2389
tp2390
Rp2391
sg82
I3
sg83
g84
sg85
g11
(g15
S'\x11;\x92\x97$f\xe8?'
p2392
tp2393
Rp2394
sg89
g90
sg91
g92
sbag4
(g5
g6
Ntp2395
Rp2396
(dp2397
g10
g11
(g15
S'\x00\x00\x00\x00\x00\x00\xf8\xff'
p2398
tp2399
Rp2400
sg99
g11
(g15
S'\x00\x00\x00\x00\x00`i@'
p2401
tp2402
Rp2403
sg30
g31
sg21
g11
(g24
S'\x04\x00\x00\x00\x00\x00\x00\x00'
p2404
tp2405
Rp2406
sg32
(dp2407
g99
g2403
sg21
g2406
sg42
g11
(g24
S'\x04\x00\x00\x00\x00\x00\x00\x00'
p2408
tp2409
Rp2410
sg113
g11
(g15
S'B\\\x80\xb7\x8f\xce\xe6?'
p2411
tp2412
Rp2413
ssg50
g11
(g12
(S'S6'
p2414
I0
I1
tp2415
Rp2416
(I3
S'|'
p2417
NNNI6
I1
I0
tp2418
bS'ISOMAP'
p2419
tp2420
Rp2421
sg59
F0.2
sg42
g2410
sg60
g11
(g12
(S'S3'
p2422
I0
I1
tp2423
Rp2424
(I3
S'|'
p2425
NNNI3
I1
I0
tp2426
bS'VGG'
p2427
tp2428
Rp2429
sg69
g11
(g15
S'\x86\xd5\x94Z4\x08\xe5?'
p2430
tp2431
Rp2432
sg73
g11
(g12
(S'S2'
p2433
I0
I1
tp2434
Rp2435
(I3
S'|'
p2436
NNNI2
I1
I0
tp2437
bS'RF'
p2438
tp2439
Rp2440
sg82
I3
sg113
g2413
sg83
g84
sg85
g11
(g15
S'\x9c\xb9\x176\xde\xc1\xe9?'
p2441
tp2442
Rp2443
sg89
g90
sg91
g92
sbag332
ag4
(g5
g6
Ntp2444
Rp2445
(dp2446
g10
g11
(g15
S'\x00\x00\x00\x00\x00\x00\xf8\xff'
p2447
tp2448
Rp2449
sg99
g11
(g15
S'\x00\x00\x00\x00\x00@e@'
p2450
tp2451
Rp2452
sg30
g31
sg21
g11
(g24
S'\x03\x00\x00\x00\x00\x00\x00\x00'
p2453
tp2454
Rp2455
sg32
(dp2456
g99
g2452
sg21
g2455
sg38
g11
(g24
S'\x03\x00\x00\x00\x00\x00\x00\x00'
p2457
tp2458
Rp2459
sg42
g11
(g24
S'\x03\x00\x00\x00\x00\x00\x00\x00'
p2460
tp2461
Rp2462
sg113
g11
(g15
S'\x0204\x82\x08\xd8\xdc?'
p2463
tp2464
Rp2465
ssg50
g11
(g12
(S'S6'
p2466
I0
I1
tp2467
Rp2468
(I3
S'|'
p2469
NNNI6
I1
I0
tp2470
bS'ISOMAP'
p2471
tp2472
Rp2473
sg59
F0.2
sg42
g2462
sg60
g11
(g12
(S'S8'
p2474
I0
I1
tp2475
Rp2476
(I3
S'|'
p2477
NNNI8
I1
I0
tp2478
bS'haralick'
p2479
tp2480
Rp2481
sg38
g2459
sg69
g11
(g15
S'l\x16\x8f\x1c\x1d!\xfd?'
p2482
tp2483
Rp2484
sg73
g11
(g12
(S'S2'
p2485
I0
I1
tp2486
Rp2487
(I3
S'|'
p2488
NNNI2
I1
I0
tp2489
bS'RF'
p2490
tp2491
Rp2492
sg82
I3
sg113
g2465
sg83
g84
sg85
g11
(g15
S'\x0b\x7f\xcc\x95w\xe3\xe9?'
p2493
tp2494
Rp2495
sg89
g90
sg91
g92
sbag4
(g5
g6
Ntp2496
Rp2497
(dp2498
g10
g11
(g15
S'\x00\x00\x00\x00\x00\x00\xf8\xff'
p2499
tp2500
Rp2501
sg99
g11
(g15
S'\x00\x00\x00\x00\x00@R@'
p2502
tp2503
Rp2504
sg103
g111
sg30
g31
sg32
(dp2505
g99
g2504
sg113
g11
(g15
S'l\xd1\x04!\x03;\xd7?'
p2506
tp2507
Rp2508
sg103
g111
sg38
g11
(g24
S'\x03\x00\x00\x00\x00\x00\x00\x00'
p2509
tp2510
Rp2511
ssg50
g11
(g12
(S'S3'
p2512
I0
I1
tp2513
Rp2514
(I3
S'|'
p2515
NNNI3
I1
I0
tp2516
bS'PCA'
p2517
tp2518
Rp2519
sg59
F0.2
sg60
g11
(g12
(S'S8'
p2520
I0
I1
tp2521
Rp2522
(I3
S'|'
p2523
NNNI8
I1
I0
tp2524
bS'haralick'
p2525
tp2526
Rp2527
sg38
g2511
sg69
g11
(g15
S'II6\xfaj\x96\x04@'
p2528
tp2529
Rp2530
sg73
g11
(g12
(S'S2'
p2531
I0
I1
tp2532
Rp2533
(I3
S'|'
p2534
NNNI2
I1
I0
tp2535
bS'RF'
p2536
tp2537
Rp2538
sg82
I3
sg113
g2508
sg83
g84
sg85
g11
(g15
S'\x94\x8a\xcaK\x1a~\xe6?'
p2539
tp2540
Rp2541
sg89
g90
sg91
g92
sbag4
(g5
g6
Ntp2542
Rp2543
(dp2544
g10
g11
(g15
S'\x00\x00\x00\x00\x00\x00\xf8\xff'
p2545
tp2546
Rp2547
sg99
g11
(g15
S'\x00\x00\x00\x00\x00\x00D@'
p2548
tp2549
Rp2550
sg30
g31
sg21
g11
(g24
S'\x06\x00\x00\x00\x00\x00\x00\x00'
p2551
tp2552
Rp2553
sg32
(dp2554
g99
g2550
sg21
g2553
sg38
g11
(g24
S'\x03\x00\x00\x00\x00\x00\x00\x00'
p2555
tp2556
Rp2557
sg42
g11
(g24
S'\x04\x00\x00\x00\x00\x00\x00\x00'
p2558
tp2559
Rp2560
sg113
g11
(g15
S'\x19u\x18\x9eZ\xcf\xd3?'
p2561
tp2562
Rp2563
ssg50
g11
(g12
(S'S6'
p2564
I0
I1
tp2565
Rp2566
(I3
S'|'
p2567
NNNI6
I1
I0
tp2568
bS'ISOMAP'
p2569
tp2570
Rp2571
sg59
F0.2
sg42
g2560
sg60
g11
(g12
(S'S8'
p2572
I0
I1
tp2573
Rp2574
(I3
S'|'
p2575
NNNI8
I1
I0
tp2576
bS'haralick'
p2577
tp2578
Rp2579
sg38
g2557
sg69
g11
(g15
S'\xad\xbe\x00>t\xf3\xf1?'
p2580
tp2581
Rp2582
sg73
g11
(g12
(S'S2'
p2583
I0
I1
tp2584
Rp2585
(I3
S'|'
p2586
NNNI2
I1
I0
tp2587
bS'RF'
p2588
tp2589
Rp2590
sg82
I3
sg113
g2563
sg83
g84
sg85
g11
(g15
S'p\x87\x11\xaa\xd8\xb0\xea?'
p2591
tp2592
Rp2593
sg89
g90
sg91
g92
sbag4
(g5
g6
Ntp2594
Rp2595
(dp2596
g10
g11
(g15
S'\x00\x00\x00\x00\x00\x00\xf8\xff'
p2597
tp2598
Rp2599
sg21
g11
(g24
S'\x03\x00\x00\x00\x00\x00\x00\x00'
p2600
tp2601
Rp2602
sg30
g31
sg32
(dp2603
g21
g2602
sg34
g11
(g15
S'=\xf9W\xeda\xecX@'
p2604
tp2605
Rp2606
sg38
g11
(g24
S'\x03\x00\x00\x00\x00\x00\x00\x00'
p2607
tp2608
Rp2609
sg42
g11
(g24
S'\x04\x00\x00\x00\x00\x00\x00\x00'
p2610
tp2611
Rp2612
sg46
g11
(g15
S'O\xea(\xc3\xe4e\x16@'
p2613
tp2614
Rp2615
ssg46
g2615
sg50
g11
(g12
(S'S6'
p2616
I0
I1
tp2617
Rp2618
(I3
S'|'
p2619
NNNI6
I1
I0
tp2620
bS'ISOMAP'
p2621
tp2622
Rp2623
sg59
F0.2
sg42
g2612
sg60
g11
(g12
(S'S8'
p2624
I0
I1
tp2625
Rp2626
(I3
S'|'
p2627
NNNI8
I1
I0
tp2628
bS'haralick'
p2629
tp2630
Rp2631
sg34
g2606
sg38
g2609
sg69
g11
(g15
S'{\xb5Ep\xb6\xb1\xe4?'
p2632
tp2633
Rp2634
sg73
g11
(g12
(S'S3'
p2635
I0
I1
tp2636
Rp2637
(I3
S'|'
p2638
NNNI3
I1
I0
tp2639
bS'SVM'
p2640
tp2641
Rp2642
sg82
I3
sg83
g84
sg85
g11
(g15
S'\x03F$\xe1\xe4\x8a\xe7?'
p2643
tp2644
Rp2645
sg89
g90
sg91
g92
sbag4
(g5
g6
Ntp2646
Rp2647
(dp2648
g10
g11
(g15
S'\x00\x00\x00\x00\x00\x00\xf8\xff'
p2649
tp2650
Rp2651
sg21
g11
(g24
S'\x03\x00\x00\x00\x00\x00\x00\x00'
p2652
tp2653
Rp2654
sg30
g31
sg32
(dp2655
g21
g2654
sg34
g11
(g15
S'\xd6\xfe\x0e?\xb6`A@'
p2656
tp2657
Rp2658
sg42
g11
(g24
S'\x02\x00\x00\x00\x00\x00\x00\x00'
p2659
tp2660
Rp2661
sg46
g11
(g15
S'\xd3\xcc\xa2\xdd*4\x15@'
p2662
tp2663
Rp2664
ssg46
g2664
sg50
g11
(g12
(S'S6'
p2665
I0
I1
tp2666
Rp2667
(I3
S'|'
p2668
NNNI6
I1
I0
tp2669
bS'ISOMAP'
p2670
tp2671
Rp2672
sg59
F0.2
sg42
g2661
sg60
g11
(g12
(S'S9'
p2673
I0
I1
tp2674
Rp2675
(I3
S'|'
p2676
NNNI9
I1
I0
tp2677
bS'inception'
p2678
tp2679
Rp2680
sg34
g2658
sg69
g11
(g15
S'\x03R\xa7\xfa\x05\xa0\xe8?'
p2681
tp2682
Rp2683
sg73
g11
(g12
(S'S3'
p2684
I0
I1
tp2685
Rp2686
(I3
S'|'
p2687
NNNI3
I1
I0
tp2688
bS'SVM'
p2689
tp2690
Rp2691
sg82
I3
sg83
g84
sg85
g11
(g15
S'\xe9\x19\xeb\x1bX\x03\xe3?'
p2692
tp2693
Rp2694
sg89
g90
sg91
g92
sbag4
(g5
g6
Ntp2695
Rp2696
(dp2697
g10
g11
(g15
S'\x00\x00\x00\x00\x00\x00\xf8\xff'
p2698
tp2699
Rp2700
sg103
g210
sg30
g31
sg32
(dp2701
g103
g210
sg34
g11
(g15
S'I\xdfZ%[ZT@'
p2702
tp2703
Rp2704
sg38
g11
(g24
S'\x03\x00\x00\x00\x00\x00\x00\x00'
p2705
tp2706
Rp2707
sg46
g11
(g15
S'l\xdf\xde\xe4\xcdY\x03@'
p2708
tp2709
Rp2710
ssg50
g11
(g12
(S'S3'
p2711
I0
I1
tp2712
Rp2713
(I3
S'|'
p2714
NNNI3
I1
I0
tp2715
bS'PCA'
p2716
tp2717
Rp2718
sg59
F0.2
sg46
g2710
sg60
g11
(g12
(S'S8'
p2719
I0
I1
tp2720
Rp2721
(I3
S'|'
p2722
NNNI8
I1
I0
tp2723
bS'haralick'
p2724
tp2725
Rp2726
sg34
g2704
sg38
g2707
sg69
g11
(g15
S'{\xff\x9c\xe7\xab\x91\xe0?'
p2727
tp2728
Rp2729
sg73
g11
(g12
(S'S3'
p2730
I0
I1
tp2731
Rp2732
(I3
S'|'
p2733
NNNI3
I1
I0
tp2734
bS'SVM'
p2735
tp2736
Rp2737
sg82
I3
sg83
g84
sg85
g11
(g15
S'\xfb*\xc9\xbb\xd51\xe4?'
p2738
tp2739
Rp2740
sg89
g90
sg91
g92
sbag4
(g5
g6
Ntp2741
Rp2742
(dp2743
g10
g11
(g15
S'\x00\x00\x00\x00\x00\x00\xf8\xff'
p2744
tp2745
Rp2746
sg99
g11
(g15
S'\x00\x00\x00\x00\x00`i@'
p2747
tp2748
Rp2749
sg103
g111
sg30
g31
sg32
(dp2750
g99
g2749
sg113
g11
(g15
S'43w\x10c\xe9\xee?'
p2751
tp2752
Rp2753
sg103
g111
sg38
g11
(g24
S'\x03\x00\x00\x00\x00\x00\x00\x00'
p2754
tp2755
Rp2756
ssg50
g11
(g12
(S'S3'
p2757
I0
I1
tp2758
Rp2759
(I3
S'|'
p2760
NNNI3
I1
I0
tp2761
bS'PCA'
p2762
tp2763
Rp2764
sg59
F0.2
sg60
g11
(g12
(S'S8'
p2765
I0
I1
tp2766
Rp2767
(I3
S'|'
p2768
NNNI8
I1
I0
tp2769
bS'haralick'
p2770
tp2771
Rp2772
sg38
g2756
sg69
g11
(g15
S'\xccE;1\xb7\xd7\x00@'
p2773
tp2774
Rp2775
sg73
g11
(g12
(S'S2'
p2776
I0
I1
tp2777
Rp2778
(I3
S'|'
p2779
NNNI2
I1
I0
tp2780
bS'RF'
p2781
tp2782
Rp2783
sg82
I3
sg113
g2753
sg83
g84
sg85
g11
(g15
S'\x94\x8a\xcaK\x1a~\xe6?'
p2784
tp2785
Rp2786
sg89
g90
sg91
g92
sbag4
(g5
g6
Ntp2787
Rp2788
(dp2789
g10
g11
(g15
S'\x00\x00\x00\x00\x00\x00\xf8\xff'
p2790
tp2791
Rp2792
sg99
g11
(g15
S'\x00\x00\x00\x00\x00\xc0p@'
p2793
tp2794
Rp2795
sg103
g210
sg30
g31
sg32
(dp2796
g99
g2795
sg113
g11
(g15
S'\x87#\xbd\xa2\x81\xfb\xdf?'
p2797
tp2798
Rp2799
sg103
g210
sg38
g11
(g24
S'\x01\x00\x00\x00\x00\x00\x00\x00'
p2800
tp2801
Rp2802
ssg50
g11
(g12
(S'S3'
p2803
I0
I1
tp2804
Rp2805
(I3
S'|'
p2806
NNNI3
I1
I0
tp2807
bS'PCA'
p2808
tp2809
Rp2810
sg59
F0.2
sg60
g11
(g12
(S'S8'
p2811
I0
I1
tp2812
Rp2813
(I3
S'|'
p2814
NNNI8
I1
I0
tp2815
bS'haralick'
p2816
tp2817
Rp2818
sg38
g2802
sg69
g11
(g15
S'\xe0\x97\xbfU\xf9/\x01@'
p2819
tp2820
Rp2821
sg73
g11
(g12
(S'S2'
p2822
I0
I1
tp2823
Rp2824
(I3
S'|'
p2825
NNNI2
I1
I0
tp2826
bS'RF'
p2827
tp2828
Rp2829
sg82
I3
sg113
g2799
sg83
g84
sg85
g11
(g15
S'\xbd\x80\x8b\xe6\xe2Y\xe7?'
p2830
tp2831
Rp2832
sg89
g90
sg91
g92
sbag4
(g5
g6
Ntp2833
Rp2834
(dp2835
g10
g11
(g15
S'\x00\x00\x00\x00\x00\x00\xf8\xff'
p2836
tp2837
Rp2838
sg21
g11
(g24
S'\x03\x00\x00\x00\x00\x00\x00\x00'
p2839
tp2840
Rp2841
sg30
g31
sg32
(dp2842
g21
g2841
sg34
g11
(g15
S'\xff\x0f\xdc\x8e\xcb\xd9W@'
p2843
tp2844
Rp2845
sg42
g11
(g24
S'\x04\x00\x00\x00\x00\x00\x00\x00'
p2846
tp2847
Rp2848
sg46
g11
(g15
S'n\xc1\xcc|\x99$\xf7?'
p2849
tp2850
Rp2851
ssg46
g2851
sg50
g11
(g12
(S'S6'
p2852
I0
I1
tp2853
Rp2854
(I3
S'|'
p2855
NNNI6
I1
I0
tp2856
bS'ISOMAP'
p2857
tp2858
Rp2859
sg59
F0.2
sg42
g2848
sg60
g11
(g12
(S'S9'
p2860
I0
I1
tp2861
Rp2862
(I3
S'|'
p2863
NNNI9
I1
I0
tp2864
bS'inception'
p2865
tp2866
Rp2867
sg34
g2845
sg69
g11
(g15
S'\x84|%\x88\xa4M\xe8?'
p2868
tp2869
Rp2870
sg73
g11
(g12
(S'S3'
p2871
I0
I1
tp2872
Rp2873
(I3
S'|'
p2874
NNNI3
I1
I0
tp2875
bS'SVM'
p2876
tp2877
Rp2878
sg82
I3
sg83
g84
sg85
g11
(g15
S'\xf78pP\xf1\xc4\xe2?'
p2879
tp2880
Rp2881
sg89
g90
sg91
g92
sbag4
(g5
g6
Ntp2882
Rp2883
(dp2884
g10
g11
(g15
S'\x00\x00\x00\x00\x00\x00\xf8\xff'
p2885
tp2886
Rp2887
sg99
g11
(g15
S'\x00\x00\x00\x00\x00@R@'
p2888
tp2889
Rp2890
sg30
g31
sg21
g11
(g24
S'\x03\x00\x00\x00\x00\x00\x00\x00'
p2891
tp2892
Rp2893
sg32
(dp2894
g99
g2890
sg21
g2893
sg42
g11
(g24
S'\x02\x00\x00\x00\x00\x00\x00\x00'
p2895
tp2896
Rp2897
sg113
g11
(g15
S'\x14\xac\x92\x0e\xbc4\xe1?'
p2898
tp2899
Rp2900
ssg50
g11
(g12
(S'S6'
p2901
I0
I1
tp2902
Rp2903
(I3
S'|'
p2904
NNNI6
I1
I0
tp2905
bS'ISOMAP'
p2906
tp2907
Rp2908
sg59
F0.2
sg42
g2897
sg60
g11
(g12
(S'S9'
p2909
I0
I1
tp2910
Rp2911
(I3
S'|'
p2912
NNNI9
I1
I0
tp2913
bS'inception'
p2914
tp2915
Rp2916
sg69
g11
(g15
S'\xa8\x96\x14\xe8\x83_\xfa?'
p2917
tp2918
Rp2919
sg73
g11
(g12
(S'S2'
p2920
I0
I1
tp2921
Rp2922
(I3
S'|'
p2923
NNNI2
I1
I0
tp2924
bS'RF'
p2925
tp2926
Rp2927
sg82
I3
sg113
g2900
sg83
g84
sg85
g11
(g15
S'\xdf\xed\xbcV\x9b\xbe\xe4?'
p2928
tp2929
Rp2930
sg89
g90
sg91
g92
sbag4
(g5
g6
Ntp2931
Rp2932
(dp2933
g10
g11
(g15
S'\x00\x00\x00\x00\x00\x00\xf8\xff'
p2934
tp2935
Rp2936
sg99
g11
(g15
S'\x00\x00\x00\x00\x00\x00D@'
p2937
tp2938
Rp2939
sg103
g111
sg30
g31
sg32
(dp2940
g99
g2939
sg113
g11
(g15
S'f\xf3r[\x8f\x86\xd6?'
p2941
tp2942
Rp2943
sg103
g111
ssg50
g11
(g12
(S'S3'
p2944
I0
I1
tp2945
Rp2946
(I3
S'|'
p2947
NNNI3
I1
I0
tp2948
bS'PCA'
p2949
tp2950
Rp2951
sg59
F0.2
sg60
g11
(g12
(S'S9'
p2952
I0
I1
tp2953
Rp2954
(I3
S'|'
p2955
NNNI9
I1
I0
tp2956
bS'inception'
p2957
tp2958
Rp2959
sg69
g11
(g15
S'l\x04QR\x07!\xe7?'
p2960
tp2961
Rp2962
sg73
g11
(g12
(S'S2'
p2963
I0
I1
tp2964
Rp2965
(I3
S'|'
p2966
NNNI2
I1
I0
tp2967
bS'RF'
p2968
tp2969
Rp2970
sg82
I3
sg113
g2943
sg83
g84
sg85
g11
(g15
S'-8\x98\xe7AU\xe8?'
p2971
tp2972
Rp2973
sg89
g90
sg91
g92
sbag4
(g5
g6
Ntp2974
Rp2975
(dp2976
g10
g11
(g15
S'\x00\x00\x00\x00\x00\x00\xf8\xff'
p2977
tp2978
Rp2979
sg99
g11
(g15
S'\x00\x00\x00\x00\x00`i@'
p2980
tp2981
Rp2982
sg30
g31
sg21
g11
(g24
S'\x05\x00\x00\x00\x00\x00\x00\x00'
p2983
tp2984
Rp2985
sg32
(dp2986
g99
g2982
sg21
g2985
sg42
g11
(g24
S'\x02\x00\x00\x00\x00\x00\x00\x00'
p2987
tp2988
Rp2989
sg113
g11
(g15
S'\xc3z\x9b\x1f\x93\x90\xdb?'
p2990
tp2991
Rp2992
ssg50
g11
(g12
(S'S6'
p2993
I0
I1
tp2994
Rp2995
(I3
S'|'
p2996
NNNI6
I1
I0
tp2997
bS'ISOMAP'
p2998
tp2999
Rp3000
sg59
F0.2
sg42
g2989
sg60
g11
(g12
(S'S3'
p3001
I0
I1
tp3002
Rp3003
(I3
S'|'
p3004
NNNI3
I1
I0
tp3005
bS'VGG'
p3006
tp3007
Rp3008
sg69
g11
(g15
S'\xd0\x8c\xc7a\x93\x86\xef?'
p3009
tp3010
Rp3011
sg73
g11
(g12
(S'S2'
p3012
I0
I1
tp3013
Rp3014
(I3
S'|'
p3015
NNNI2
I1
I0
tp3016
bS'RF'
p3017
tp3018
Rp3019
sg82
I3
sg113
g2992
sg83
g84
sg85
g11
(g15
S'\xc1\x16o\x1d\x8b\x82\xe9?'
p3020
tp3021
Rp3022
sg89
g90
sg91
g92
sbag4
(g5
g6
Ntp3023
Rp3024
(dp3025
g10
g11
(g15
S'\x00\x00\x00\x00\x00\x00\xf8\xff'
p3026
tp3027
Rp3028
sg99
g11
(g15
S'\x00\x00\x00\x00\x00@e@'
p3029
tp3030
Rp3031
sg30
g31
sg21
g11
(g24
S'\x06\x00\x00\x00\x00\x00\x00\x00'
p3032
tp3033
Rp3034
sg32
(dp3035
g99
g3031
sg21
g3034
sg42
g11
(g24
S'\x03\x00\x00\x00\x00\x00\x00\x00'
p3036
tp3037
Rp3038
sg113
g11
(g15
S'\xc3\xe9X\xa3\x1cd\xe4?'
p3039
tp3040
Rp3041
ssg50
g11
(g12
(S'S6'
p3042
I0
I1
tp3043
Rp3044
(I3
S'|'
p3045
NNNI6
I1
I0
tp3046
bS'ISOMAP'
p3047
tp3048
Rp3049
sg59
F0.2
sg42
g3038
sg60
g11
(g12
(S'S3'
p3050
I0
I1
tp3051
Rp3052
(I3
S'|'
p3053
NNNI3
I1
I0
tp3054
bS'VGG'
p3055
tp3056
Rp3057
sg69
g11
(g15
S'\xf0\rv\xcd\xff\xb7\xe3?'
p3058
tp3059
Rp3060
sg73
g11
(g12
(S'S2'
p3061
I0
I1
tp3062
Rp3063
(I3
S'|'
p3064
NNNI2
I1
I0
tp3065
bS'RF'
p3066
tp3067
Rp3068
sg82
I3
sg113
g3041
sg83
g84
sg85
g11
(g15
S'\x13NP6\x00\xe3\xe9?'
p3069
tp3070
Rp3071
sg89
g90
sg91
g92
sbag4
(g5
g6
Ntp3072
Rp3073
(dp3074
g10
g11
(g15
S'\x00\x00\x00\x00\x00\x00\xf8\xff'
p3075
tp3076
Rp3077
sg21
g11
(g24
S'\x04\x00\x00\x00\x00\x00\x00\x00'
p3078
tp3079
Rp3080
sg30
g31
sg32
(dp3081
g21
g3080
sg34
g11
(g15
S'\xbf\xa3?<\x1b\xd0Q@'
p3082
tp3083
Rp3084
sg42
g11
(g24
S'\x03\x00\x00\x00\x00\x00\x00\x00'
p3085
tp3086
Rp3087
sg46
g11
(g15
S'\x11w\x98\xc0\x9e\x0c\x08@'
p3088
tp3089
Rp3090
ssg46
g3090
sg50
g11
(g12
(S'S6'
p3091
I0
I1
tp3092
Rp3093
(I3
S'|'
p3094
NNNI6
I1
I0
tp3095
bS'ISOMAP'
p3096
tp3097
Rp3098
sg59
F0.2
sg42
g3087
sg60
g11
(g12
(S'S3'
p3099
I0
I1
tp3100
Rp3101
(I3
S'|'
p3102
NNNI3
I1
I0
tp3103
bS'VGG'
p3104
tp3105
Rp3106
sg34
g3084
sg69
g11
(g15
S'X\xd93\x0bB\x1c\xe1?'
p3107
tp3108
Rp3109
sg73
g11
(g12
(S'S3'
p3110
I0
I1
tp3111
Rp3112
(I3
S'|'
p3113
NNNI3
I1
I0
tp3114
bS'SVM'
p3115
tp3116
Rp3117
sg82
I3
sg83
g84
sg85
g11
(g15
S'\xd8\x08\xa7\xee\x8ct\xe8?'
p3118
tp3119
Rp3120
sg89
g90
sg91
g92
sbag4
(g5
g6
Ntp3121
Rp3122
(dp3123
g10
g11
(g15
S'\x00\x00\x00\x00\x00\x00\xf8\xff'
p3124
tp3125
Rp3126
sg103
g210
sg30
g31
sg32
(dp3127
g103
g210
sg34
g11
(g15
S'\xa3q\x9a\xf25\xdeP@'
p3128
tp3129
Rp3130
sg46
g11
(g15
S'\x12 LS}W\x15@'
p3131
tp3132
Rp3133
ssg50
g11
(g12
(S'S3'
p3134
I0
I1
tp3135
Rp3136
(I3
S'|'
p3137
NNNI3
I1
I0
tp3138
bS'PCA'
p3139
tp3140
Rp3141
sg59
F0.2
sg46
g3133
sg60
g11
(g12
(S'S9'
p3142
I0
I1
tp3143
Rp3144
(I3
S'|'
p3145
NNNI9
I1
I0
tp3146
bS'inception'
p3147
tp3148
Rp3149
sg34
g3130
sg69
g11
(g15
S'Y\xaa\xe2\xbf\x80\xab\xe3?'
p3150
tp3151
Rp3152
sg73
g11
(g12
(S'S3'
p3153
I0
I1
tp3154
Rp3155
(I3
S'|'
p3156
NNNI3
I1
I0
tp3157
bS'SVM'
p3158
tp3159
Rp3160
sg82
I3
sg83
g84
sg85
g11
(g15
S'\x1c\x18,o\xe7m\xe5?'
p3161
tp3162
Rp3163
sg89
g90
sg91
g92
sbag4
(g5
g6
Ntp3164
Rp3165
(dp3166
g10
g11
(g15
S'\x00\x00\x00\x00\x00\x00\xf8\xff'
p3167
tp3168
Rp3169
sg21
g11
(g24
S'\x05\x00\x00\x00\x00\x00\x00\x00'
p3170
tp3171
Rp3172
sg30
g31
sg32
(dp3173
g21
g3172
sg34
g11
(g15
S'm\x07\xa8Y\xdb\xefG@'
p3174
tp3175
Rp3176
sg38
g11
(g24
S'\x03\x00\x00\x00\x00\x00\x00\x00'
p3177
tp3178
Rp3179
sg42
g11
(g24
S'\x03\x00\x00\x00\x00\x00\x00\x00'
p3180
tp3181
Rp3182
sg46
g11
(g15
S'\xbf\x9ft\xb9\x0cD\x15@'
p3183
tp3184
Rp3185
ssg46
g3185
sg50
g11
(g12
(S'S6'
p3186
I0
I1
tp3187
Rp3188
(I3
S'|'
p3189
NNNI6
I1
I0
tp3190
bS'ISOMAP'
p3191
tp3192
Rp3193
sg59
F0.2
sg42
g3182
sg60
g11
(g12
(S'S8'
p3194
I0
I1
tp3195
Rp3196
(I3
S'|'
p3197
NNNI8
I1
I0
tp3198
bS'haralick'
p3199
tp3200
Rp3201
sg34
g3176
sg38
g3179
sg69
g11
(g15
S'@9\x8d\xb0\xc7\xdd\xde?'
p3202
tp3203
Rp3204
sg73
g11
(g12
(S'S3'
p3205
I0
I1
tp3206
Rp3207
(I3
S'|'
p3208
NNNI3
I1
I0
tp3209
bS'SVM'
p3210
tp3211
Rp3212
sg82
I3
sg83
g84
sg85
g11
(g15
S'\xd8\xb1\xb4\x08\xd3\xd5\xe8?'
p3213
tp3214
Rp3215
sg89
g90
sg91
g92
sbag4
(g5
g6
Ntp3216
Rp3217
(dp3218
g10
g11
(g15
S'\x00\x00\x00\x00\x00\x00\xf8\xff'
p3219
tp3220
Rp3221
sg21
g11
(g24
S'\x03\x00\x00\x00\x00\x00\x00\x00'
p3222
tp3223
Rp3224
sg30
g31
sg32
(dp3225
g21
g3224
sg34
g11
(g15
S'%\xca\xd3JQ\xabR@'
p3226
tp3227
Rp3228
sg42
g11
(g24
S'\x04\x00\x00\x00\x00\x00\x00\x00'
p3229
tp3230
Rp3231
sg46
g11
(g15
S':\x1c\xf5\xa6\xa0\x18\x19@'
p3232
tp3233
Rp3234
ssg46
g3234
sg50
g11
(g12
(S'S6'
p3235
I0
I1
tp3236
Rp3237
(I3
S'|'
p3238
NNNI6
I1
I0
tp3239
bS'ISOMAP'
p3240
tp3241
Rp3242
sg59
F0.2
sg42
g3231
sg60
g11
(g12
(S'S9'
p3243
I0
I1
tp3244
Rp3245
(I3
S'|'
p3246
NNNI9
I1
I0
tp3247
bS'inception'
p3248
tp3249
Rp3250
sg34
g3228
sg69
g11
(g15
S'\xa5\xb4\xf8T\xd5\xe0\xe7?'
p3251
tp3252
Rp3253
sg73
g11
(g12
(S'S3'
p3254
I0
I1
tp3255
Rp3256
(I3
S'|'
p3257
NNNI3
I1
I0
tp3258
bS'SVM'
p3259
tp3260
Rp3261
sg82
I3
sg83
g84
sg85
g11
(g15
S'\x91\x9b.I\xa9\xf4\xe2?'
p3262
tp3263
Rp3264
sg89
g90
sg91
g92
sbag4
(g5
g6
Ntp3265
Rp3266
(dp3267
g10
g11
(g15
S'\x00\x00\x00\x00\x00\x00\xf8\xff'
p3268
tp3269
Rp3270
sg99
g11
(g15
S'\x00\x00\x00\x00\x00\x00 @'
p3271
tp3272
Rp3273
sg30
g31
sg21
g11
(g24
S'\x05\x00\x00\x00\x00\x00\x00\x00'
p3274
tp3275
Rp3276
sg32
(dp3277
g99
g3273
sg21
g3276
sg42
g11
(g24
S'\x04\x00\x00\x00\x00\x00\x00\x00'
p3278
tp3279
Rp3280
sg113
g11
(g15
S'\xf2\xd2\x81=\x91l\xe7?'
p3281
tp3282
Rp3283
ssg50
g11
(g12
(S'S6'
p3284
I0
I1
tp3285
Rp3286
(I3
S'|'
p3287
NNNI6
I1
I0
tp3288
bS'ISOMAP'
p3289
tp3290
Rp3291
sg59
F0.2
sg42
g3280
sg60
g11
(g12
(S'S9'
p3292
I0
I1
tp3293
Rp3294
(I3
S'|'
p3295
NNNI9
I1
I0
tp3296
bS'inception'
p3297
tp3298
Rp3299
sg69
g11
(g15
S'\x00yj\xf3\x9f\xb4\x06@'
p3300
tp3301
Rp3302
sg73
g11
(g12
(S'S2'
p3303
I0
I1
tp3304
Rp3305
(I3
S'|'
p3306
NNNI2
I1
I0
tp3307
bS'RF'
p3308
tp3309
Rp3310
sg82
I3
sg113
g3283
sg83
g84
sg85
g11
(g15
S'\xf4,\xca\xb0\x1b\x1a\xe7?'
p3311
tp3312
Rp3313
sg89
g90
sg91
g92
sbag4
(g5
g6
Ntp3314
Rp3315
(dp3316
g10
g11
(g15
S'\x00\x00\x00\x00\x00\x00\xf8\xff'
p3317
tp3318
Rp3319
sg103
g111
sg30
g31
sg32
(dp3320
g103
g111
sg34
g11
(g15
S'm\xf4#O\xab:Q@'
p3321
tp3322
Rp3323
sg46
g11
(g15
S'iB\x91k\x96\x8e\xfc?'
p3324
tp3325
Rp3326
ssg50
g11
(g12
(S'S3'
p3327
I0
I1
tp3328
Rp3329
(I3
S'|'
p3330
NNNI3
I1
I0
tp3331
bS'PCA'
p3332
tp3333
Rp3334
sg59
F0.2
sg46
g3326
sg60
g11
(g12
(S'S9'
p3335
I0
I1
tp3336
Rp3337
(I3
S'|'
p3338
NNNI9
I1
I0
tp3339
bS'inception'
p3340
tp3341
Rp3342
sg34
g3323
sg69
g11
(g15
S'\xfb\xfd\x96p\xdd;\xe3?'
p3343
tp3344
Rp3345
sg73
g11
(g12
(S'S3'
p3346
I0
I1
tp3347
Rp3348
(I3
S'|'
p3349
NNNI3
I1
I0
tp3350
bS'SVM'
p3351
tp3352
Rp3353
sg82
I3
sg83
g84
sg85
g11
(g15
S'\r\xa8\xdfXd^\xe5?'
p3354
tp3355
Rp3356
sg89
g90
sg91
g92
sbag4
(g5
g6
Ntp3357
Rp3358
(dp3359
g10
g11
(g15
S'\x00\x00\x00\x00\x00\x00\xf8\xff'
p3360
tp3361
Rp3362
sg99
g11
(g15
S'\x00\x00\x00\x00\x00@Z@'
p3363
tp3364
Rp3365
sg30
g31
sg21
g11
(g24
S'\x05\x00\x00\x00\x00\x00\x00\x00'
p3366
tp3367
Rp3368
sg32
(dp3369
g99
g3365
sg21
g3368
sg42
g11
(g24
S'\x04\x00\x00\x00\x00\x00\x00\x00'
p3370
tp3371
Rp3372
sg113
g11
(g15
S'\x04>\x1fq\x11\xbc\xeb?'
p3373
tp3374
Rp3375
ssg50
g11
(g12
(S'S6'
p3376
I0
I1
tp3377
Rp3378
(I3
S'|'
p3379
NNNI6
I1
I0
tp3380
bS'ISOMAP'
p3381
tp3382
Rp3383
sg59
F0.2
sg42
g3372
sg60
g11
(g12
(S'S3'
p3384
I0
I1
tp3385
Rp3386
(I3
S'|'
p3387
NNNI3
I1
I0
tp3388
bS'VGG'
p3389
tp3390
Rp3391
sg69
g11
(g15
S']\xc7\xa8-\xff\xc9\xe7?'
p3392
tp3393
Rp3394
sg73
g11
(g12
(S'S2'
p3395
I0
I1
tp3396
Rp3397
(I3
S'|'
p3398
NNNI2
I1
I0
tp3399
bS'RF'
p3400
tp3401
Rp3402
sg82
I3
sg113
g3375
sg83
g84
sg85
g11
(g15
S'0KV\x86\x1d\xd2\xe9?'
p3403
tp3404
Rp3405
sg89
g90
sg91
g92
sbag4
(g5
g6
Ntp3406
Rp3407
(dp3408
g10
g11
(g15
S'\x00\x00\x00\x00\x00\x00\xf8\xff'
p3409
tp3410
Rp3411
sg99
g11
(g15
S'\x00\x00\x00\x00\x00@a@'
p3412
tp3413
Rp3414
sg30
g31
sg21
g11
(g24
S'\x05\x00\x00\x00\x00\x00\x00\x00'
p3415
tp3416
Rp3417
sg32
(dp3418
g99
g3414
sg21
g3417
sg38
g11
(g24
S'\x03\x00\x00\x00\x00\x00\x00\x00'
p3419
tp3420
Rp3421
sg42
g11
(g24
S'\x02\x00\x00\x00\x00\x00\x00\x00'
p3422
tp3423
Rp3424
sg113
g11
(g15
S'\x0cXsGN\xff\xdc?'
p3425
tp3426
Rp3427
ssg50
g11
(g12
(S'S6'
p3428
I0
I1
tp3429
Rp3430
(I3
S'|'
p3431
NNNI6
I1
I0
tp3432
bS'ISOMAP'
p3433
tp3434
Rp3435
sg59
F0.2
sg42
g3424
sg60
g11
(g12
(S'S8'
p3436
I0
I1
tp3437
Rp3438
(I3
S'|'
p3439
NNNI8
I1
I0
tp3440
bS'haralick'
p3441
tp3442
Rp3443
sg38
g3421
sg69
g11
(g15
S'/\x80\xbd\x9ao\xec\xec?'
p3444
tp3445
Rp3446
sg73
g11
(g12
(S'S2'
p3447
I0
I1
tp3448
Rp3449
(I3
S'|'
p3450
NNNI2
I1
I0
tp3451
bS'RF'
p3452
tp3453
Rp3454
sg82
I3
sg113
g3427
sg83
g84
sg85
g11
(g15
S'\x1f\x15XF=\xa0\xea?'
p3455
tp3456
Rp3457
sg89
g90
sg91
g92
sbag4
(g5
g6
Ntp3458
Rp3459
(dp3460
g10
g11
(g15
S'\x00\x00\x00\x00\x00\x00\xf8\xff'
p3461
tp3462
Rp3463
sg21
g11
(g24
S'\x03\x00\x00\x00\x00\x00\x00\x00'
p3464
tp3465
Rp3466
sg30
g31
sg32
(dp3467
g21
g3466
sg34
g11
(g15
S'a\x0fd$X\xa9P@'
p3468
tp3469
Rp3470
sg38
g11
(g24
S'\x03\x00\x00\x00\x00\x00\x00\x00'
p3471
tp3472
Rp3473
sg42
g11
(g24
S'\x04\x00\x00\x00\x00\x00\x00\x00'
p3474
tp3475
Rp3476
sg46
g11
(g15
S'HC~\xd7k\x81\x04@'
p3477
tp3478
Rp3479
ssg46
g3479
sg50
g11
(g12
(S'S6'
p3480
I0
I1
tp3481
Rp3482
(I3
S'|'
p3483
NNNI6
I1
I0
tp3484
bS'ISOMAP'
p3485
tp3486
Rp3487
sg59
F0.2
sg42
g3476
sg60
g11
(g12
(S'S8'
p3488
I0
I1
tp3489
Rp3490
(I3
S'|'
p3491
NNNI8
I1
I0
tp3492
bS'haralick'
p3493
tp3494
Rp3495
sg34
g3470
sg38
g3473
sg69
g11
(g15
S'\x14rq\xfa\x12\xe7\xe3?'
p3496
tp3497
Rp3498
sg73
g11
(g12
(S'S3'
p3499
I0
I1
tp3500
Rp3501
(I3
S'|'
p3502
NNNI3
I1
I0
tp3503
bS'SVM'
p3504
tp3505
Rp3506
sg82
I3
sg83
g84
sg85
g11
(g15
S'\x196)\xbe\xf6k\xe7?'
p3507
tp3508
Rp3509
sg89
g90
sg91
g92
sbag4
(g5
g6
Ntp3510
Rp3511
(dp3512
g10
g11
(g15
S'\x00\x00\x00\x00\x00\x00\xf8\xff'
p3513
tp3514
Rp3515
sg21
g11
(g24
S'\x05\x00\x00\x00\x00\x00\x00\x00'
p3516
tp3517
Rp3518
sg30
g31
sg32
(dp3519
g21
g3518
sg34
g11
(g15
S'\x04\x00Z\n\xd0\x00X@'
p3520
tp3521
Rp3522
sg42
g11
(g24
S'\x03\x00\x00\x00\x00\x00\x00\x00'
p3523
tp3524
Rp3525
sg46
g11
(g15
S'^\xbdd&[\xf4\x17@'
p3526
tp3527
Rp3528
ssg46
g3528
sg50
g11
(g12
(S'S6'
p3529
I0
I1
tp3530
Rp3531
(I3
S'|'
p3532
NNNI6
I1
I0
tp3533
bS'ISOMAP'
p3534
tp3535
Rp3536
sg59
F0.2
sg42
g3525
sg60
g11
(g12
(S'S9'
p3537
I0
I1
tp3538
Rp3539
(I3
S'|'
p3540
NNNI9
I1
I0
tp3541
bS'inception'
p3542
tp3543
Rp3544
sg34
g3522
sg69
g11
(g15
S'\x89\xf3\x8c\xeb\xcb\xe7\xe5?'
p3545
tp3546
Rp3547
sg73
g11
(g12
(S'S3'
p3548
I0
I1
tp3549
Rp3550
(I3
S'|'
p3551
NNNI3
I1
I0
tp3552
bS'SVM'
p3553
tp3554
Rp3555
sg82
I3
sg83
g84
sg85
g11
(g15
S'\xe6\xe7\x00\xf5\xe9\xe2\xe3?'
p3556
tp3557
Rp3558
sg89
g90
sg91
g92
sbag4
(g5
g6
Ntp3559
Rp3560
(dp3561
g10
g11
(g15
S'\x00\x00\x00\x00\x00\x00\xf8\xff'
p3562
tp3563
Rp3564
sg103
g210
sg30
g31
sg32
(dp3565
g103
g210
sg34
g11
(g15
S'\xe9 \x8b\n\x0f\x00T@'
p3566
tp3567
Rp3568
sg46
g11
(g15
S'Hi$\x155W\x01@'
p3569
tp3570
Rp3571
ssg50
g11
(g12
(S'S3'
p3572
I0
I1
tp3573
Rp3574
(I3
S'|'
p3575
NNNI3
I1
I0
tp3576
bS'PCA'
p3577
tp3578
Rp3579
sg59
F0.2
sg46
g3571
sg60
g11
(g12
(S'S3'
p3580
I0
I1
tp3581
Rp3582
(I3
S'|'
p3583
NNNI3
I1
I0
tp3584
bS'VGG'
p3585
tp3586
Rp3587
sg34
g3568
sg69
g11
(g15
S'`\xbcD\xb7\xce\\\xe2?'
p3588
tp3589
Rp3590
sg73
g11
(g12
(S'S3'
p3591
I0
I1
tp3592
Rp3593
(I3
S'|'
p3594
NNNI3
I1
I0
tp3595
bS'SVM'
p3596
tp3597
Rp3598
sg82
I3
sg83
g84
sg85
g11
(g15
S'\\/\x1b\xad\xac\x87\xe7?'
p3599
tp3600
Rp3601
sg89
g90
sg91
g92
sbag4
(g5
g6
Ntp3602
Rp3603
(dp3604
g10
g11
(g15
S'\x00\x00\x00\x00\x00\x00\xf8\xff'
p3605
tp3606
Rp3607
sg99
g11
(g15
S'\x00\x00\x00\x00\x00`m@'
p3608
tp3609
Rp3610
sg103
g210
sg30
g31
sg32
(dp3611
g99
g3610
sg113
g11
(g15
S'\xa6\x8a\xc1\xc2\r\xd7\xee?'
p3612
tp3613
Rp3614
sg103
g210
ssg50
g11
(g12
(S'S3'
p3615
I0
I1
tp3616
Rp3617
(I3
S'|'
p3618
NNNI3
I1
I0
tp3619
bS'PCA'
p3620
tp3621
Rp3622
sg59
F0.2
sg60
g11
(g12
(S'S3'
p3623
I0
I1
tp3624
Rp3625
(I3
S'|'
p3626
NNNI3
I1
I0
tp3627
bS'VGG'
p3628
tp3629
Rp3630
sg69
g11
(g15
S'\x8f\xf4_&gf\xda?'
p3631
tp3632
Rp3633
sg73
g11
(g12
(S'S2'
p3634
I0
I1
tp3635
Rp3636
(I3
S'|'
p3637
NNNI2
I1
I0
tp3638
bS'RF'
p3639
tp3640
Rp3641
sg82
I3
sg113
g3614
sg83
g84
sg85
g11
(g15
S'\x1d3\xc3mL\x80\xea?'
p3642
tp3643
Rp3644
sg89
g90
sg91
g92
sbag4
(g5
g6
Ntp3645
Rp3646
(dp3647
g10
g11
(g15
S'\x00\x00\x00\x00\x00\x00\xf8\xff'
p3648
tp3649
Rp3650
sg103
g111
sg30
g31
sg32
(dp3651
g103
g111
sg34
g11
(g15
S'\xc7\x1f>\x8a\xc4\x13R@'
p3652
tp3653
Rp3654
sg46
g11
(g15
S'\xab\x92oML \r@'
p3655
tp3656
Rp3657
ssg50
g11
(g12
(S'S3'
p3658
I0
I1
tp3659
Rp3660
(I3
S'|'
p3661
NNNI3
I1
I0
tp3662
bS'PCA'
p3663
tp3664
Rp3665
sg59
F0.2
sg46
g3657
sg60
g11
(g12
(S'S3'
p3666
I0
I1
tp3667
Rp3668
(I3
S'|'
p3669
NNNI3
I1
I0
tp3670
bS'VGG'
p3671
tp3672
Rp3673
sg34
g3654
sg69
g11
(g15
S'\xfe\xc8(>hg\xe4?'
p3674
tp3675
Rp3676
sg73
g11
(g12
(S'S3'
p3677
I0
I1
tp3678
Rp3679
(I3
S'|'
p3680
NNNI3
I1
I0
tp3681
bS'SVM'
p3682
tp3683
Rp3684
sg82
I3
sg83
g84
sg85
g11
(g15
S'I\x95\x97\xec\x06\x8b\xe6?'
p3685
tp3686
Rp3687
sg89
g90
sg91
g92
sbag4
(g5
g6
Ntp3688
Rp3689
(dp3690
g10
g11
(g15
S'\x00\x00\x00\x00\x00\x00\xf8\xff'
p3691
tp3692
Rp3693
sg99
g11
(g15
S'\x00\x00\x00\x00\x00\xc0r@'
p3694
tp3695
Rp3696
sg30
g31
sg21
g11
(g24
S'\x07\x00\x00\x00\x00\x00\x00\x00'
p3697
tp3698
Rp3699
sg32
(dp3700
g99
g3696
sg21
g3699
sg38
g11
(g24
S'\x01\x00\x00\x00\x00\x00\x00\x00'
p3701
tp3702
Rp3703
sg42
g11
(g24
S'\x03\x00\x00\x00\x00\x00\x00\x00'
p3704
tp3705
Rp3706
sg113
g11
(g15
S'\xd3\xf5\xd7W\x05\xc7\xe0?'
p3707
tp3708
Rp3709
ssg50
g11
(g12
(S'S6'
p3710
I0
I1
tp3711
Rp3712
(I3
S'|'
p3713
NNNI6
I1
I0
tp3714
bS'ISOMAP'
p3715
tp3716
Rp3717
sg59
F0.2
sg42
g3706
sg60
g11
(g12
(S'S8'
p3718
I0
I1
tp3719
Rp3720
(I3
S'|'
p3721
NNNI8
I1
I0
tp3722
bS'haralick'
p3723
tp3724
Rp3725
sg38
g3703
sg69
g11
(g15
S'\x9b5QKW\x7f\xee?'
p3726
tp3727
Rp3728
sg73
g11
(g12
(S'S2'
p3729
I0
I1
tp3730
Rp3731
(I3
S'|'
p3732
NNNI2
I1
I0
tp3733
bS'RF'
p3734
tp3735
Rp3736
sg82
I3
sg113
g3709
sg83
g84
sg85
g11
(g15
S'U7\x7f\\\xe1D\xe9?'
p3737
tp3738
Rp3739
sg89
g90
sg91
g92
sbag4
(g5
g6
Ntp3740
Rp3741
(dp3742
g10
g11
(g15
S'\x00\x00\x00\x00\x00\x00\xf8\xff'
p3743
tp3744
Rp3745
sg103
g210
sg30
g31
sg32
(dp3746
g103
g210
sg34
g11
(g15
S'\xbb\xb6\x1c\x19\xb61S@'
p3747
tp3748
Rp3749
sg38
g11
(g24
S'\x03\x00\x00\x00\x00\x00\x00\x00'
p3750
tp3751
Rp3752
sg46
g11
(g15
S'\xb1\xf8E\xd6k\xc8\x11@'
p3753
tp3754
Rp3755
ssg50
g11
(g12
(S'S3'
p3756
I0
I1
tp3757
Rp3758
(I3
S'|'
p3759
NNNI3
I1
I0
tp3760
bS'PCA'
p3761
tp3762
Rp3763
sg59
F0.2
sg46
g3755
sg60
g11
(g12
(S'S8'
p3764
I0
I1
tp3765
Rp3766
(I3
S'|'
p3767
NNNI8
I1
I0
tp3768
bS'haralick'
p3769
tp3770
Rp3771
sg34
g3749
sg38
g3752
sg69
g11
(g15
S'\xe7\x87\xda\x8b\xbaH\xe0?'
p3772
tp3773
Rp3774
sg73
g11
(g12
(S'S3'
p3775
I0
I1
tp3776
Rp3777
(I3
S'|'
p3778
NNNI3
I1
I0
tp3779
bS'SVM'
p3780
tp3781
Rp3782
sg82
I3
sg83
g84
sg85
g11
(g15
S'\xf6P$\x03\xa5\x91\xe4?'
p3783
tp3784
Rp3785
sg89
g90
sg91
g92
sbag4
(g5
g6
Ntp3786
Rp3787
(dp3788
g10
g11
(g15
S'\x00\x00\x00\x00\x00\x00\xf8\xff'
p3789
tp3790
Rp3791
sg99
g11
(g15
S'\x00\x00\x00\x00\x00@R@'
p3792
tp3793
Rp3794
sg30
g31
sg21
g11
(g24
S'\x06\x00\x00\x00\x00\x00\x00\x00'
p3795
tp3796
Rp3797
sg32
(dp3798
g99
g3794
sg21
g3797
sg42
g11
(g24
S'\x02\x00\x00\x00\x00\x00\x00\x00'
p3799
tp3800
Rp3801
sg113
g11
(g15
S'J\xb0n\xad\xb8\xb5\xea?'
p3802
tp3803
Rp3804
ssg50
g11
(g12
(S'S6'
p3805
I0
I1
tp3806
Rp3807
(I3
S'|'
p3808
NNNI6
I1
I0
tp3809
bS'ISOMAP'
p3810
tp3811
Rp3812
sg59
F0.2
sg42
g3801
sg60
g11
(g12
(S'S9'
p3813
I0
I1
tp3814
Rp3815
(I3
S'|'
p3816
NNNI9
I1
I0
tp3817
bS'inception'
p3818
tp3819
Rp3820
sg69
g11
(g15
S'\xd7/4\x02\t\xef\xf2?'
p3821
tp3822
Rp3823
sg73
g11
(g12
(S'S2'
p3824
I0
I1
tp3825
Rp3826
(I3
S'|'
p3827
NNNI2
I1
I0
tp3828
bS'RF'
p3829
tp3830
Rp3831
sg82
I3
sg113
g3804
sg83
g84
sg85
g11
(g15
S'\xf9_\xea\x91\xa0\xce\xe5?'
p3832
tp3833
Rp3834
sg89
g90
sg91
g92
sbag4
(g5
g6
Ntp3835
Rp3836
(dp3837
g10
g11
(g15
S'\x00\x00\x00\x00\x00\x00\xf8\xff'
p3838
tp3839
Rp3840
sg99
g11
(g15
S'\x00\x00\x00\x00\x00@e@'
p3841
tp3842
Rp3843
sg30
g31
sg21
g11
(g24
S'\x03\x00\x00\x00\x00\x00\x00\x00'
p3844
tp3845
Rp3846
sg32
(dp3847
g99
g3843
sg21
g3846
sg42
g11
(g24
S'\x04\x00\x00\x00\x00\x00\x00\x00'
p3848
tp3849
Rp3850
sg113
g11
(g15
S'\x86\xdfx]l\xcb\xeb?'
p3851
tp3852
Rp3853
ssg50
g11
(g12
(S'S6'
p3854
I0
I1
tp3855
Rp3856
(I3
S'|'
p3857
NNNI6
I1
I0
tp3858
bS'ISOMAP'
p3859
tp3860
Rp3861
sg59
F0.2
sg42
g3850
sg60
g11
(g12
(S'S9'
p3862
I0
I1
tp3863
Rp3864
(I3
S'|'
p3865
NNNI9
I1
I0
tp3866
bS'inception'
p3867
tp3868
Rp3869
sg69
g11
(g15
S'E\x05\x0fvM.\xf6?'
p3870
tp3871
Rp3872
sg73
g11
(g12
(S'S2'
p3873
I0
I1
tp3874
Rp3875
(I3
S'|'
p3876
NNNI2
I1
I0
tp3877
bS'RF'
p3878
tp3879
Rp3880
sg82
I3
sg113
g3853
sg83
g84
sg85
g11
(g15
S'\xc4#\x13\xc1X=\xe5?'
p3881
tp3882
Rp3883
sg89
g90
sg91
g92
sbag4
(g5
g6
Ntp3884
Rp3885
(dp3886
g10
g11
(g15
S'\x00\x00\x00\x00\x00\x00\xf8\xff'
p3887
tp3888
Rp3889
sg99
g11
(g15
S'\x00\x00\x00\x00\x00`m@'
p3890
tp3891
Rp3892
sg103
g111
sg30
g31
sg32
(dp3893
g99
g3892
sg113
g11
(g15
S'\xf5.\x01\x9d\x96\xdc\xe2?'
p3894
tp3895
Rp3896
sg103
g111
ssg50
g11
(g12
(S'S3'
p3897
I0
I1
tp3898
Rp3899
(I3
S'|'
p3900
NNNI3
I1
I0
tp3901
bS'PCA'
p3902
tp3903
Rp3904
sg59
F0.2
sg60
g11
(g12
(S'S3'
p3905
I0
I1
tp3906
Rp3907
(I3
S'|'
p3908
NNNI3
I1
I0
tp3909
bS'VGG'
p3910
tp3911
Rp3912
sg69
g11
(g15
S'[@np\xaa\x1a\xda?'
p3913
tp3914
Rp3915
sg73
g11
(g12
(S'S2'
p3916
I0
I1
tp3917
Rp3918
(I3
S'|'
p3919
NNNI2
I1
I0
tp3920
bS'RF'
p3921
tp3922
Rp3923
sg82
I3
sg113
g3896
sg83
g84
sg85
g11
(g15
S'\xc8\x02\xd4p\x9f\x8f\xea?'
p3924
tp3925
Rp3926
sg89
g90
sg91
g92
sbag4
(g5
g6
Ntp3927
Rp3928
(dp3929
g10
g11
(g15
S'\x00\x00\x00\x00\x00\x00\xf8\xff'
p3930
tp3931
Rp3932
sg103
g210
sg30
g31
sg32
(dp3933
g103
g210
sg34
g11
(g15
S's(\xffo2]2@'
p3934
tp3935
Rp3936
sg38
g11
(g24
S'\x01\x00\x00\x00\x00\x00\x00\x00'
p3937
tp3938
Rp3939
sg46
g11
(g15
S'\xb4\xcd\xc1U\xb1\xd3\x08@'
p3940
tp3941
Rp3942
ssg50
g11
(g12
(S'S3'
p3943
I0
I1
tp3944
Rp3945
(I3
S'|'
p3946
NNNI3
I1
I0
tp3947
bS'PCA'
p3948
tp3949
Rp3950
sg59
F0.2
sg46
g3942
sg60
g11
(g12
(S'S8'
p3951
I0
I1
tp3952
Rp3953
(I3
S'|'
p3954
NNNI8
I1
I0
tp3955
bS'haralick'
p3956
tp3957
Rp3958
sg34
g3936
sg38
g3939
sg69
g11
(g15
S'\xff\x03\xf2\xfer5\xe0?'
p3959
tp3960
Rp3961
sg73
g11
(g12
(S'S3'
p3962
I0
I1
tp3963
Rp3964
(I3
S'|'
p3965
NNNI3
I1
I0
tp3966
bS'SVM'
p3967
tp3968
Rp3969
sg82
I3
sg83
g84
sg85
g11
(g15
S'\x00\xa2\x98K\x02<\xe6?'
p3970
tp3971
Rp3972
sg89
g90
sg91
g92
sbag4
(g5
g6
Ntp3973
Rp3974
(dp3975
g10
g11
(g15
S'\x00\x00\x00\x00\x00\x00\xf8\xff'
p3976
tp3977
Rp3978
sg99
g11
(g15
S'\x00\x00\x00\x00\x00\xc0r@'
p3979
tp3980
Rp3981
sg30
g31
sg21
g11
(g24
S'\x07\x00\x00\x00\x00\x00\x00\x00'
p3982
tp3983
Rp3984
sg32
(dp3985
g99
g3981
sg21
g3984
sg42
g11
(g24
S'\x04\x00\x00\x00\x00\x00\x00\x00'
p3986
tp3987
Rp3988
sg113
g11
(g15
S'\xbd\r.\xf2\xe7\xeb\xe0?'
p3989
tp3990
Rp3991
ssg50
g11
(g12
(S'S6'
p3992
I0
I1
tp3993
Rp3994
(I3
S'|'
p3995
NNNI6
I1
I0
tp3996
bS'ISOMAP'
p3997
tp3998
Rp3999
sg59
F0.2
sg42
g3988
sg60
g11
(g12
(S'S9'
p4000
I0
I1
tp4001
Rp4002
(I3
S'|'
p4003
NNNI9
I1
I0
tp4004
bS'inception'
p4005
tp4006
Rp4007
sg69
g11
(g15
S'\xb9j\x1e"\xa4\xcd\xe9?'
p4008
tp4009
Rp4010
sg73
g11
(g12
(S'S2'
p4011
I0
I1
tp4012
Rp4013
(I3
S'|'
p4014
NNNI2
I1
I0
tp4015
bS'RF'
p4016
tp4017
Rp4018
sg82
I3
sg113
g3991
sg83
g84
sg85
g11
(g15
S'\xb9\xdcs\xe0tH\xe7?'
p4019
tp4020
Rp4021
sg89
g90
sg91
g92
sbag4
(g5
g6
Ntp4022
Rp4023
(dp4024
g10
g11
(g15
S'\x00\x00\x00\x00\x00\x00\xf8\xff'
p4025
tp4026
Rp4027
sg21
g11
(g24
S'\x07\x00\x00\x00\x00\x00\x00\x00'
p4028
tp4029
Rp4030
sg30
g31
sg32
(dp4031
g21
g4030
sg34
g11
(g15
S'\xca<r\x8d\x00\x06&@'
p4032
tp4033
Rp4034
sg38
g11
(g24
S'\x01\x00\x00\x00\x00\x00\x00\x00'
p4035
tp4036
Rp4037
sg42
g11
(g24
S'\x03\x00\x00\x00\x00\x00\x00\x00'
p4038
tp4039
Rp4040
sg46
g11
(g15
S'\x9f\xf8\xab\x1f\xd0`\x14@'
p4041
tp4042
Rp4043
ssg46
g4043
sg50
g11
(g12
(S'S6'
p4044
I0
I1
tp4045
Rp4046
(I3
S'|'
p4047
NNNI6
I1
I0
tp4048
bS'ISOMAP'
p4049
tp4050
Rp4051
sg59
F0.2
sg42
g4040
sg60
g11
(g12
(S'S8'
p4052
I0
I1
tp4053
Rp4054
(I3
S'|'
p4055
NNNI8
I1
I0
tp4056
bS'haralick'
p4057
tp4058
Rp4059
sg34
g4034
sg38
g4037
sg69
g11
(g15
S'q\xac\x1b@\xf7\x90\xe0?'
p4060
tp4061
Rp4062
sg73
g11
(g12
(S'S3'
p4063
I0
I1
tp4064
Rp4065
(I3
S'|'
p4066
NNNI3
I1
I0
tp4067
bS'SVM'
p4068
tp4069
Rp4070
sg82
I3
sg83
g84
sg85
g11
(g15
S'\xc5y\xd1\x809n\xe6?'
p4071
tp4072
Rp4073
sg89
g90
sg91
g92
sbag4
(g5
g6
Ntp4074
Rp4075
(dp4076
g10
g11
(g15
S'\x00\x00\x00\x00\x00\x00\xf8\xff'
p4077
tp4078
Rp4079
sg99
g11
(g15
S'\x00\x00\x00\x00\x00@e@'
p4080
tp4081
Rp4082
sg30
g31
sg21
g11
(g24
S'\x05\x00\x00\x00\x00\x00\x00\x00'
p4083
tp4084
Rp4085
sg32
(dp4086
g99
g4082
sg21
g4085
sg38
g11
(g24
S'\x03\x00\x00\x00\x00\x00\x00\x00'
p4087
tp4088
Rp4089
sg42
g11
(g24
S'\x02\x00\x00\x00\x00\x00\x00\x00'
p4090
tp4091
Rp4092
sg113
g11
(g15
S'\x19P\xf4\x15\xebM\xdf?'
p4093
tp4094
Rp4095
ssg50
g11
(g12
(S'S6'
p4096
I0
I1
tp4097
Rp4098
(I3
S'|'
p4099
NNNI6
I1
I0
tp4100
bS'ISOMAP'
p4101
tp4102
Rp4103
sg59
F0.2
sg42
g4092
sg60
g11
(g12
(S'S8'
p4104
I0
I1
tp4105
Rp4106
(I3
S'|'
p4107
NNNI8
I1
I0
tp4108
bS'haralick'
p4109
tp4110
Rp4111
sg38
g4089
sg69
g11
(g15
S'##\x0eQ\xe8\xd9\xec?'
p4112
tp4113
Rp4114
sg73
g11
(g12
(S'S2'
p4115
I0
I1
tp4116
Rp4117
(I3
S'|'
p4118
NNNI2
I1
I0
tp4119
bS'RF'
p4120
tp4121
Rp4122
sg82
I3
sg113
g4095
sg83
g84
sg85
g11
(g15
S'[\x96\x0e\xc9\xce\xbf\xea?'
p4123
tp4124
Rp4125
sg89
g90
sg91
g92
sbag4
(g5
g6
Ntp4126
Rp4127
(dp4128
g10
g11
(g15
S'\x00\x00\x00\x00\x00\x00\xf8\xff'
p4129
tp4130
Rp4131
sg21
g11
(g24
S'\x05\x00\x00\x00\x00\x00\x00\x00'
p4132
tp4133
Rp4134
sg30
g31
sg32
(dp4135
g21
g4134
sg34
g11
(g15
S",\xec\xd8\xd7'9N@"
p4136
tp4137
Rp4138
sg42
g11
(g24
S'\x02\x00\x00\x00\x00\x00\x00\x00'
p4139
tp4140
Rp4141
sg46
g11
(g15
S'\xdd\x84\xabD3\xb0\x18@'
p4142
tp4143
Rp4144
ssg46
g4144
sg50
g11
(g12
(S'S6'
p4145
I0
I1
tp4146
Rp4147
(I3
S'|'
p4148
NNNI6
I1
I0
tp4149
bS'ISOMAP'
p4150
tp4151
Rp4152
sg59
F0.2
sg42
g4141
sg60
g11
(g12
(S'S9'
p4153
I0
I1
tp4154
Rp4155
(I3
S'|'
p4156
NNNI9
I1
I0
tp4157
bS'inception'
p4158
tp4159
Rp4160
sg34
g4138
sg69
g11
(g15
S'\xab#Z\x84\xac]\xe8?'
p4161
tp4162
Rp4163
sg73
g11
(g12
(S'S3'
p4164
I0
I1
tp4165
Rp4166
(I3
S'|'
p4167
NNNI3
I1
I0
tp4168
bS'SVM'
p4169
tp4170
Rp4171
sg82
I3
sg83
g84
sg85
g11
(g15
S'S l\xde\xe74\xe3?'
p4172
tp4173
Rp4174
sg89
g90
sg91
g92
sbag4
(g5
g6
Ntp4175
Rp4176
(dp4177
g10
g11
(g15
S'\x00\x00\x00\x00\x00\x00\xf8\xff'
p4178
tp4179
Rp4180
sg99
g11
(g15
S'\x00\x00\x00\x00\x00\x00D@'
p4181
tp4182
Rp4183
sg30
g31
sg21
g11
(g24
S'\x05\x00\x00\x00\x00\x00\x00\x00'
p4184
tp4185
Rp4186
sg32
(dp4187
g99
g4183
sg21
g4186
sg42
g11
(g24
S'\x02\x00\x00\x00\x00\x00\x00\x00'
p4188
tp4189
Rp4190
sg113
g11
(g15
S'&\xde\x05\xa4Ua\xec?'
p4191
tp4192
Rp4193
ssg50
g11
(g12
(S'S6'
p4194
I0
I1
tp4195
Rp4196
(I3
S'|'
p4197
NNNI6
I1
I0
tp4198
bS'ISOMAP'
p4199
tp4200
Rp4201
sg59
F0.2
sg42
g4190
sg60
g11
(g12
(S'S9'
p4202
I0
I1
tp4203
Rp4204
(I3
S'|'
p4205
NNNI9
I1
I0
tp4206
bS'inception'
p4207
tp4208
Rp4209
sg69
g11
(g15
S'\x9b3\x1a\x10\x1c\xb1\xf8?'
p4210
tp4211
Rp4212
sg73
g11
(g12
(S'S2'
p4213
I0
I1
tp4214
Rp4215
(I3
S'|'
p4216
NNNI2
I1
I0
tp4217
bS'RF'
p4218
tp4219
Rp4220
sg82
I3
sg113
g4193
sg83
g84
sg85
g11
(g15
S'P\x90\xd9\x8eM\xbf\xe5?'
p4221
tp4222
Rp4223
sg89
g90
sg91
g92
sbag4
(g5
g6
Ntp4224
Rp4225
(dp4226
g10
g11
(g15
S'\x00\x00\x00\x00\x00\x00\xf8\xff'
p4227
tp4228
Rp4229
sg99
g11
(g15
S'\x00\x00\x00\x00\x00@R@'
p4230
tp4231
Rp4232
sg30
g31
sg21
g11
(g24
S'\x05\x00\x00\x00\x00\x00\x00\x00'
p4233
tp4234
Rp4235
sg32
(dp4236
g99
g4232
sg21
g4235
sg38
g11
(g24
S'\x01\x00\x00\x00\x00\x00\x00\x00'
p4237
tp4238
Rp4239
sg42
g11
(g24
S'\x03\x00\x00\x00\x00\x00\x00\x00'
p4240
tp4241
Rp4242
sg113
g11
(g15
S'\xca\xcf\xbc\xd2\x91\x81\xee?'
p4243
tp4244
Rp4245
ssg50
g11
(g12
(S'S6'
p4246
I0
I1
tp4247
Rp4248
(I3
S'|'
p4249
NNNI6
I1
I0
tp4250
bS'ISOMAP'
p4251
tp4252
Rp4253
sg59
F0.2
sg42
g4242
sg60
g11
(g12
(S'S8'
p4254
I0
I1
tp4255
Rp4256
(I3
S'|'
p4257
NNNI8
I1
I0
tp4258
bS'haralick'
p4259
tp4260
Rp4261
sg38
g4239
sg69
g11
(g15
S'HJ\xd3\xf7\x1f\x9a\xfc?'
p4262
tp4263
Rp4264
sg73
g11
(g12
(S'S2'
p4265
I0
I1
tp4266
Rp4267
(I3
S'|'
p4268
NNNI2
I1
I0
tp4269
bS'RF'
p4270
tp4271
Rp4272
sg82
I3
sg113
g4245
sg83
g84
sg85
g11
(g15
S'\xa5\xb3\xe7D\xb8\xa8\xe7?'
p4273
tp4274
Rp4275
sg89
g90
sg91
g92
sbag4
(g5
g6
Ntp4276
Rp4277
(dp4278
g10
g11
(g15
S'\x00\x00\x00\x00\x00\x00\xf8\xff'
p4279
tp4280
Rp4281
sg103
g111
sg30
g31
sg32
(dp4282
g103
g111
sg34
g11
(g15
S'\x98\x13y\xd5\x07}X@'
p4283
tp4284
Rp4285
sg46
g11
(g15
S'd\x03\x13k\xd1\xaf\xf4?'
p4286
tp4287
Rp4288
ssg50
g11
(g12
(S'S3'
p4289
I0
I1
tp4290
Rp4291
(I3
S'|'
p4292
NNNI3
I1
I0
tp4293
bS'PCA'
p4294
tp4295
Rp4296
sg59
F0.2
sg46
g4288
sg60
g11
(g12
(S'S3'
p4297
I0
I1
tp4298
Rp4299
(I3
S'|'
p4300
NNNI3
I1
I0
tp4301
bS'VGG'
p4302
tp4303
Rp4304
sg34
g4285
sg69
g11
(g15
S'\xc0\x10\x99\x10^\xaa\xe0?'
p4305
tp4306
Rp4307
sg73
g11
(g12
(S'S3'
p4308
I0
I1
tp4309
Rp4310
(I3
S'|'
p4311
NNNI3
I1
I0
tp4312
bS'SVM'
p4313
tp4314
Rp4315
sg82
I3
sg83
g84
sg85
g11
(g15
S'\xb5\xa1,\xf3/#\xe9?'
p4316
tp4317
Rp4318
sg89
g90
sg91
g92
sbag4
(g5
g6
Ntp4319
Rp4320
(dp4321
g10
g11
(g15
S'\x00\x00\x00\x00\x00\x00\xf8\xff'
p4322
tp4323
Rp4324
sg99
g11
(g15
S'\x00\x00\x00\x00\x00\xc0p@'
p4325
tp4326
Rp4327
sg103
g210
sg30
g31
sg32
(dp4328
g99
g4327
sg113
g11
(g15
S'\xf8\xcb^(\xf9\xd8\xd4?'
p4329
tp4330
Rp4331
sg103
g210
ssg50
g11
(g12
(S'S3'
p4332
I0
I1
tp4333
Rp4334
(I3
S'|'
p4335
NNNI3
I1
I0
tp4336
bS'PCA'
p4337
tp4338
Rp4339
sg59
F0.2
sg60
g11
(g12
(S'S9'
p4340
I0
I1
tp4341
Rp4342
(I3
S'|'
p4343
NNNI9
I1
I0
tp4344
bS'inception'
p4345
tp4346
Rp4347
sg69
g11
(g15
S'\x89\xac\xe7G&(\xe1?'
p4348
tp4349
Rp4350
sg73
g11
(g12
(S'S2'
p4351
I0
I1
tp4352
Rp4353
(I3
S'|'
p4354
NNNI2
I1
I0
tp4355
bS'RF'
p4356
tp4357
Rp4358
sg82
I3
sg113
g4331
sg83
g84
sg85
g11
(g15
S'\xbf\xe9=g\x80e\xe8?'
p4359
tp4360
Rp4361
sg89
g90
sg91
g92
sbag4
(g5
g6
Ntp4362
Rp4363
(dp4364
g10
g11
(g15
S'\x00\x00\x00\x00\x00\x00\xf8\xff'
p4365
tp4366
Rp4367
sg21
g11
(g24
S'\x07\x00\x00\x00\x00\x00\x00\x00'
p4368
tp4369
Rp4370
sg30
g31
sg32
(dp4371
g21
g4370
sg34
g11
(g15
S'}\xb7d\xad\xe6\x92V@'
p4372
tp4373
Rp4374
sg38
g11
(g24
S'\x02\x00\x00\x00\x00\x00\x00\x00'
p4375
tp4376
Rp4377
sg42
g11
(g24
S'\x02\x00\x00\x00\x00\x00\x00\x00'
p4378
tp4379
Rp4380
sg46
g11
(g15
S'\xca^\xea\xcbi\xed\xf0?'
p4381
tp4382
Rp4383
ssg46
g4383
sg50
g11
(g12
(S'S6'
p4384
I0
I1
tp4385
Rp4386
(I3
S'|'
p4387
NNNI6
I1
I0
tp4388
bS'ISOMAP'
p4389
tp4390
Rp4391
sg59
F0.2
sg42
g4380
sg60
g11
(g12
(S'S8'
p4392
I0
I1
tp4393
Rp4394
(I3
S'|'
p4395
NNNI8
I1
I0
tp4396
bS'haralick'
p4397
tp4398
Rp4399
sg34
g4374
sg38
g4377
sg69
g11
(g15
S'\x13\x0er\xe2v|\xde?'
p4400
tp4401
Rp4402
sg73
g11
(g12
(S'S3'
p4403
I0
I1
tp4404
Rp4405
(I3
S'|'
p4406
NNNI3
I1
I0
tp4407
bS'SVM'
p4408
tp4409
Rp4410
sg82
I3
sg83
g84
sg85
g11
(g15
S'\x1c\x13\xc8\x82\x0f<\xe7?'
p4411
tp4412
Rp4413
sg89
g90
sg91
g92
sbag4
(g5
g6
Ntp4414
Rp4415
(dp4416
g10
g11
(g15
S'\x00\x00\x00\x00\x00\x00\xf8\xff'
p4417
tp4418
Rp4419
sg99
g11
(g15
S'\x00\x00\x00\x00\x00`m@'
p4420
tp4421
Rp4422
sg103
g111
sg30
g31
sg32
(dp4423
g99
g4422
sg113
g11
(g15
S'\xcbv6\x97LX\xd6?'
p4424
tp4425
Rp4426
sg103
g111
sg38
g11
(g24
S'\x01\x00\x00\x00\x00\x00\x00\x00'
p4427
tp4428
Rp4429
ssg50
g11
(g12
(S'S3'
p4430
I0
I1
tp4431
Rp4432
(I3
S'|'
p4433
NNNI3
I1
I0
tp4434
bS'PCA'
p4435
tp4436
Rp4437
sg59
F0.2
sg60
g11
(g12
(S'S8'
p4438
I0
I1
tp4439
Rp4440
(I3
S'|'
p4441
NNNI8
I1
I0
tp4442
bS'haralick'
p4443
tp4444
Rp4445
sg38
g4429
sg69
g11
(g15
S'\xd5\xefY\xa6l:\x01@'
p4446
tp4447
Rp4448
sg73
g11
(g12
(S'S2'
p4449
I0
I1
tp4450
Rp4451
(I3
S'|'
p4452
NNNI2
I1
I0
tp4453
bS'RF'
p4454
tp4455
Rp4456
sg82
I3
sg113
g4426
sg83
g84
sg85
g11
(g15
S'\xbd\x80\x8b\xe6\xe2Y\xe7?'
p4457
tp4458
Rp4459
sg89
g90
sg91
g92
sbag4
(g5
g6
Ntp4460
Rp4461
(dp4462
g10
g11
(g15
S'\x00\x00\x00\x00\x00\x00\xf8\xff'
p4463
tp4464
Rp4465
sg99
g11
(g15
S'\x00\x00\x00\x00\x00`m@'
p4466
tp4467
Rp4468
sg30
g31
sg21
g11
(g24
S'\x05\x00\x00\x00\x00\x00\x00\x00'
p4469
tp4470
Rp4471
sg32
(dp4472
g99
g4468
sg21
g4471
sg38
g11
(g24
S'\x03\x00\x00\x00\x00\x00\x00\x00'
p4473
tp4474
Rp4475
sg42
g11
(g24
S'\x03\x00\x00\x00\x00\x00\x00\x00'
p4476
tp4477
Rp4478
sg113
g11
(g15
S'^\xebo p0\xd4?'
p4479
tp4480
Rp4481
ssg50
g11
(g12
(S'S6'
p4482
I0
I1
tp4483
Rp4484
(I3
S'|'
p4485
NNNI6
I1
I0
tp4486
bS'ISOMAP'
p4487
tp4488
Rp4489
sg59
F0.2
sg42
g4478
sg60
g11
(g12
(S'S8'
p4490
I0
I1
tp4491
Rp4492
(I3
S'|'
p4493
NNNI8
I1
I0
tp4494
bS'haralick'
p4495
tp4496
Rp4497
sg38
g4475
sg69
g11
(g15
S'\x95\x14KF\x81\xc4\xea?'
p4498
tp4499
Rp4500
sg73
g11
(g12
(S'S2'
p4501
I0
I1
tp4502
Rp4503
(I3
S'|'
p4504
NNNI2
I1
I0
tp4505
bS'RF'
p4506
tp4507
Rp4508
sg82
I3
sg113
g4481
sg83
g84
sg85
g11
(g15
S'\x1d3\xc3mL\x80\xea?'
p4509
tp4510
Rp4511
sg89
g90
sg91
g92
sbag4
(g5
g6
Ntp4512
Rp4513
(dp4514
g10
g11
(g15
S'\x00\x00\x00\x00\x00\x00\xf8\xff'
p4515
tp4516
Rp4517
sg103
g210
sg30
g31
sg32
(dp4518
g103
g210
sg34
g11
(g15
S'\xf1\xd3FH8\x1bA@'
p4519
tp4520
Rp4521
sg38
g11
(g24
S'\x03\x00\x00\x00\x00\x00\x00\x00'
p4522
tp4523
Rp4524
sg46
g11
(g15
S'\xff\xaah\xd3\x05R\x13@'
p4525
tp4526
Rp4527
ssg50
g11
(g12
(S'S3'
p4528
I0
I1
tp4529
Rp4530
(I3
S'|'
p4531
NNNI3
I1
I0
tp4532
bS'PCA'
p4533
tp4534
Rp4535
sg59
F0.2
sg46
g4527
sg60
g11
(g12
(S'S8'
p4536
I0
I1
tp4537
Rp4538
(I3
S'|'
p4539
NNNI8
I1
I0
tp4540
bS'haralick'
p4541
tp4542
Rp4543
sg34
g4521
sg38
g4524
sg69
g11
(g15
S'Jy\xc4v;j\xe0?'
p4544
tp4545
Rp4546
sg73
g11
(g12
(S'S3'
p4547
I0
I1
tp4548
Rp4549
(I3
S'|'
p4550
NNNI3
I1
I0
tp4551
bS'SVM'
p4552
tp4553
Rp4554
sg82
I3
sg83
g84
sg85
g11
(g15
S'\x93\x93{\xcc]\xc1\xe4?'
p4555
tp4556
Rp4557
sg89
g90
sg91
g92
sbag4
(g5
g6
Ntp4558
Rp4559
(dp4560
g10
g11
(g15
S'\x00\x00\x00\x00\x00\x00\xf8\xff'
p4561
tp4562
Rp4563
sg99
g11
(g15
S'\x00\x00\x00\x00\x00\x00D@'
p4564
tp4565
Rp4566
sg103
g111
sg30
g31
sg32
(dp4567
g99
g4566
sg113
g11
(g15
S'\x86T\x97\x1f{\x97\xec?'
p4568
tp4569
Rp4570
sg103
g111
ssg50
g11
(g12
(S'S3'
p4571
I0
I1
tp4572
Rp4573
(I3
S'|'
p4574
NNNI3
I1
I0
tp4575
bS'PCA'
p4576
tp4577
Rp4578
sg59
F0.2
sg60
g11
(g12
(S'S3'
p4579
I0
I1
tp4580
Rp4581
(I3
S'|'
p4582
NNNI3
I1
I0
tp4583
bS'VGG'
p4584
tp4585
Rp4586
sg69
g11
(g15
S'\xed\x19\xc4(\xdeb\xe3?'
p4587
tp4588
Rp4589
sg73
g11
(g12
(S'S2'
p4590
I0
I1
tp4591
Rp4592
(I3
S'|'
p4593
NNNI2
I1
I0
tp4594
bS'RF'
p4595
tp4596
Rp4597
sg82
I3
sg113
g4570
sg83
g84
sg85
g11
(g15
S'\xc8\x03\xd2t\x97\x9f\xea?'
p4598
tp4599
Rp4600
sg89
g90
sg91
g92
sbag4
(g5
g6
Ntp4601
Rp4602
(dp4603
g10
g11
(g15
S'\x00\x00\x00\x00\x00\x00\xf8\xff'
p4604
tp4605
Rp4606
sg99
g11
(g15
S'\x00\x00\x00\x00\x00\xc0r@'
p4607
tp4608
Rp4609
sg30
g31
sg21
g11
(g24
S'\x05\x00\x00\x00\x00\x00\x00\x00'
p4610
tp4611
Rp4612
sg32
(dp4613
g99
g4609
sg21
g4612
sg42
g11
(g24
S'\x04\x00\x00\x00\x00\x00\x00\x00'
p4614
tp4615
Rp4616
sg113
g11
(g15
S'*YR\xbd9D\xe5?'
p4617
tp4618
Rp4619
ssg50
g11
(g12
(S'S6'
p4620
I0
I1
tp4621
Rp4622
(I3
S'|'
p4623
NNNI6
I1
I0
tp4624
bS'ISOMAP'
p4625
tp4626
Rp4627
sg59
F0.2
sg42
g4616
sg60
g11
(g12
(S'S9'
p4628
I0
I1
tp4629
Rp4630
(I3
S'|'
p4631
NNNI9
I1
I0
tp4632
bS'inception'
p4633
tp4634
Rp4635
sg69
g11
(g15
S'\xb0;\x1dR\xa5!\xf0?'
p4636
tp4637
Rp4638
sg73
g11
(g12
(S'S2'
p4639
I0
I1
tp4640
Rp4641
(I3
S'|'
p4642
NNNI2
I1
I0
tp4643
bS'RF'
p4644
tp4645
Rp4646
sg82
I3
sg113
g4619
sg83
g84
sg85
g11
(g15
S'$\xfee\xbe+*\xe7?'
p4647
tp4648
Rp4649
sg89
g90
sg91
g92
sbag4
(g5
g6
Ntp4650
Rp4651
(dp4652
g10
g11
(g15
S'\x00\x00\x00\x00\x00\x00\xf8\xff'
p4653
tp4654
Rp4655
sg99
g11
(g15
S'\x00\x00\x00\x00\x00\x00D@'
p4656
tp4657
Rp4658
sg103
g210
sg30
g31
sg32
(dp4659
g99
g4658
sg113
g11
(g15
S'\x9f\x9f\x9e\x0e\xa1I\xd9?'
p4660
tp4661
Rp4662
sg103
g210
ssg50
g11
(g12
(S'S3'
p4663
I0
I1
tp4664
Rp4665
(I3
S'|'
p4666
NNNI3
I1
I0
tp4667
bS'PCA'
p4668
tp4669
Rp4670
sg59
F0.2
sg60
g11
(g12
(S'S3'
p4671
I0
I1
tp4672
Rp4673
(I3
S'|'
p4674
NNNI3
I1
I0
tp4675
bS'VGG'
p4676
tp4677
Rp4678
sg69
g11
(g15
S'0\xde\r\x89X\xd8\xde?'
p4679
tp4680
Rp4681
sg73
g11
(g12
(S'S2'
p4682
I0
I1
tp4683
Rp4684
(I3
S'|'
p4685
NNNI2
I1
I0
tp4686
bS'RF'
p4687
tp4688
Rp4689
sg82
I3
sg113
g4662
sg83
g84
sg85
g11
(g15
S'\x81\xefm\xa0\x9b@\xea?'
p4690
tp4691
Rp4692
sg89
g90
sg91
g92
sbag4
(g5
g6
Ntp4693
Rp4694
(dp4695
g10
g11
(g15
S'\x00\x00\x00\x00\x00\x00\xf8\xff'
p4696
tp4697
Rp4698
sg99
g11
(g15
S'\x00\x00\x00\x00\x00@R@'
p4699
tp4700
Rp4701
sg30
g31
sg21
g11
(g24
S'\x06\x00\x00\x00\x00\x00\x00\x00'
p4702
tp4703
Rp4704
sg32
(dp4705
g99
g4701
sg21
g4704
sg42
g11
(g24
S'\x03\x00\x00\x00\x00\x00\x00\x00'
p4706
tp4707
Rp4708
sg113
g11
(g15
S'\xa6~\xe5J\x06\xdc\xe3?'
p4709
tp4710
Rp4711
ssg50
g11
(g12
(S'S6'
p4712
I0
I1
tp4713
Rp4714
(I3
S'|'
p4715
NNNI6
I1
I0
tp4716
bS'ISOMAP'
p4717
tp4718
Rp4719
sg59
F0.2
sg42
g4708
sg60
g11
(g12
(S'S9'
p4720
I0
I1
tp4721
Rp4722
(I3
S'|'
p4723
NNNI9
I1
I0
tp4724
bS'inception'
p4725
tp4726
Rp4727
sg69
g11
(g15
S'\x8c\xb4\xb9]\xaai\xf0?'
p4728
tp4729
Rp4730
sg73
g11
(g12
(S'S2'
p4731
I0
I1
tp4732
Rp4733
(I3
S'|'
p4734
NNNI2
I1
I0
tp4735
bS'RF'
p4736
tp4737
Rp4738
sg82
I3
sg113
g4711
sg83
g84
sg85
g11
(g15
S'h\x02\x06\x004<\xe6?'
p4739
tp4740
Rp4741
sg89
g90
sg91
g92
sbag4
(g5
g6
Ntp4742
Rp4743
(dp4744
g10
g11
(g15
S'\x00\x00\x00\x00\x00\x00\xf8\xff'
p4745
tp4746
Rp4747
sg103
g210
sg30
g31
sg32
(dp4748
g103
g210
sg34
g11
(g15
S'\xa0\x97+\xc95\xc3!@'
p4749
tp4750
Rp4751
sg38
g11
(g24
S'\x03\x00\x00\x00\x00\x00\x00\x00'
p4752
tp4753
Rp4754
sg46
g11
(g15
S'\x91\xe6\x96\xb2V\x82\x02@'
p4755
tp4756
Rp4757
ssg50
g11
(g12
(S'S3'
p4758
I0
I1
tp4759
Rp4760
(I3
S'|'
p4761
NNNI3
I1
I0
tp4762
bS'PCA'
p4763
tp4764
Rp4765
sg59
F0.2
sg46
g4757
sg60
g11
(g12
(S'S8'
p4766
I0
I1
tp4767
Rp4768
(I3
S'|'
p4769
NNNI8
I1
I0
tp4770
bS'haralick'
p4771
tp4772
Rp4773
sg34
g4751
sg38
g4754
sg69
g11
(g15
S']\x15\xedS\xe7\xca\xde?'
p4774
tp4775
Rp4776
sg73
g11
(g12
(S'S3'
p4777
I0
I1
tp4778
Rp4779
(I3
S'|'
p4780
NNNI3
I1
I0
tp4781
bS'SVM'
p4782
tp4783
Rp4784
sg82
I3
sg83
g84
sg85
g11
(g15
S'4:\xe4\x86g~\xe5?'
p4785
tp4786
Rp4787
sg89
g90
sg91
g92
sbag4
(g5
g6
Ntp4788
Rp4789
(dp4790
g10
g11
(g15
S'\x00\x00\x00\x00\x00\x00\xf8\xff'
p4791
tp4792
Rp4793
sg99
g11
(g15
S'\x00\x00\x00\x00\x00\x00 @'
p4794
tp4795
Rp4796
sg103
g210
sg30
g31
sg32
(dp4797
g99
g4796
sg113
g11
(g15
S'\xdd&\xe9\xd8\x1f\x12\xe0?'
p4798
tp4799
Rp4800
sg103
g210
ssg50
g11
(g12
(S'S3'
p4801
I0
I1
tp4802
Rp4803
(I3
S'|'
p4804
NNNI3
I1
I0
tp4805
bS'PCA'
p4806
tp4807
Rp4808
sg59
F0.2
sg60
g11
(g12
(S'S9'
p4809
I0
I1
tp4810
Rp4811
(I3
S'|'
p4812
NNNI9
I1
I0
tp4813
bS'inception'
p4814
tp4815
Rp4816
sg69
g11
(g15
S'\x85\xa7\x1c\x93\x96\xa9\xfd?'
p4817
tp4818
Rp4819
sg73
g11
(g12
(S'S2'
p4820
I0
I1
tp4821
Rp4822
(I3
S'|'
p4823
NNNI2
I1
I0
tp4824
bS'RF'
p4825
tp4826
Rp4827
sg82
I3
sg113
g4800
sg83
g84
sg85
g11
(g15
S'W\x1e\xcd\xa55h\xe7?'
p4828
tp4829
Rp4830
sg89
g90
sg91
g92
sbag4
(g5
g6
Ntp4831
Rp4832
(dp4833
g10
g11
(g15
S'\x00\x00\x00\x00\x00\x00\xf8\xff'
p4834
tp4835
Rp4836
sg99
g11
(g15
S'\x00\x00\x00\x00\x00\xc0p@'
p4837
tp4838
Rp4839
sg30
g31
sg21
g11
(g24
S'\x03\x00\x00\x00\x00\x00\x00\x00'
p4840
tp4841
Rp4842
sg32
(dp4843
g99
g4839
sg21
g4842
sg38
g11
(g24
S'\x03\x00\x00\x00\x00\x00\x00\x00'
p4844
tp4845
Rp4846
sg42
g11
(g24
S'\x02\x00\x00\x00\x00\x00\x00\x00'
p4847
tp4848
Rp4849
sg113
g11
(g15
S'J\xb9y?/-\xea?'
p4850
tp4851
Rp4852
ssg50
g11
(g12
(S'S6'
p4853
I0
I1
tp4854
Rp4855
(I3
S'|'
p4856
NNNI6
I1
I0
tp4857
bS'ISOMAP'
p4858
tp4859
Rp4860
sg59
F0.2
sg42
g4849
sg60
g11
(g12
(S'S8'
p4861
I0
I1
tp4862
Rp4863
(I3
S'|'
p4864
NNNI8
I1
I0
tp4865
bS'haralick'
p4866
tp4867
Rp4868
sg38
g4846
sg69
g11
(g15
S'oR\xaa\xe7\x80\x0b\xfd?'
p4869
tp4870
Rp4871
sg73
g11
(g12
(S'S2'
p4872
I0
I1
tp4873
Rp4874
(I3
S'|'
p4875
NNNI2
I1
I0
tp4876
bS'RF'
p4877
tp4878
Rp4879
sg82
I3
sg113
g4852
sg83
g84
sg85
g11
(g15
S'\x85\x10\x97\xfa<\x97\xe8?'
p4880
tp4881
Rp4882
sg89
g90
sg91
g92
sbag4
(g5
g6
Ntp4883
Rp4884
(dp4885
g10
g11
(g15
S'\x00\x00\x00\x00\x00\x00\xf8\xff'
p4886
tp4887
Rp4888
sg21
g11
(g24
S'\x06\x00\x00\x00\x00\x00\x00\x00'
p4889
tp4890
Rp4891
sg30
g31
sg32
(dp4892
g21
g4891
sg34
g11
(g15
S'\xfa(\xcd\x05\x99\xe8W@'
p4893
tp4894
Rp4895
sg42
g11
(g24
S'\x02\x00\x00\x00\x00\x00\x00\x00'
p4896
tp4897
Rp4898
sg46
g11
(g15
S's\xafy\xa3>\x10\xf1?'
p4899
tp4900
Rp4901
ssg46
g4901
sg50
g11
(g12
(S'S6'
p4902
I0
I1
tp4903
Rp4904
(I3
S'|'
p4905
NNNI6
I1
I0
tp4906
bS'ISOMAP'
p4907
tp4908
Rp4909
sg59
F0.2
sg42
g4898
sg60
g11
(g12
(S'S9'
p4910
I0
I1
tp4911
Rp4912
(I3
S'|'
p4913
NNNI9
I1
I0
tp4914
bS'inception'
p4915
tp4916
Rp4917
sg34
g4895
sg69
g11
(g15
S'P\xe2/\x94L\xc4\xe6?'
p4918
tp4919
Rp4920
sg73
g11
(g12
(S'S3'
p4921
I0
I1
tp4922
Rp4923
(I3
S'|'
p4924
NNNI3
I1
I0
tp4925
bS'SVM'
p4926
tp4927
Rp4928
sg82
I3
sg83
g84
sg85
g11
(g15
S'\xce\x8e\x12\xab:\x05\xe4?'
p4929
tp4930
Rp4931
sg89
g90
sg91
g92
sbasS'error_curve'
p4932
(lp4933
g72
ag135
ag135
ag135
ag135
ag135
ag135
ag135
ag135
ag187
ag187
ag187
ag187
ag187
ag187
ag187
ag187
ag187
ag187
ag233
ag276
ag276
ag276
ag276
ag276
ag276
ag276
ag276
ag276
ag276
ag276
ag276
ag276
ag276
ag276
ag276
ag276
ag276
ag276
ag276
ag276
ag276
ag276
ag319
ag319
ag319
ag319
ag319
ag319
ag362
ag362
ag362
ag362
ag362
ag362
ag362
ag362
ag362
ag362
ag362
ag362
ag362
ag362
ag362
ag362
ag362
ag362
ag362
ag362
ag362
ag362
ag362
ag362
ag362
ag362
ag362
ag362
ag362
ag362
ag362
ag362
ag362
ag362
ag362
ag362
ag362
ag362
ag362
ag362
ag362
ag362
ag362
ag362
ag362
ag362
ag362
ag362
ag362
ag362
ag362
ag362
ag362
asS'iters'
p4934
I51
sg30
g31
sS'results_loc'
p4935
S'/gpfs/u/home/CGHI/CGHIarch/barn/EP_project/results/'
p4936
sS'times'
p4937
(lp4938
F12.658504009246826
aF14.92157793045044
aF15.2363440990448
aF16.033599138259888
aF18.428082942962646
aF32.32337498664856
aF33.49807095527649
aF34.43801403045654
aF48.475948095321655
aF63.63605213165283
aF76.2209370136261
aF88.63133692741394
aF88.98437714576721
aF104.02142715454102
aF106.02045202255249
aF120.92302012443542
aF123.79641699790955
aF124.14461207389832
aF124.37405514717102
aF126.22487115859985
aF129.1189579963684
aF129.45942902565002
aF132.07020592689514
aF146.46082615852356
aF148.22270011901855
aF149.08199000358582
aF161.7705090045929
aF164.31217312812805
aF166.76813793182373
aF181.3966190814972
aF183.30957508087158
aF195.69764494895935
aF196.9370379447937
aF198.19939398765564
aF212.59752893447876
aF226.752357006073
aF227.89919304847717
aF229.74955296516418
aF231.16876101493835
aF233.07435703277588
aF235.01405596733093
aF235.35025596618652
aF236.50867104530334
aF238.41345405578613
aF238.7168869972229
aF252.92945194244385
aF265.556932926178
aF266.8078770637512
aF269.53298807144165
aF269.7550070285797
aF283.7468321323395
aF296.891401052475
aF309.9987609386444
aF322.74419808387756
aF323.59607911109924
aF336.31873202323914
aF350.48622703552246
aF365.0212960243225
aF365.8801100254059
aF367.2129421234131
aF367.7050290107727
aF370.40837502479553
aF372.8872730731964
aF374.06512904167175
aF374.3621139526367
aF387.17588996887207
aF388.06291913986206
aF388.96108508110046
aF389.23589515686035
aF391.2351839542389
aF405.0069091320038
aF417.71853709220886
aF418.6416070461273
aF418.95640897750854
aF421.33828115463257
aF421.66366505622864
aF436.50635600090027
aF449.1577250957489
aF450.58074712753296
aF452.75823998451233
aF454.935919046402
aF467.33821201324463
aF470.6458671092987
aF483.322154045105
aF497.3835639953613
aF498.29454708099365
aF499.43715810775757
aF512.4231960773468
aF512.731586933136
aF515.1444730758667
aF528.2833280563354
aF542.5644929409027
aF557.2592570781708
aF569.8904719352722
aF570.4293079376221
aF573.6920261383057
aF574.2057859897614
aF575.6447999477386
aF588.2529230117798
aF588.4796259403229
aF603.1793251037598
aF604.1322021484375
asS'data_loc'
p4939
g92
sS'run'
p4940
I2
sg89
S'random_MCMC'
p4941
sb.