(iprototypes.random_based_mcmc1
random_MCMC
p0
(dp1
S'best_pipelines'
p2
(lp3
ccopy_reg
_reconstructor
p4
(cprototypes.data_analytic_pipeline
image_classification_pipeline
p5
c__builtin__
object
p6
Ntp7
Rp8
(dp9
S'f1_score'
p10
cnumpy.core.multiarray
scalar
p11
(cnumpy
dtype
p12
(S'f8'
p13
I0
I1
tp14
Rp15
(I3
S'<'
p16
NNNI-1
I-1
I0
tp17
bS'\x00\x00\x00\x00\x00\x00\xf8\xff'
p18
tp19
Rp20
sS'n_neighbors'
p21
g11
(g12
(S'i8'
p22
I0
I1
tp23
Rp24
(I3
S'<'
p25
NNNI-1
I-1
I0
tp26
bS'\x05\x00\x00\x00\x00\x00\x00\x00'
p27
tp28
Rp29
sS'data_name'
p30
S'bone'
p31
sS'kwargs'
p32
(dp33
g21
g29
sS'svm_C'
p34
g11
(g15
S'\xd8TEy\xa1\x0b$@'
p35
tp36
Rp37
sS'n_components'
p38
g11
(g24
S'\x03\x00\x00\x00\x00\x00\x00\x00'
p39
tp40
Rp41
sS'svm_gamma'
p42
g11
(g15
S"\xf7\x8e;'\xdco\x1e@"
p43
tp44
Rp45
ssg42
g45
sS'dimensionality_reduction'
p46
g11
(g12
(S'S6'
p47
I0
I1
tp48
Rp49
(I3
S'|'
p50
NNNI6
I1
I0
tp51
bS'ISOMAP'
p52
tp53
Rp54
sS'test_size'
p55
F0.2
sg38
g41
sS'feature_extraction'
p56
g11
(g12
(S'S3'
p57
I0
I1
tp58
Rp59
(I3
S'|'
p60
NNNI3
I1
I0
tp61
bS'VGG'
p62
tp63
Rp64
sg34
g37
sS'result'
p65
g11
(g15
S'\x17\xd0\x83\x8f\xec\t\xe3?'
p66
tp67
Rp68
sS'learning_algorithm'
p69
g11
(g12
(S'S3'
p70
I0
I1
tp71
Rp72
(I3
S'|'
p73
NNNI3
I1
I0
tp74
bS'SVM'
p75
tp76
Rp77
sS'val_splits'
p78
I3
sS'ml_type'
p79
S'validation'
p80
sS'accuracy'
p81
g11
(g15
S'\x88\x88\x88\x88\x88\x88\xe8?'
p82
tp83
Rp84
sS'type1'
p85
S'random1'
p86
sS'data_location'
p87
S'/gpfs/u/home/CGHI/CGHIarch/barn/EP_project/data/'
p88
sbag4
(g5
g6
Ntp89
Rp90
(dp91
g10
g11
(g15
S'\x00\x00\x00\x00\x00\x00\xf8\xff'
p92
tp93
Rp94
sS'n_estimators'
p95
g11
(g15
S'\x00\x00\x00\x00\x00\xc0p@'
p96
tp97
Rp98
sg30
g31
sg21
g11
(g24
S'\x06\x00\x00\x00\x00\x00\x00\x00'
p99
tp100
Rp101
sg32
(dp102
g95
g98
sg21
g101
sg38
g11
(g24
S'\x02\x00\x00\x00\x00\x00\x00\x00'
p103
tp104
Rp105
sS'max_features'
p106
g11
(g15
S'\xf1\x01\x11U\x91u\xd8?'
p107
tp108
Rp109
ssg46
g11
(g12
(S'S6'
p110
I0
I1
tp111
Rp112
(I3
S'|'
p113
NNNI6
I1
I0
tp114
bS'ISOMAP'
p115
tp116
Rp117
sg55
F0.2
sg38
g105
sg56
g11
(g12
(S'S3'
p118
I0
I1
tp119
Rp120
(I3
S'|'
p121
NNNI3
I1
I0
tp122
bS'VGG'
p123
tp124
Rp125
sg65
g11
(g15
S'\xd1\xb6\x8e\xf1\x84\xe1\xe1?'
p126
tp127
Rp128
sg69
g11
(g12
(S'S2'
p129
I0
I1
tp130
Rp131
(I3
S'|'
p132
NNNI2
I1
I0
tp133
bS'RF'
p134
tp135
Rp136
sg78
I3
sg106
g109
sg79
g80
sg81
g11
(g15
S'\x88\x88\x88\x88\x88\x88\xe8?'
p137
tp138
Rp139
sg85
g86
sg87
g88
sbag4
(g5
g6
Ntp140
Rp141
(dp142
g10
g11
(g15
S'\x00\x00\x00\x00\x00\x00\xf8\xff'
p143
tp144
Rp145
sg21
g11
(g24
S'\x03\x00\x00\x00\x00\x00\x00\x00'
p146
tp147
Rp148
sg30
g31
sg32
(dp149
g21
g148
sg34
g11
(g15
S'\xe2\x14_\x99C\xb9E@'
p150
tp151
Rp152
sg38
g11
(g24
S'\x04\x00\x00\x00\x00\x00\x00\x00'
p153
tp154
Rp155
sg42
g11
(g15
S'\xcel}z\xf2\x9f\xfa?'
p156
tp157
Rp158
ssg42
g158
sg46
g11
(g12
(S'S6'
p159
I0
I1
tp160
Rp161
(I3
S'|'
p162
NNNI6
I1
I0
tp163
bS'ISOMAP'
p164
tp165
Rp166
sg55
F0.2
sg38
g155
sg56
g11
(g12
(S'S9'
p167
I0
I1
tp168
Rp169
(I3
S'|'
p170
NNNI9
I1
I0
tp171
bS'inception'
p172
tp173
Rp174
sg34
g152
sg65
g11
(g15
S'\x11*\xce\x17\xfe\x13\xe1?'
p175
tp176
Rp177
sg69
g11
(g12
(S'S3'
p178
I0
I1
tp179
Rp180
(I3
S'|'
p181
NNNI3
I1
I0
tp182
bS'SVM'
p183
tp184
Rp185
sg78
I3
sg79
g80
sg81
g11
(g15
S'\rk\xdf\xb0\xf6\r\xe3?'
p186
tp187
Rp188
sg85
g86
sg87
g88
sbag4
(g5
g6
Ntp189
Rp190
(dp191
g10
g11
(g15
S'\x00\x00\x00\x00\x00\x00\xf8\xff'
p192
tp193
Rp194
sg21
g11
(g24
S'\x04\x00\x00\x00\x00\x00\x00\x00'
p195
tp196
Rp197
sg30
g31
sg32
(dp198
g21
g197
sg34
g11
(g15
S'\x8b\xf3l\x91\xd3QG@'
p199
tp200
Rp201
sS'haralick_distance'
p202
g11
(g24
S'\x02\x00\x00\x00\x00\x00\x00\x00'
p203
tp204
Rp205
sg38
g11
(g24
S'\x02\x00\x00\x00\x00\x00\x00\x00'
p206
tp207
Rp208
sg42
g11
(g15
S",'\xa6n\x86\xf7\xa8?"
p209
tp210
Rp211
ssg42
g211
sg46
g11
(g12
(S'S6'
p212
I0
I1
tp213
Rp214
(I3
S'|'
p215
NNNI6
I1
I0
tp216
bS'ISOMAP'
p217
tp218
Rp219
sg55
F0.2
sg38
g208
sg56
g11
(g12
(S'S8'
p220
I0
I1
tp221
Rp222
(I3
S'|'
p223
NNNI8
I1
I0
tp224
bS'haralick'
p225
tp226
Rp227
sg34
g201
sg202
g205
sg65
g11
(g15
S'0\xfc\x97\xc9\x18\x17\xdf?'
p228
tp229
Rp230
sg69
g11
(g12
(S'S3'
p231
I0
I1
tp232
Rp233
(I3
S'|'
p234
NNNI3
I1
I0
tp235
bS'SVM'
p236
tp237
Rp238
sg78
I3
sg79
g80
sg81
g11
(g15
S'\xed\x1b\xd6\xbea\xed\xe3?'
p239
tp240
Rp241
sg85
g86
sg87
g88
sbag4
(g5
g6
Ntp242
Rp243
(dp244
g10
g11
(g15
S'\x00\x00\x00\x00\x00\x00\xf8\xff'
p245
tp246
Rp247
sS'pca_whiten'
p248
g11
(g12
(S'b1'
p249
I0
I1
tp250
Rp251
(I3
S'|'
p252
NNNI-1
I-1
I0
tp253
bS'\x00'
p254
tp255
Rp256
sg30
g31
sg32
(dp257
g248
g256
sg34
g11
(g15
S'{\xd2\x8e\xa0\xc5\xddS@'
p258
tp259
Rp260
sg202
g11
(g24
S'\x01\x00\x00\x00\x00\x00\x00\x00'
p261
tp262
Rp263
sg42
g11
(g15
S'$Z\x9d\xbb]\x8a\xf4?'
p264
tp265
Rp266
ssg46
g11
(g12
(S'S3'
p267
I0
I1
tp268
Rp269
(I3
S'|'
p270
NNNI3
I1
I0
tp271
bS'PCA'
p272
tp273
Rp274
sg55
F0.2
sg42
g266
sg56
g11
(g12
(S'S8'
p275
I0
I1
tp276
Rp277
(I3
S'|'
p278
NNNI8
I1
I0
tp279
bS'haralick'
p280
tp281
Rp282
sg34
g260
sg202
g263
sg65
g11
(g15
S'\xa0\xe9\xb5=\xc7M\xde?'
p283
tp284
Rp285
sg69
g11
(g12
(S'S3'
p286
I0
I1
tp287
Rp288
(I3
S'|'
p289
NNNI3
I1
I0
tp290
bS'SVM'
p291
tp292
Rp293
sg78
I3
sg79
g80
sg81
g11
(g15
S'\x1c\xd6\xbea\xed\x1b\xe6?'
p294
tp295
Rp296
sg85
g86
sg87
g88
sbag4
(g5
g6
Ntp297
Rp298
(dp299
g10
g11
(g15
S'\x00\x00\x00\x00\x00\x00\xf8\xff'
p300
tp301
Rp302
sg95
g11
(g15
S'\x00\x00\x00\x00\x00\x00D@'
p303
tp304
Rp305
sg248
g11
(g251
S'\x01'
p306
tp307
Rp308
sg30
g31
sg32
(dp309
g95
g305
sg106
g11
(g15
S'|\x13\xa0\xbf{3\xec?'
p310
tp311
Rp312
sg248
g308
ssg46
g11
(g12
(S'S3'
p313
I0
I1
tp314
Rp315
(I3
S'|'
p316
NNNI3
I1
I0
tp317
bS'PCA'
p318
tp319
Rp320
sg55
F0.2
sg56
g11
(g12
(S'S3'
p321
I0
I1
tp322
Rp323
(I3
S'|'
p324
NNNI3
I1
I0
tp325
bS'VGG'
p326
tp327
Rp328
sg65
g11
(g15
S'\x10\xc6sb)\x9a\xd9?'
p329
tp330
Rp331
sg69
g11
(g12
(S'S2'
p332
I0
I1
tp333
Rp334
(I3
S'|'
p335
NNNI2
I1
I0
tp336
bS'RF'
p337
tp338
Rp339
sg78
I3
sg106
g312
sg79
g80
sg81
g11
(g15
S'\x91z\x1d\xa9\xd7\x91\xea?'
p340
tp341
Rp342
sg85
g86
sg87
g88
sbag4
(g5
g6
Ntp343
Rp344
(dp345
g10
g11
(g15
S'\x00\x00\x00\x00\x00\x00\xf8\xff'
p346
tp347
Rp348
sg95
g11
(g15
S'\x00\x00\x00\x00\x00@a@'
p349
tp350
Rp351
sg248
g256
sg30
g31
sg32
(dp352
g95
g351
sg106
g11
(g15
S'\xaa\x8b\x06\x99\xc7M\xea?'
p353
tp354
Rp355
sg248
g256
sg202
g11
(g24
S'\x03\x00\x00\x00\x00\x00\x00\x00'
p356
tp357
Rp358
ssg46
g11
(g12
(S'S3'
p359
I0
I1
tp360
Rp361
(I3
S'|'
p362
NNNI3
I1
I0
tp363
bS'PCA'
p364
tp365
Rp366
sg55
F0.2
sg56
g11
(g12
(S'S8'
p367
I0
I1
tp368
Rp369
(I3
S'|'
p370
NNNI8
I1
I0
tp371
bS'haralick'
p372
tp373
Rp374
sg202
g358
sg65
g11
(g15
S'\xb7\xca\xb2f\xcb\xd8\xd7?'
p375
tp376
Rp377
sg69
g11
(g12
(S'S2'
p378
I0
I1
tp379
Rp380
(I3
S'|'
p381
NNNI2
I1
I0
tp382
bS'RF'
p383
tp384
Rp385
sg78
I3
sg106
g355
sg79
g80
sg81
g11
(g15
S'\x9d\x12\xe4)A\x9e\xea?'
p386
tp387
Rp388
sg85
g86
sg87
g88
sbag4
(g5
g6
Ntp389
Rp390
(dp391
g10
g11
(g15
S'\x00\x00\x00\x00\x00\x00\xf8\xff'
p392
tp393
Rp394
sg95
g11
(g15
S'\x00\x00\x00\x00\x00\xc0p@'
p395
tp396
Rp397
sg248
g308
sg30
g31
sg32
(dp398
g95
g397
sg106
g11
(g15
S'v\x1e\x91:\x1bB\xe8?'
p399
tp400
Rp401
sg248
g308
sg202
g11
(g24
S'\x03\x00\x00\x00\x00\x00\x00\x00'
p402
tp403
Rp404
ssg46
g11
(g12
(S'S3'
p405
I0
I1
tp406
Rp407
(I3
S'|'
p408
NNNI3
I1
I0
tp409
bS'PCA'
p410
tp411
Rp412
sg55
F0.2
sg56
g11
(g12
(S'S8'
p413
I0
I1
tp414
Rp415
(I3
S'|'
p416
NNNI8
I1
I0
tp417
bS'haralick'
p418
tp419
Rp420
sg202
g404
sg65
g11
(g15
S'\x8b\x01\xff\xca\xdf\xb7\xd6?'
p421
tp422
Rp423
sg69
g11
(g12
(S'S2'
p424
I0
I1
tp425
Rp426
(I3
S'|'
p427
NNNI2
I1
I0
tp428
bS'RF'
p429
tp430
Rp431
sg78
I3
sg106
g401
sg79
g80
sg81
g11
(g15
S'\x1b\x03\xa61`\x1a\xeb?'
p432
tp433
Rp434
sg85
g86
sg87
g88
sbasS'paths'
p435
(lp436
(lp437
S'VGG'
p438
aS'PCA'
p439
aS'SVM'
p440
aa(lp441
g438
ag439
aS'RF'
p442
aa(lp443
g438
aS'ISOMAP'
p444
ag440
aa(lp445
g438
ag444
ag442
aa(lp446
S'haralick'
p447
ag439
ag440
aa(lp448
g447
ag439
ag442
aa(lp449
g447
ag444
ag440
aa(lp450
g447
ag444
ag442
aa(lp451
S'inception'
p452
ag439
ag440
aa(lp453
g452
ag439
ag442
aa(lp454
g452
ag444
ag440
aa(lp455
g452
ag444
ag442
aasS'pipeline'
p456
(dp457
g21
(lp458
I3
aI4
aI5
aI6
aI7
asg248
(lp459
I01
aI00
asg95
cnumpy.core.multiarray
_reconstruct
p460
(cnumpy
ndarray
p461
(I0
tp462
S'b'
p463
tp464
Rp465
(I1
(I10
tp466
g15
I00
S'\x00\x00\x00\x00\x00\x00 @\x00\x00\x00\x00\x00\x00D@\x00\x00\x00\x00\x00@R@\x00\x00\x00\x00\x00@Z@\x00\x00\x00\x00\x00@a@\x00\x00\x00\x00\x00@e@\x00\x00\x00\x00\x00`i@\x00\x00\x00\x00\x00`m@\x00\x00\x00\x00\x00\xc0p@\x00\x00\x00\x00\x00\xc0r@'
p467
tp468
bsg46
(lp469
g439
ag444
asg42
g460
(g461
(I0
tp470
g463
tp471
Rp472
(I1
(I10
tp473
g15
I00
S"{\x14\xaeG\xe1z\x84?\x102Tv\x98\xba\xec?\xe7\xd5\xc4\xb3\xa2\x91\xfc?b\xc9/\x96\xfcb\x05@\xd2'}\xd2'}\x0c@!Ce\x87\xa9\xcb\x11@X\xf2\x8b%\xbfX\x15@\x90\xa1\xb2\xc3\xd4\xe5\x18@\xc8P\xd9a\xear\x1c@\x00\x00\x00\x00\x00\x00 @"
p474
tp475
bsg56
(lp476
g438
ag447
ag452
asg202
(lp477
I1
aI2
aI3
asg38
(lp478
I2
aI3
aI4
asg69
(lp479
g440
ag442
asg106
g460
(g461
(I0
tp480
g463
tp481
Rp482
(I1
(I5
tp483
g15
I00
S'333333\xd3?\x9a\x99\x99\x99\x99\x99\xd9?\x00\x00\x00\x00\x00\x00\xe0?433333\xe3?hfffff\xe6?'
p484
tp485
bsg34
g460
(g461
(I0
tp486
g463
tp487
Rp488
(I1
(I10
tp489
g15
I00
S'\x9a\x99\x99\x99\x99\x99\xb9?gfffff&@\xce\xcc\xcc\xcc\xccL6@43333\xb3@@\x01\x00\x00\x00\x00@F@\xce\xcc\xcc\xcc\xcc\xccK@\xcd\xcc\xcc\xcc\xcc\xacP@43333sS@\x9a\x99\x99\x99\x999V@\x00\x00\x00\x00\x00\x00Y@'
p490
tp491
bssS'pipelines'
p492
(lp493
g8
ag90
ag4
(g5
g6
Ntp494
Rp495
(dp496
g10
g11
(g15
S'\x00\x00\x00\x00\x00\x00\xf8\xff'
p497
tp498
Rp499
sg21
g11
(g24
S'\x03\x00\x00\x00\x00\x00\x00\x00'
p500
tp501
Rp502
sg30
g31
sg32
(dp503
g21
g502
sg34
g11
(g15
S'mk\x10S\xb7\x1d+@'
p504
tp505
Rp506
sg38
g11
(g24
S'\x03\x00\x00\x00\x00\x00\x00\x00'
p507
tp508
Rp509
sg42
g11
(g15
S'\xd5.\x0e3\x9d:\x18@'
p510
tp511
Rp512
ssg42
g512
sg46
g11
(g12
(S'S6'
p513
I0
I1
tp514
Rp515
(I3
S'|'
p516
NNNI6
I1
I0
tp517
bS'ISOMAP'
p518
tp519
Rp520
sg55
F0.2
sg38
g509
sg56
g11
(g12
(S'S9'
p521
I0
I1
tp522
Rp523
(I3
S'|'
p524
NNNI9
I1
I0
tp525
bS'inception'
p526
tp527
Rp528
sg34
g506
sg65
g11
(g15
S'\x11j|W=\xe6\xe1?'
p529
tp530
Rp531
sg69
g11
(g12
(S'S3'
p532
I0
I1
tp533
Rp534
(I3
S'|'
p535
NNNI3
I1
I0
tp536
bS'SVM'
p537
tp538
Rp539
sg78
I3
sg79
g80
sg81
g11
(g15
S'\xf5:R\xaf#\xf5\xe2?'
p540
tp541
Rp542
sg85
g86
sg87
g88
sbag4
(g5
g6
Ntp543
Rp544
(dp545
g10
g11
(g15
S'\x00\x00\x00\x00\x00\x00\xf8\xff'
p546
tp547
Rp548
sg21
g11
(g24
S'\x07\x00\x00\x00\x00\x00\x00\x00'
p549
tp550
Rp551
sg30
g31
sg32
(dp552
g21
g551
sg34
g11
(g15
S'\x1b\xfa\xd7\xc9Z\xdf!@'
p553
tp554
Rp555
sg38
g11
(g24
S'\x04\x00\x00\x00\x00\x00\x00\x00'
p556
tp557
Rp558
sg42
g11
(g15
S'\xc9\xa3\x9a(\x9d\xe5\x1b@'
p559
tp560
Rp561
ssg42
g561
sg46
g11
(g12
(S'S6'
p562
I0
I1
tp563
Rp564
(I3
S'|'
p565
NNNI6
I1
I0
tp566
bS'ISOMAP'
p567
tp568
Rp569
sg55
F0.2
sg38
g558
sg56
g11
(g12
(S'S9'
p570
I0
I1
tp571
Rp572
(I3
S'|'
p573
NNNI9
I1
I0
tp574
bS'inception'
p575
tp576
Rp577
sg34
g555
sg65
g11
(g15
S'\xe6Z^\xc2~*\xe5?'
p578
tp579
Rp580
sg69
g11
(g12
(S'S3'
p581
I0
I1
tp582
Rp583
(I3
S'|'
p584
NNNI3
I1
I0
tp585
bS'SVM'
p586
tp587
Rp588
sg78
I3
sg79
g80
sg81
g11
(g15
S'\x15\x8a[\xa1\xb8\x15\xe2?'
p589
tp590
Rp591
sg85
g86
sg87
g88
sbag141
ag190
ag4
(g5
g6
Ntp592
Rp593
(dp594
g10
g11
(g15
S'\x00\x00\x00\x00\x00\x00\xf8\xff'
p595
tp596
Rp597
sg21
g11
(g24
S'\x04\x00\x00\x00\x00\x00\x00\x00'
p598
tp599
Rp600
sg30
g31
sg32
(dp601
g21
g600
sg34
g11
(g15
S'^-a\xda\xfbPP@'
p602
tp603
Rp604
sg38
g11
(g24
S'\x03\x00\x00\x00\x00\x00\x00\x00'
p605
tp606
Rp607
sg42
g11
(g15
S'\xfc\x8e\xf1\xf4\xb4H\x0e@'
p608
tp609
Rp610
ssg42
g610
sg46
g11
(g12
(S'S6'
p611
I0
I1
tp612
Rp613
(I3
S'|'
p614
NNNI6
I1
I0
tp615
bS'ISOMAP'
p616
tp617
Rp618
sg55
F0.2
sg38
g607
sg56
g11
(g12
(S'S9'
p619
I0
I1
tp620
Rp621
(I3
S'|'
p622
NNNI9
I1
I0
tp623
bS'inception'
p624
tp625
Rp626
sg34
g604
sg65
g11
(g15
S'"\xe7\xe8\xf6X\xc5\xe2?'
p627
tp628
Rp629
sg69
g11
(g12
(S'S3'
p630
I0
I1
tp631
Rp632
(I3
S'|'
p633
NNNI3
I1
I0
tp634
bS'SVM'
p635
tp636
Rp637
sg78
I3
sg79
g80
sg81
g11
(g15
S'\x17]t\xd1E\x17\xe5?'
p638
tp639
Rp640
sg85
g86
sg87
g88
sbag4
(g5
g6
Ntp641
Rp642
(dp643
g10
g11
(g15
S'\x00\x00\x00\x00\x00\x00\xf8\xff'
p644
tp645
Rp646
sg248
g308
sg30
g31
sg32
(dp647
g248
g308
sg34
g11
(g15
S'X+x\x92e\xa23@'
p648
tp649
Rp650
sg42
g11
(g15
S'\xda3\xb9\x10\xcb\xea\x17@'
p651
tp652
Rp653
ssg46
g11
(g12
(S'S3'
p654
I0
I1
tp655
Rp656
(I3
S'|'
p657
NNNI3
I1
I0
tp658
bS'PCA'
p659
tp660
Rp661
sg55
F0.2
sg42
g653
sg56
g11
(g12
(S'S3'
p662
I0
I1
tp663
Rp664
(I3
S'|'
p665
NNNI3
I1
I0
tp666
bS'VGG'
p667
tp668
Rp669
sg34
g650
sg65
g11
(g15
S'\x03\x9a\x1a\xcd\x85\xd6\xe0?'
p670
tp671
Rp672
sg69
g11
(g12
(S'S3'
p673
I0
I1
tp674
Rp675
(I3
S'|'
p676
NNNI3
I1
I0
tp677
bS'SVM'
p678
tp679
Rp680
sg78
I3
sg79
g80
sg81
g11
(g15
S'\x05yJ\x90\xa7\x04\xe9?'
p681
tp682
Rp683
sg85
g86
sg87
g88
sbag4
(g5
g6
Ntp684
Rp685
(dp686
g10
g11
(g15
S'\x00\x00\x00\x00\x00\x00\xf8\xff'
p687
tp688
Rp689
sg95
g11
(g15
S'\x00\x00\x00\x00\x00\xc0r@'
p690
tp691
Rp692
sg248
g256
sg30
g31
sg32
(dp693
g95
g692
sg106
g11
(g15
S"4\x02\x1b\xb8J'\xe6?"
p694
tp695
Rp696
sg248
g256
ssg46
g11
(g12
(S'S3'
p697
I0
I1
tp698
Rp699
(I3
S'|'
p700
NNNI3
I1
I0
tp701
bS'PCA'
p702
tp703
Rp704
sg55
F0.2
sg56
g11
(g12
(S'S9'
p705
I0
I1
tp706
Rp707
(I3
S'|'
p708
NNNI9
I1
I0
tp709
bS'inception'
p710
tp711
Rp712
sg65
g11
(g15
S"\xf1'\xb22\xa3>\xe1?"
p713
tp714
Rp715
sg69
g11
(g12
(S'S2'
p716
I0
I1
tp717
Rp718
(I3
S'|'
p719
NNNI2
I1
I0
tp720
bS'RF'
p721
tp722
Rp723
sg78
I3
sg106
g696
sg79
g80
sg81
g11
(g15
S'\x190\x8d\x01\xd3\x18\xe8?'
p724
tp725
Rp726
sg85
g86
sg87
g88
sbag4
(g5
g6
Ntp727
Rp728
(dp729
g10
g11
(g15
S'\x00\x00\x00\x00\x00\x00\xf8\xff'
p730
tp731
Rp732
sg248
g256
sg30
g31
sg32
(dp733
g248
g256
sg34
g11
(g15
S'\xafoU\xeaM\xf6)@'
p734
tp735
Rp736
sg202
g11
(g24
S'\x03\x00\x00\x00\x00\x00\x00\x00'
p737
tp738
Rp739
sg42
g11
(g15
S'Q\xba\x84\xef]r\x03@'
p740
tp741
Rp742
ssg46
g11
(g12
(S'S3'
p743
I0
I1
tp744
Rp745
(I3
S'|'
p746
NNNI3
I1
I0
tp747
bS'PCA'
p748
tp749
Rp750
sg55
F0.2
sg42
g742
sg56
g11
(g12
(S'S8'
p751
I0
I1
tp752
Rp753
(I3
S'|'
p754
NNNI8
I1
I0
tp755
bS'haralick'
p756
tp757
Rp758
sg34
g736
sg202
g739
sg65
g11
(g15
S'@\xed\xeb\x05\xd8F\xdf?'
p759
tp760
Rp761
sg69
g11
(g12
(S'S3'
p762
I0
I1
tp763
Rp764
(I3
S'|'
p765
NNNI3
I1
I0
tp766
bS'SVM'
p767
tp768
Rp769
sg78
I3
sg79
g80
sg81
g11
(g15
S'\x9bl\xb2\xc9&\x9b\xe4?'
p770
tp771
Rp772
sg85
g86
sg87
g88
sbag4
(g5
g6
Ntp773
Rp774
(dp775
g10
g11
(g15
S'\x00\x00\x00\x00\x00\x00\xf8\xff'
p776
tp777
Rp778
sg95
g11
(g15
S'\x00\x00\x00\x00\x00@Z@'
p779
tp780
Rp781
sg248
g308
sg30
g31
sg32
(dp782
g95
g781
sg106
g11
(g15
S'\xf8\x0b\xc0\xbcM(\xe8?'
p783
tp784
Rp785
sg248
g308
sg202
g11
(g24
S'\x01\x00\x00\x00\x00\x00\x00\x00'
p786
tp787
Rp788
ssg46
g11
(g12
(S'S3'
p789
I0
I1
tp790
Rp791
(I3
S'|'
p792
NNNI3
I1
I0
tp793
bS'PCA'
p794
tp795
Rp796
sg55
F0.2
sg56
g11
(g12
(S'S8'
p797
I0
I1
tp798
Rp799
(I3
S'|'
p800
NNNI8
I1
I0
tp801
bS'haralick'
p802
tp803
Rp804
sg202
g788
sg65
g11
(g15
S'\x91\x13|\xa9\xdb\xef\xfa?'
p805
tp806
Rp807
sg69
g11
(g12
(S'S2'
p808
I0
I1
tp809
Rp810
(I3
S'|'
p811
NNNI2
I1
I0
tp812
bS'RF'
p813
tp814
Rp815
sg78
I3
sg106
g785
sg79
g80
sg81
g11
(g15
S'\x1c\xd6\xbea\xed\x1b\xe6?'
p816
tp817
Rp818
sg85
g86
sg87
g88
sbag4
(g5
g6
Ntp819
Rp820
(dp821
g10
g11
(g15
S'\x00\x00\x00\x00\x00\x00\xf8\xff'
p822
tp823
Rp824
sg21
g11
(g24
S'\x06\x00\x00\x00\x00\x00\x00\x00'
p825
tp826
Rp827
sg30
g31
sg32
(dp828
g21
g827
sg34
g11
(g15
S'\xfb\x10\x99\x08\x02\xf4\xf1?'
p829
tp830
Rp831
sg38
g11
(g24
S'\x03\x00\x00\x00\x00\x00\x00\x00'
p832
tp833
Rp834
sg42
g11
(g15
S'73\xce\x1d\xfa\xce\xf5?'
p835
tp836
Rp837
ssg42
g837
sg46
g11
(g12
(S'S6'
p838
I0
I1
tp839
Rp840
(I3
S'|'
p841
NNNI6
I1
I0
tp842
bS'ISOMAP'
p843
tp844
Rp845
sg55
F0.2
sg38
g834
sg56
g11
(g12
(S'S3'
p846
I0
I1
tp847
Rp848
(I3
S'|'
p849
NNNI3
I1
I0
tp850
bS'VGG'
p851
tp852
Rp853
sg34
g831
sg65
g11
(g15
S'\xfc\xad\xa7\x18}\xfa\xe2?'
p854
tp855
Rp856
sg69
g11
(g12
(S'S3'
p857
I0
I1
tp858
Rp859
(I3
S'|'
p860
NNNI3
I1
I0
tp861
bS'SVM'
p862
tp863
Rp864
sg78
I3
sg79
g80
sg81
g11
(g15
S'\x15\xb7Bq+\x14\xe7?'
p865
tp866
Rp867
sg85
g86
sg87
g88
sbag4
(g5
g6
Ntp868
Rp869
(dp870
g10
g11
(g15
S'\x00\x00\x00\x00\x00\x00\xf8\xff'
p871
tp872
Rp873
sg95
g11
(g15
S'\x00\x00\x00\x00\x00@Z@'
p874
tp875
Rp876
sg248
g256
sg30
g31
sg32
(dp877
g95
g876
sg106
g11
(g15
S'\xc5\xb0\xae\xc2\xae \xe8?'
p878
tp879
Rp880
sg248
g256
sg202
g11
(g24
S'\x01\x00\x00\x00\x00\x00\x00\x00'
p881
tp882
Rp883
ssg46
g11
(g12
(S'S3'
p884
I0
I1
tp885
Rp886
(I3
S'|'
p887
NNNI3
I1
I0
tp888
bS'PCA'
p889
tp890
Rp891
sg55
F0.2
sg56
g11
(g12
(S'S8'
p892
I0
I1
tp893
Rp894
(I3
S'|'
p895
NNNI8
I1
I0
tp896
bS'haralick'
p897
tp898
Rp899
sg202
g883
sg65
g11
(g15
S'\xa0\xf1R\x96Px\xfa?'
p900
tp901
Rp902
sg69
g11
(g12
(S'S2'
p903
I0
I1
tp904
Rp905
(I3
S'|'
p906
NNNI2
I1
I0
tp907
bS'RF'
p908
tp909
Rp910
sg78
I3
sg106
g880
sg79
g80
sg81
g11
(g15
S'\x1c\xd6\xbea\xed\x1b\xe6?'
p911
tp912
Rp913
sg85
g86
sg87
g88
sbag4
(g5
g6
Ntp914
Rp915
(dp916
g10
g11
(g15
S'\x00\x00\x00\x00\x00\x00\xf8\xff'
p917
tp918
Rp919
sg95
g11
(g15
S'\x00\x00\x00\x00\x00`m@'
p920
tp921
Rp922
sg30
g31
sg21
g11
(g24
S'\x04\x00\x00\x00\x00\x00\x00\x00'
p923
tp924
Rp925
sg32
(dp926
g95
g922
sg21
g925
sg38
g11
(g24
S'\x04\x00\x00\x00\x00\x00\x00\x00'
p927
tp928
Rp929
sg106
g11
(g15
S'\xeaY\x81i\xd9\xab\xef?'
p930
tp931
Rp932
ssg46
g11
(g12
(S'S6'
p933
I0
I1
tp934
Rp935
(I3
S'|'
p936
NNNI6
I1
I0
tp937
bS'ISOMAP'
p938
tp939
Rp940
sg55
F0.2
sg38
g929
sg56
g11
(g12
(S'S9'
p941
I0
I1
tp942
Rp943
(I3
S'|'
p944
NNNI9
I1
I0
tp945
bS'inception'
p946
tp947
Rp948
sg65
g11
(g15
S'\xac\xaa\xa9u\x83\t\xe2?'
p949
tp950
Rp951
sg69
g11
(g12
(S'S2'
p952
I0
I1
tp953
Rp954
(I3
S'|'
p955
NNNI2
I1
I0
tp956
bS'RF'
p957
tp958
Rp959
sg78
I3
sg106
g932
sg79
g80
sg81
g11
(g15
S'\x190\x8d\x01\xd3\x18\xe8?'
p960
tp961
Rp962
sg85
g86
sg87
g88
sbag4
(g5
g6
Ntp963
Rp964
(dp965
g10
g11
(g15
S'\x00\x00\x00\x00\x00\x00\xf8\xff'
p966
tp967
Rp968
sg21
g11
(g24
S'\x07\x00\x00\x00\x00\x00\x00\x00'
p969
tp970
Rp971
sg30
g31
sg32
(dp972
g21
g971
sg34
g11
(g15
S'Q\xb8q\xc6\x8dzF@'
p973
tp974
Rp975
sg38
g11
(g24
S'\x02\x00\x00\x00\x00\x00\x00\x00'
p976
tp977
Rp978
sg42
g11
(g15
S'\x11\xc4\x00\xbb\xe8\xa4\x13@'
p979
tp980
Rp981
ssg42
g981
sg46
g11
(g12
(S'S6'
p982
I0
I1
tp983
Rp984
(I3
S'|'
p985
NNNI6
I1
I0
tp986
bS'ISOMAP'
p987
tp988
Rp989
sg55
F0.2
sg38
g978
sg56
g11
(g12
(S'S9'
p990
I0
I1
tp991
Rp992
(I3
S'|'
p993
NNNI9
I1
I0
tp994
bS'inception'
p995
tp996
Rp997
sg34
g975
sg65
g11
(g15
S'\x9c\xcag\t;\x0e\xe3?'
p998
tp999
Rp1000
sg69
g11
(g12
(S'S3'
p1001
I0
I1
tp1002
Rp1003
(I3
S'|'
p1004
NNNI3
I1
I0
tp1005
bS'SVM'
p1006
tp1007
Rp1008
sg78
I3
sg79
g80
sg81
g11
(g15
S'\x8b[\xa1\xb8\x15\x8a\xe3?'
p1009
tp1010
Rp1011
sg85
g86
sg87
g88
sbag4
(g5
g6
Ntp1012
Rp1013
(dp1014
g10
g11
(g15
S'\x00\x00\x00\x00\x00\x00\xf8\xff'
p1015
tp1016
Rp1017
sg21
g11
(g24
S'\x05\x00\x00\x00\x00\x00\x00\x00'
p1018
tp1019
Rp1020
sg30
g31
sg32
(dp1021
g21
g1020
sg34
g11
(g15
S'O\xff\x18\x14\xdd\xbc\x15@'
p1022
tp1023
Rp1024
sg38
g11
(g24
S'\x02\x00\x00\x00\x00\x00\x00\x00'
p1025
tp1026
Rp1027
sg42
g11
(g15
S'(\x0b\x81\x98?M\x1c@'
p1028
tp1029
Rp1030
ssg42
g1030
sg46
g11
(g12
(S'S6'
p1031
I0
I1
tp1032
Rp1033
(I3
S'|'
p1034
NNNI6
I1
I0
tp1035
bS'ISOMAP'
p1036
tp1037
Rp1038
sg55
F0.2
sg38
g1027
sg56
g11
(g12
(S'S3'
p1039
I0
I1
tp1040
Rp1041
(I3
S'|'
p1042
NNNI3
I1
I0
tp1043
bS'VGG'
p1044
tp1045
Rp1046
sg34
g1024
sg65
g11
(g15
S'\xb9\xafx\xb65_\xe1?'
p1047
tp1048
Rp1049
sg69
g11
(g12
(S'S3'
p1050
I0
I1
tp1051
Rp1052
(I3
S'|'
p1053
NNNI3
I1
I0
tp1054
bS'SVM'
p1055
tp1056
Rp1057
sg78
I3
sg79
g80
sg81
g11
(g15
S'(n\x85\xe2V(\xe6?'
p1058
tp1059
Rp1060
sg85
g86
sg87
g88
sbag4
(g5
g6
Ntp1061
Rp1062
(dp1063
g10
g11
(g15
S'\x00\x00\x00\x00\x00\x00\xf8\xff'
p1064
tp1065
Rp1066
sg248
g256
sg30
g31
sg32
(dp1067
g248
g256
sg34
g11
(g15
S'\xec\xf1\x8di\r\xaf@@'
p1068
tp1069
Rp1070
sg42
g11
(g15
S'\xe5\xbc1\x16\x83K\x18@'
p1071
tp1072
Rp1073
ssg46
g11
(g12
(S'S3'
p1074
I0
I1
tp1075
Rp1076
(I3
S'|'
p1077
NNNI3
I1
I0
tp1078
bS'PCA'
p1079
tp1080
Rp1081
sg55
F0.2
sg42
g1073
sg56
g11
(g12
(S'S3'
p1082
I0
I1
tp1083
Rp1084
(I3
S'|'
p1085
NNNI3
I1
I0
tp1086
bS'VGG'
p1087
tp1088
Rp1089
sg34
g1070
sg65
g11
(g15
S'\xbd\x171\xd9^\xd9\xe0?'
p1090
tp1091
Rp1092
sg69
g11
(g12
(S'S3'
p1093
I0
I1
tp1094
Rp1095
(I3
S'|'
p1096
NNNI3
I1
I0
tp1097
bS'SVM'
p1098
tp1099
Rp1100
sg78
I3
sg79
g80
sg81
g11
(g15
S'\x05yJ\x90\xa7\x04\xe9?'
p1101
tp1102
Rp1103
sg85
g86
sg87
g88
sbag243
ag4
(g5
g6
Ntp1104
Rp1105
(dp1106
g10
g11
(g15
S'\x00\x00\x00\x00\x00\x00\xf8\xff'
p1107
tp1108
Rp1109
sg248
g256
sg30
g31
sg32
(dp1110
g248
g256
sg34
g11
(g15
S'\x04\xb0fS{\t\x10@'
p1111
tp1112
Rp1113
sg42
g11
(g15
S'\xec\t,\xb6\xaf;\xf5?'
p1114
tp1115
Rp1116
ssg46
g11
(g12
(S'S3'
p1117
I0
I1
tp1118
Rp1119
(I3
S'|'
p1120
NNNI3
I1
I0
tp1121
bS'PCA'
p1122
tp1123
Rp1124
sg55
F0.2
sg42
g1116
sg56
g11
(g12
(S'S9'
p1125
I0
I1
tp1126
Rp1127
(I3
S'|'
p1128
NNNI9
I1
I0
tp1129
bS'inception'
p1130
tp1131
Rp1132
sg34
g1113
sg65
g11
(g15
S'\xfbm~u\xaf\xcf\xe3?'
p1133
tp1134
Rp1135
sg69
g11
(g12
(S'S3'
p1136
I0
I1
tp1137
Rp1138
(I3
S'|'
p1139
NNNI3
I1
I0
tp1140
bS'SVM'
p1141
tp1142
Rp1143
sg78
I3
sg79
g80
sg81
g11
(g15
S'\x9bl\xb2\xc9&\x9b\xe4?'
p1144
tp1145
Rp1146
sg85
g86
sg87
g88
sbag4
(g5
g6
Ntp1147
Rp1148
(dp1149
g10
g11
(g15
S'\x00\x00\x00\x00\x00\x00\xf8\xff'
p1150
tp1151
Rp1152
sg95
g11
(g15
S'\x00\x00\x00\x00\x00\x00 @'
p1153
tp1154
Rp1155
sg30
g31
sg21
g11
(g24
S'\x06\x00\x00\x00\x00\x00\x00\x00'
p1156
tp1157
Rp1158
sg32
(dp1159
g95
g1155
sg21
g1158
sg202
g11
(g24
S'\x02\x00\x00\x00\x00\x00\x00\x00'
p1160
tp1161
Rp1162
sg38
g11
(g24
S'\x04\x00\x00\x00\x00\x00\x00\x00'
p1163
tp1164
Rp1165
sg106
g11
(g15
S'\xf3\xa6E\x84\xa0\xbb\xd7?'
p1166
tp1167
Rp1168
ssg46
g11
(g12
(S'S6'
p1169
I0
I1
tp1170
Rp1171
(I3
S'|'
p1172
NNNI6
I1
I0
tp1173
bS'ISOMAP'
p1174
tp1175
Rp1176
sg55
F0.2
sg38
g1165
sg56
g11
(g12
(S'S8'
p1177
I0
I1
tp1178
Rp1179
(I3
S'|'
p1180
NNNI8
I1
I0
tp1181
bS'haralick'
p1182
tp1183
Rp1184
sg202
g1162
sg65
g11
(g15
S'\xb5\xb6\xc7\xdb\x12\xdb\xff?'
p1185
tp1186
Rp1187
sg69
g11
(g12
(S'S2'
p1188
I0
I1
tp1189
Rp1190
(I3
S'|'
p1191
NNNI2
I1
I0
tp1192
bS'RF'
p1193
tp1194
Rp1195
sg78
I3
sg106
g1168
sg79
g80
sg81
g11
(g15
S'\x11\x11\x11\x11\x11\x11\xe9?'
p1196
tp1197
Rp1198
sg85
g86
sg87
g88
sbag4
(g5
g6
Ntp1199
Rp1200
(dp1201
g10
g11
(g15
S'\x00\x00\x00\x00\x00\x00\xf8\xff'
p1202
tp1203
Rp1204
sg95
g11
(g15
S'\x00\x00\x00\x00\x00\xc0r@'
p1205
tp1206
Rp1207
sg248
g256
sg30
g31
sg32
(dp1208
g95
g1207
sg106
g11
(g15
S'?\x87\x87e\xd5[\xe5?'
p1209
tp1210
Rp1211
sg248
g256
ssg46
g11
(g12
(S'S3'
p1212
I0
I1
tp1213
Rp1214
(I3
S'|'
p1215
NNNI3
I1
I0
tp1216
bS'PCA'
p1217
tp1218
Rp1219
sg55
F0.2
sg56
g11
(g12
(S'S9'
p1220
I0
I1
tp1221
Rp1222
(I3
S'|'
p1223
NNNI9
I1
I0
tp1224
bS'inception'
p1225
tp1226
Rp1227
sg65
g11
(g15
S'H\xcc\xe9\x00\xe7u\xe1?'
p1228
tp1229
Rp1230
sg69
g11
(g12
(S'S2'
p1231
I0
I1
tp1232
Rp1233
(I3
S'|'
p1234
NNNI2
I1
I0
tp1235
bS'RF'
p1236
tp1237
Rp1238
sg78
I3
sg106
g1211
sg79
g80
sg81
g11
(g15
S'\x15\xb7Bq+\x14\xe7?'
p1239
tp1240
Rp1241
sg85
g86
sg87
g88
sbag4
(g5
g6
Ntp1242
Rp1243
(dp1244
g10
g11
(g15
S'\x00\x00\x00\x00\x00\x00\xf8\xff'
p1245
tp1246
Rp1247
sg248
g256
sg30
g31
sg32
(dp1248
g248
g256
sg34
g11
(g15
S'\xecq\xfd$?*@@'
p1249
tp1250
Rp1251
sg202
g11
(g24
S'\x01\x00\x00\x00\x00\x00\x00\x00'
p1252
tp1253
Rp1254
sg42
g11
(g15
S'\x1f\x885+.\xac\xeb?'
p1255
tp1256
Rp1257
ssg46
g11
(g12
(S'S3'
p1258
I0
I1
tp1259
Rp1260
(I3
S'|'
p1261
NNNI3
I1
I0
tp1262
bS'PCA'
p1263
tp1264
Rp1265
sg55
F0.2
sg42
g1257
sg56
g11
(g12
(S'S8'
p1266
I0
I1
tp1267
Rp1268
(I3
S'|'
p1269
NNNI8
I1
I0
tp1270
bS'haralick'
p1271
tp1272
Rp1273
sg34
g1251
sg202
g1254
sg65
g11
(g15
S'(\x08\xfe\x1e\x81.\xdf?'
p1274
tp1275
Rp1276
sg69
g11
(g12
(S'S3'
p1277
I0
I1
tp1278
Rp1279
(I3
S'|'
p1280
NNNI3
I1
I0
tp1281
bS'SVM'
p1282
tp1283
Rp1284
sg78
I3
sg79
g80
sg81
g11
(g15
S'\x17]t\xd1E\x17\xe5?'
p1285
tp1286
Rp1287
sg85
g86
sg87
g88
sbag4
(g5
g6
Ntp1288
Rp1289
(dp1290
g10
g11
(g15
S'\x00\x00\x00\x00\x00\x00\xf8\xff'
p1291
tp1292
Rp1293
sg95
g11
(g15
S'\x00\x00\x00\x00\x00`m@'
p1294
tp1295
Rp1296
sg248
g256
sg30
g31
sg32
(dp1297
g95
g1296
sg106
g11
(g15
S'\xa8Gr\xcf\xf8\x8d\xe3?'
p1298
tp1299
Rp1300
sg248
g256
ssg46
g11
(g12
(S'S3'
p1301
I0
I1
tp1302
Rp1303
(I3
S'|'
p1304
NNNI3
I1
I0
tp1305
bS'PCA'
p1306
tp1307
Rp1308
sg55
F0.2
sg56
g11
(g12
(S'S9'
p1309
I0
I1
tp1310
Rp1311
(I3
S'|'
p1312
NNNI9
I1
I0
tp1313
bS'inception'
p1314
tp1315
Rp1316
sg65
g11
(g15
S'Us\xdf\xb1\x04P\xe0?'
p1317
tp1318
Rp1319
sg69
g11
(g12
(S'S2'
p1320
I0
I1
tp1321
Rp1322
(I3
S'|'
p1323
NNNI2
I1
I0
tp1324
bS'RF'
p1325
tp1326
Rp1327
sg78
I3
sg106
g1300
sg79
g80
sg81
g11
(g15
S'\x190\x8d\x01\xd3\x18\xe8?'
p1328
tp1329
Rp1330
sg85
g86
sg87
g88
sbag298
ag4
(g5
g6
Ntp1331
Rp1332
(dp1333
g10
g11
(g15
S'\x00\x00\x00\x00\x00\x00\xf8\xff'
p1334
tp1335
Rp1336
sg248
g256
sg30
g31
sg32
(dp1337
g248
g256
sg34
g11
(g15
S"\xdcbJ'\xbe\xfcU@"
p1338
tp1339
Rp1340
sg42
g11
(g15
S'q8^\xe3\t\x15\x0e@'
p1341
tp1342
Rp1343
ssg46
g11
(g12
(S'S3'
p1344
I0
I1
tp1345
Rp1346
(I3
S'|'
p1347
NNNI3
I1
I0
tp1348
bS'PCA'
p1349
tp1350
Rp1351
sg55
F0.2
sg42
g1343
sg56
g11
(g12
(S'S9'
p1352
I0
I1
tp1353
Rp1354
(I3
S'|'
p1355
NNNI9
I1
I0
tp1356
bS'inception'
p1357
tp1358
Rp1359
sg34
g1340
sg65
g11
(g15
S'\x00\r\xa6C\xee\xf7\xe0?'
p1360
tp1361
Rp1362
sg69
g11
(g12
(S'S3'
p1363
I0
I1
tp1364
Rp1365
(I3
S'|'
p1366
NNNI3
I1
I0
tp1367
bS'SVM'
p1368
tp1369
Rp1370
sg78
I3
sg79
g80
sg81
g11
(g15
S'\x0b\xc5\xadP\xdc\n\xe5?'
p1371
tp1372
Rp1373
sg85
g86
sg87
g88
sbag4
(g5
g6
Ntp1374
Rp1375
(dp1376
g10
g11
(g15
S'\x00\x00\x00\x00\x00\x00\xf8\xff'
p1377
tp1378
Rp1379
sg95
g11
(g15
S'\x00\x00\x00\x00\x00@e@'
p1380
tp1381
Rp1382
sg30
g31
sg21
g11
(g24
S'\x06\x00\x00\x00\x00\x00\x00\x00'
p1383
tp1384
Rp1385
sg32
(dp1386
g95
g1382
sg21
g1385
sg38
g11
(g24
S'\x02\x00\x00\x00\x00\x00\x00\x00'
p1387
tp1388
Rp1389
sg106
g11
(g15
S'\xcd\xac\x87\x944@\xe0?'
p1390
tp1391
Rp1392
ssg46
g11
(g12
(S'S6'
p1393
I0
I1
tp1394
Rp1395
(I3
S'|'
p1396
NNNI6
I1
I0
tp1397
bS'ISOMAP'
p1398
tp1399
Rp1400
sg55
F0.2
sg38
g1389
sg56
g11
(g12
(S'S9'
p1401
I0
I1
tp1402
Rp1403
(I3
S'|'
p1404
NNNI9
I1
I0
tp1405
bS'inception'
p1406
tp1407
Rp1408
sg65
g11
(g15
S'\xe8\xeaO\x8dB\xc1\xf1?'
p1409
tp1410
Rp1411
sg69
g11
(g12
(S'S2'
p1412
I0
I1
tp1413
Rp1414
(I3
S'|'
p1415
NNNI2
I1
I0
tp1416
bS'RF'
p1417
tp1418
Rp1419
sg78
I3
sg106
g1392
sg79
g80
sg81
g11
(g15
S'\x87\xb5oX\xfb\x86\xe5?'
p1420
tp1421
Rp1422
sg85
g86
sg87
g88
sbag4
(g5
g6
Ntp1423
Rp1424
(dp1425
g10
g11
(g15
S'\x00\x00\x00\x00\x00\x00\xf8\xff'
p1426
tp1427
Rp1428
sg21
g11
(g24
S'\x03\x00\x00\x00\x00\x00\x00\x00'
p1429
tp1430
Rp1431
sg30
g31
sg32
(dp1432
g21
g1431
sg34
g11
(g15
S'U\x9cl-\x93jS@'
p1433
tp1434
Rp1435
sg38
g11
(g24
S'\x03\x00\x00\x00\x00\x00\x00\x00'
p1436
tp1437
Rp1438
sg42
g11
(g15
S'8+S\xb7\xb8a\x12@'
p1439
tp1440
Rp1441
ssg42
g1441
sg46
g11
(g12
(S'S6'
p1442
I0
I1
tp1443
Rp1444
(I3
S'|'
p1445
NNNI6
I1
I0
tp1446
bS'ISOMAP'
p1447
tp1448
Rp1449
sg55
F0.2
sg38
g1438
sg56
g11
(g12
(S'S9'
p1450
I0
I1
tp1451
Rp1452
(I3
S'|'
p1453
NNNI9
I1
I0
tp1454
bS'inception'
p1455
tp1456
Rp1457
sg34
g1435
sg65
g11
(g15
S'\xe8\xc2\xd4\xf8\xa3\xe3\xe0?'
p1458
tp1459
Rp1460
sg69
g11
(g12
(S'S3'
p1461
I0
I1
tp1462
Rp1463
(I3
S'|'
p1464
NNNI3
I1
I0
tp1465
bS'SVM'
p1466
tp1467
Rp1468
sg78
I3
sg79
g80
sg81
g11
(g15
S'm\xb2\xc9&\x9bl\xe2?'
p1469
tp1470
Rp1471
sg85
g86
sg87
g88
sbag4
(g5
g6
Ntp1472
Rp1473
(dp1474
g10
g11
(g15
S'\x00\x00\x00\x00\x00\x00\xf8\xff'
p1475
tp1476
Rp1477
sg248
g308
sg30
g31
sg32
(dp1478
g248
g308
sg34
g11
(g15
S'\x8a\x936\x93\xe6hG@'
p1479
tp1480
Rp1481
sg42
g11
(g15
S'w\xd3\x1c\x97\xb0\xa3\xf2?'
p1482
tp1483
Rp1484
ssg46
g11
(g12
(S'S3'
p1485
I0
I1
tp1486
Rp1487
(I3
S'|'
p1488
NNNI3
I1
I0
tp1489
bS'PCA'
p1490
tp1491
Rp1492
sg55
F0.2
sg42
g1484
sg56
g11
(g12
(S'S3'
p1493
I0
I1
tp1494
Rp1495
(I3
S'|'
p1496
NNNI3
I1
I0
tp1497
bS'VGG'
p1498
tp1499
Rp1500
sg34
g1481
sg65
g11
(g15
S'fF\xd9\xb1\x15\r\xe1?'
p1501
tp1502
Rp1503
sg69
g11
(g12
(S'S3'
p1504
I0
I1
tp1505
Rp1506
(I3
S'|'
p1507
NNNI3
I1
I0
tp1508
bS'SVM'
p1509
tp1510
Rp1511
sg78
I3
sg79
g80
sg81
g11
(g15
S'\x88\x88\x88\x88\x88\x88\xe8?'
p1512
tp1513
Rp1514
sg85
g86
sg87
g88
sbag4
(g5
g6
Ntp1515
Rp1516
(dp1517
g10
g11
(g15
S'\x00\x00\x00\x00\x00\x00\xf8\xff'
p1518
tp1519
Rp1520
sg248
g308
sg30
g31
sg32
(dp1521
g248
g308
sg34
g11
(g15
S"\xaf\xb8\x1b'\xf5N3@"
p1522
tp1523
Rp1524
sg202
g11
(g24
S'\x03\x00\x00\x00\x00\x00\x00\x00'
p1525
tp1526
Rp1527
sg42
g11
(g15
S'\x0b\x81W\x81\xb5]\t@'
p1528
tp1529
Rp1530
ssg46
g11
(g12
(S'S3'
p1531
I0
I1
tp1532
Rp1533
(I3
S'|'
p1534
NNNI3
I1
I0
tp1535
bS'PCA'
p1536
tp1537
Rp1538
sg55
F0.2
sg42
g1530
sg56
g11
(g12
(S'S8'
p1539
I0
I1
tp1540
Rp1541
(I3
S'|'
p1542
NNNI8
I1
I0
tp1543
bS'haralick'
p1544
tp1545
Rp1546
sg34
g1524
sg202
g1527
sg65
g11
(g15
S"4`;\xc7W'\xe0?"
p1547
tp1548
Rp1549
sg69
g11
(g12
(S'S3'
p1550
I0
I1
tp1551
Rp1552
(I3
S'|'
p1553
NNNI3
I1
I0
tp1554
bS'SVM'
p1555
tp1556
Rp1557
sg78
I3
sg79
g80
sg81
g11
(g15
S'\x9bl\xb2\xc9&\x9b\xe4?'
p1558
tp1559
Rp1560
sg85
g86
sg87
g88
sbag4
(g5
g6
Ntp1561
Rp1562
(dp1563
g10
g11
(g15
S'\x00\x00\x00\x00\x00\x00\xf8\xff'
p1564
tp1565
Rp1566
sg21
g11
(g24
S'\x04\x00\x00\x00\x00\x00\x00\x00'
p1567
tp1568
Rp1569
sg30
g31
sg32
(dp1570
g21
g1569
sg34
g11
(g15
S'\x91\xd7\xd0n\xe3BX@'
p1571
tp1572
Rp1573
sg38
g11
(g24
S'\x04\x00\x00\x00\x00\x00\x00\x00'
p1574
tp1575
Rp1576
sg42
g11
(g15
S'\xecQ\x1b\xb9\x89\xc0\x0c@'
p1577
tp1578
Rp1579
ssg42
g1579
sg46
g11
(g12
(S'S6'
p1580
I0
I1
tp1581
Rp1582
(I3
S'|'
p1583
NNNI6
I1
I0
tp1584
bS'ISOMAP'
p1585
tp1586
Rp1587
sg55
F0.2
sg38
g1576
sg56
g11
(g12
(S'S3'
p1588
I0
I1
tp1589
Rp1590
(I3
S'|'
p1591
NNNI3
I1
I0
tp1592
bS'VGG'
p1593
tp1594
Rp1595
sg34
g1573
sg65
g11
(g15
S'\xd1\x1f\xe4\xf1?J\xe0?'
p1596
tp1597
Rp1598
sg69
g11
(g12
(S'S3'
p1599
I0
I1
tp1600
Rp1601
(I3
S'|'
p1602
NNNI3
I1
I0
tp1603
bS'SVM'
p1604
tp1605
Rp1606
sg78
I3
sg79
g80
sg81
g11
(g15
S'|\xf0\xc1\x07\x1f|\xe8?'
p1607
tp1608
Rp1609
sg85
g86
sg87
g88
sbag4
(g5
g6
Ntp1610
Rp1611
(dp1612
g10
g11
(g15
S'\x00\x00\x00\x00\x00\x00\xf8\xff'
p1613
tp1614
Rp1615
sg95
g11
(g15
S'\x00\x00\x00\x00\x00@R@'
p1616
tp1617
Rp1618
sg248
g256
sg30
g31
sg32
(dp1619
g95
g1618
sg106
g11
(g15
S'F\t.\xbf\x80\x94\xef?'
p1620
tp1621
Rp1622
sg248
g256
ssg46
g11
(g12
(S'S3'
p1623
I0
I1
tp1624
Rp1625
(I3
S'|'
p1626
NNNI3
I1
I0
tp1627
bS'PCA'
p1628
tp1629
Rp1630
sg55
F0.2
sg56
g11
(g12
(S'S9'
p1631
I0
I1
tp1632
Rp1633
(I3
S'|'
p1634
NNNI9
I1
I0
tp1635
bS'inception'
p1636
tp1637
Rp1638
sg65
g11
(g15
S'\xd9j2]\xc8\x18\xe3?'
p1639
tp1640
Rp1641
sg69
g11
(g12
(S'S2'
p1642
I0
I1
tp1643
Rp1644
(I3
S'|'
p1645
NNNI2
I1
I0
tp1646
bS'RF'
p1647
tp1648
Rp1649
sg78
I3
sg106
g1622
sg79
g80
sg81
g11
(g15
S'\x88\x88\x88\x88\x88\x88\xe8?'
p1650
tp1651
Rp1652
sg85
g86
sg87
g88
sbag4
(g5
g6
Ntp1653
Rp1654
(dp1655
g10
g11
(g15
S'\x00\x00\x00\x00\x00\x00\xf8\xff'
p1656
tp1657
Rp1658
sg248
g308
sg30
g31
sg32
(dp1659
g248
g308
sg34
g11
(g15
S'p|U@I\x1aG@'
p1660
tp1661
Rp1662
sg42
g11
(g15
S'\xa8\xca\xf5b\xb9\x92\xf4?'
p1663
tp1664
Rp1665
ssg46
g11
(g12
(S'S3'
p1666
I0
I1
tp1667
Rp1668
(I3
S'|'
p1669
NNNI3
I1
I0
tp1670
bS'PCA'
p1671
tp1672
Rp1673
sg55
F0.2
sg42
g1665
sg56
g11
(g12
(S'S9'
p1674
I0
I1
tp1675
Rp1676
(I3
S'|'
p1677
NNNI9
I1
I0
tp1678
bS'inception'
p1679
tp1680
Rp1681
sg34
g1662
sg65
g11
(g15
S'm-\xa3\xf566\xe2?'
p1682
tp1683
Rp1684
sg69
g11
(g12
(S'S3'
p1685
I0
I1
tp1686
Rp1687
(I3
S'|'
p1688
NNNI3
I1
I0
tp1689
bS'SVM'
p1690
tp1691
Rp1692
sg78
I3
sg79
g80
sg81
g11
(g15
S'\x8e\xd4\xebH\xbd\x8e\xe4?'
p1693
tp1694
Rp1695
sg85
g86
sg87
g88
sbag4
(g5
g6
Ntp1696
Rp1697
(dp1698
g10
g11
(g15
S'\x00\x00\x00\x00\x00\x00\xf8\xff'
p1699
tp1700
Rp1701
sg95
g11
(g15
S'\x00\x00\x00\x00\x00\xc0p@'
p1702
tp1703
Rp1704
sg248
g256
sg30
g31
sg32
(dp1705
g95
g1704
sg106
g11
(g15
S'\xca\xf5\xfd\xd1\xb6{\xe9?'
p1706
tp1707
Rp1708
sg248
g256
ssg46
g11
(g12
(S'S3'
p1709
I0
I1
tp1710
Rp1711
(I3
S'|'
p1712
NNNI3
I1
I0
tp1713
bS'PCA'
p1714
tp1715
Rp1716
sg55
F0.2
sg56
g11
(g12
(S'S3'
p1717
I0
I1
tp1718
Rp1719
(I3
S'|'
p1720
NNNI3
I1
I0
tp1721
bS'VGG'
p1722
tp1723
Rp1724
sg65
g11
(g15
S'\xe5\xf7\xcb\x9c\xa8l\xdb?'
p1725
tp1726
Rp1727
sg69
g11
(g12
(S'S2'
p1728
I0
I1
tp1729
Rp1730
(I3
S'|'
p1731
NNNI2
I1
I0
tp1732
bS'RF'
p1733
tp1734
Rp1735
sg78
I3
sg106
g1708
sg79
g80
sg81
g11
(g15
S'\x8d\x01\xd3\x180\x8d\xe9?'
p1736
tp1737
Rp1738
sg85
g86
sg87
g88
sbag4
(g5
g6
Ntp1739
Rp1740
(dp1741
g10
g11
(g15
S'\x00\x00\x00\x00\x00\x00\xf8\xff'
p1742
tp1743
Rp1744
sg248
g308
sg30
g31
sg32
(dp1745
g248
g308
sg34
g11
(g15
S'M[\xed\x13S-K@'
p1746
tp1747
Rp1748
sg42
g11
(g15
S'\xd7"R\xa5Fw\x1c@'
p1749
tp1750
Rp1751
ssg46
g11
(g12
(S'S3'
p1752
I0
I1
tp1753
Rp1754
(I3
S'|'
p1755
NNNI3
I1
I0
tp1756
bS'PCA'
p1757
tp1758
Rp1759
sg55
F0.2
sg42
g1751
sg56
g11
(g12
(S'S3'
p1760
I0
I1
tp1761
Rp1762
(I3
S'|'
p1763
NNNI3
I1
I0
tp1764
bS'VGG'
p1765
tp1766
Rp1767
sg34
g1748
sg65
g11
(g15
S'\xfbV\xc9\x1f\x08\xd6\xe0?'
p1768
tp1769
Rp1770
sg69
g11
(g12
(S'S3'
p1771
I0
I1
tp1772
Rp1773
(I3
S'|'
p1774
NNNI3
I1
I0
tp1775
bS'SVM'
p1776
tp1777
Rp1778
sg78
I3
sg79
g80
sg81
g11
(g15
S'\x05yJ\x90\xa7\x04\xe9?'
p1779
tp1780
Rp1781
sg85
g86
sg87
g88
sbag4
(g5
g6
Ntp1782
Rp1783
(dp1784
g10
g11
(g15
S'\x00\x00\x00\x00\x00\x00\xf8\xff'
p1785
tp1786
Rp1787
sg95
g11
(g15
S'\x00\x00\x00\x00\x00\xc0p@'
p1788
tp1789
Rp1790
sg30
g31
sg21
g11
(g24
S'\x04\x00\x00\x00\x00\x00\x00\x00'
p1791
tp1792
Rp1793
sg32
(dp1794
g95
g1790
sg21
g1793
sg38
g11
(g24
S'\x03\x00\x00\x00\x00\x00\x00\x00'
p1795
tp1796
Rp1797
sg106
g11
(g15
S'R*\x1c\x10\xb6d\xe0?'
p1798
tp1799
Rp1800
ssg46
g11
(g12
(S'S6'
p1801
I0
I1
tp1802
Rp1803
(I3
S'|'
p1804
NNNI6
I1
I0
tp1805
bS'ISOMAP'
p1806
tp1807
Rp1808
sg55
F0.2
sg38
g1797
sg56
g11
(g12
(S'S9'
p1809
I0
I1
tp1810
Rp1811
(I3
S'|'
p1812
NNNI9
I1
I0
tp1813
bS'inception'
p1814
tp1815
Rp1816
sg65
g11
(g15
S'\xf7\xdf\x86\xae\xaaH\xe3?'
p1817
tp1818
Rp1819
sg69
g11
(g12
(S'S2'
p1820
I0
I1
tp1821
Rp1822
(I3
S'|'
p1823
NNNI2
I1
I0
tp1824
bS'RF'
p1825
tp1826
Rp1827
sg78
I3
sg106
g1800
sg79
g80
sg81
g11
(g15
S'!O\t\xf2\x94 \xe7?'
p1828
tp1829
Rp1830
sg85
g86
sg87
g88
sbag4
(g5
g6
Ntp1831
Rp1832
(dp1833
g10
g11
(g15
S'\x00\x00\x00\x00\x00\x00\xf8\xff'
p1834
tp1835
Rp1836
sg95
g11
(g15
S'\x00\x00\x00\x00\x00\xc0p@'
p1837
tp1838
Rp1839
sg30
g31
sg21
g11
(g24
S'\x05\x00\x00\x00\x00\x00\x00\x00'
p1840
tp1841
Rp1842
sg32
(dp1843
g95
g1839
sg21
g1842
sg38
g11
(g24
S'\x04\x00\x00\x00\x00\x00\x00\x00'
p1844
tp1845
Rp1846
sg106
g11
(g15
S'\x99\xeagwA\x18\xd6?'
p1847
tp1848
Rp1849
ssg46
g11
(g12
(S'S6'
p1850
I0
I1
tp1851
Rp1852
(I3
S'|'
p1853
NNNI6
I1
I0
tp1854
bS'ISOMAP'
p1855
tp1856
Rp1857
sg55
F0.2
sg38
g1846
sg56
g11
(g12
(S'S3'
p1858
I0
I1
tp1859
Rp1860
(I3
S'|'
p1861
NNNI3
I1
I0
tp1862
bS'VGG'
p1863
tp1864
Rp1865
sg65
g11
(g15
S'\x87\x18)\x89\xa1\x19\xde?'
p1866
tp1867
Rp1868
sg69
g11
(g12
(S'S2'
p1869
I0
I1
tp1870
Rp1871
(I3
S'|'
p1872
NNNI2
I1
I0
tp1873
bS'RF'
p1874
tp1875
Rp1876
sg78
I3
sg106
g1849
sg79
g80
sg81
g11
(g15
S'\x15\xb7Bq+\x14\xe7?'
p1877
tp1878
Rp1879
sg85
g86
sg87
g88
sbag4
(g5
g6
Ntp1880
Rp1881
(dp1882
g10
g11
(g15
S'\x00\x00\x00\x00\x00\x00\xf8\xff'
p1883
tp1884
Rp1885
sg248
g256
sg30
g31
sg32
(dp1886
g248
g256
sg34
g11
(g15
S"<\xba'\xd8>*I@"
p1887
tp1888
Rp1889
sg202
g11
(g24
S'\x01\x00\x00\x00\x00\x00\x00\x00'
p1890
tp1891
Rp1892
sg42
g11
(g15
S'\xd9-g\x13\x81\xc3\x1b@'
p1893
tp1894
Rp1895
ssg46
g11
(g12
(S'S3'
p1896
I0
I1
tp1897
Rp1898
(I3
S'|'
p1899
NNNI3
I1
I0
tp1900
bS'PCA'
p1901
tp1902
Rp1903
sg55
F0.2
sg42
g1895
sg56
g11
(g12
(S'S8'
p1904
I0
I1
tp1905
Rp1906
(I3
S'|'
p1907
NNNI8
I1
I0
tp1908
bS'haralick'
p1909
tp1910
Rp1911
sg34
g1889
sg202
g1892
sg65
g11
(g15
S'\xab\xce\n4\x87\x9a\xdf?'
p1912
tp1913
Rp1914
sg69
g11
(g12
(S'S3'
p1915
I0
I1
tp1916
Rp1917
(I3
S'|'
p1918
NNNI3
I1
I0
tp1919
bS'SVM'
p1920
tp1921
Rp1922
sg78
I3
sg79
g80
sg81
g11
(g15
S'\x1f|\xf0\xc1\x07\x1f\xe4?'
p1923
tp1924
Rp1925
sg85
g86
sg87
g88
sbag4
(g5
g6
Ntp1926
Rp1927
(dp1928
g10
g11
(g15
S'\x00\x00\x00\x00\x00\x00\xf8\xff'
p1929
tp1930
Rp1931
sg248
g256
sg30
g31
sg32
(dp1932
g248
g256
sg34
g11
(g15
S'B]\xeb\xc9f:4@'
p1933
tp1934
Rp1935
sg42
g11
(g15
S'R\xa1N\x9c\xb0\xe1\x16@'
p1936
tp1937
Rp1938
ssg46
g11
(g12
(S'S3'
p1939
I0
I1
tp1940
Rp1941
(I3
S'|'
p1942
NNNI3
I1
I0
tp1943
bS'PCA'
p1944
tp1945
Rp1946
sg55
F0.2
sg42
g1938
sg56
g11
(g12
(S'S3'
p1947
I0
I1
tp1948
Rp1949
(I3
S'|'
p1950
NNNI3
I1
I0
tp1951
bS'VGG'
p1952
tp1953
Rp1954
sg34
g1935
sg65
g11
(g15
S']\xd75\xec\xac\xd0\xe0?'
p1955
tp1956
Rp1957
sg69
g11
(g12
(S'S3'
p1958
I0
I1
tp1959
Rp1960
(I3
S'|'
p1961
NNNI3
I1
I0
tp1962
bS'SVM'
p1963
tp1964
Rp1965
sg78
I3
sg79
g80
sg81
g11
(g15
S'\x05yJ\x90\xa7\x04\xe9?'
p1966
tp1967
Rp1968
sg85
g86
sg87
g88
sbag344
ag4
(g5
g6
Ntp1969
Rp1970
(dp1971
g10
g11
(g15
S'\x00\x00\x00\x00\x00\x00\xf8\xff'
p1972
tp1973
Rp1974
sg248
g256
sg30
g31
sg32
(dp1975
g248
g256
sg34
g11
(g15
S'\xaa\xaf\x85\xcf\xbf\xe01@'
p1976
tp1977
Rp1978
sg42
g11
(g15
S'\xd12\x9b\xbd\x03o\x1f@'
p1979
tp1980
Rp1981
ssg46
g11
(g12
(S'S3'
p1982
I0
I1
tp1983
Rp1984
(I3
S'|'
p1985
NNNI3
I1
I0
tp1986
bS'PCA'
p1987
tp1988
Rp1989
sg55
F0.2
sg42
g1981
sg56
g11
(g12
(S'S9'
p1990
I0
I1
tp1991
Rp1992
(I3
S'|'
p1993
NNNI9
I1
I0
tp1994
bS'inception'
p1995
tp1996
Rp1997
sg34
g1978
sg65
g11
(g15
S'\x18\xfa\xf2\xb1\xac\x12\xe2?'
p1998
tp1999
Rp2000
sg69
g11
(g12
(S'S3'
p2001
I0
I1
tp2002
Rp2003
(I3
S'|'
p2004
NNNI3
I1
I0
tp2005
bS'SVM'
p2006
tp2007
Rp2008
sg78
I3
sg79
g80
sg81
g11
(g15
S'\xff,\xe7\xcfr\xfe\xe4?'
p2009
tp2010
Rp2011
sg85
g86
sg87
g88
sbag4
(g5
g6
Ntp2012
Rp2013
(dp2014
g10
g11
(g15
S'\x00\x00\x00\x00\x00\x00\xf8\xff'
p2015
tp2016
Rp2017
sg248
g256
sg30
g31
sg32
(dp2018
g248
g256
sg34
g11
(g15
S'>#Mry\rT@'
p2019
tp2020
Rp2021
sg42
g11
(g15
S'\xcf5\x9c\xd16\xfa\x11@'
p2022
tp2023
Rp2024
ssg46
g11
(g12
(S'S3'
p2025
I0
I1
tp2026
Rp2027
(I3
S'|'
p2028
NNNI3
I1
I0
tp2029
bS'PCA'
p2030
tp2031
Rp2032
sg55
F0.2
sg42
g2024
sg56
g11
(g12
(S'S9'
p2033
I0
I1
tp2034
Rp2035
(I3
S'|'
p2036
NNNI9
I1
I0
tp2037
bS'inception'
p2038
tp2039
Rp2040
sg34
g2021
sg65
g11
(g15
S'\x93\x03\x82\x8a8S\xe2?'
p2041
tp2042
Rp2043
sg69
g11
(g12
(S'S3'
p2044
I0
I1
tp2045
Rp2046
(I3
S'|'
p2047
NNNI3
I1
I0
tp2048
bS'SVM'
p2049
tp2050
Rp2051
sg78
I3
sg79
g80
sg81
g11
(g15
S'\x0b\xc5\xadP\xdc\n\xe5?'
p2052
tp2053
Rp2054
sg85
g86
sg87
g88
sbag4
(g5
g6
Ntp2055
Rp2056
(dp2057
g10
g11
(g15
S'\x00\x00\x00\x00\x00\x00\xf8\xff'
p2058
tp2059
Rp2060
sg95
g11
(g15
S'\x00\x00\x00\x00\x00`m@'
p2061
tp2062
Rp2063
sg248
g256
sg30
g31
sg32
(dp2064
g95
g2063
sg106
g11
(g15
S'h\xe8\xc9o\x00\xd8\xe2?'
p2065
tp2066
Rp2067
sg248
g256
ssg46
g11
(g12
(S'S3'
p2068
I0
I1
tp2069
Rp2070
(I3
S'|'
p2071
NNNI3
I1
I0
tp2072
bS'PCA'
p2073
tp2074
Rp2075
sg55
F0.2
sg56
g11
(g12
(S'S9'
p2076
I0
I1
tp2077
Rp2078
(I3
S'|'
p2079
NNNI9
I1
I0
tp2080
bS'inception'
p2081
tp2082
Rp2083
sg65
g11
(g15
S'U\x1bV\xc6\xf6\x16\xe1?'
p2084
tp2085
Rp2086
sg69
g11
(g12
(S'S2'
p2087
I0
I1
tp2088
Rp2089
(I3
S'|'
p2090
NNNI2
I1
I0
tp2091
bS'RF'
p2092
tp2093
Rp2094
sg78
I3
sg106
g2067
sg79
g80
sg81
g11
(g15
S'\r\x98\xc6\x80i\x0c\xe8?'
p2095
tp2096
Rp2097
sg85
g86
sg87
g88
sbag4
(g5
g6
Ntp2098
Rp2099
(dp2100
g10
g11
(g15
S'\x00\x00\x00\x00\x00\x00\xf8\xff'
p2101
tp2102
Rp2103
sg248
g308
sg30
g31
sg32
(dp2104
g248
g308
sg34
g11
(g15
S'\x0c\xa8\x84?\xd4HP@'
p2105
tp2106
Rp2107
sg42
g11
(g15
S'\xf8\xb6"w\xeaU\x15@'
p2108
tp2109
Rp2110
ssg46
g11
(g12
(S'S3'
p2111
I0
I1
tp2112
Rp2113
(I3
S'|'
p2114
NNNI3
I1
I0
tp2115
bS'PCA'
p2116
tp2117
Rp2118
sg55
F0.2
sg42
g2110
sg56
g11
(g12
(S'S3'
p2119
I0
I1
tp2120
Rp2121
(I3
S'|'
p2122
NNNI3
I1
I0
tp2123
bS'VGG'
p2124
tp2125
Rp2126
sg34
g2107
sg65
g11
(g15
S'\xdd\xbd\x92cc\xda\xe0?'
p2127
tp2128
Rp2129
sg69
g11
(g12
(S'S3'
p2130
I0
I1
tp2131
Rp2132
(I3
S'|'
p2133
NNNI3
I1
I0
tp2134
bS'SVM'
p2135
tp2136
Rp2137
sg78
I3
sg79
g80
sg81
g11
(g15
S'\x05yJ\x90\xa7\x04\xe9?'
p2138
tp2139
Rp2140
sg85
g86
sg87
g88
sbag4
(g5
g6
Ntp2141
Rp2142
(dp2143
g10
g11
(g15
S'\x00\x00\x00\x00\x00\x00\xf8\xff'
p2144
tp2145
Rp2146
sg21
g11
(g24
S'\x07\x00\x00\x00\x00\x00\x00\x00'
p2147
tp2148
Rp2149
sg30
g31
sg32
(dp2150
g21
g2149
sg34
g11
(g15
S'S\x92\x10\xb6\xe3\x0cB@'
p2151
tp2152
Rp2153
sg202
g11
(g24
S'\x01\x00\x00\x00\x00\x00\x00\x00'
p2154
tp2155
Rp2156
sg38
g11
(g24
S'\x02\x00\x00\x00\x00\x00\x00\x00'
p2157
tp2158
Rp2159
sg42
g11
(g15
S'\xea\x96A]\x9aD\x08@'
p2160
tp2161
Rp2162
ssg42
g2162
sg46
g11
(g12
(S'S6'
p2163
I0
I1
tp2164
Rp2165
(I3
S'|'
p2166
NNNI6
I1
I0
tp2167
bS'ISOMAP'
p2168
tp2169
Rp2170
sg55
F0.2
sg38
g2159
sg56
g11
(g12
(S'S8'
p2171
I0
I1
tp2172
Rp2173
(I3
S'|'
p2174
NNNI8
I1
I0
tp2175
bS'haralick'
p2176
tp2177
Rp2178
sg34
g2153
sg202
g2156
sg65
g11
(g15
S'\xe9\xc83C\x9f\x11\xde?'
p2179
tp2180
Rp2181
sg69
g11
(g12
(S'S3'
p2182
I0
I1
tp2183
Rp2184
(I3
S'|'
p2185
NNNI3
I1
I0
tp2186
bS'SVM'
p2187
tp2188
Rp2189
sg78
I3
sg79
g80
sg81
g11
(g15
S'\x190\x8d\x01\xd3\x18\xe8?'
p2190
tp2191
Rp2192
sg85
g86
sg87
g88
sbag4
(g5
g6
Ntp2193
Rp2194
(dp2195
g10
g11
(g15
S'\x00\x00\x00\x00\x00\x00\xf8\xff'
p2196
tp2197
Rp2198
sg95
g11
(g15
S'\x00\x00\x00\x00\x00\x00 @'
p2199
tp2200
Rp2201
sg248
g256
sg30
g31
sg32
(dp2202
g95
g2201
sg106
g11
(g15
S'pH\xcf\x8ba\xfc\xdc?'
p2203
tp2204
Rp2205
sg248
g256
ssg46
g11
(g12
(S'S3'
p2206
I0
I1
tp2207
Rp2208
(I3
S'|'
p2209
NNNI3
I1
I0
tp2210
bS'PCA'
p2211
tp2212
Rp2213
sg55
F0.2
sg56
g11
(g12
(S'S9'
p2214
I0
I1
tp2215
Rp2216
(I3
S'|'
p2217
NNNI9
I1
I0
tp2218
bS'inception'
p2219
tp2220
Rp2221
sg65
g11
(g15
S'\xd5(\x84\xb7\xa3]\x00@'
p2222
tp2223
Rp2224
sg69
g11
(g12
(S'S2'
p2225
I0
I1
tp2226
Rp2227
(I3
S'|'
p2228
NNNI2
I1
I0
tp2229
bS'RF'
p2230
tp2231
Rp2232
sg78
I3
sg106
g2205
sg79
g80
sg81
g11
(g15
S'\xa0\xe5\xfcY\xce\x9f\xe5?'
p2233
tp2234
Rp2235
sg85
g86
sg87
g88
sbag4
(g5
g6
Ntp2236
Rp2237
(dp2238
g10
g11
(g15
S'\x00\x00\x00\x00\x00\x00\xf8\xff'
p2239
tp2240
Rp2241
sg248
g308
sg30
g31
sg32
(dp2242
g248
g308
sg34
g11
(g15
S"\xd8.G'M\xc6I@"
p2243
tp2244
Rp2245
sg202
g11
(g24
S'\x02\x00\x00\x00\x00\x00\x00\x00'
p2246
tp2247
Rp2248
sg42
g11
(g15
S'\x18\xca\xb5\xb7\xd1)\x1c@'
p2249
tp2250
Rp2251
ssg46
g11
(g12
(S'S3'
p2252
I0
I1
tp2253
Rp2254
(I3
S'|'
p2255
NNNI3
I1
I0
tp2256
bS'PCA'
p2257
tp2258
Rp2259
sg55
F0.2
sg42
g2251
sg56
g11
(g12
(S'S8'
p2260
I0
I1
tp2261
Rp2262
(I3
S'|'
p2263
NNNI8
I1
I0
tp2264
bS'haralick'
p2265
tp2266
Rp2267
sg34
g2245
sg202
g2248
sg65
g11
(g15
S'\x84[N[\x10C\xdf?'
p2268
tp2269
Rp2270
sg69
g11
(g12
(S'S3'
p2271
I0
I1
tp2272
Rp2273
(I3
S'|'
p2274
NNNI3
I1
I0
tp2275
bS'SVM'
p2276
tp2277
Rp2278
sg78
I3
sg79
g80
sg81
g11
(g15
S'\xa3\x8b.\xba\xe8\xa2\xe3?'
p2279
tp2280
Rp2281
sg85
g86
sg87
g88
sbag4
(g5
g6
Ntp2282
Rp2283
(dp2284
g10
g11
(g15
S'\x00\x00\x00\x00\x00\x00\xf8\xff'
p2285
tp2286
Rp2287
sg21
g11
(g24
S'\x06\x00\x00\x00\x00\x00\x00\x00'
p2288
tp2289
Rp2290
sg30
g31
sg32
(dp2291
g21
g2290
sg34
g11
(g15
S'\xea\xd7{\xd6\x01_4@'
p2292
tp2293
Rp2294
sg38
g11
(g24
S'\x02\x00\x00\x00\x00\x00\x00\x00'
p2295
tp2296
Rp2297
sg42
g11
(g15
S')\x9f8\x9a\xa1\x81\xf7?'
p2298
tp2299
Rp2300
ssg42
g2300
sg46
g11
(g12
(S'S6'
p2301
I0
I1
tp2302
Rp2303
(I3
S'|'
p2304
NNNI6
I1
I0
tp2305
bS'ISOMAP'
p2306
tp2307
Rp2308
sg55
F0.2
sg38
g2297
sg56
g11
(g12
(S'S9'
p2309
I0
I1
tp2310
Rp2311
(I3
S'|'
p2312
NNNI9
I1
I0
tp2313
bS'inception'
p2314
tp2315
Rp2316
sg34
g2294
sg65
g11
(g15
S'\xc7\xd7o\x97\x16o\xe4?'
p2317
tp2318
Rp2319
sg69
g11
(g12
(S'S3'
p2320
I0
I1
tp2321
Rp2322
(I3
S'|'
p2323
NNNI3
I1
I0
tp2324
bS'SVM'
p2325
tp2326
Rp2327
sg78
I3
sg79
g80
sg81
g11
(g15
S't\xd1E\x17]t\xe1?'
p2328
tp2329
Rp2330
sg85
g86
sg87
g88
sbag4
(g5
g6
Ntp2331
Rp2332
(dp2333
g10
g11
(g15
S'\x00\x00\x00\x00\x00\x00\xf8\xff'
p2334
tp2335
Rp2336
sg95
g11
(g15
S'\x00\x00\x00\x00\x00@R@'
p2337
tp2338
Rp2339
sg30
g31
sg21
g11
(g24
S'\x07\x00\x00\x00\x00\x00\x00\x00'
p2340
tp2341
Rp2342
sg32
(dp2343
g95
g2339
sg21
g2342
sg38
g11
(g24
S'\x03\x00\x00\x00\x00\x00\x00\x00'
p2344
tp2345
Rp2346
sg106
g11
(g15
S'A=\xb2\xb4nf\xd6?'
p2347
tp2348
Rp2349
ssg46
g11
(g12
(S'S6'
p2350
I0
I1
tp2351
Rp2352
(I3
S'|'
p2353
NNNI6
I1
I0
tp2354
bS'ISOMAP'
p2355
tp2356
Rp2357
sg55
F0.2
sg38
g2346
sg56
g11
(g12
(S'S9'
p2358
I0
I1
tp2359
Rp2360
(I3
S'|'
p2361
NNNI9
I1
I0
tp2362
bS'inception'
p2363
tp2364
Rp2365
sg65
g11
(g15
S'(\xa1\xfe\xdf#\xac\xf1?'
p2366
tp2367
Rp2368
sg69
g11
(g12
(S'S2'
p2369
I0
I1
tp2370
Rp2371
(I3
S'|'
p2372
NNNI2
I1
I0
tp2373
bS'RF'
p2374
tp2375
Rp2376
sg78
I3
sg106
g2349
sg79
g80
sg81
g11
(g15
S'%\xc8S\x82<%\xe8?'
p2377
tp2378
Rp2379
sg85
g86
sg87
g88
sbag4
(g5
g6
Ntp2380
Rp2381
(dp2382
g10
g11
(g15
S'\x00\x00\x00\x00\x00\x00\xf8\xff'
p2383
tp2384
Rp2385
sg95
g11
(g15
S'\x00\x00\x00\x00\x00@a@'
p2386
tp2387
Rp2388
sg30
g31
sg21
g11
(g24
S'\x04\x00\x00\x00\x00\x00\x00\x00'
p2389
tp2390
Rp2391
sg32
(dp2392
g95
g2388
sg21
g2391
sg202
g11
(g24
S'\x03\x00\x00\x00\x00\x00\x00\x00'
p2393
tp2394
Rp2395
sg38
g11
(g24
S'\x03\x00\x00\x00\x00\x00\x00\x00'
p2396
tp2397
Rp2398
sg106
g11
(g15
S'\xb5\xc17"\xc1\x0c\xe5?'
p2399
tp2400
Rp2401
ssg46
g11
(g12
(S'S6'
p2402
I0
I1
tp2403
Rp2404
(I3
S'|'
p2405
NNNI6
I1
I0
tp2406
bS'ISOMAP'
p2407
tp2408
Rp2409
sg55
F0.2
sg38
g2398
sg56
g11
(g12
(S'S8'
p2410
I0
I1
tp2411
Rp2412
(I3
S'|'
p2413
NNNI8
I1
I0
tp2414
bS'haralick'
p2415
tp2416
Rp2417
sg202
g2395
sg65
g11
(g15
S'\xf4\xbf\x1e\xa7\xd2\xcf\xee?'
p2418
tp2419
Rp2420
sg69
g11
(g12
(S'S2'
p2421
I0
I1
tp2422
Rp2423
(I3
S'|'
p2424
NNNI2
I1
I0
tp2425
bS'RF'
p2426
tp2427
Rp2428
sg78
I3
sg106
g2401
sg79
g80
sg81
g11
(g15
S'\x15\x8a[\xa1\xb8\x15\xea?'
p2429
tp2430
Rp2431
sg85
g86
sg87
g88
sbag4
(g5
g6
Ntp2432
Rp2433
(dp2434
g10
g11
(g15
S'\x00\x00\x00\x00\x00\x00\xf8\xff'
p2435
tp2436
Rp2437
sg248
g256
sg30
g31
sg32
(dp2438
g248
g256
sg34
g11
(g15
S'[9\x140xP6@'
p2439
tp2440
Rp2441
sg42
g11
(g15
S'!`\xae\x8e\xa3\xe6\x12@'
p2442
tp2443
Rp2444
ssg46
g11
(g12
(S'S3'
p2445
I0
I1
tp2446
Rp2447
(I3
S'|'
p2448
NNNI3
I1
I0
tp2449
bS'PCA'
p2450
tp2451
Rp2452
sg55
F0.2
sg42
g2444
sg56
g11
(g12
(S'S3'
p2453
I0
I1
tp2454
Rp2455
(I3
S'|'
p2456
NNNI3
I1
I0
tp2457
bS'VGG'
p2458
tp2459
Rp2460
sg34
g2441
sg65
g11
(g15
S'\xd2rVWJ8\xe1?'
p2461
tp2462
Rp2463
sg69
g11
(g12
(S'S3'
p2464
I0
I1
tp2465
Rp2466
(I3
S'|'
p2467
NNNI3
I1
I0
tp2468
bS'SVM'
p2469
tp2470
Rp2471
sg78
I3
sg79
g80
sg81
g11
(g15
S'\x05yJ\x90\xa7\x04\xe9?'
p2472
tp2473
Rp2474
sg85
g86
sg87
g88
sbag4
(g5
g6
Ntp2475
Rp2476
(dp2477
g10
g11
(g15
S'\x00\x00\x00\x00\x00\x00\xf8\xff'
p2478
tp2479
Rp2480
sg95
g11
(g15
S'\x00\x00\x00\x00\x00@R@'
p2481
tp2482
Rp2483
sg248
g256
sg30
g31
sg32
(dp2484
g95
g2483
sg106
g11
(g15
S'`\xc7\x87v\xc9\xbe\xe1?'
p2485
tp2486
Rp2487
sg248
g256
ssg46
g11
(g12
(S'S3'
p2488
I0
I1
tp2489
Rp2490
(I3
S'|'
p2491
NNNI3
I1
I0
tp2492
bS'PCA'
p2493
tp2494
Rp2495
sg55
F0.2
sg56
g11
(g12
(S'S3'
p2496
I0
I1
tp2497
Rp2498
(I3
S'|'
p2499
NNNI3
I1
I0
tp2500
bS'VGG'
p2501
tp2502
Rp2503
sg65
g11
(g15
S'K\x82n\xb4\xf7\x95\xdc?'
p2504
tp2505
Rp2506
sg69
g11
(g12
(S'S2'
p2507
I0
I1
tp2508
Rp2509
(I3
S'|'
p2510
NNNI2
I1
I0
tp2511
bS'RF'
p2512
tp2513
Rp2514
sg78
I3
sg106
g2487
sg79
g80
sg81
g11
(g15
S'\x85\xe2V(n\x85\xea?'
p2515
tp2516
Rp2517
sg85
g86
sg87
g88
sbag4
(g5
g6
Ntp2518
Rp2519
(dp2520
g10
g11
(g15
S'\x00\x00\x00\x00\x00\x00\xf8\xff'
p2521
tp2522
Rp2523
sg21
g11
(g24
S'\x04\x00\x00\x00\x00\x00\x00\x00'
p2524
tp2525
Rp2526
sg30
g31
sg32
(dp2527
g21
g2526
sg34
g11
(g15
S'\x97=\xce\xec\x11/P@'
p2528
tp2529
Rp2530
sg202
g11
(g24
S'\x01\x00\x00\x00\x00\x00\x00\x00'
p2531
tp2532
Rp2533
sg38
g11
(g24
S'\x02\x00\x00\x00\x00\x00\x00\x00'
p2534
tp2535
Rp2536
sg42
g11
(g15
S'\xb0})\xdc\xcb\xd9\x1e@'
p2537
tp2538
Rp2539
ssg42
g2539
sg46
g11
(g12
(S'S6'
p2540
I0
I1
tp2541
Rp2542
(I3
S'|'
p2543
NNNI6
I1
I0
tp2544
bS'ISOMAP'
p2545
tp2546
Rp2547
sg55
F0.2
sg38
g2536
sg56
g11
(g12
(S'S8'
p2548
I0
I1
tp2549
Rp2550
(I3
S'|'
p2551
NNNI8
I1
I0
tp2552
bS'haralick'
p2553
tp2554
Rp2555
sg34
g2530
sg202
g2533
sg65
g11
(g15
S'\x8cBYd\x19O\xe0?'
p2556
tp2557
Rp2558
sg69
g11
(g12
(S'S3'
p2559
I0
I1
tp2560
Rp2561
(I3
S'|'
p2562
NNNI3
I1
I0
tp2563
bS'SVM'
p2564
tp2565
Rp2566
sg78
I3
sg79
g80
sg81
g11
(g15
S'#\xf5:R\xaf#\xe5?'
p2567
tp2568
Rp2569
sg85
g86
sg87
g88
sbag4
(g5
g6
Ntp2570
Rp2571
(dp2572
g10
g11
(g15
S'\x00\x00\x00\x00\x00\x00\xf8\xff'
p2573
tp2574
Rp2575
sg248
g308
sg30
g31
sg32
(dp2576
g248
g308
sg34
g11
(g15
S'Z\x9f\xf51\xdem0@'
p2577
tp2578
Rp2579
sg42
g11
(g15
S'\x17C\x954z\xa1\x0c@'
p2580
tp2581
Rp2582
ssg46
g11
(g12
(S'S3'
p2583
I0
I1
tp2584
Rp2585
(I3
S'|'
p2586
NNNI3
I1
I0
tp2587
bS'PCA'
p2588
tp2589
Rp2590
sg55
F0.2
sg42
g2582
sg56
g11
(g12
(S'S9'
p2591
I0
I1
tp2592
Rp2593
(I3
S'|'
p2594
NNNI9
I1
I0
tp2595
bS'inception'
p2596
tp2597
Rp2598
sg34
g2579
sg65
g11
(g15
S'\xaa\xf6~Q\x88c\xe2?'
p2599
tp2600
Rp2601
sg69
g11
(g12
(S'S3'
p2602
I0
I1
tp2603
Rp2604
(I3
S'|'
p2605
NNNI3
I1
I0
tp2606
bS'SVM'
p2607
tp2608
Rp2609
sg78
I3
sg79
g80
sg81
g11
(g15
S'\x8e\xd4\xebH\xbd\x8e\xe4?'
p2610
tp2611
Rp2612
sg85
g86
sg87
g88
sbag4
(g5
g6
Ntp2613
Rp2614
(dp2615
g10
g11
(g15
S'\x00\x00\x00\x00\x00\x00\xf8\xff'
p2616
tp2617
Rp2618
sg95
g11
(g15
S'\x00\x00\x00\x00\x00\xc0r@'
p2619
tp2620
Rp2621
sg248
g308
sg30
g31
sg32
(dp2622
g95
g2621
sg106
g11
(g15
S'\x05\xd2\xbe\x936\x88\xd6?'
p2623
tp2624
Rp2625
sg248
g308
ssg46
g11
(g12
(S'S3'
p2626
I0
I1
tp2627
Rp2628
(I3
S'|'
p2629
NNNI3
I1
I0
tp2630
bS'PCA'
p2631
tp2632
Rp2633
sg55
F0.2
sg56
g11
(g12
(S'S9'
p2634
I0
I1
tp2635
Rp2636
(I3
S'|'
p2637
NNNI9
I1
I0
tp2638
bS'inception'
p2639
tp2640
Rp2641
sg65
g11
(g15
S'\xb8o|\x90\xce9\xe0?'
p2642
tp2643
Rp2644
sg69
g11
(g12
(S'S2'
p2645
I0
I1
tp2646
Rp2647
(I3
S'|'
p2648
NNNI2
I1
I0
tp2649
bS'RF'
p2650
tp2651
Rp2652
sg78
I3
sg106
g2625
sg79
g80
sg81
g11
(g15
S'\x95 O\t\xf2\x94\xe8?'
p2653
tp2654
Rp2655
sg85
g86
sg87
g88
sbag4
(g5
g6
Ntp2656
Rp2657
(dp2658
g10
g11
(g15
S'\x00\x00\x00\x00\x00\x00\xf8\xff'
p2659
tp2660
Rp2661
sg248
g256
sg30
g31
sg32
(dp2662
g248
g256
sg34
g11
(g15
S'\x9d\xb8q\xbduP@@'
p2663
tp2664
Rp2665
sg42
g11
(g15
S'\x9b\xaa\x0e-\x11\xbd\xe0?'
p2666
tp2667
Rp2668
ssg46
g11
(g12
(S'S3'
p2669
I0
I1
tp2670
Rp2671
(I3
S'|'
p2672
NNNI3
I1
I0
tp2673
bS'PCA'
p2674
tp2675
Rp2676
sg55
F0.2
sg42
g2668
sg56
g11
(g12
(S'S9'
p2677
I0
I1
tp2678
Rp2679
(I3
S'|'
p2680
NNNI9
I1
I0
tp2681
bS'inception'
p2682
tp2683
Rp2684
sg34
g2665
sg65
g11
(g15
S' \xf0o\x11\x06\xe3\xe2?'
p2685
tp2686
Rp2687
sg69
g11
(g12
(S'S3'
p2688
I0
I1
tp2689
Rp2690
(I3
S'|'
p2691
NNNI3
I1
I0
tp2692
bS'SVM'
p2693
tp2694
Rp2695
sg78
I3
sg79
g80
sg81
g11
(g15
S'\x17]t\xd1E\x17\xe5?'
p2696
tp2697
Rp2698
sg85
g86
sg87
g88
sbag4
(g5
g6
Ntp2699
Rp2700
(dp2701
g10
g11
(g15
S'\x00\x00\x00\x00\x00\x00\xf8\xff'
p2702
tp2703
Rp2704
sg21
g11
(g24
S'\x05\x00\x00\x00\x00\x00\x00\x00'
p2705
tp2706
Rp2707
sg30
g31
sg32
(dp2708
g21
g2707
sg34
g11
(g15
S'\x81[:\xb1*PG@'
p2709
tp2710
Rp2711
sg38
g11
(g24
S'\x03\x00\x00\x00\x00\x00\x00\x00'
p2712
tp2713
Rp2714
sg42
g11
(g15
S'\xe1\x9fM1G\xd0\x03@'
p2715
tp2716
Rp2717
ssg42
g2717
sg46
g11
(g12
(S'S6'
p2718
I0
I1
tp2719
Rp2720
(I3
S'|'
p2721
NNNI6
I1
I0
tp2722
bS'ISOMAP'
p2723
tp2724
Rp2725
sg55
F0.2
sg38
g2714
sg56
g11
(g12
(S'S9'
p2726
I0
I1
tp2727
Rp2728
(I3
S'|'
p2729
NNNI9
I1
I0
tp2730
bS'inception'
p2731
tp2732
Rp2733
sg34
g2711
sg65
g11
(g15
S'\xe5J\xf60X\x94\xe1?'
p2734
tp2735
Rp2736
sg69
g11
(g12
(S'S3'
p2737
I0
I1
tp2738
Rp2739
(I3
S'|'
p2740
NNNI3
I1
I0
tp2741
bS'SVM'
p2742
tp2743
Rp2744
sg78
I3
sg79
g80
sg81
g11
(g15
S'\x89[\xa1\xb8\x15\x8a\xe3?'
p2745
tp2746
Rp2747
sg85
g86
sg87
g88
sbag4
(g5
g6
Ntp2748
Rp2749
(dp2750
g10
g11
(g15
S'\x00\x00\x00\x00\x00\x00\xf8\xff'
p2751
tp2752
Rp2753
sg248
g308
sg30
g31
sg32
(dp2754
g248
g308
sg34
g11
(g15
S'uw\xc7\xab\x19\x1e&@'
p2755
tp2756
Rp2757
sg202
g11
(g24
S'\x01\x00\x00\x00\x00\x00\x00\x00'
p2758
tp2759
Rp2760
sg42
g11
(g15
S'\xd3\x9a\x8c\x00pM\x13@'
p2761
tp2762
Rp2763
ssg46
g11
(g12
(S'S3'
p2764
I0
I1
tp2765
Rp2766
(I3
S'|'
p2767
NNNI3
I1
I0
tp2768
bS'PCA'
p2769
tp2770
Rp2771
sg55
F0.2
sg42
g2763
sg56
g11
(g12
(S'S8'
p2772
I0
I1
tp2773
Rp2774
(I3
S'|'
p2775
NNNI8
I1
I0
tp2776
bS'haralick'
p2777
tp2778
Rp2779
sg34
g2757
sg202
g2760
sg65
g11
(g15
S'\xfc\xe66\xf5\xe4\xb8\xdc?'
p2780
tp2781
Rp2782
sg69
g11
(g12
(S'S3'
p2783
I0
I1
tp2784
Rp2785
(I3
S'|'
p2786
NNNI3
I1
I0
tp2787
bS'SVM'
p2788
tp2789
Rp2790
sg78
I3
sg79
g80
sg81
g11
(g15
S'\xa4^G\xeau\xa4\xe6?'
p2791
tp2792
Rp2793
sg85
g86
sg87
g88
sbag4
(g5
g6
Ntp2794
Rp2795
(dp2796
g10
g11
(g15
S'\x00\x00\x00\x00\x00\x00\xf8\xff'
p2797
tp2798
Rp2799
sg21
g11
(g24
S'\x04\x00\x00\x00\x00\x00\x00\x00'
p2800
tp2801
Rp2802
sg30
g31
sg32
(dp2803
g21
g2802
sg34
g11
(g15
S'C\xc3\xebKn\xaaN@'
p2804
tp2805
Rp2806
sg38
g11
(g24
S'\x03\x00\x00\x00\x00\x00\x00\x00'
p2807
tp2808
Rp2809
sg42
g11
(g15
S'\xd9t\xeaQ\xd8\x88\x1f@'
p2810
tp2811
Rp2812
ssg42
g2812
sg46
g11
(g12
(S'S6'
p2813
I0
I1
tp2814
Rp2815
(I3
S'|'
p2816
NNNI6
I1
I0
tp2817
bS'ISOMAP'
p2818
tp2819
Rp2820
sg55
F0.2
sg38
g2809
sg56
g11
(g12
(S'S3'
p2821
I0
I1
tp2822
Rp2823
(I3
S'|'
p2824
NNNI3
I1
I0
tp2825
bS'VGG'
p2826
tp2827
Rp2828
sg34
g2806
sg65
g11
(g15
S'u\x82\xd0v\xb4\xd6\xe0?'
p2829
tp2830
Rp2831
sg69
g11
(g12
(S'S3'
p2832
I0
I1
tp2833
Rp2834
(I3
S'|'
p2835
NNNI3
I1
I0
tp2836
bS'SVM'
p2837
tp2838
Rp2839
sg78
I3
sg79
g80
sg81
g11
(g15
S'\x90\xa7\x04yJ\x90\xe7?'
p2840
tp2841
Rp2842
sg85
g86
sg87
g88
sbag4
(g5
g6
Ntp2843
Rp2844
(dp2845
g10
g11
(g15
S'\x00\x00\x00\x00\x00\x00\xf8\xff'
p2846
tp2847
Rp2848
sg95
g11
(g15
S'\x00\x00\x00\x00\x00`i@'
p2849
tp2850
Rp2851
sg248
g308
sg30
g31
sg32
(dp2852
g95
g2851
sg106
g11
(g15
S'\x98%6\x97\x9e\r\xee?'
p2853
tp2854
Rp2855
sg248
g308
sg202
g11
(g24
S'\x02\x00\x00\x00\x00\x00\x00\x00'
p2856
tp2857
Rp2858
ssg46
g11
(g12
(S'S3'
p2859
I0
I1
tp2860
Rp2861
(I3
S'|'
p2862
NNNI3
I1
I0
tp2863
bS'PCA'
p2864
tp2865
Rp2866
sg55
F0.2
sg56
g11
(g12
(S'S8'
p2867
I0
I1
tp2868
Rp2869
(I3
S'|'
p2870
NNNI8
I1
I0
tp2871
bS'haralick'
p2872
tp2873
Rp2874
sg202
g2858
sg65
g11
(g15
S'uh/\xa2\xea]\xfb?'
p2875
tp2876
Rp2877
sg69
g11
(g12
(S'S2'
p2878
I0
I1
tp2879
Rp2880
(I3
S'|'
p2881
NNNI2
I1
I0
tp2882
bS'RF'
p2883
tp2884
Rp2885
sg78
I3
sg106
g2855
sg79
g80
sg81
g11
(g15
S'\xac}\xc3\xda7\xac\xe5?'
p2886
tp2887
Rp2888
sg85
g86
sg87
g88
sbag4
(g5
g6
Ntp2889
Rp2890
(dp2891
g10
g11
(g15
S'\x00\x00\x00\x00\x00\x00\xf8\xff'
p2892
tp2893
Rp2894
sg21
g11
(g24
S'\x03\x00\x00\x00\x00\x00\x00\x00'
p2895
tp2896
Rp2897
sg30
g31
sg32
(dp2898
g21
g2897
sg34
g11
(g15
S'\xcd5\x9c\x99\xc6y3@'
p2899
tp2900
Rp2901
sg202
g11
(g24
S'\x03\x00\x00\x00\x00\x00\x00\x00'
p2902
tp2903
Rp2904
sg38
g11
(g24
S'\x03\x00\x00\x00\x00\x00\x00\x00'
p2905
tp2906
Rp2907
sg42
g11
(g15
S'\xb1\x90\xd5UQg\xc5?'
p2908
tp2909
Rp2910
ssg42
g2910
sg46
g11
(g12
(S'S6'
p2911
I0
I1
tp2912
Rp2913
(I3
S'|'
p2914
NNNI6
I1
I0
tp2915
bS'ISOMAP'
p2916
tp2917
Rp2918
sg55
F0.2
sg38
g2907
sg56
g11
(g12
(S'S8'
p2919
I0
I1
tp2920
Rp2921
(I3
S'|'
p2922
NNNI8
I1
I0
tp2923
bS'haralick'
p2924
tp2925
Rp2926
sg34
g2901
sg202
g2904
sg65
g11
(g15
S'\x03\xder1\xfd\x17\xde?'
p2927
tp2928
Rp2929
sg69
g11
(g12
(S'S3'
p2930
I0
I1
tp2931
Rp2932
(I3
S'|'
p2933
NNNI3
I1
I0
tp2934
bS'SVM'
p2935
tp2936
Rp2937
sg78
I3
sg79
g80
sg81
g11
(g15
S'\x96\xf3g9\x7f\x96\xe3?'
p2938
tp2939
Rp2940
sg85
g86
sg87
g88
sbag4
(g5
g6
Ntp2941
Rp2942
(dp2943
g10
g11
(g15
S'\x00\x00\x00\x00\x00\x00\xf8\xff'
p2944
tp2945
Rp2946
sg248
g308
sg30
g31
sg32
(dp2947
g248
g308
sg34
g11
(g15
S'\xdb\xeeW\xaa\x14MB@'
p2948
tp2949
Rp2950
sg202
g11
(g24
S'\x01\x00\x00\x00\x00\x00\x00\x00'
p2951
tp2952
Rp2953
sg42
g11
(g15
S'?\xe2:\x82\x12 \x1a@'
p2954
tp2955
Rp2956
ssg46
g11
(g12
(S'S3'
p2957
I0
I1
tp2958
Rp2959
(I3
S'|'
p2960
NNNI3
I1
I0
tp2961
bS'PCA'
p2962
tp2963
Rp2964
sg55
F0.2
sg42
g2956
sg56
g11
(g12
(S'S8'
p2965
I0
I1
tp2966
Rp2967
(I3
S'|'
p2968
NNNI8
I1
I0
tp2969
bS'haralick'
p2970
tp2971
Rp2972
sg34
g2950
sg202
g2953
sg65
g11
(g15
S'\xe8\x0f\xb7\xb0\xc8l\xde?'
p2973
tp2974
Rp2975
sg69
g11
(g12
(S'S3'
p2976
I0
I1
tp2977
Rp2978
(I3
S'|'
p2979
NNNI3
I1
I0
tp2980
bS'SVM'
p2981
tp2982
Rp2983
sg78
I3
sg79
g80
sg81
g11
(g15
S'+\x14\xb7Bq+\xe4?'
p2984
tp2985
Rp2986
sg85
g86
sg87
g88
sbag4
(g5
g6
Ntp2987
Rp2988
(dp2989
g10
g11
(g15
S'\x00\x00\x00\x00\x00\x00\xf8\xff'
p2990
tp2991
Rp2992
sg21
g11
(g24
S'\x05\x00\x00\x00\x00\x00\x00\x00'
p2993
tp2994
Rp2995
sg30
g31
sg32
(dp2996
g21
g2995
sg34
g11
(g15
S'\xa9\x80\x9e\x99\xe7n3@'
p2997
tp2998
Rp2999
sg38
g11
(g24
S'\x03\x00\x00\x00\x00\x00\x00\x00'
p3000
tp3001
Rp3002
sg42
g11
(g15
S'\x04\xa2\xea6\x1d\xc3\x04@'
p3003
tp3004
Rp3005
ssg42
g3005
sg46
g11
(g12
(S'S6'
p3006
I0
I1
tp3007
Rp3008
(I3
S'|'
p3009
NNNI6
I1
I0
tp3010
bS'ISOMAP'
p3011
tp3012
Rp3013
sg55
F0.2
sg38
g3002
sg56
g11
(g12
(S'S3'
p3014
I0
I1
tp3015
Rp3016
(I3
S'|'
p3017
NNNI3
I1
I0
tp3018
bS'VGG'
p3019
tp3020
Rp3021
sg34
g2999
sg65
g11
(g15
S'\xbe$\xdf\xf5\xe2\x88\xe4?'
p3022
tp3023
Rp3024
sg69
g11
(g12
(S'S3'
p3025
I0
I1
tp3026
Rp3027
(I3
S'|'
p3028
NNNI3
I1
I0
tp3029
bS'SVM'
p3030
tp3031
Rp3032
sg78
I3
sg79
g80
sg81
g11
(g15
S'\x95 O\t\xf2\x94\xe8?'
p3033
tp3034
Rp3035
sg85
g86
sg87
g88
sbag4
(g5
g6
Ntp3036
Rp3037
(dp3038
g10
g11
(g15
S'\x00\x00\x00\x00\x00\x00\xf8\xff'
p3039
tp3040
Rp3041
sg248
g256
sg30
g31
sg32
(dp3042
g248
g256
sg34
g11
(g15
S'\xd8s\x06\r.F#@'
p3043
tp3044
Rp3045
sg42
g11
(g15
S'O\xfd\xba\xbe\x9f\x03\x17@'
p3046
tp3047
Rp3048
ssg46
g11
(g12
(S'S3'
p3049
I0
I1
tp3050
Rp3051
(I3
S'|'
p3052
NNNI3
I1
I0
tp3053
bS'PCA'
p3054
tp3055
Rp3056
sg55
F0.2
sg42
g3048
sg56
g11
(g12
(S'S9'
p3057
I0
I1
tp3058
Rp3059
(I3
S'|'
p3060
NNNI9
I1
I0
tp3061
bS'inception'
p3062
tp3063
Rp3064
sg34
g3045
sg65
g11
(g15
S'[\tH\x86l\x0e\xe1?'
p3065
tp3066
Rp3067
sg69
g11
(g12
(S'S3'
p3068
I0
I1
tp3069
Rp3070
(I3
S'|'
p3071
NNNI3
I1
I0
tp3072
bS'SVM'
p3073
tp3074
Rp3075
sg78
I3
sg79
g80
sg81
g11
(g15
S'\x88\xb5oX\xfb\x86\xe5?'
p3076
tp3077
Rp3078
sg85
g86
sg87
g88
sbag390
ag4
(g5
g6
Ntp3079
Rp3080
(dp3081
g10
g11
(g15
S'\x00\x00\x00\x00\x00\x00\xf8\xff'
p3082
tp3083
Rp3084
sg248
g308
sg30
g31
sg32
(dp3085
g248
g308
sg34
g11
(g15
S'\xe4|f&#\xc7&@'
p3086
tp3087
Rp3088
sg42
g11
(g15
S'rq\xed\xd5z\xbd\x10@'
p3089
tp3090
Rp3091
ssg46
g11
(g12
(S'S3'
p3092
I0
I1
tp3093
Rp3094
(I3
S'|'
p3095
NNNI3
I1
I0
tp3096
bS'PCA'
p3097
tp3098
Rp3099
sg55
F0.2
sg42
g3091
sg56
g11
(g12
(S'S3'
p3100
I0
I1
tp3101
Rp3102
(I3
S'|'
p3103
NNNI3
I1
I0
tp3104
bS'VGG'
p3105
tp3106
Rp3107
sg34
g3088
sg65
g11
(g15
S'\x98\xa5\xf7\x16\xd9\xdf\xe0?'
p3108
tp3109
Rp3110
sg69
g11
(g12
(S'S3'
p3111
I0
I1
tp3112
Rp3113
(I3
S'|'
p3114
NNNI3
I1
I0
tp3115
bS'SVM'
p3116
tp3117
Rp3118
sg78
I3
sg79
g80
sg81
g11
(g15
S'\x05yJ\x90\xa7\x04\xe9?'
p3119
tp3120
Rp3121
sg85
g86
sg87
g88
sbag4
(g5
g6
Ntp3122
Rp3123
(dp3124
g10
g11
(g15
S'\x00\x00\x00\x00\x00\x00\xf8\xff'
p3125
tp3126
Rp3127
sg95
g11
(g15
S'\x00\x00\x00\x00\x00\xc0r@'
p3128
tp3129
Rp3130
sg248
g256
sg30
g31
sg32
(dp3131
g95
g3130
sg106
g11
(g15
S'\x88\x80\xd50*\x19\xec?'
p3132
tp3133
Rp3134
sg248
g256
sg202
g11
(g24
S'\x02\x00\x00\x00\x00\x00\x00\x00'
p3135
tp3136
Rp3137
ssg46
g11
(g12
(S'S3'
p3138
I0
I1
tp3139
Rp3140
(I3
S'|'
p3141
NNNI3
I1
I0
tp3142
bS'PCA'
p3143
tp3144
Rp3145
sg55
F0.2
sg56
g11
(g12
(S'S8'
p3146
I0
I1
tp3147
Rp3148
(I3
S'|'
p3149
NNNI8
I1
I0
tp3150
bS'haralick'
p3151
tp3152
Rp3153
sg202
g3137
sg65
g11
(g15
S'x\x89\xfctjV\xfa?'
p3154
tp3155
Rp3156
sg69
g11
(g12
(S'S2'
p3157
I0
I1
tp3158
Rp3159
(I3
S'|'
p3160
NNNI2
I1
I0
tp3161
bS'RF'
p3162
tp3163
Rp3164
sg78
I3
sg106
g3134
sg79
g80
sg81
g11
(g15
S'\xac}\xc3\xda7\xac\xe5?'
p3165
tp3166
Rp3167
sg85
g86
sg87
g88
sbag4
(g5
g6
Ntp3168
Rp3169
(dp3170
g10
g11
(g15
S'\x00\x00\x00\x00\x00\x00\xf8\xff'
p3171
tp3172
Rp3173
sg95
g11
(g15
S'\x00\x00\x00\x00\x00@a@'
p3174
tp3175
Rp3176
sg248
g256
sg30
g31
sg32
(dp3177
g95
g3176
sg106
g11
(g15
S'\xc5\x81\x85\xb1\x17m\xe7?'
p3178
tp3179
Rp3180
sg248
g256
ssg46
g11
(g12
(S'S3'
p3181
I0
I1
tp3182
Rp3183
(I3
S'|'
p3184
NNNI3
I1
I0
tp3185
bS'PCA'
p3186
tp3187
Rp3188
sg55
F0.2
sg56
g11
(g12
(S'S3'
p3189
I0
I1
tp3190
Rp3191
(I3
S'|'
p3192
NNNI3
I1
I0
tp3193
bS'VGG'
p3194
tp3195
Rp3196
sg65
g11
(g15
S'\xb3\x0e`4\x81\x1f\xda?'
p3197
tp3198
Rp3199
sg69
g11
(g12
(S'S2'
p3200
I0
I1
tp3201
Rp3202
(I3
S'|'
p3203
NNNI2
I1
I0
tp3204
bS'RF'
p3205
tp3206
Rp3207
sg78
I3
sg106
g3180
sg79
g80
sg81
g11
(g15
S'\t\xf2\x94 O\t\xea?'
p3208
tp3209
Rp3210
sg85
g86
sg87
g88
sbag4
(g5
g6
Ntp3211
Rp3212
(dp3213
g10
g11
(g15
S'\x00\x00\x00\x00\x00\x00\xf8\xff'
p3214
tp3215
Rp3216
sg95
g11
(g15
S'\x00\x00\x00\x00\x00@R@'
p3217
tp3218
Rp3219
sg30
g31
sg21
g11
(g24
S'\x07\x00\x00\x00\x00\x00\x00\x00'
p3220
tp3221
Rp3222
sg32
(dp3223
g95
g3219
sg21
g3222
sg38
g11
(g24
S'\x03\x00\x00\x00\x00\x00\x00\x00'
p3224
tp3225
Rp3226
sg106
g11
(g15
S':\xc8\xa8!K\x81\xd8?'
p3227
tp3228
Rp3229
ssg46
g11
(g12
(S'S6'
p3230
I0
I1
tp3231
Rp3232
(I3
S'|'
p3233
NNNI6
I1
I0
tp3234
bS'ISOMAP'
p3235
tp3236
Rp3237
sg55
F0.2
sg38
g3226
sg56
g11
(g12
(S'S3'
p3238
I0
I1
tp3239
Rp3240
(I3
S'|'
p3241
NNNI3
I1
I0
tp3242
bS'VGG'
p3243
tp3244
Rp3245
sg65
g11
(g15
S'\xff\xad\xf1\x96C]\xde?'
p3246
tp3247
Rp3248
sg69
g11
(g12
(S'S2'
p3249
I0
I1
tp3250
Rp3251
(I3
S'|'
p3252
NNNI2
I1
I0
tp3253
bS'RF'
p3254
tp3255
Rp3256
sg78
I3
sg106
g3229
sg79
g80
sg81
g11
(g15
S'\x90\xa7\x04yJ\x90\xe7?'
p3257
tp3258
Rp3259
sg85
g86
sg87
g88
sbag4
(g5
g6
Ntp3260
Rp3261
(dp3262
g10
g11
(g15
S'\x00\x00\x00\x00\x00\x00\xf8\xff'
p3263
tp3264
Rp3265
sg95
g11
(g15
S'\x00\x00\x00\x00\x00@Z@'
p3266
tp3267
Rp3268
sg248
g308
sg30
g31
sg32
(dp3269
g95
g3268
sg106
g11
(g15
S'\x1cr@\xd7\r\xce\xee?'
p3270
tp3271
Rp3272
sg248
g308
sg202
g11
(g24
S'\x03\x00\x00\x00\x00\x00\x00\x00'
p3273
tp3274
Rp3275
ssg46
g11
(g12
(S'S3'
p3276
I0
I1
tp3277
Rp3278
(I3
S'|'
p3279
NNNI3
I1
I0
tp3280
bS'PCA'
p3281
tp3282
Rp3283
sg55
F0.2
sg56
g11
(g12
(S'S8'
p3284
I0
I1
tp3285
Rp3286
(I3
S'|'
p3287
NNNI8
I1
I0
tp3288
bS'haralick'
p3289
tp3290
Rp3291
sg202
g3275
sg65
g11
(g15
S'\x94\x17&\xe0\x8b\xa3\xd7?'
p3292
tp3293
Rp3294
sg69
g11
(g12
(S'S2'
p3295
I0
I1
tp3296
Rp3297
(I3
S'|'
p3298
NNNI2
I1
I0
tp3299
bS'RF'
p3300
tp3301
Rp3302
sg78
I3
sg106
g3272
sg79
g80
sg81
g11
(g15
S'\x95\xf3g9\x7f\x96\xeb?'
p3303
tp3304
Rp3305
sg85
g86
sg87
g88
sbag4
(g5
g6
Ntp3306
Rp3307
(dp3308
g10
g11
(g15
S'\x00\x00\x00\x00\x00\x00\xf8\xff'
p3309
tp3310
Rp3311
sg21
g11
(g24
S'\x07\x00\x00\x00\x00\x00\x00\x00'
p3312
tp3313
Rp3314
sg30
g31
sg32
(dp3315
g21
g3314
sg34
g11
(g15
S'O\xbc\xb2\xea\xa2\xa98@'
p3316
tp3317
Rp3318
sg38
g11
(g24
S'\x02\x00\x00\x00\x00\x00\x00\x00'
p3319
tp3320
Rp3321
sg42
g11
(g15
S'\xfdH52\xb3\x04\x00@'
p3322
tp3323
Rp3324
ssg42
g3324
sg46
g11
(g12
(S'S6'
p3325
I0
I1
tp3326
Rp3327
(I3
S'|'
p3328
NNNI6
I1
I0
tp3329
bS'ISOMAP'
p3330
tp3331
Rp3332
sg55
F0.2
sg38
g3321
sg56
g11
(g12
(S'S9'
p3333
I0
I1
tp3334
Rp3335
(I3
S'|'
p3336
NNNI9
I1
I0
tp3337
bS'inception'
p3338
tp3339
Rp3340
sg34
g3318
sg65
g11
(g15
S'P1\xceX\xd6\x07\xe2?'
p3341
tp3342
Rp3343
sg69
g11
(g12
(S'S3'
p3344
I0
I1
tp3345
Rp3346
(I3
S'|'
p3347
NNNI3
I1
I0
tp3348
bS'SVM'
p3349
tp3350
Rp3351
sg78
I3
sg79
g80
sg81
g11
(g15
S'\x8e\xd4\xebH\xbd\x8e\xe4?'
p3352
tp3353
Rp3354
sg85
g86
sg87
g88
sbag4
(g5
g6
Ntp3355
Rp3356
(dp3357
g10
g11
(g15
S'\x00\x00\x00\x00\x00\x00\xf8\xff'
p3358
tp3359
Rp3360
sg95
g11
(g15
S'\x00\x00\x00\x00\x00\x00D@'
p3361
tp3362
Rp3363
sg30
g31
sg21
g11
(g24
S'\x04\x00\x00\x00\x00\x00\x00\x00'
p3364
tp3365
Rp3366
sg32
(dp3367
g95
g3363
sg21
g3366
sg38
g11
(g24
S'\x03\x00\x00\x00\x00\x00\x00\x00'
p3368
tp3369
Rp3370
sg106
g11
(g15
S'^;C\x0c\xfe\xf8\xd4?'
p3371
tp3372
Rp3373
ssg46
g11
(g12
(S'S6'
p3374
I0
I1
tp3375
Rp3376
(I3
S'|'
p3377
NNNI6
I1
I0
tp3378
bS'ISOMAP'
p3379
tp3380
Rp3381
sg55
F0.2
sg38
g3370
sg56
g11
(g12
(S'S3'
p3382
I0
I1
tp3383
Rp3384
(I3
S'|'
p3385
NNNI3
I1
I0
tp3386
bS'VGG'
p3387
tp3388
Rp3389
sg65
g11
(g15
S'\x84\xfd$\xf2a\xf8\xf6?'
p3390
tp3391
Rp3392
sg69
g11
(g12
(S'S2'
p3393
I0
I1
tp3394
Rp3395
(I3
S'|'
p3396
NNNI2
I1
I0
tp3397
bS'RF'
p3398
tp3399
Rp3400
sg78
I3
sg106
g3373
sg79
g80
sg81
g11
(g15
S'\x95 O\t\xf2\x94\xe8?'
p3401
tp3402
Rp3403
sg85
g86
sg87
g88
sbag4
(g5
g6
Ntp3404
Rp3405
(dp3406
g10
g11
(g15
S'\x00\x00\x00\x00\x00\x00\xf8\xff'
p3407
tp3408
Rp3409
sg95
g11
(g15
S'\x00\x00\x00\x00\x00@Z@'
p3410
tp3411
Rp3412
sg248
g256
sg30
g31
sg32
(dp3413
g95
g3412
sg106
g11
(g15
S'\xd4\xab\xaf\x86\xee \xe8?'
p3414
tp3415
Rp3416
sg248
g256
sg202
g11
(g24
S'\x01\x00\x00\x00\x00\x00\x00\x00'
p3417
tp3418
Rp3419
ssg46
g11
(g12
(S'S3'
p3420
I0
I1
tp3421
Rp3422
(I3
S'|'
p3423
NNNI3
I1
I0
tp3424
bS'PCA'
p3425
tp3426
Rp3427
sg55
F0.2
sg56
g11
(g12
(S'S8'
p3428
I0
I1
tp3429
Rp3430
(I3
S'|'
p3431
NNNI8
I1
I0
tp3432
bS'haralick'
p3433
tp3434
Rp3435
sg202
g3419
sg65
g11
(g15
S'\xd4D\xd3.\x13\xf2\x00@'
p3436
tp3437
Rp3438
sg69
g11
(g12
(S'S2'
p3439
I0
I1
tp3440
Rp3441
(I3
S'|'
p3442
NNNI2
I1
I0
tp3443
bS'RF'
p3444
tp3445
Rp3446
sg78
I3
sg106
g3416
sg79
g80
sg81
g11
(g15
S'\x1c\xd6\xbea\xed\x1b\xe6?'
p3447
tp3448
Rp3449
sg85
g86
sg87
g88
sbag4
(g5
g6
Ntp3450
Rp3451
(dp3452
g10
g11
(g15
S'\x00\x00\x00\x00\x00\x00\xf8\xff'
p3453
tp3454
Rp3455
sg95
g11
(g15
S'\x00\x00\x00\x00\x00`i@'
p3456
tp3457
Rp3458
sg248
g256
sg30
g31
sg32
(dp3459
g95
g3458
sg106
g11
(g15
S'\xf0\xd4\x16\x00\xaea\xed?'
p3460
tp3461
Rp3462
sg248
g256
sg202
g11
(g24
S'\x01\x00\x00\x00\x00\x00\x00\x00'
p3463
tp3464
Rp3465
ssg46
g11
(g12
(S'S3'
p3466
I0
I1
tp3467
Rp3468
(I3
S'|'
p3469
NNNI3
I1
I0
tp3470
bS'PCA'
p3471
tp3472
Rp3473
sg55
F0.2
sg56
g11
(g12
(S'S8'
p3474
I0
I1
tp3475
Rp3476
(I3
S'|'
p3477
NNNI8
I1
I0
tp3478
bS'haralick'
p3479
tp3480
Rp3481
sg202
g3465
sg65
g11
(g15
S'\xac\x18g5Y\xf9\xf3?'
p3482
tp3483
Rp3484
sg69
g11
(g12
(S'S2'
p3485
I0
I1
tp3486
Rp3487
(I3
S'|'
p3488
NNNI2
I1
I0
tp3489
bS'RF'
p3490
tp3491
Rp3492
sg78
I3
sg106
g3462
sg79
g80
sg81
g11
(g15
S'\x1c\xd6\xbea\xed\x1b\xe6?'
p3493
tp3494
Rp3495
sg85
g86
sg87
g88
sbag4
(g5
g6
Ntp3496
Rp3497
(dp3498
g10
g11
(g15
S'\x00\x00\x00\x00\x00\x00\xf8\xff'
p3499
tp3500
Rp3501
sg21
g11
(g24
S'\x06\x00\x00\x00\x00\x00\x00\x00'
p3502
tp3503
Rp3504
sg30
g31
sg32
(dp3505
g21
g3504
sg34
g11
(g15
S't\xea\xf587\x80(@'
p3506
tp3507
Rp3508
sg202
g11
(g24
S'\x01\x00\x00\x00\x00\x00\x00\x00'
p3509
tp3510
Rp3511
sg38
g11
(g24
S'\x04\x00\x00\x00\x00\x00\x00\x00'
p3512
tp3513
Rp3514
sg42
g11
(g15
S'\xf8(d\x8bTC\x12@'
p3515
tp3516
Rp3517
ssg42
g3517
sg46
g11
(g12
(S'S6'
p3518
I0
I1
tp3519
Rp3520
(I3
S'|'
p3521
NNNI6
I1
I0
tp3522
bS'ISOMAP'
p3523
tp3524
Rp3525
sg55
F0.2
sg38
g3514
sg56
g11
(g12
(S'S8'
p3526
I0
I1
tp3527
Rp3528
(I3
S'|'
p3529
NNNI8
I1
I0
tp3530
bS'haralick'
p3531
tp3532
Rp3533
sg34
g3508
sg202
g3511
sg65
g11
(g15
S'u\x0e\xaf\x91\xf1\xbd\xe0?'
p3534
tp3535
Rp3536
sg69
g11
(g12
(S'S3'
p3537
I0
I1
tp3538
Rp3539
(I3
S'|'
p3540
NNNI3
I1
I0
tp3541
bS'SVM'
p3542
tp3543
Rp3544
sg78
I3
sg79
g80
sg81
g11
(g15
S'\x03\xa61`\x1a\x03\xe6?'
p3545
tp3546
Rp3547
sg85
g86
sg87
g88
sbag4
(g5
g6
Ntp3548
Rp3549
(dp3550
g10
g11
(g15
S'\x00\x00\x00\x00\x00\x00\xf8\xff'
p3551
tp3552
Rp3553
sg248
g308
sg30
g31
sg32
(dp3554
g248
g308
sg34
g11
(g15
S'\x99\xcbd\x9d\xdd\xbe;@'
p3555
tp3556
Rp3557
sg42
g11
(g15
S'm~\xbf*\xfa\xec\x16@'
p3558
tp3559
Rp3560
ssg46
g11
(g12
(S'S3'
p3561
I0
I1
tp3562
Rp3563
(I3
S'|'
p3564
NNNI3
I1
I0
tp3565
bS'PCA'
p3566
tp3567
Rp3568
sg55
F0.2
sg42
g3560
sg56
g11
(g12
(S'S9'
p3569
I0
I1
tp3570
Rp3571
(I3
S'|'
p3572
NNNI9
I1
I0
tp3573
bS'inception'
p3574
tp3575
Rp3576
sg34
g3557
sg65
g11
(g15
S'g\x9d=&c\xa2\xed?'
p3577
tp3578
Rp3579
sg69
g11
(g12
(S'S3'
p3580
I0
I1
tp3581
Rp3582
(I3
S'|'
p3583
NNNI3
I1
I0
tp3584
bS'SVM'
p3585
tp3586
Rp3587
sg78
I3
sg79
g80
sg81
g11
(g15
S'\x0b\xc5\xadP\xdc\n\xe5?'
p3588
tp3589
Rp3590
sg85
g86
sg87
g88
sbag4
(g5
g6
Ntp3591
Rp3592
(dp3593
g10
g11
(g15
S'\x00\x00\x00\x00\x00\x00\xf8\xff'
p3594
tp3595
Rp3596
sg248
g256
sg30
g31
sg32
(dp3597
g248
g256
sg34
g11
(g15
S'0\x19\x93\xf4\xe8~7@'
p3598
tp3599
Rp3600
sg202
g11
(g24
S'\x03\x00\x00\x00\x00\x00\x00\x00'
p3601
tp3602
Rp3603
sg42
g11
(g15
S"4\xbbKk6'\n@"
p3604
tp3605
Rp3606
ssg46
g11
(g12
(S'S3'
p3607
I0
I1
tp3608
Rp3609
(I3
S'|'
p3610
NNNI3
I1
I0
tp3611
bS'PCA'
p3612
tp3613
Rp3614
sg55
F0.2
sg42
g3606
sg56
g11
(g12
(S'S8'
p3615
I0
I1
tp3616
Rp3617
(I3
S'|'
p3618
NNNI8
I1
I0
tp3619
bS'haralick'
p3620
tp3621
Rp3622
sg34
g3600
sg202
g3603
sg65
g11
(g15
S'oh`([m\xe0?'
p3623
tp3624
Rp3625
sg69
g11
(g12
(S'S3'
p3626
I0
I1
tp3627
Rp3628
(I3
S'|'
p3629
NNNI3
I1
I0
tp3630
bS'SVM'
p3631
tp3632
Rp3633
sg78
I3
sg79
g80
sg81
g11
(g15
S'\x9bl\xb2\xc9&\x9b\xe4?'
p3634
tp3635
Rp3636
sg85
g86
sg87
g88
sbag4
(g5
g6
Ntp3637
Rp3638
(dp3639
g10
g11
(g15
S'\x00\x00\x00\x00\x00\x00\xf8\xff'
p3640
tp3641
Rp3642
sg95
g11
(g15
S'\x00\x00\x00\x00\x00\x00D@'
p3643
tp3644
Rp3645
sg248
g308
sg30
g31
sg32
(dp3646
g95
g3645
sg106
g11
(g15
S'w\x96\xac\x90\xf7\x18\xe2?'
p3647
tp3648
Rp3649
sg248
g308
sg202
g11
(g24
S'\x01\x00\x00\x00\x00\x00\x00\x00'
p3650
tp3651
Rp3652
ssg46
g11
(g12
(S'S3'
p3653
I0
I1
tp3654
Rp3655
(I3
S'|'
p3656
NNNI3
I1
I0
tp3657
bS'PCA'
p3658
tp3659
Rp3660
sg55
F0.2
sg56
g11
(g12
(S'S8'
p3661
I0
I1
tp3662
Rp3663
(I3
S'|'
p3664
NNNI8
I1
I0
tp3665
bS'haralick'
p3666
tp3667
Rp3668
sg202
g3652
sg65
g11
(g15
S'\x84\xb3\x94\xc3y\x89\x01@'
p3669
tp3670
Rp3671
sg69
g11
(g12
(S'S2'
p3672
I0
I1
tp3673
Rp3674
(I3
S'|'
p3675
NNNI2
I1
I0
tp3676
bS'RF'
p3677
tp3678
Rp3679
sg78
I3
sg106
g3649
sg79
g80
sg81
g11
(g15
S'\x1c\xd6\xbea\xed\x1b\xe6?'
p3680
tp3681
Rp3682
sg85
g86
sg87
g88
sbag4
(g5
g6
Ntp3683
Rp3684
(dp3685
g10
g11
(g15
S'\x00\x00\x00\x00\x00\x00\xf8\xff'
p3686
tp3687
Rp3688
sg95
g11
(g15
S'\x00\x00\x00\x00\x00`i@'
p3689
tp3690
Rp3691
sg30
g31
sg21
g11
(g24
S'\x04\x00\x00\x00\x00\x00\x00\x00'
p3692
tp3693
Rp3694
sg32
(dp3695
g95
g3691
sg21
g3694
sg202
g11
(g24
S'\x03\x00\x00\x00\x00\x00\x00\x00'
p3696
tp3697
Rp3698
sg38
g11
(g24
S'\x04\x00\x00\x00\x00\x00\x00\x00'
p3699
tp3700
Rp3701
sg106
g11
(g15
S'\xcc\x9bDPnL\xec?'
p3702
tp3703
Rp3704
ssg46
g11
(g12
(S'S6'
p3705
I0
I1
tp3706
Rp3707
(I3
S'|'
p3708
NNNI6
I1
I0
tp3709
bS'ISOMAP'
p3710
tp3711
Rp3712
sg55
F0.2
sg38
g3701
sg56
g11
(g12
(S'S8'
p3713
I0
I1
tp3714
Rp3715
(I3
S'|'
p3716
NNNI8
I1
I0
tp3717
bS'haralick'
p3718
tp3719
Rp3720
sg202
g3698
sg65
g11
(g15
S'a\x7f}\xcb\xd3N\xf0?'
p3721
tp3722
Rp3723
sg69
g11
(g12
(S'S2'
p3724
I0
I1
tp3725
Rp3726
(I3
S'|'
p3727
NNNI2
I1
I0
tp3728
bS'RF'
p3729
tp3730
Rp3731
sg78
I3
sg106
g3704
sg79
g80
sg81
g11
(g15
S'\x1d\xa9\xd7\x91z\x1d\xe9?'
p3732
tp3733
Rp3734
sg85
g86
sg87
g88
sbag4
(g5
g6
Ntp3735
Rp3736
(dp3737
g10
g11
(g15
S'\x00\x00\x00\x00\x00\x00\xf8\xff'
p3738
tp3739
Rp3740
sg95
g11
(g15
S'\x00\x00\x00\x00\x00\xc0r@'
p3741
tp3742
Rp3743
sg30
g31
sg21
g11
(g24
S'\x05\x00\x00\x00\x00\x00\x00\x00'
p3744
tp3745
Rp3746
sg32
(dp3747
g95
g3743
sg21
g3746
sg202
g11
(g24
S'\x02\x00\x00\x00\x00\x00\x00\x00'
p3748
tp3749
Rp3750
sg38
g11
(g24
S'\x02\x00\x00\x00\x00\x00\x00\x00'
p3751
tp3752
Rp3753
sg106
g11
(g15
S'\x89\x0b7S\x132\xe4?'
p3754
tp3755
Rp3756
ssg46
g11
(g12
(S'S6'
p3757
I0
I1
tp3758
Rp3759
(I3
S'|'
p3760
NNNI6
I1
I0
tp3761
bS'ISOMAP'
p3762
tp3763
Rp3764
sg55
F0.2
sg38
g3753
sg56
g11
(g12
(S'S8'
p3765
I0
I1
tp3766
Rp3767
(I3
S'|'
p3768
NNNI8
I1
I0
tp3769
bS'haralick'
p3770
tp3771
Rp3772
sg202
g3750
sg65
g11
(g15
S'#\xa4\xad\x03)\xe1\xf0?'
p3773
tp3774
Rp3775
sg69
g11
(g12
(S'S2'
p3776
I0
I1
tp3777
Rp3778
(I3
S'|'
p3779
NNNI2
I1
I0
tp3780
bS'RF'
p3781
tp3782
Rp3783
sg78
I3
sg106
g3756
sg79
g80
sg81
g11
(g15
S'\x88\x88\x88\x88\x88\x88\xe8?'
p3784
tp3785
Rp3786
sg85
g86
sg87
g88
sbag4
(g5
g6
Ntp3787
Rp3788
(dp3789
g10
g11
(g15
S'\x00\x00\x00\x00\x00\x00\xf8\xff'
p3790
tp3791
Rp3792
sg95
g11
(g15
S'\x00\x00\x00\x00\x00@a@'
p3793
tp3794
Rp3795
sg30
g31
sg21
g11
(g24
S'\x06\x00\x00\x00\x00\x00\x00\x00'
p3796
tp3797
Rp3798
sg32
(dp3799
g95
g3795
sg21
g3798
sg202
g11
(g24
S'\x03\x00\x00\x00\x00\x00\x00\x00'
p3800
tp3801
Rp3802
sg38
g11
(g24
S'\x03\x00\x00\x00\x00\x00\x00\x00'
p3803
tp3804
Rp3805
sg106
g11
(g15
S'\x01\xa3E)\x8fl\xe7?'
p3806
tp3807
Rp3808
ssg46
g11
(g12
(S'S6'
p3809
I0
I1
tp3810
Rp3811
(I3
S'|'
p3812
NNNI6
I1
I0
tp3813
bS'ISOMAP'
p3814
tp3815
Rp3816
sg55
F0.2
sg38
g3805
sg56
g11
(g12
(S'S8'
p3817
I0
I1
tp3818
Rp3819
(I3
S'|'
p3820
NNNI8
I1
I0
tp3821
bS'haralick'
p3822
tp3823
Rp3824
sg202
g3802
sg65
g11
(g15
S'\xab\xb8\xb0\xb5\xe2=\xef?'
p3825
tp3826
Rp3827
sg69
g11
(g12
(S'S2'
p3828
I0
I1
tp3829
Rp3830
(I3
S'|'
p3831
NNNI2
I1
I0
tp3832
bS'RF'
p3833
tp3834
Rp3835
sg78
I3
sg106
g3808
sg79
g80
sg81
g11
(g15
S'\x8d\x01\xd3\x180\x8d\xe9?'
p3836
tp3837
Rp3838
sg85
g86
sg87
g88
sbag4
(g5
g6
Ntp3839
Rp3840
(dp3841
g10
g11
(g15
S'\x00\x00\x00\x00\x00\x00\xf8\xff'
p3842
tp3843
Rp3844
sg21
g11
(g24
S'\x05\x00\x00\x00\x00\x00\x00\x00'
p3845
tp3846
Rp3847
sg30
g31
sg32
(dp3848
g21
g3847
sg34
g11
(g15
S'S\xc9\x1b\xb0\x0f\xb67@'
p3849
tp3850
Rp3851
sg38
g11
(g24
S'\x02\x00\x00\x00\x00\x00\x00\x00'
p3852
tp3853
Rp3854
sg42
g11
(g15
S'\x844\xf9\xf9\xb25\x17@'
p3855
tp3856
Rp3857
ssg42
g3857
sg46
g11
(g12
(S'S6'
p3858
I0
I1
tp3859
Rp3860
(I3
S'|'
p3861
NNNI6
I1
I0
tp3862
bS'ISOMAP'
p3863
tp3864
Rp3865
sg55
F0.2
sg38
g3854
sg56
g11
(g12
(S'S9'
p3866
I0
I1
tp3867
Rp3868
(I3
S'|'
p3869
NNNI9
I1
I0
tp3870
bS'inception'
p3871
tp3872
Rp3873
sg34
g3851
sg65
g11
(g15
S'\x88(6F?\xa6\xe2?'
p3874
tp3875
Rp3876
sg69
g11
(g12
(S'S3'
p3877
I0
I1
tp3878
Rp3879
(I3
S'|'
p3880
NNNI3
I1
I0
tp3881
bS'SVM'
p3882
tp3883
Rp3884
sg78
I3
sg79
g80
sg81
g11
(g15
S'0\x8d\x01\xd3\x180\xe5?'
p3885
tp3886
Rp3887
sg85
g86
sg87
g88
sbag4
(g5
g6
Ntp3888
Rp3889
(dp3890
g10
g11
(g15
S'\x00\x00\x00\x00\x00\x00\xf8\xff'
p3891
tp3892
Rp3893
sg248
g308
sg30
g31
sg32
(dp3894
g248
g308
sg34
g11
(g15
S'/\xb5\x06\xf8\xae:X@'
p3895
tp3896
Rp3897
sg202
g11
(g24
S'\x01\x00\x00\x00\x00\x00\x00\x00'
p3898
tp3899
Rp3900
sg42
g11
(g15
S'\xf2\xfd\xed\x10\xda\xd6\xba?'
p3901
tp3902
Rp3903
ssg46
g11
(g12
(S'S3'
p3904
I0
I1
tp3905
Rp3906
(I3
S'|'
p3907
NNNI3
I1
I0
tp3908
bS'PCA'
p3909
tp3910
Rp3911
sg55
F0.2
sg42
g3903
sg56
g11
(g12
(S'S8'
p3912
I0
I1
tp3913
Rp3914
(I3
S'|'
p3915
NNNI8
I1
I0
tp3916
bS'haralick'
p3917
tp3918
Rp3919
sg34
g3897
sg202
g3900
sg65
g11
(g15
S'\xdfz\xc8&b\x95\xe0?'
p3920
tp3921
Rp3922
sg69
g11
(g12
(S'S3'
p3923
I0
I1
tp3924
Rp3925
(I3
S'|'
p3926
NNNI3
I1
I0
tp3927
bS'SVM'
p3928
tp3929
Rp3930
sg78
I3
sg79
g80
sg81
g11
(g15
S'\xfdY\xce\x9f\xe5\xfc\xe1?'
p3931
tp3932
Rp3933
sg85
g86
sg87
g88
sbag4
(g5
g6
Ntp3934
Rp3935
(dp3936
g10
g11
(g15
S'\x00\x00\x00\x00\x00\x00\xf8\xff'
p3937
tp3938
Rp3939
sg248
g308
sg30
g31
sg32
(dp3940
g248
g308
sg34
g11
(g15
S'\xf5\x15\xd4\x12\xc9qE@'
p3941
tp3942
Rp3943
sg42
g11
(g15
S'\xc9qWp\xd3\xe6\x1e@'
p3944
tp3945
Rp3946
ssg46
g11
(g12
(S'S3'
p3947
I0
I1
tp3948
Rp3949
(I3
S'|'
p3950
NNNI3
I1
I0
tp3951
bS'PCA'
p3952
tp3953
Rp3954
sg55
F0.2
sg42
g3946
sg56
g11
(g12
(S'S3'
p3955
I0
I1
tp3956
Rp3957
(I3
S'|'
p3958
NNNI3
I1
I0
tp3959
bS'VGG'
p3960
tp3961
Rp3962
sg34
g3943
sg65
g11
(g15
S'#\xd7\xd1\xb1\xe0\xcf\xe0?'
p3963
tp3964
Rp3965
sg69
g11
(g12
(S'S3'
p3966
I0
I1
tp3967
Rp3968
(I3
S'|'
p3969
NNNI3
I1
I0
tp3970
bS'SVM'
p3971
tp3972
Rp3973
sg78
I3
sg79
g80
sg81
g11
(g15
S'\x05yJ\x90\xa7\x04\xe9?'
p3974
tp3975
Rp3976
sg85
g86
sg87
g88
sbag4
(g5
g6
Ntp3977
Rp3978
(dp3979
g10
g11
(g15
S'\x00\x00\x00\x00\x00\x00\xf8\xff'
p3980
tp3981
Rp3982
sg21
g11
(g24
S'\x04\x00\x00\x00\x00\x00\x00\x00'
p3983
tp3984
Rp3985
sg30
g31
sg32
(dp3986
g21
g3985
sg34
g11
(g15
S'\t\x07\xa8\xa0\xce\x95N@'
p3987
tp3988
Rp3989
sg202
g11
(g24
S'\x02\x00\x00\x00\x00\x00\x00\x00'
p3990
tp3991
Rp3992
sg38
g11
(g24
S'\x02\x00\x00\x00\x00\x00\x00\x00'
p3993
tp3994
Rp3995
sg42
g11
(g15
S'?\xa2=\xa0\xd5\x04\n@'
p3996
tp3997
Rp3998
ssg42
g3998
sg46
g11
(g12
(S'S6'
p3999
I0
I1
tp4000
Rp4001
(I3
S'|'
p4002
NNNI6
I1
I0
tp4003
bS'ISOMAP'
p4004
tp4005
Rp4006
sg55
F0.2
sg38
g3995
sg56
g11
(g12
(S'S8'
p4007
I0
I1
tp4008
Rp4009
(I3
S'|'
p4010
NNNI8
I1
I0
tp4011
bS'haralick'
p4012
tp4013
Rp4014
sg34
g3989
sg202
g3992
sg65
g11
(g15
S't\x8bd\xc6\xce\x0b\xe0?'
p4015
tp4016
Rp4017
sg69
g11
(g12
(S'S3'
p4018
I0
I1
tp4019
Rp4020
(I3
S'|'
p4021
NNNI3
I1
I0
tp4022
bS'SVM'
p4023
tp4024
Rp4025
sg78
I3
sg79
g80
sg81
g11
(g15
S'\xa4^G\xeau\xa4\xe6?'
p4026
tp4027
Rp4028
sg85
g86
sg87
g88
sbag4
(g5
g6
Ntp4029
Rp4030
(dp4031
g10
g11
(g15
S'\x00\x00\x00\x00\x00\x00\xf8\xff'
p4032
tp4033
Rp4034
sg248
g256
sg30
g31
sg32
(dp4035
g248
g256
sg34
g11
(g15
S'\x9f\xa5;\xc2\xc9\xe6\x1e@'
p4036
tp4037
Rp4038
sg42
g11
(g15
S'\xc3jwi\xb7j\x1e@'
p4039
tp4040
Rp4041
ssg46
g11
(g12
(S'S3'
p4042
I0
I1
tp4043
Rp4044
(I3
S'|'
p4045
NNNI3
I1
I0
tp4046
bS'PCA'
p4047
tp4048
Rp4049
sg55
F0.2
sg42
g4041
sg56
g11
(g12
(S'S9'
p4050
I0
I1
tp4051
Rp4052
(I3
S'|'
p4053
NNNI9
I1
I0
tp4054
bS'inception'
p4055
tp4056
Rp4057
sg34
g4038
sg65
g11
(g15
S' \xfa\x80\xef\xb6<\xe1?'
p4058
tp4059
Rp4060
sg69
g11
(g12
(S'S3'
p4061
I0
I1
tp4062
Rp4063
(I3
S'|'
p4064
NNNI3
I1
I0
tp4065
bS'SVM'
p4066
tp4067
Rp4068
sg78
I3
sg79
g80
sg81
g11
(g15
S'\xff,\xe7\xcfr\xfe\xe4?'
p4069
tp4070
Rp4071
sg85
g86
sg87
g88
sbag4
(g5
g6
Ntp4072
Rp4073
(dp4074
g10
g11
(g15
S'\x00\x00\x00\x00\x00\x00\xf8\xff'
p4075
tp4076
Rp4077
sg21
g11
(g24
S'\x04\x00\x00\x00\x00\x00\x00\x00'
p4078
tp4079
Rp4080
sg30
g31
sg32
(dp4081
g21
g4080
sg34
g11
(g15
S'\x15\xad\xb7\x00\xc8\x80U@'
p4082
tp4083
Rp4084
sg202
g11
(g24
S'\x02\x00\x00\x00\x00\x00\x00\x00'
p4085
tp4086
Rp4087
sg38
g11
(g24
S'\x02\x00\x00\x00\x00\x00\x00\x00'
p4088
tp4089
Rp4090
sg42
g11
(g15
S'\x1eS\xbc\x0f\x17\xe2\x08@'
p4091
tp4092
Rp4093
ssg42
g4093
sg46
g11
(g12
(S'S6'
p4094
I0
I1
tp4095
Rp4096
(I3
S'|'
p4097
NNNI6
I1
I0
tp4098
bS'ISOMAP'
p4099
tp4100
Rp4101
sg55
F0.2
sg38
g4090
sg56
g11
(g12
(S'S8'
p4102
I0
I1
tp4103
Rp4104
(I3
S'|'
p4105
NNNI8
I1
I0
tp4106
bS'haralick'
p4107
tp4108
Rp4109
sg34
g4084
sg202
g4087
sg65
g11
(g15
S'\xb3;\xdb\xd0\xe1\x05\xdf?'
p4110
tp4111
Rp4112
sg69
g11
(g12
(S'S3'
p4113
I0
I1
tp4114
Rp4115
(I3
S'|'
p4116
NNNI3
I1
I0
tp4117
bS'SVM'
p4118
tp4119
Rp4120
sg78
I3
sg79
g80
sg81
g11
(g15
S'\xac}\xc3\xda7\xac\xe5?'
p4121
tp4122
Rp4123
sg85
g86
sg87
g88
sbag4
(g5
g6
Ntp4124
Rp4125
(dp4126
g10
g11
(g15
S'\x00\x00\x00\x00\x00\x00\xf8\xff'
p4127
tp4128
Rp4129
sg95
g11
(g15
S'\x00\x00\x00\x00\x00`i@'
p4130
tp4131
Rp4132
sg248
g308
sg30
g31
sg32
(dp4133
g95
g4132
sg106
g11
(g15
S'\xbeH\xa6\xa5\xb5g\xe3?'
p4134
tp4135
Rp4136
sg248
g308
sg202
g11
(g24
S'\x03\x00\x00\x00\x00\x00\x00\x00'
p4137
tp4138
Rp4139
ssg46
g11
(g12
(S'S3'
p4140
I0
I1
tp4141
Rp4142
(I3
S'|'
p4143
NNNI3
I1
I0
tp4144
bS'PCA'
p4145
tp4146
Rp4147
sg55
F0.2
sg56
g11
(g12
(S'S8'
p4148
I0
I1
tp4149
Rp4150
(I3
S'|'
p4151
NNNI8
I1
I0
tp4152
bS'haralick'
p4153
tp4154
Rp4155
sg202
g4139
sg65
g11
(g15
S'\xff\x0c7\xcd\x00\x1a\xd7?'
p4156
tp4157
Rp4158
sg69
g11
(g12
(S'S2'
p4159
I0
I1
tp4160
Rp4161
(I3
S'|'
p4162
NNNI2
I1
I0
tp4163
bS'RF'
p4164
tp4165
Rp4166
sg78
I3
sg106
g4136
sg79
g80
sg81
g11
(g15
S'\x95\xf3g9\x7f\x96\xeb?'
p4167
tp4168
Rp4169
sg85
g86
sg87
g88
sbag4
(g5
g6
Ntp4170
Rp4171
(dp4172
g10
g11
(g15
S'\x00\x00\x00\x00\x00\x00\xf8\xff'
p4173
tp4174
Rp4175
sg95
g11
(g15
S'\x00\x00\x00\x00\x00`i@'
p4176
tp4177
Rp4178
sg248
g256
sg30
g31
sg32
(dp4179
g95
g4178
sg106
g11
(g15
S'\xb8\xf2\xd56\x9a\x1e\xec?'
p4180
tp4181
Rp4182
sg248
g256
ssg46
g11
(g12
(S'S3'
p4183
I0
I1
tp4184
Rp4185
(I3
S'|'
p4186
NNNI3
I1
I0
tp4187
bS'PCA'
p4188
tp4189
Rp4190
sg55
F0.2
sg56
g11
(g12
(S'S9'
p4191
I0
I1
tp4192
Rp4193
(I3
S'|'
p4194
NNNI9
I1
I0
tp4195
bS'inception'
p4196
tp4197
Rp4198
sg65
g11
(g15
S'\x17\xc29\x12\x02\xa4\xe1?'
p4199
tp4200
Rp4201
sg69
g11
(g12
(S'S2'
p4202
I0
I1
tp4203
Rp4204
(I3
S'|'
p4205
NNNI2
I1
I0
tp4206
bS'RF'
p4207
tp4208
Rp4209
sg78
I3
sg106
g4182
sg79
g80
sg81
g11
(g15
S'\r\x98\xc6\x80i\x0c\xe8?'
p4210
tp4211
Rp4212
sg85
g86
sg87
g88
sbag4
(g5
g6
Ntp4213
Rp4214
(dp4215
g10
g11
(g15
S'\x00\x00\x00\x00\x00\x00\xf8\xff'
p4216
tp4217
Rp4218
sg95
g11
(g15
S'\x00\x00\x00\x00\x00`m@'
p4219
tp4220
Rp4221
sg248
g256
sg30
g31
sg32
(dp4222
g95
g4221
sg106
g11
(g15
S'\x0f\xe1\x9e\xed\xf9\xeb\xe1?'
p4223
tp4224
Rp4225
sg248
g256
ssg46
g11
(g12
(S'S3'
p4226
I0
I1
tp4227
Rp4228
(I3
S'|'
p4229
NNNI3
I1
I0
tp4230
bS'PCA'
p4231
tp4232
Rp4233
sg55
F0.2
sg56
g11
(g12
(S'S9'
p4234
I0
I1
tp4235
Rp4236
(I3
S'|'
p4237
NNNI9
I1
I0
tp4238
bS'inception'
p4239
tp4240
Rp4241
sg65
g11
(g15
S'c\xa7\xc4\xcf\x86\xb9\xe0?'
p4242
tp4243
Rp4244
sg69
g11
(g12
(S'S2'
p4245
I0
I1
tp4246
Rp4247
(I3
S'|'
p4248
NNNI2
I1
I0
tp4249
bS'RF'
p4250
tp4251
Rp4252
sg78
I3
sg106
g4225
sg79
g80
sg81
g11
(g15
S'\x190\x8d\x01\xd3\x18\xe8?'
p4253
tp4254
Rp4255
sg85
g86
sg87
g88
sbag4
(g5
g6
Ntp4256
Rp4257
(dp4258
g10
g11
(g15
S'\x00\x00\x00\x00\x00\x00\xf8\xff'
p4259
tp4260
Rp4261
sg95
g11
(g15
S'\x00\x00\x00\x00\x00\xc0r@'
p4262
tp4263
Rp4264
sg248
g256
sg30
g31
sg32
(dp4265
g95
g4264
sg106
g11
(g15
S'6\xca\xe2G\xcew\xeb?'
p4266
tp4267
Rp4268
sg248
g256
ssg46
g11
(g12
(S'S3'
p4269
I0
I1
tp4270
Rp4271
(I3
S'|'
p4272
NNNI3
I1
I0
tp4273
bS'PCA'
p4274
tp4275
Rp4276
sg55
F0.2
sg56
g11
(g12
(S'S3'
p4277
I0
I1
tp4278
Rp4279
(I3
S'|'
p4280
NNNI3
I1
I0
tp4281
bS'VGG'
p4282
tp4283
Rp4284
sg65
g11
(g15
S'\xaf\x84^\x80uu\xdb?'
p4285
tp4286
Rp4287
sg69
g11
(g12
(S'S2'
p4288
I0
I1
tp4289
Rp4290
(I3
S'|'
p4291
NNNI2
I1
I0
tp4292
bS'RF'
p4293
tp4294
Rp4295
sg78
I3
sg106
g4268
sg79
g80
sg81
g11
(g15
S'\t\xf2\x94 O\t\xea?'
p4296
tp4297
Rp4298
sg85
g86
sg87
g88
sbag4
(g5
g6
Ntp4299
Rp4300
(dp4301
g10
g11
(g15
S'\x00\x00\x00\x00\x00\x00\xf8\xff'
p4302
tp4303
Rp4304
sg95
g11
(g15
S'\x00\x00\x00\x00\x00\x00 @'
p4305
tp4306
Rp4307
sg248
g256
sg30
g31
sg32
(dp4308
g95
g4307
sg106
g11
(g15
S'^\x80K\xcf\xe5b\xdd?'
p4309
tp4310
Rp4311
sg248
g256
ssg46
g11
(g12
(S'S3'
p4312
I0
I1
tp4313
Rp4314
(I3
S'|'
p4315
NNNI3
I1
I0
tp4316
bS'PCA'
p4317
tp4318
Rp4319
sg55
F0.2
sg56
g11
(g12
(S'S3'
p4320
I0
I1
tp4321
Rp4322
(I3
S'|'
p4323
NNNI3
I1
I0
tp4324
bS'VGG'
p4325
tp4326
Rp4327
sg65
g11
(g15
S'\x99<\xd6\xb6aT\xff?'
p4328
tp4329
Rp4330
sg69
g11
(g12
(S'S2'
p4331
I0
I1
tp4332
Rp4333
(I3
S'|'
p4334
NNNI2
I1
I0
tp4335
bS'RF'
p4336
tp4337
Rp4338
sg78
I3
sg106
g4311
sg79
g80
sg81
g11
(g15
S'\r\x98\xc6\x80i\x0c\xe8?'
p4339
tp4340
Rp4341
sg85
g86
sg87
g88
sbag4
(g5
g6
Ntp4342
Rp4343
(dp4344
g10
g11
(g15
S'\x00\x00\x00\x00\x00\x00\xf8\xff'
p4345
tp4346
Rp4347
sg95
g11
(g15
S'\x00\x00\x00\x00\x00\x00 @'
p4348
tp4349
Rp4350
sg30
g31
sg21
g11
(g24
S'\x07\x00\x00\x00\x00\x00\x00\x00'
p4351
tp4352
Rp4353
sg32
(dp4354
g95
g4350
sg21
g4353
sg202
g11
(g24
S'\x03\x00\x00\x00\x00\x00\x00\x00'
p4355
tp4356
Rp4357
sg38
g11
(g24
S'\x02\x00\x00\x00\x00\x00\x00\x00'
p4358
tp4359
Rp4360
sg106
g11
(g15
S'\x8bp\x90\xf6\xe2\x16\xde?'
p4361
tp4362
Rp4363
ssg46
g11
(g12
(S'S6'
p4364
I0
I1
tp4365
Rp4366
(I3
S'|'
p4367
NNNI6
I1
I0
tp4368
bS'ISOMAP'
p4369
tp4370
Rp4371
sg55
F0.2
sg38
g4360
sg56
g11
(g12
(S'S8'
p4372
I0
I1
tp4373
Rp4374
(I3
S'|'
p4375
NNNI8
I1
I0
tp4376
bS'haralick'
p4377
tp4378
Rp4379
sg202
g4357
sg65
g11
(g15
S'#v\xd4\xec=\xc1\xf7?'
p4380
tp4381
Rp4382
sg69
g11
(g12
(S'S2'
p4383
I0
I1
tp4384
Rp4385
(I3
S'|'
p4386
NNNI2
I1
I0
tp4387
bS'RF'
p4388
tp4389
Rp4390
sg78
I3
sg106
g4363
sg79
g80
sg81
g11
(g15
S'%\xc8S\x82<%\xe8?'
p4391
tp4392
Rp4393
sg85
g86
sg87
g88
sbag4
(g5
g6
Ntp4394
Rp4395
(dp4396
g10
g11
(g15
S'\x00\x00\x00\x00\x00\x00\xf8\xff'
p4397
tp4398
Rp4399
sg248
g256
sg30
g31
sg32
(dp4400
g248
g256
sg34
g11
(g15
S'\xa6\xf3w\xf4\xca\x8bF@'
p4401
tp4402
Rp4403
sg42
g11
(g15
S'\xd3\xeb\x03(\xe7\x18\xf4?'
p4404
tp4405
Rp4406
ssg46
g11
(g12
(S'S3'
p4407
I0
I1
tp4408
Rp4409
(I3
S'|'
p4410
NNNI3
I1
I0
tp4411
bS'PCA'
p4412
tp4413
Rp4414
sg55
F0.2
sg42
g4406
sg56
g11
(g12
(S'S9'
p4415
I0
I1
tp4416
Rp4417
(I3
S'|'
p4418
NNNI9
I1
I0
tp4419
bS'inception'
p4420
tp4421
Rp4422
sg34
g4403
sg65
g11
(g15
S'=~E"\x8b\x1a\xe3?'
p4423
tp4424
Rp4425
sg69
g11
(g12
(S'S3'
p4426
I0
I1
tp4427
Rp4428
(I3
S'|'
p4429
NNNI3
I1
I0
tp4430
bS'SVM'
p4431
tp4432
Rp4433
sg78
I3
sg79
g80
sg81
g11
(g15
S'\x8e\xd4\xebH\xbd\x8e\xe4?'
p4434
tp4435
Rp4436
sg85
g86
sg87
g88
sbag4
(g5
g6
Ntp4437
Rp4438
(dp4439
g10
g11
(g15
S'\x00\x00\x00\x00\x00\x00\xf8\xff'
p4440
tp4441
Rp4442
sg248
g256
sg30
g31
sg32
(dp4443
g248
g256
sg34
g11
(g15
S'\x80\xf9Cy\xa9\xe02@'
p4444
tp4445
Rp4446
sg42
g11
(g15
S'\x0cB\xc6\xa6f\x8a\x1e@'
p4447
tp4448
Rp4449
ssg46
g11
(g12
(S'S3'
p4450
I0
I1
tp4451
Rp4452
(I3
S'|'
p4453
NNNI3
I1
I0
tp4454
bS'PCA'
p4455
tp4456
Rp4457
sg55
F0.2
sg42
g4449
sg56
g11
(g12
(S'S9'
p4458
I0
I1
tp4459
Rp4460
(I3
S'|'
p4461
NNNI9
I1
I0
tp4462
bS'inception'
p4463
tp4464
Rp4465
sg34
g4446
sg65
g11
(g15
S'ug\x1f94\x86\xe3?'
p4466
tp4467
Rp4468
sg69
g11
(g12
(S'S3'
p4469
I0
I1
tp4470
Rp4471
(I3
S'|'
p4472
NNNI3
I1
I0
tp4473
bS'SVM'
p4474
tp4475
Rp4476
sg78
I3
sg79
g80
sg81
g11
(g15
S'\xff,\xe7\xcfr\xfe\xe4?'
p4477
tp4478
Rp4479
sg85
g86
sg87
g88
sbag4
(g5
g6
Ntp4480
Rp4481
(dp4482
g10
g11
(g15
S'\x00\x00\x00\x00\x00\x00\xf8\xff'
p4483
tp4484
Rp4485
sg21
g11
(g24
S'\x07\x00\x00\x00\x00\x00\x00\x00'
p4486
tp4487
Rp4488
sg30
g31
sg32
(dp4489
g21
g4488
sg34
g11
(g15
S'\x08\xf5d\xa1[\x19#@'
p4490
tp4491
Rp4492
sg38
g11
(g24
S'\x03\x00\x00\x00\x00\x00\x00\x00'
p4493
tp4494
Rp4495
sg42
g11
(g15
S'=M\xc2&\xbd.\x07@'
p4496
tp4497
Rp4498
ssg42
g4498
sg46
g11
(g12
(S'S6'
p4499
I0
I1
tp4500
Rp4501
(I3
S'|'
p4502
NNNI6
I1
I0
tp4503
bS'ISOMAP'
p4504
tp4505
Rp4506
sg55
F0.2
sg38
g4495
sg56
g11
(g12
(S'S3'
p4507
I0
I1
tp4508
Rp4509
(I3
S'|'
p4510
NNNI3
I1
I0
tp4511
bS'VGG'
p4512
tp4513
Rp4514
sg34
g4492
sg65
g11
(g15
S'q\x16Q\x84\xc4q\xe2?'
p4515
tp4516
Rp4517
sg69
g11
(g12
(S'S3'
p4518
I0
I1
tp4519
Rp4520
(I3
S'|'
p4521
NNNI3
I1
I0
tp4522
bS'SVM'
p4523
tp4524
Rp4525
sg78
I3
sg79
g80
sg81
g11
(g15
S'\xa9\xd7\x91z\x1d\xa9\xe7?'
p4526
tp4527
Rp4528
sg85
g86
sg87
g88
sbag4
(g5
g6
Ntp4529
Rp4530
(dp4531
g10
g11
(g15
S'\x00\x00\x00\x00\x00\x00\xf8\xff'
p4532
tp4533
Rp4534
sg95
g11
(g15
S'\x00\x00\x00\x00\x00\xc0r@'
p4535
tp4536
Rp4537
sg248
g256
sg30
g31
sg32
(dp4538
g95
g4537
sg106
g11
(g15
S'\xa5\x82\xd7b\xf7/\xd7?'
p4539
tp4540
Rp4541
sg248
g256
sg202
g11
(g24
S'\x01\x00\x00\x00\x00\x00\x00\x00'
p4542
tp4543
Rp4544
ssg46
g11
(g12
(S'S3'
p4545
I0
I1
tp4546
Rp4547
(I3
S'|'
p4548
NNNI3
I1
I0
tp4549
bS'PCA'
p4550
tp4551
Rp4552
sg55
F0.2
sg56
g11
(g12
(S'S8'
p4553
I0
I1
tp4554
Rp4555
(I3
S'|'
p4556
NNNI8
I1
I0
tp4557
bS'haralick'
p4558
tp4559
Rp4560
sg202
g4544
sg65
g11
(g15
S'\xda\xf2~\xb1+\xc5\xf3?'
p4561
tp4562
Rp4563
sg69
g11
(g12
(S'S2'
p4564
I0
I1
tp4565
Rp4566
(I3
S'|'
p4567
NNNI2
I1
I0
tp4568
bS'RF'
p4569
tp4570
Rp4571
sg78
I3
sg106
g4541
sg79
g80
sg81
g11
(g15
S'\x1c\xd6\xbea\xed\x1b\xe6?'
p4572
tp4573
Rp4574
sg85
g86
sg87
g88
sbag4
(g5
g6
Ntp4575
Rp4576
(dp4577
g10
g11
(g15
S'\x00\x00\x00\x00\x00\x00\xf8\xff'
p4578
tp4579
Rp4580
sg95
g11
(g15
S'\x00\x00\x00\x00\x00\x00D@'
p4581
tp4582
Rp4583
sg248
g256
sg30
g31
sg32
(dp4584
g95
g4583
sg106
g11
(g15
S'"\xa2e%q\xad\xe6?'
p4585
tp4586
Rp4587
sg248
g256
ssg46
g11
(g12
(S'S3'
p4588
I0
I1
tp4589
Rp4590
(I3
S'|'
p4591
NNNI3
I1
I0
tp4592
bS'PCA'
p4593
tp4594
Rp4595
sg55
F0.2
sg56
g11
(g12
(S'S9'
p4596
I0
I1
tp4597
Rp4598
(I3
S'|'
p4599
NNNI9
I1
I0
tp4600
bS'inception'
p4601
tp4602
Rp4603
sg65
g11
(g15
S'\xe3\xe0\xaa\xb0\xc6l\xf0?'
p4604
tp4605
Rp4606
sg69
g11
(g12
(S'S2'
p4607
I0
I1
tp4608
Rp4609
(I3
S'|'
p4610
NNNI2
I1
I0
tp4611
bS'RF'
p4612
tp4613
Rp4614
sg78
I3
sg106
g4587
sg79
g80
sg81
g11
(g15
S'\x95 O\t\xf2\x94\xe8?'
p4615
tp4616
Rp4617
sg85
g86
sg87
g88
sbag4
(g5
g6
Ntp4618
Rp4619
(dp4620
g10
g11
(g15
S'\x00\x00\x00\x00\x00\x00\xf8\xff'
p4621
tp4622
Rp4623
sg248
g256
sg30
g31
sg32
(dp4624
g248
g256
sg34
g11
(g15
S'`\xc7\x18^W\x9aI@'
p4625
tp4626
Rp4627
sg42
g11
(g15
S')GW\x11\x8f=\x06@'
p4628
tp4629
Rp4630
ssg46
g11
(g12
(S'S3'
p4631
I0
I1
tp4632
Rp4633
(I3
S'|'
p4634
NNNI3
I1
I0
tp4635
bS'PCA'
p4636
tp4637
Rp4638
sg55
F0.2
sg42
g4630
sg56
g11
(g12
(S'S9'
p4639
I0
I1
tp4640
Rp4641
(I3
S'|'
p4642
NNNI9
I1
I0
tp4643
bS'inception'
p4644
tp4645
Rp4646
sg34
g4627
sg65
g11
(g15
S'\xc35\x03}\x9a*\xe2?'
p4647
tp4648
Rp4649
sg69
g11
(g12
(S'S3'
p4650
I0
I1
tp4651
Rp4652
(I3
S'|'
p4653
NNNI3
I1
I0
tp4654
bS'SVM'
p4655
tp4656
Rp4657
sg78
I3
sg79
g80
sg81
g11
(g15
S'\x12\xe4)A\x9e\x12\xe4?'
p4658
tp4659
Rp4660
sg85
g86
sg87
g88
sbag4
(g5
g6
Ntp4661
Rp4662
(dp4663
g10
g11
(g15
S'\x00\x00\x00\x00\x00\x00\xf8\xff'
p4664
tp4665
Rp4666
sg95
g11
(g15
S'\x00\x00\x00\x00\x00@e@'
p4667
tp4668
Rp4669
sg248
g308
sg30
g31
sg32
(dp4670
g95
g4669
sg106
g11
(g15
S'r\xce\xd1\xcb\xbfA\xdd?'
p4671
tp4672
Rp4673
sg248
g308
ssg46
g11
(g12
(S'S3'
p4674
I0
I1
tp4675
Rp4676
(I3
S'|'
p4677
NNNI3
I1
I0
tp4678
bS'PCA'
p4679
tp4680
Rp4681
sg55
F0.2
sg56
g11
(g12
(S'S9'
p4682
I0
I1
tp4683
Rp4684
(I3
S'|'
p4685
NNNI9
I1
I0
tp4686
bS'inception'
p4687
tp4688
Rp4689
sg65
g11
(g15
S'H\xd3\xec:\xa8\x9e\xe0?'
p4690
tp4691
Rp4692
sg69
g11
(g12
(S'S2'
p4693
I0
I1
tp4694
Rp4695
(I3
S'|'
p4696
NNNI2
I1
I0
tp4697
bS'RF'
p4698
tp4699
Rp4700
sg78
I3
sg106
g4673
sg79
g80
sg81
g11
(g15
S'\x190\x8d\x01\xd3\x18\xe8?'
p4701
tp4702
Rp4703
sg85
g86
sg87
g88
sbag4
(g5
g6
Ntp4704
Rp4705
(dp4706
g10
g11
(g15
S'\x00\x00\x00\x00\x00\x00\xf8\xff'
p4707
tp4708
Rp4709
sg95
g11
(g15
S'\x00\x00\x00\x00\x00\xc0p@'
p4710
tp4711
Rp4712
sg248
g308
sg30
g31
sg32
(dp4713
g95
g4712
sg106
g11
(g15
S'\x87\x84\x95\x01,\xc9\xd3?'
p4714
tp4715
Rp4716
sg248
g308
ssg46
g11
(g12
(S'S3'
p4717
I0
I1
tp4718
Rp4719
(I3
S'|'
p4720
NNNI3
I1
I0
tp4721
bS'PCA'
p4722
tp4723
Rp4724
sg55
F0.2
sg56
g11
(g12
(S'S3'
p4725
I0
I1
tp4726
Rp4727
(I3
S'|'
p4728
NNNI3
I1
I0
tp4729
bS'VGG'
p4730
tp4731
Rp4732
sg65
g11
(g15
S'\t\xde\xe8i\x160\xda?'
p4733
tp4734
Rp4735
sg69
g11
(g12
(S'S2'
p4736
I0
I1
tp4737
Rp4738
(I3
S'|'
p4739
NNNI2
I1
I0
tp4740
bS'RF'
p4741
tp4742
Rp4743
sg78
I3
sg106
g4716
sg79
g80
sg81
g11
(g15
S'\x85\xe2V(n\x85\xea?'
p4744
tp4745
Rp4746
sg85
g86
sg87
g88
sbag4
(g5
g6
Ntp4747
Rp4748
(dp4749
g10
g11
(g15
S'\x00\x00\x00\x00\x00\x00\xf8\xff'
p4750
tp4751
Rp4752
sg95
g11
(g15
S'\x00\x00\x00\x00\x00@Z@'
p4753
tp4754
Rp4755
sg248
g256
sg30
g31
sg32
(dp4756
g95
g4755
sg106
g11
(g15
S'\x1a\x97\x84o7r\xd5?'
p4757
tp4758
Rp4759
sg248
g256
sg202
g11
(g24
S'\x01\x00\x00\x00\x00\x00\x00\x00'
p4760
tp4761
Rp4762
ssg46
g11
(g12
(S'S3'
p4763
I0
I1
tp4764
Rp4765
(I3
S'|'
p4766
NNNI3
I1
I0
tp4767
bS'PCA'
p4768
tp4769
Rp4770
sg55
F0.2
sg56
g11
(g12
(S'S8'
p4771
I0
I1
tp4772
Rp4773
(I3
S'|'
p4774
NNNI8
I1
I0
tp4775
bS'haralick'
p4776
tp4777
Rp4778
sg202
g4762
sg65
g11
(g15
S'sj\xe6\x8c\\%\x01@'
p4779
tp4780
Rp4781
sg69
g11
(g12
(S'S2'
p4782
I0
I1
tp4783
Rp4784
(I3
S'|'
p4785
NNNI2
I1
I0
tp4786
bS'RF'
p4787
tp4788
Rp4789
sg78
I3
sg106
g4759
sg79
g80
sg81
g11
(g15
S'\x1c\xd6\xbea\xed\x1b\xe6?'
p4790
tp4791
Rp4792
sg85
g86
sg87
g88
sbag4
(g5
g6
Ntp4793
Rp4794
(dp4795
g10
g11
(g15
S'\x00\x00\x00\x00\x00\x00\xf8\xff'
p4796
tp4797
Rp4798
sg248
g308
sg30
g31
sg32
(dp4799
g248
g308
sg34
g11
(g15
S'\xef\xe6\xafi\xfbdT@'
p4800
tp4801
Rp4802
sg42
g11
(g15
S'\xda \xf1\xdf\x14\x12\xfd?'
p4803
tp4804
Rp4805
ssg46
g11
(g12
(S'S3'
p4806
I0
I1
tp4807
Rp4808
(I3
S'|'
p4809
NNNI3
I1
I0
tp4810
bS'PCA'
p4811
tp4812
Rp4813
sg55
F0.2
sg42
g4805
sg56
g11
(g12
(S'S9'
p4814
I0
I1
tp4815
Rp4816
(I3
S'|'
p4817
NNNI9
I1
I0
tp4818
bS'inception'
p4819
tp4820
Rp4821
sg34
g4802
sg65
g11
(g15
S'\xbf\xccR\xd6+\xdf\xe1?'
p4822
tp4823
Rp4824
sg69
g11
(g12
(S'S3'
p4825
I0
I1
tp4826
Rp4827
(I3
S'|'
p4828
NNNI3
I1
I0
tp4829
bS'SVM'
p4830
tp4831
Rp4832
sg78
I3
sg79
g80
sg81
g11
(g15
S'\x12\xe4)A\x9e\x12\xe4?'
p4833
tp4834
Rp4835
sg85
g86
sg87
g88
sbag4
(g5
g6
Ntp4836
Rp4837
(dp4838
g10
g11
(g15
S'\x00\x00\x00\x00\x00\x00\xf8\xff'
p4839
tp4840
Rp4841
sg95
g11
(g15
S'\x00\x00\x00\x00\x00`m@'
p4842
tp4843
Rp4844
sg30
g31
sg21
g11
(g24
S'\x06\x00\x00\x00\x00\x00\x00\x00'
p4845
tp4846
Rp4847
sg32
(dp4848
g95
g4844
sg21
g4847
sg202
g11
(g24
S'\x02\x00\x00\x00\x00\x00\x00\x00'
p4849
tp4850
Rp4851
sg38
g11
(g24
S'\x02\x00\x00\x00\x00\x00\x00\x00'
p4852
tp4853
Rp4854
sg106
g11
(g15
S'\x0c\x94\x18\xbe\x9e\xae\xe5?'
p4855
tp4856
Rp4857
ssg46
g11
(g12
(S'S6'
p4858
I0
I1
tp4859
Rp4860
(I3
S'|'
p4861
NNNI6
I1
I0
tp4862
bS'ISOMAP'
p4863
tp4864
Rp4865
sg55
F0.2
sg38
g4854
sg56
g11
(g12
(S'S8'
p4866
I0
I1
tp4867
Rp4868
(I3
S'|'
p4869
NNNI8
I1
I0
tp4870
bS'haralick'
p4871
tp4872
Rp4873
sg202
g4851
sg65
g11
(g15
S'}9\x98*F\xc0\xdb?'
p4874
tp4875
Rp4876
sg69
g11
(g12
(S'S2'
p4877
I0
I1
tp4878
Rp4879
(I3
S'|'
p4880
NNNI2
I1
I0
tp4881
bS'RF'
p4882
tp4883
Rp4884
sg78
I3
sg106
g4857
sg79
g80
sg81
g11
(g15
S'\x1d\xa9\xd7\x91z\x1d\xe9?'
p4885
tp4886
Rp4887
sg85
g86
sg87
g88
sbag4
(g5
g6
Ntp4888
Rp4889
(dp4890
g10
g11
(g15
S'\x00\x00\x00\x00\x00\x00\xf8\xff'
p4891
tp4892
Rp4893
sg95
g11
(g15
S'\x00\x00\x00\x00\x00\xc0p@'
p4894
tp4895
Rp4896
sg30
g31
sg21
g11
(g24
S'\x04\x00\x00\x00\x00\x00\x00\x00'
p4897
tp4898
Rp4899
sg32
(dp4900
g95
g4896
sg21
g4899
sg38
g11
(g24
S'\x02\x00\x00\x00\x00\x00\x00\x00'
p4901
tp4902
Rp4903
sg106
g11
(g15
S'\x1a\x80\xcdLg\x04\xea?'
p4904
tp4905
Rp4906
ssg46
g11
(g12
(S'S6'
p4907
I0
I1
tp4908
Rp4909
(I3
S'|'
p4910
NNNI6
I1
I0
tp4911
bS'ISOMAP'
p4912
tp4913
Rp4914
sg55
F0.2
sg38
g4903
sg56
g11
(g12
(S'S9'
p4915
I0
I1
tp4916
Rp4917
(I3
S'|'
p4918
NNNI9
I1
I0
tp4919
bS'inception'
p4920
tp4921
Rp4922
sg65
g11
(g15
S'\xd0\xde%\xac\xa4\xef\xe1?'
p4923
tp4924
Rp4925
sg69
g11
(g12
(S'S2'
p4926
I0
I1
tp4927
Rp4928
(I3
S'|'
p4929
NNNI2
I1
I0
tp4930
bS'RF'
p4931
tp4932
Rp4933
sg78
I3
sg106
g4906
sg79
g80
sg81
g11
(g15
S'\x98\xc6\x80i\x0c\x98\xe6?'
p4934
tp4935
Rp4936
sg85
g86
sg87
g88
sbag4
(g5
g6
Ntp4937
Rp4938
(dp4939
g10
g11
(g15
S'\x00\x00\x00\x00\x00\x00\xf8\xff'
p4940
tp4941
Rp4942
sg248
g256
sg30
g31
sg32
(dp4943
g248
g256
sg34
g11
(g15
S'M\xea\xa8oX\x93Q@'
p4944
tp4945
Rp4946
sg42
g11
(g15
S'\x0e\xec\n\xf6b\x8e\x16@'
p4947
tp4948
Rp4949
ssg46
g11
(g12
(S'S3'
p4950
I0
I1
tp4951
Rp4952
(I3
S'|'
p4953
NNNI3
I1
I0
tp4954
bS'PCA'
p4955
tp4956
Rp4957
sg55
F0.2
sg42
g4949
sg56
g11
(g12
(S'S3'
p4958
I0
I1
tp4959
Rp4960
(I3
S'|'
p4961
NNNI3
I1
I0
tp4962
bS'VGG'
p4963
tp4964
Rp4965
sg34
g4946
sg65
g11
(g15
S'\xe5\xa9,A\x87\xda\xe0?'
p4966
tp4967
Rp4968
sg69
g11
(g12
(S'S3'
p4969
I0
I1
tp4970
Rp4971
(I3
S'|'
p4972
NNNI3
I1
I0
tp4973
bS'SVM'
p4974
tp4975
Rp4976
sg78
I3
sg79
g80
sg81
g11
(g15
S'\x05yJ\x90\xa7\x04\xe9?'
p4977
tp4978
Rp4979
sg85
g86
sg87
g88
sbag4
(g5
g6
Ntp4980
Rp4981
(dp4982
g10
g11
(g15
S'\x00\x00\x00\x00\x00\x00\xf8\xff'
p4983
tp4984
Rp4985
sg95
g11
(g15
S'\x00\x00\x00\x00\x00\x00 @'
p4986
tp4987
Rp4988
sg248
g308
sg30
g31
sg32
(dp4989
g95
g4988
sg106
g11
(g15
S"B\x07\x15'\xa1\x81\xe3?"
p4990
tp4991
Rp4992
sg248
g308
ssg46
g11
(g12
(S'S3'
p4993
I0
I1
tp4994
Rp4995
(I3
S'|'
p4996
NNNI3
I1
I0
tp4997
bS'PCA'
p4998
tp4999
Rp5000
sg55
F0.2
sg56
g11
(g12
(S'S3'
p5001
I0
I1
tp5002
Rp5003
(I3
S'|'
p5004
NNNI3
I1
I0
tp5005
bS'VGG'
p5006
tp5007
Rp5008
sg65
g11
(g15
S'\x9bt\xedxeA\xd9?'
p5009
tp5010
Rp5011
sg69
g11
(g12
(S'S2'
p5012
I0
I1
tp5013
Rp5014
(I3
S'|'
p5015
NNNI2
I1
I0
tp5016
bS'RF'
p5017
tp5018
Rp5019
sg78
I3
sg106
g4992
sg79
g80
sg81
g11
(g15
S'\x99\x99\x99\x99\x99\x99\xe9?'
p5020
tp5021
Rp5022
sg85
g86
sg87
g88
sbag4
(g5
g6
Ntp5023
Rp5024
(dp5025
g10
g11
(g15
S'\x00\x00\x00\x00\x00\x00\xf8\xff'
p5026
tp5027
Rp5028
sg95
g11
(g15
S'\x00\x00\x00\x00\x00`i@'
p5029
tp5030
Rp5031
sg248
g256
sg30
g31
sg32
(dp5032
g95
g5031
sg106
g11
(g15
S'nyb\x93\x0b\xff\xdd?'
p5033
tp5034
Rp5035
sg248
g256
ssg46
g11
(g12
(S'S3'
p5036
I0
I1
tp5037
Rp5038
(I3
S'|'
p5039
NNNI3
I1
I0
tp5040
bS'PCA'
p5041
tp5042
Rp5043
sg55
F0.2
sg56
g11
(g12
(S'S3'
p5044
I0
I1
tp5045
Rp5046
(I3
S'|'
p5047
NNNI3
I1
I0
tp5048
bS'VGG'
p5049
tp5050
Rp5051
sg65
g11
(g15
S"mA8E\xc3'\xdb?"
p5052
tp5053
Rp5054
sg69
g11
(g12
(S'S2'
p5055
I0
I1
tp5056
Rp5057
(I3
S'|'
p5058
NNNI2
I1
I0
tp5059
bS'RF'
p5060
tp5061
Rp5062
sg78
I3
sg106
g5035
sg79
g80
sg81
g11
(g15
S'\x91z\x1d\xa9\xd7\x91\xea?'
p5063
tp5064
Rp5065
sg85
g86
sg87
g88
sbag4
(g5
g6
Ntp5066
Rp5067
(dp5068
g10
g11
(g15
S'\x00\x00\x00\x00\x00\x00\xf8\xff'
p5069
tp5070
Rp5071
sg95
g11
(g15
S'\x00\x00\x00\x00\x00\xc0p@'
p5072
tp5073
Rp5074
sg248
g256
sg30
g31
sg32
(dp5075
g95
g5074
sg106
g11
(g15
S'`[{\xc4_\xde\xe7?'
p5076
tp5077
Rp5078
sg248
g256
ssg46
g11
(g12
(S'S3'
p5079
I0
I1
tp5080
Rp5081
(I3
S'|'
p5082
NNNI3
I1
I0
tp5083
bS'PCA'
p5084
tp5085
Rp5086
sg55
F0.2
sg56
g11
(g12
(S'S9'
p5087
I0
I1
tp5088
Rp5089
(I3
S'|'
p5090
NNNI9
I1
I0
tp5091
bS'inception'
p5092
tp5093
Rp5094
sg65
g11
(g15
S'\xf1\x87~9\x97K\xe1?'
p5095
tp5096
Rp5097
sg69
g11
(g12
(S'S2'
p5098
I0
I1
tp5099
Rp5100
(I3
S'|'
p5101
NNNI2
I1
I0
tp5102
bS'RF'
p5103
tp5104
Rp5105
sg78
I3
sg106
g5078
sg79
g80
sg81
g11
(g15
S'\x190\x8d\x01\xd3\x18\xe8?'
p5106
tp5107
Rp5108
sg85
g86
sg87
g88
sbag4
(g5
g6
Ntp5109
Rp5110
(dp5111
g10
g11
(g15
S'\x00\x00\x00\x00\x00\x00\xf8\xff'
p5112
tp5113
Rp5114
sg21
g11
(g24
S'\x05\x00\x00\x00\x00\x00\x00\x00'
p5115
tp5116
Rp5117
sg30
g31
sg32
(dp5118
g21
g5117
sg34
g11
(g15
S'n\xf2}\x9c\x8dJ=@'
p5119
tp5120
Rp5121
sg202
g11
(g24
S'\x01\x00\x00\x00\x00\x00\x00\x00'
p5122
tp5123
Rp5124
sg38
g11
(g24
S'\x02\x00\x00\x00\x00\x00\x00\x00'
p5125
tp5126
Rp5127
sg42
g11
(g15
S'/\x83\xce\xdd\x8az\xf5?'
p5128
tp5129
Rp5130
ssg42
g5130
sg46
g11
(g12
(S'S6'
p5131
I0
I1
tp5132
Rp5133
(I3
S'|'
p5134
NNNI6
I1
I0
tp5135
bS'ISOMAP'
p5136
tp5137
Rp5138
sg55
F0.2
sg38
g5127
sg56
g11
(g12
(S'S8'
p5139
I0
I1
tp5140
Rp5141
(I3
S'|'
p5142
NNNI8
I1
I0
tp5143
bS'haralick'
p5144
tp5145
Rp5146
sg34
g5121
sg202
g5124
sg65
g11
(g15
S'\xfb\x8a\x99M$\x05\xdf?'
p5147
tp5148
Rp5149
sg69
g11
(g12
(S'S3'
p5150
I0
I1
tp5151
Rp5152
(I3
S'|'
p5153
NNNI3
I1
I0
tp5154
bS'SVM'
p5155
tp5156
Rp5157
sg78
I3
sg79
g80
sg81
g11
(g15
S'\xa4^G\xeau\xa4\xe6?'
p5158
tp5159
Rp5160
sg85
g86
sg87
g88
sbag4
(g5
g6
Ntp5161
Rp5162
(dp5163
g10
g11
(g15
S'\x00\x00\x00\x00\x00\x00\xf8\xff'
p5164
tp5165
Rp5166
sg95
g11
(g15
S'\x00\x00\x00\x00\x00\xc0r@'
p5167
tp5168
Rp5169
sg30
g31
sg21
g11
(g24
S'\x04\x00\x00\x00\x00\x00\x00\x00'
p5170
tp5171
Rp5172
sg32
(dp5173
g95
g5169
sg21
g5172
sg38
g11
(g24
S'\x04\x00\x00\x00\x00\x00\x00\x00'
p5174
tp5175
Rp5176
sg106
g11
(g15
S'\x0b\x99f\x08M\x91\xd9?'
p5177
tp5178
Rp5179
ssg46
g11
(g12
(S'S6'
p5180
I0
I1
tp5181
Rp5182
(I3
S'|'
p5183
NNNI6
I1
I0
tp5184
bS'ISOMAP'
p5185
tp5186
Rp5187
sg55
F0.2
sg38
g5176
sg56
g11
(g12
(S'S3'
p5188
I0
I1
tp5189
Rp5190
(I3
S'|'
p5191
NNNI3
I1
I0
tp5192
bS'VGG'
p5193
tp5194
Rp5195
sg65
g11
(g15
S'\xa8O\xcb\x02\x00y\xe0?'
p5196
tp5197
Rp5198
sg69
g11
(g12
(S'S2'
p5199
I0
I1
tp5200
Rp5201
(I3
S'|'
p5202
NNNI2
I1
I0
tp5203
bS'RF'
p5204
tp5205
Rp5206
sg78
I3
sg106
g5179
sg79
g80
sg81
g11
(g15
S'\x1d\xa9\xd7\x91z\x1d\xe9?'
p5207
tp5208
Rp5209
sg85
g86
sg87
g88
sbag4
(g5
g6
Ntp5210
Rp5211
(dp5212
g10
g11
(g15
S'\x00\x00\x00\x00\x00\x00\xf8\xff'
p5213
tp5214
Rp5215
sg95
g11
(g15
S'\x00\x00\x00\x00\x00\xc0p@'
p5216
tp5217
Rp5218
sg30
g31
sg21
g11
(g24
S'\x03\x00\x00\x00\x00\x00\x00\x00'
p5219
tp5220
Rp5221
sg32
(dp5222
g95
g5218
sg21
g5221
sg38
g11
(g24
S'\x03\x00\x00\x00\x00\x00\x00\x00'
p5223
tp5224
Rp5225
sg106
g11
(g15
S'\xbc)\xe1n\x8c\r\xee?'
p5226
tp5227
Rp5228
ssg46
g11
(g12
(S'S6'
p5229
I0
I1
tp5230
Rp5231
(I3
S'|'
p5232
NNNI6
I1
I0
tp5233
bS'ISOMAP'
p5234
tp5235
Rp5236
sg55
F0.2
sg38
g5225
sg56
g11
(g12
(S'S3'
p5237
I0
I1
tp5238
Rp5239
(I3
S'|'
p5240
NNNI3
I1
I0
tp5241
bS'VGG'
p5242
tp5243
Rp5244
sg65
g11
(g15
S'\x1cb\xa1\x13\xad\xca\xe1?'
p5245
tp5246
Rp5247
sg69
g11
(g12
(S'S2'
p5248
I0
I1
tp5249
Rp5250
(I3
S'|'
p5251
NNNI2
I1
I0
tp5252
bS'RF'
p5253
tp5254
Rp5255
sg78
I3
sg106
g5228
sg79
g80
sg81
g11
(g15
S'\x95 O\t\xf2\x94\xe8?'
p5256
tp5257
Rp5258
sg85
g86
sg87
g88
sbag4
(g5
g6
Ntp5259
Rp5260
(dp5261
g10
g11
(g15
S'\x00\x00\x00\x00\x00\x00\xf8\xff'
p5262
tp5263
Rp5264
sg95
g11
(g15
S'\x00\x00\x00\x00\x00\xc0p@'
p5265
tp5266
Rp5267
sg30
g31
sg21
g11
(g24
S'\x06\x00\x00\x00\x00\x00\x00\x00'
p5268
tp5269
Rp5270
sg32
(dp5271
g95
g5267
sg21
g5270
sg38
g11
(g24
S'\x03\x00\x00\x00\x00\x00\x00\x00'
p5272
tp5273
Rp5274
sg106
g11
(g15
S'\n\x83\xb0c\xf0W\xee?'
p5275
tp5276
Rp5277
ssg46
g11
(g12
(S'S6'
p5278
I0
I1
tp5279
Rp5280
(I3
S'|'
p5281
NNNI6
I1
I0
tp5282
bS'ISOMAP'
p5283
tp5284
Rp5285
sg55
F0.2
sg38
g5274
sg56
g11
(g12
(S'S3'
p5286
I0
I1
tp5287
Rp5288
(I3
S'|'
p5289
NNNI3
I1
I0
tp5290
bS'VGG'
p5291
tp5292
Rp5293
sg65
g11
(g15
S'P\xafd\xb5\xa8V\xde?'
p5294
tp5295
Rp5296
sg69
g11
(g12
(S'S2'
p5297
I0
I1
tp5298
Rp5299
(I3
S'|'
p5300
NNNI2
I1
I0
tp5301
bS'RF'
p5302
tp5303
Rp5304
sg78
I3
sg106
g5277
sg79
g80
sg81
g11
(g15
S'\x11\x11\x11\x11\x11\x11\xe9?'
p5305
tp5306
Rp5307
sg85
g86
sg87
g88
sbag4
(g5
g6
Ntp5308
Rp5309
(dp5310
g10
g11
(g15
S'\x00\x00\x00\x00\x00\x00\xf8\xff'
p5311
tp5312
Rp5313
sg95
g11
(g15
S'\x00\x00\x00\x00\x00`m@'
p5314
tp5315
Rp5316
sg30
g31
sg21
g11
(g24
S'\x03\x00\x00\x00\x00\x00\x00\x00'
p5317
tp5318
Rp5319
sg32
(dp5320
g95
g5316
sg21
g5319
sg38
g11
(g24
S'\x04\x00\x00\x00\x00\x00\x00\x00'
p5321
tp5322
Rp5323
sg106
g11
(g15
S'\xf0\x179\xd4\xc4\xf3\xe3?'
p5324
tp5325
Rp5326
ssg46
g11
(g12
(S'S6'
p5327
I0
I1
tp5328
Rp5329
(I3
S'|'
p5330
NNNI6
I1
I0
tp5331
bS'ISOMAP'
p5332
tp5333
Rp5334
sg55
F0.2
sg38
g5323
sg56
g11
(g12
(S'S9'
p5335
I0
I1
tp5336
Rp5337
(I3
S'|'
p5338
NNNI9
I1
I0
tp5339
bS'inception'
p5340
tp5341
Rp5342
sg65
g11
(g15
S'\xd0U\xdfsn\x96\xf2?'
p5343
tp5344
Rp5345
sg69
g11
(g12
(S'S2'
p5346
I0
I1
tp5347
Rp5348
(I3
S'|'
p5349
NNNI2
I1
I0
tp5350
bS'RF'
p5351
tp5352
Rp5353
sg78
I3
sg106
g5326
sg79
g80
sg81
g11
(g15
S'\x1c\xd6\xbea\xed\x1b\xe6?'
p5354
tp5355
Rp5356
sg85
g86
sg87
g88
sbag4
(g5
g6
Ntp5357
Rp5358
(dp5359
g10
g11
(g15
S'\x00\x00\x00\x00\x00\x00\xf8\xff'
p5360
tp5361
Rp5362
sg95
g11
(g15
S'\x00\x00\x00\x00\x00@a@'
p5363
tp5364
Rp5365
sg248
g256
sg30
g31
sg32
(dp5366
g95
g5365
sg106
g11
(g15
S'\xc2\xa5\x89\x1a\xfc\x15\xec?'
p5367
tp5368
Rp5369
sg248
g256
sg202
g11
(g24
S'\x01\x00\x00\x00\x00\x00\x00\x00'
p5370
tp5371
Rp5372
ssg46
g11
(g12
(S'S3'
p5373
I0
I1
tp5374
Rp5375
(I3
S'|'
p5376
NNNI3
I1
I0
tp5377
bS'PCA'
p5378
tp5379
Rp5380
sg55
F0.2
sg56
g11
(g12
(S'S8'
p5381
I0
I1
tp5382
Rp5383
(I3
S'|'
p5384
NNNI8
I1
I0
tp5385
bS'haralick'
p5386
tp5387
Rp5388
sg202
g5372
sg65
g11
(g15
S'\xbb<7\x81Tg\xfa?'
p5389
tp5390
Rp5391
sg69
g11
(g12
(S'S2'
p5392
I0
I1
tp5393
Rp5394
(I3
S'|'
p5395
NNNI2
I1
I0
tp5396
bS'RF'
p5397
tp5398
Rp5399
sg78
I3
sg106
g5369
sg79
g80
sg81
g11
(g15
S'\x1c\xd6\xbea\xed\x1b\xe6?'
p5400
tp5401
Rp5402
sg85
g86
sg87
g88
sbag4
(g5
g6
Ntp5403
Rp5404
(dp5405
g10
g11
(g15
S'\x00\x00\x00\x00\x00\x00\xf8\xff'
p5406
tp5407
Rp5408
sg248
g308
sg30
g31
sg32
(dp5409
g248
g308
sg34
g11
(g15
S'u<\xa9,\xd3\xd8Q@'
p5410
tp5411
Rp5412
sg202
g11
(g24
S'\x01\x00\x00\x00\x00\x00\x00\x00'
p5413
tp5414
Rp5415
sg42
g11
(g15
S'\xc7\xdf\xf4\xba\xe2{\xfa?'
p5416
tp5417
Rp5418
ssg46
g11
(g12
(S'S3'
p5419
I0
I1
tp5420
Rp5421
(I3
S'|'
p5422
NNNI3
I1
I0
tp5423
bS'PCA'
p5424
tp5425
Rp5426
sg55
F0.2
sg42
g5418
sg56
g11
(g12
(S'S8'
p5427
I0
I1
tp5428
Rp5429
(I3
S'|'
p5430
NNNI8
I1
I0
tp5431
bS'haralick'
p5432
tp5433
Rp5434
sg34
g5412
sg202
g5415
sg65
g11
(g15
S'\x98\x18\xfcS3i\xdd?'
p5435
tp5436
Rp5437
sg69
g11
(g12
(S'S3'
p5438
I0
I1
tp5439
Rp5440
(I3
S'|'
p5441
NNNI3
I1
I0
tp5442
bS'SVM'
p5443
tp5444
Rp5445
sg78
I3
sg79
g80
sg81
g11
(g15
S' O\t\xf2\x94 \xe7?'
p5446
tp5447
Rp5448
sg85
g86
sg87
g88
sbag4
(g5
g6
Ntp5449
Rp5450
(dp5451
g10
g11
(g15
S'\x00\x00\x00\x00\x00\x00\xf8\xff'
p5452
tp5453
Rp5454
sg95
g11
(g15
S'\x00\x00\x00\x00\x00\x00D@'
p5455
tp5456
Rp5457
sg30
g31
sg21
g11
(g24
S'\x07\x00\x00\x00\x00\x00\x00\x00'
p5458
tp5459
Rp5460
sg32
(dp5461
g95
g5457
sg21
g5460
sg202
g11
(g24
S'\x03\x00\x00\x00\x00\x00\x00\x00'
p5462
tp5463
Rp5464
sg38
g11
(g24
S'\x02\x00\x00\x00\x00\x00\x00\x00'
p5465
tp5466
Rp5467
sg106
g11
(g15
S'\x87\xb2\x80\x12"\xd4\xe2?'
p5468
tp5469
Rp5470
ssg46
g11
(g12
(S'S6'
p5471
I0
I1
tp5472
Rp5473
(I3
S'|'
p5474
NNNI6
I1
I0
tp5475
bS'ISOMAP'
p5476
tp5477
Rp5478
sg55
F0.2
sg38
g5467
sg56
g11
(g12
(S'S8'
p5479
I0
I1
tp5480
Rp5481
(I3
S'|'
p5482
NNNI8
I1
I0
tp5483
bS'haralick'
p5484
tp5485
Rp5486
sg202
g5464
sg65
g11
(g15
S'\xf4\xd5\xc5\\ Z\xf9?'
p5487
tp5488
Rp5489
sg69
g11
(g12
(S'S2'
p5490
I0
I1
tp5491
Rp5492
(I3
S'|'
p5493
NNNI2
I1
I0
tp5494
bS'RF'
p5495
tp5496
Rp5497
sg78
I3
sg106
g5470
sg79
g80
sg81
g11
(g15
S'\x11\x11\x11\x11\x11\x11\xe9?'
p5498
tp5499
Rp5500
sg85
g86
sg87
g88
sbasS'error_curve'
p5501
(lp5502
g68
ag128
ag128
ag128
ag177
ag230
ag230
ag230
ag230
ag230
ag230
ag230
ag230
ag230
ag230
ag230
ag230
ag285
ag285
ag285
ag285
ag285
ag285
ag331
ag331
ag331
ag331
ag331
ag331
ag331
ag331
ag331
ag331
ag331
ag331
ag331
ag331
ag331
ag377
ag377
ag377
ag377
ag377
ag377
ag377
ag377
ag377
ag377
ag377
ag377
ag377
ag377
ag377
ag377
ag377
ag377
ag377
ag377
ag377
ag377
ag377
ag377
ag377
ag423
ag423
ag423
ag423
ag423
ag423
ag423
ag423
ag423
ag423
ag423
ag423
ag423
ag423
ag423
ag423
ag423
ag423
ag423
ag423
ag423
ag423
ag423
ag423
ag423
ag423
ag423
ag423
ag423
ag423
ag423
ag423
ag423
ag423
ag423
ag423
ag423
ag423
ag423
ag423
ag423
ag423
ag423
ag423
ag423
ag423
ag423
ag423
ag423
ag423
ag423
ag423
ag423
asS'iters'
p5503
I51
sg30
g31
sS'results_loc'
p5504
S'/gpfs/u/home/CGHI/CGHIarch/barn/EP_project/results/'
p5505
sS'times'
p5506
(lp5507
F0.04964184761047363
aF2.0297069549560547
aF2.0778708457946777
aF2.126400947570801
aF2.1737208366394043
aF6.974892854690552
aF7.021742820739746
aF7.056397914886475
aF9.31213903427124
aF14.074579954147339
aF19.515517950057983
aF19.562819957733154
aF25.004431009292603
aF26.74116802215576
aF26.788497924804688
aF26.83518695831299
aF26.86981701850891
aF31.58447289466858
aF31.617084980010986
aF36.39032196998596
aF38.58520698547363
aF43.25448393821716
aF44.980955839157104
aF45.307528018951416
aF45.34060883522034
aF46.60784888267517
aF46.65451502799988
aF46.68869495391846
aF51.68524503707886
aF51.734203815460205
aF52.3005268573761
aF52.33331799507141
aF54.36734485626221
aF54.40272283554077
aF56.37232184410095
aF58.341365814208984
aF63.16497087478638
aF63.200161933898926
aF68.94648385047913
aF68.98006582260132
aF69.01247096061707
aF70.74064302444458
aF70.7758560180664
aF75.505038022995
aF75.5958399772644
aF80.70901989936829
aF80.75841283798218
aF81.33141589164734
aF87.21089482307434
aF87.24608993530273
aF87.8102970123291
aF93.01706099510193
aF93.05353784561157
aF95.30621385574341
aF95.34251999855042
aF95.39092588424683
aF100.80320382118225
aF100.85236883163452
aF107.79544281959534
aF113.0469319820404
aF117.94736790657043
aF117.99452686309814
aF118.0270299911499
aF125.3899278640747
aF125.42994999885559
aF133.0955560207367
aF134.14065289497375
aF134.71825003623962
aF140.88779091835022
aF140.93652987480164
aF141.2728989124298
aF147.44391798973083
aF153.61117386817932
aF158.29591989517212
aF158.32923698425293
aF163.08460187911987
aF168.05004787445068
aF174.279611825943
aF181.1570999622345
aF186.90956592559814
aF186.95675086975098
aF191.58929800987244
aF191.62435793876648
aF196.36538004875183
aF196.39873099327087
aF201.14666199684143
aF207.36140394210815
aF208.87319803237915
aF210.61363196372986
aF212.8944230079651
aF212.98689198493958
aF217.81537199020386
aF217.84829998016357
aF217.88071990013123
aF217.92814183235168
aF224.72622299194336
aF225.04916095733643
aF225.0818169116974
aF226.34202003479004
aF228.3146288394928
aF233.70679593086243
aF233.73984098434448
aF240.18839383125305
aF242.16249704360962
aF242.19793391227722
aF242.29021501541138
aF243.84807801246643
aF245.82809281349182
aF251.02322602272034
aF253.23057794570923
aF255.2139949798584
aF257.1987798213959
aF259.0016829967499
aF264.72118401527405
aF269.35566091537476
aF274.396852016449
asS'data_loc'
p5508
g88
sS'run'
p5509
I3
sg85
S'random_MCMC'
p5510
sb.