(iprototypes.random_based_mcmc1
random_MCMC
p0
(dp1
S'best_pipelines'
p2
(lp3
ccopy_reg
_reconstructor
p4
(cprototypes.data_analytic_pipeline
image_classification_pipeline
p5
c__builtin__
object
p6
Ntp7
Rp8
(dp9
S'f1_score'
p10
cnumpy.core.multiarray
scalar
p11
(cnumpy
dtype
p12
(S'f8'
p13
I0
I1
tp14
Rp15
(I3
S'<'
p16
NNNI-1
I-1
I0
tp17
bS'\x00\x00\x00\x00\x00\x00\xf8\xff'
p18
tp19
Rp20
sS'pca_whiten'
p21
g11
(g12
(S'b1'
p22
I0
I1
tp23
Rp24
(I3
S'|'
p25
NNNI-1
I-1
I0
tp26
bS'\x00'
p27
tp28
Rp29
sS'data_name'
p30
S'matsc_dataset1'
p31
sS'kwargs'
p32
(dp33
g21
g29
sS'svm_C'
p34
g11
(g15
S'0P\xcb\x16\xe9@N@'
p35
tp36
Rp37
sS'haralick_distance'
p38
g11
(g12
(S'i8'
p39
I0
I1
tp40
Rp41
(I3
S'<'
p42
NNNI-1
I-1
I0
tp43
bS'\x02\x00\x00\x00\x00\x00\x00\x00'
p44
tp45
Rp46
sS'svm_gamma'
p47
g11
(g15
S'\x98\x98\x16\x11\xd5\x9d\x18@'
p48
tp49
Rp50
ssS'dimensionality_reduction'
p51
g11
(g12
(S'S3'
p52
I0
I1
tp53
Rp54
(I3
S'|'
p55
NNNI3
I1
I0
tp56
bS'PCA'
p57
tp58
Rp59
sS'test_size'
p60
F0.2
sg47
g50
sS'feature_extraction'
p61
g11
(g12
(S'S8'
p62
I0
I1
tp63
Rp64
(I3
S'|'
p65
NNNI8
I1
I0
tp66
bS'haralick'
p67
tp68
Rp69
sg34
g37
sg38
g46
sS'result'
p70
g11
(g15
S'\x87?!\xfa!\xce\xda?'
p71
tp72
Rp73
sS'learning_algorithm'
p74
g11
(g12
(S'S3'
p75
I0
I1
tp76
Rp77
(I3
S'|'
p78
NNNI3
I1
I0
tp79
bS'SVM'
p80
tp81
Rp82
sS'val_splits'
p83
I3
sS'ml_type'
p84
S'validation'
p85
sS'accuracy'
p86
g11
(g15
S'\xb8\xbb\xb5\xc1\xa9\xd9\xe9?'
p87
tp88
Rp89
sS'type1'
p90
S'random1'
p91
sS'data_location'
p92
S'/gpfs/u/home/CGHI/CGHIarch/barn/EP_project/data/'
p93
sbag4
(g5
g6
Ntp94
Rp95
(dp96
g10
g11
(g15
S'\x00\x00\x00\x00\x00\x00\xf8\xff'
p97
tp98
Rp99
sg21
g29
sg30
g31
sg32
(dp100
g21
g29
sg34
g11
(g15
S'Ri\xf3-\x98\xec\xe4?'
p101
tp102
Rp103
sg47
g11
(g15
S'\x9c\xf3\xc9\xff4\x82\x18@'
p104
tp105
Rp106
ssg51
g11
(g12
(S'S3'
p107
I0
I1
tp108
Rp109
(I3
S'|'
p110
NNNI3
I1
I0
tp111
bS'PCA'
p112
tp113
Rp114
sg60
F0.2
sg47
g106
sg61
g11
(g12
(S'S3'
p115
I0
I1
tp116
Rp117
(I3
S'|'
p118
NNNI3
I1
I0
tp119
bS'VGG'
p120
tp121
Rp122
sg34
g103
sg70
g11
(g15
S'\x14\xbb\xddv3\xd7\xd9?'
p123
tp124
Rp125
sg74
g11
(g12
(S'S3'
p126
I0
I1
tp127
Rp128
(I3
S'|'
p129
NNNI3
I1
I0
tp130
bS'SVM'
p131
tp132
Rp133
sg83
I3
sg84
g85
sg86
g11
(g15
S'\xecE\x92\xf9*\xc8\xe9?'
p134
tp135
Rp136
sg90
g91
sg92
g93
sbag4
(g5
g6
Ntp137
Rp138
(dp139
g10
g11
(g15
S'\x00\x00\x00\x00\x00\x00\xf8\xff'
p140
tp141
Rp142
sS'n_estimators'
p143
g11
(g15
S'\x00\x00\x00\x00\x00`m@'
p144
tp145
Rp146
sg21
g29
sg30
g31
sg32
(dp147
g143
g146
sS'max_features'
p148
g11
(g15
S'\x8bT\xc1KJ\x94\xd5?'
p149
tp150
Rp151
sg21
g29
ssg51
g11
(g12
(S'S3'
p152
I0
I1
tp153
Rp154
(I3
S'|'
p155
NNNI3
I1
I0
tp156
bS'PCA'
p157
tp158
Rp159
sg60
F0.2
sg61
g11
(g12
(S'S3'
p160
I0
I1
tp161
Rp162
(I3
S'|'
p163
NNNI3
I1
I0
tp164
bS'VGG'
p165
tp166
Rp167
sg70
g11
(g15
S'\xc5\xe5\xfd\xa2\x95Q\xd2?'
p168
tp169
Rp170
sg74
g11
(g12
(S'S2'
p171
I0
I1
tp172
Rp173
(I3
S'|'
p174
NNNI2
I1
I0
tp175
bS'RF'
p176
tp177
Rp178
sg83
I3
sg148
g151
sg84
g85
sg86
g11
(g15
S'\xc5\xa1\xe9Yy:\xec?'
p179
tp180
Rp181
sg90
g91
sg92
g93
sbasS'paths'
p182
(lp183
(lp184
S'VGG'
p185
aS'PCA'
p186
aS'SVM'
p187
aa(lp188
g185
ag186
aS'RF'
p189
aa(lp190
g185
aS'ISOMAP'
p191
ag187
aa(lp192
g185
ag191
ag189
aa(lp193
S'haralick'
p194
ag186
ag187
aa(lp195
g194
ag186
ag189
aa(lp196
g194
ag191
ag187
aa(lp197
g194
ag191
ag189
aa(lp198
S'inception'
p199
ag186
ag187
aa(lp200
g199
ag186
ag189
aa(lp201
g199
ag191
ag187
aa(lp202
g199
ag191
ag189
aasS'pipeline'
p203
(dp204
S'n_neighbors'
p205
(lp206
I3
aI4
aI5
aI6
aI7
asg21
(lp207
I01
aI00
asg143
cnumpy.core.multiarray
_reconstruct
p208
(cnumpy
ndarray
p209
(I0
tp210
S'b'
p211
tp212
Rp213
(I1
(I10
tp214
g15
I00
S'\x00\x00\x00\x00\x00\x00 @\x00\x00\x00\x00\x00\x00D@\x00\x00\x00\x00\x00@R@\x00\x00\x00\x00\x00@Z@\x00\x00\x00\x00\x00@a@\x00\x00\x00\x00\x00@e@\x00\x00\x00\x00\x00`i@\x00\x00\x00\x00\x00`m@\x00\x00\x00\x00\x00\xc0p@\x00\x00\x00\x00\x00\xc0r@'
p215
tp216
bsg51
(lp217
g186
ag191
asg47
g208
(g209
(I0
tp218
g211
tp219
Rp220
(I1
(I10
tp221
g15
I00
S"{\x14\xaeG\xe1z\x84?\x102Tv\x98\xba\xec?\xe7\xd5\xc4\xb3\xa2\x91\xfc?b\xc9/\x96\xfcb\x05@\xd2'}\xd2'}\x0c@!Ce\x87\xa9\xcb\x11@X\xf2\x8b%\xbfX\x15@\x90\xa1\xb2\xc3\xd4\xe5\x18@\xc8P\xd9a\xear\x1c@\x00\x00\x00\x00\x00\x00 @"
p222
tp223
bsg61
(lp224
g185
ag194
ag199
asg38
(lp225
I1
aI2
aI3
asS'n_components'
p226
(lp227
I2
aI3
aI4
asg74
(lp228
g187
ag189
asg148
g208
(g209
(I0
tp229
g211
tp230
Rp231
(I1
(I5
tp232
g15
I00
S'333333\xd3?\x9a\x99\x99\x99\x99\x99\xd9?\x00\x00\x00\x00\x00\x00\xe0?433333\xe3?hfffff\xe6?'
p233
tp234
bsg34
g208
(g209
(I0
tp235
g211
tp236
Rp237
(I1
(I10
tp238
g15
I00
S'\x9a\x99\x99\x99\x99\x99\xb9?gfffff&@\xce\xcc\xcc\xcc\xccL6@43333\xb3@@\x01\x00\x00\x00\x00@F@\xce\xcc\xcc\xcc\xcc\xccK@\xcd\xcc\xcc\xcc\xcc\xacP@43333sS@\x9a\x99\x99\x99\x999V@\x00\x00\x00\x00\x00\x00Y@'
p239
tp240
bssS'pipelines'
p241
(lp242
g8
ag4
(g5
g6
Ntp243
Rp244
(dp245
g10
g11
(g15
S'\x00\x00\x00\x00\x00\x00\xf8\xff'
p246
tp247
Rp248
sg143
g11
(g15
S'\x00\x00\x00\x00\x00@a@'
p249
tp250
Rp251
sg21
g29
sg30
g31
sg32
(dp252
g143
g251
sg148
g11
(g15
S'\x10\xf4\x1b\xdb\xda\xfe\xea?'
p253
tp254
Rp255
sg21
g29
sg38
g11
(g41
S'\x01\x00\x00\x00\x00\x00\x00\x00'
p256
tp257
Rp258
ssg51
g11
(g12
(S'S3'
p259
I0
I1
tp260
Rp261
(I3
S'|'
p262
NNNI3
I1
I0
tp263
bS'PCA'
p264
tp265
Rp266
sg60
F0.2
sg61
g11
(g12
(S'S8'
p267
I0
I1
tp268
Rp269
(I3
S'|'
p270
NNNI8
I1
I0
tp271
bS'haralick'
p272
tp273
Rp274
sg38
g258
sg70
g11
(g15
S'\xc1\xd9U\xfd\x07\xbf\xf7?'
p275
tp276
Rp277
sg74
g11
(g12
(S'S2'
p278
I0
I1
tp279
Rp280
(I3
S'|'
p281
NNNI2
I1
I0
tp282
bS'RF'
p283
tp284
Rp285
sg83
I3
sg148
g255
sg84
g85
sg86
g11
(g15
S'\t\x19\xfb6\xbf\xae\xe7?'
p286
tp287
Rp288
sg90
g91
sg92
g93
sbag95
ag4
(g5
g6
Ntp289
Rp290
(dp291
g10
g11
(g15
S'\x00\x00\x00\x00\x00\x00\xf8\xff'
p292
tp293
Rp294
sg143
g11
(g15
S'\x00\x00\x00\x00\x00@e@'
p295
tp296
Rp297
sg30
g31
sg205
g11
(g41
S'\x03\x00\x00\x00\x00\x00\x00\x00'
p298
tp299
Rp300
sg32
(dp301
g143
g297
sg205
g300
sg38
g11
(g41
S'\x02\x00\x00\x00\x00\x00\x00\x00'
p302
tp303
Rp304
sg226
g11
(g41
S'\x04\x00\x00\x00\x00\x00\x00\x00'
p305
tp306
Rp307
sg148
g11
(g15
S'\xa4\xfc\x85H\x9c\x97\xe4?'
p308
tp309
Rp310
ssg51
g11
(g12
(S'S6'
p311
I0
I1
tp312
Rp313
(I3
S'|'
p314
NNNI6
I1
I0
tp315
bS'ISOMAP'
p316
tp317
Rp318
sg60
F0.2
sg226
g307
sg61
g11
(g12
(S'S8'
p319
I0
I1
tp320
Rp321
(I3
S'|'
p322
NNNI8
I1
I0
tp323
bS'haralick'
p324
tp325
Rp326
sg38
g304
sg70
g11
(g15
S'\xe0\xed)\xb3\xf2{\xf6?'
p327
tp328
Rp329
sg74
g11
(g12
(S'S2'
p330
I0
I1
tp331
Rp332
(I3
S'|'
p333
NNNI2
I1
I0
tp334
bS'RF'
p335
tp336
Rp337
sg83
I3
sg148
g310
sg84
g85
sg86
g11
(g15
S'\xad\xc3\x96\xf0<\xa4\xe9?'
p338
tp339
Rp340
sg90
g91
sg92
g93
sbag138
ag4
(g5
g6
Ntp341
Rp342
(dp343
g10
g11
(g15
S'\x00\x00\x00\x00\x00\x00\xf8\xff'
p344
tp345
Rp346
sg143
g11
(g15
S'\x00\x00\x00\x00\x00\x00D@'
p347
tp348
Rp349
sg21
g29
sg30
g31
sg32
(dp350
g143
g349
sg148
g11
(g15
S'\xd4\xfc\xadw\\n\xeb?'
p351
tp352
Rp353
sg21
g29
ssg51
g11
(g12
(S'S3'
p354
I0
I1
tp355
Rp356
(I3
S'|'
p357
NNNI3
I1
I0
tp358
bS'PCA'
p359
tp360
Rp361
sg60
F0.2
sg61
g11
(g12
(S'S9'
p362
I0
I1
tp363
Rp364
(I3
S'|'
p365
NNNI9
I1
I0
tp366
bS'inception'
p367
tp368
Rp369
sg70
g11
(g15
S'+[\xcf\xd4#{\xe8?'
p370
tp371
Rp372
sg74
g11
(g12
(S'S2'
p373
I0
I1
tp374
Rp375
(I3
S'|'
p376
NNNI2
I1
I0
tp377
bS'RF'
p378
tp379
Rp380
sg83
I3
sg148
g353
sg84
g85
sg86
g11
(g15
S'\xe5`kV\x80,\xe8?'
p381
tp382
Rp383
sg90
g91
sg92
g93
sbag4
(g5
g6
Ntp384
Rp385
(dp386
g10
g11
(g15
S'\x00\x00\x00\x00\x00\x00\xf8\xff'
p387
tp388
Rp389
sg205
g11
(g41
S'\x04\x00\x00\x00\x00\x00\x00\x00'
p390
tp391
Rp392
sg30
g31
sg32
(dp393
g205
g392
sg34
g11
(g15
S'\xe4\xbd%\xcc\xba\xa9C@'
p394
tp395
Rp396
sg226
g11
(g41
S'\x04\x00\x00\x00\x00\x00\x00\x00'
p397
tp398
Rp399
sg47
g11
(g15
S'\x1a\x92\x1f-\x13D\x1d@'
p400
tp401
Rp402
ssg47
g402
sg51
g11
(g12
(S'S6'
p403
I0
I1
tp404
Rp405
(I3
S'|'
p406
NNNI6
I1
I0
tp407
bS'ISOMAP'
p408
tp409
Rp410
sg60
F0.2
sg226
g399
sg61
g11
(g12
(S'S9'
p411
I0
I1
tp412
Rp413
(I3
S'|'
p414
NNNI9
I1
I0
tp415
bS'inception'
p416
tp417
Rp418
sg34
g396
sg70
g11
(g15
S'h\x98\xa4K\xd9\x17\xe0?'
p419
tp420
Rp421
sg74
g11
(g12
(S'S3'
p422
I0
I1
tp423
Rp424
(I3
S'|'
p425
NNNI3
I1
I0
tp426
bS'SVM'
p427
tp428
Rp429
sg83
I3
sg84
g85
sg86
g11
(g15
S'S:m\x07\xd3;\xe2?'
p430
tp431
Rp432
sg90
g91
sg92
g93
sbag4
(g5
g6
Ntp433
Rp434
(dp435
g10
g11
(g15
S'\x00\x00\x00\x00\x00\x00\xf8\xff'
p436
tp437
Rp438
sg143
g11
(g15
S'\x00\x00\x00\x00\x00@e@'
p439
tp440
Rp441
sg21
g29
sg30
g31
sg32
(dp442
g143
g441
sg148
g11
(g15
S'XT\x94\xe4<\xac\xdc?'
p443
tp444
Rp445
sg21
g29
sg38
g11
(g41
S'\x03\x00\x00\x00\x00\x00\x00\x00'
p446
tp447
Rp448
ssg51
g11
(g12
(S'S3'
p449
I0
I1
tp450
Rp451
(I3
S'|'
p452
NNNI3
I1
I0
tp453
bS'PCA'
p454
tp455
Rp456
sg60
F0.2
sg61
g11
(g12
(S'S8'
p457
I0
I1
tp458
Rp459
(I3
S'|'
p460
NNNI8
I1
I0
tp461
bS'haralick'
p462
tp463
Rp464
sg38
g448
sg70
g11
(g15
S'\xcb0\x92I\xd7\x00\xe7?'
p465
tp466
Rp467
sg74
g11
(g12
(S'S2'
p468
I0
I1
tp469
Rp470
(I3
S'|'
p471
NNNI2
I1
I0
tp472
bS'RF'
p473
tp474
Rp475
sg83
I3
sg148
g445
sg84
g85
sg86
g11
(g15
S'1\xf9g\x8aE\xcf\xeb?'
p476
tp477
Rp478
sg90
g91
sg92
g93
sbag4
(g5
g6
Ntp479
Rp480
(dp481
g10
g11
(g15
S'\x00\x00\x00\x00\x00\x00\xf8\xff'
p482
tp483
Rp484
sg143
g11
(g15
S'\x00\x00\x00\x00\x00\xc0p@'
p485
tp486
Rp487
sg21
g29
sg30
g31
sg32
(dp488
g143
g487
sg148
g11
(g15
S'\xaa\xc3\x8fGKo\xec?'
p489
tp490
Rp491
sg21
g29
ssg51
g11
(g12
(S'S3'
p492
I0
I1
tp493
Rp494
(I3
S'|'
p495
NNNI3
I1
I0
tp496
bS'PCA'
p497
tp498
Rp499
sg60
F0.2
sg61
g11
(g12
(S'S9'
p500
I0
I1
tp501
Rp502
(I3
S'|'
p503
NNNI9
I1
I0
tp504
bS'inception'
p505
tp506
Rp507
sg70
g11
(g15
S'[\xeb\xfb\xe8\xb8\xb6\xe4?'
p508
tp509
Rp510
sg74
g11
(g12
(S'S2'
p511
I0
I1
tp512
Rp513
(I3
S'|'
p514
NNNI2
I1
I0
tp515
bS'RF'
p516
tp517
Rp518
sg83
I3
sg148
g491
sg84
g85
sg86
g11
(g15
S'%\xe3f_nP\xe8?'
p519
tp520
Rp521
sg90
g91
sg92
g93
sbag4
(g5
g6
Ntp522
Rp523
(dp524
g10
g11
(g15
S'\x00\x00\x00\x00\x00\x00\xf8\xff'
p525
tp526
Rp527
sg143
g11
(g15
S'\x00\x00\x00\x00\x00@e@'
p528
tp529
Rp530
sg30
g31
sg205
g11
(g41
S'\x07\x00\x00\x00\x00\x00\x00\x00'
p531
tp532
Rp533
sg32
(dp534
g143
g530
sg205
g533
sg226
g11
(g41
S'\x03\x00\x00\x00\x00\x00\x00\x00'
p535
tp536
Rp537
sg148
g11
(g15
S'\x1c\x9b\xe1m\xcbt\xe5?'
p538
tp539
Rp540
ssg51
g11
(g12
(S'S6'
p541
I0
I1
tp542
Rp543
(I3
S'|'
p544
NNNI6
I1
I0
tp545
bS'ISOMAP'
p546
tp547
Rp548
sg60
F0.2
sg226
g537
sg61
g11
(g12
(S'S9'
p549
I0
I1
tp550
Rp551
(I3
S'|'
p552
NNNI9
I1
I0
tp553
bS'inception'
p554
tp555
Rp556
sg70
g11
(g15
S'\x80ET(G\x8f\xee?'
p557
tp558
Rp559
sg74
g11
(g12
(S'S2'
p560
I0
I1
tp561
Rp562
(I3
S'|'
p563
NNNI2
I1
I0
tp564
bS'RF'
p565
tp566
Rp567
sg83
I3
sg148
g540
sg84
g85
sg86
g11
(g15
S'\x0cQ\xc7\xda\xb3\x01\xe6?'
p568
tp569
Rp570
sg90
g91
sg92
g93
sbag4
(g5
g6
Ntp571
Rp572
(dp573
g10
g11
(g15
S'\x00\x00\x00\x00\x00\x00\xf8\xff'
p574
tp575
Rp576
sg143
g11
(g15
S'\x00\x00\x00\x00\x00`m@'
p577
tp578
Rp579
sg30
g31
sg205
g11
(g41
S'\x07\x00\x00\x00\x00\x00\x00\x00'
p580
tp581
Rp582
sg32
(dp583
g143
g579
sg205
g582
sg226
g11
(g41
S'\x02\x00\x00\x00\x00\x00\x00\x00'
p584
tp585
Rp586
sg148
g11
(g15
S'=\x04+1v\xc8\xe0?'
p587
tp588
Rp589
ssg51
g11
(g12
(S'S6'
p590
I0
I1
tp591
Rp592
(I3
S'|'
p593
NNNI6
I1
I0
tp594
bS'ISOMAP'
p595
tp596
Rp597
sg60
F0.2
sg226
g586
sg61
g11
(g12
(S'S9'
p598
I0
I1
tp599
Rp600
(I3
S'|'
p601
NNNI9
I1
I0
tp602
bS'inception'
p603
tp604
Rp605
sg70
g11
(g15
S'\xc5\xdf\x80\xbf\xaa-\xea?'
p606
tp607
Rp608
sg74
g11
(g12
(S'S2'
p609
I0
I1
tp610
Rp611
(I3
S'|'
p612
NNNI2
I1
I0
tp613
bS'RF'
p614
tp615
Rp616
sg83
I3
sg148
g589
sg84
g85
sg86
g11
(g15
S'\x18\xb1\x7f\xe2\x1c\xa8\xe5?'
p617
tp618
Rp619
sg90
g91
sg92
g93
sbag4
(g5
g6
Ntp620
Rp621
(dp622
g10
g11
(g15
S'\x00\x00\x00\x00\x00\x00\xf8\xff'
p623
tp624
Rp625
sg205
g11
(g41
S'\x04\x00\x00\x00\x00\x00\x00\x00'
p626
tp627
Rp628
sg30
g31
sg32
(dp629
g205
g628
sg34
g11
(g15
S'VZa\x9e\xfe\xe7E@'
p630
tp631
Rp632
sg226
g11
(g41
S'\x02\x00\x00\x00\x00\x00\x00\x00'
p633
tp634
Rp635
sg47
g11
(g15
S'\xa5\xe3\xa40\xbc\xa6\xef?'
p636
tp637
Rp638
ssg47
g638
sg51
g11
(g12
(S'S6'
p639
I0
I1
tp640
Rp641
(I3
S'|'
p642
NNNI6
I1
I0
tp643
bS'ISOMAP'
p644
tp645
Rp646
sg60
F0.2
sg226
g635
sg61
g11
(g12
(S'S9'
p647
I0
I1
tp648
Rp649
(I3
S'|'
p650
NNNI9
I1
I0
tp651
bS'inception'
p652
tp653
Rp654
sg34
g632
sg70
g11
(g15
S'\x97\xa9\x00\xec\xbbU\xe0?'
p655
tp656
Rp657
sg74
g11
(g12
(S'S3'
p658
I0
I1
tp659
Rp660
(I3
S'|'
p661
NNNI3
I1
I0
tp662
bS'SVM'
p663
tp664
Rp665
sg83
I3
sg84
g85
sg86
g11
(g15
S'\xf37\xae\xc1\x9a\xe8\xe0?'
p666
tp667
Rp668
sg90
g91
sg92
g93
sbag4
(g5
g6
Ntp669
Rp670
(dp671
g10
g11
(g15
S'\x00\x00\x00\x00\x00\x00\xf8\xff'
p672
tp673
Rp674
sg143
g11
(g15
S'\x00\x00\x00\x00\x00\x00D@'
p675
tp676
Rp677
sg21
g11
(g24
S'\x01'
p678
tp679
Rp680
sg30
g31
sg32
(dp681
g143
g677
sg148
g11
(g15
S'vx\xae\xab\xf5 \xee?'
p682
tp683
Rp684
sg21
g680
sg38
g11
(g41
S'\x02\x00\x00\x00\x00\x00\x00\x00'
p685
tp686
Rp687
ssg51
g11
(g12
(S'S3'
p688
I0
I1
tp689
Rp690
(I3
S'|'
p691
NNNI3
I1
I0
tp692
bS'PCA'
p693
tp694
Rp695
sg60
F0.2
sg61
g11
(g12
(S'S8'
p696
I0
I1
tp697
Rp698
(I3
S'|'
p699
NNNI8
I1
I0
tp700
bS'haralick'
p701
tp702
Rp703
sg38
g687
sg70
g11
(g15
S'\r\xccw\x97U\xca\xf1?'
p704
tp705
Rp706
sg74
g11
(g12
(S'S2'
p707
I0
I1
tp708
Rp709
(I3
S'|'
p710
NNNI2
I1
I0
tp711
bS'RF'
p712
tp713
Rp714
sg83
I3
sg148
g684
sg84
g85
sg86
g11
(g15
S'\xbb\x11d\xbf\x08v\xeb?'
p715
tp716
Rp717
sg90
g91
sg92
g93
sbag4
(g5
g6
Ntp718
Rp719
(dp720
g10
g11
(g15
S'\x00\x00\x00\x00\x00\x00\xf8\xff'
p721
tp722
Rp723
sg21
g680
sg30
g31
sg32
(dp724
g21
g680
sg34
g11
(g15
S'z13\xb8b,R@'
p725
tp726
Rp727
sg47
g11
(g15
S'\x12\xcfqj\x82a\x1a@'
p728
tp729
Rp730
ssg51
g11
(g12
(S'S3'
p731
I0
I1
tp732
Rp733
(I3
S'|'
p734
NNNI3
I1
I0
tp735
bS'PCA'
p736
tp737
Rp738
sg60
F0.2
sg47
g730
sg61
g11
(g12
(S'S9'
p739
I0
I1
tp740
Rp741
(I3
S'|'
p742
NNNI9
I1
I0
tp743
bS'inception'
p744
tp745
Rp746
sg34
g727
sg70
g11
(g15
S'w\x99\xd9\xd4u\xa1\xe0?'
p747
tp748
Rp749
sg74
g11
(g12
(S'S3'
p750
I0
I1
tp751
Rp752
(I3
S'|'
p753
NNNI3
I1
I0
tp754
bS'SVM'
p755
tp756
Rp757
sg83
I3
sg84
g85
sg86
g11
(g15
S'p\xa78\x16[\xd1\xe4?'
p758
tp759
Rp760
sg90
g91
sg92
g93
sbag4
(g5
g6
Ntp761
Rp762
(dp763
g10
g11
(g15
S'\x00\x00\x00\x00\x00\x00\xf8\xff'
p764
tp765
Rp766
sg143
g11
(g15
S'\x00\x00\x00\x00\x00@Z@'
p767
tp768
Rp769
sg30
g31
sg205
g11
(g41
S'\x06\x00\x00\x00\x00\x00\x00\x00'
p770
tp771
Rp772
sg32
(dp773
g143
g769
sg205
g772
sg226
g11
(g41
S'\x03\x00\x00\x00\x00\x00\x00\x00'
p774
tp775
Rp776
sg148
g11
(g15
S'\x05g\x90\xbca\xda\xe4?'
p777
tp778
Rp779
ssg51
g11
(g12
(S'S6'
p780
I0
I1
tp781
Rp782
(I3
S'|'
p783
NNNI6
I1
I0
tp784
bS'ISOMAP'
p785
tp786
Rp787
sg60
F0.2
sg226
g776
sg61
g11
(g12
(S'S9'
p788
I0
I1
tp789
Rp790
(I3
S'|'
p791
NNNI9
I1
I0
tp792
bS'inception'
p793
tp794
Rp795
sg70
g11
(g15
S'< \x15\xbe\x98\xd3\xec?'
p796
tp797
Rp798
sg74
g11
(g12
(S'S2'
p799
I0
I1
tp800
Rp801
(I3
S'|'
p802
NNNI2
I1
I0
tp803
bS'RF'
p804
tp805
Rp806
sg83
I3
sg148
g779
sg84
g85
sg86
g11
(g15
S'`Pn2\xaa\xba\xe5?'
p807
tp808
Rp809
sg90
g91
sg92
g93
sbag4
(g5
g6
Ntp810
Rp811
(dp812
g10
g11
(g15
S'\x00\x00\x00\x00\x00\x00\xf8\xff'
p813
tp814
Rp815
sg143
g11
(g15
S'\x00\x00\x00\x00\x00\xc0p@'
p816
tp817
Rp818
sg21
g29
sg30
g31
sg32
(dp819
g143
g818
sg148
g11
(g15
S'Z\x06Kv\x86\xdf\xe9?'
p820
tp821
Rp822
sg21
g29
sg38
g11
(g41
S'\x01\x00\x00\x00\x00\x00\x00\x00'
p823
tp824
Rp825
ssg51
g11
(g12
(S'S3'
p826
I0
I1
tp827
Rp828
(I3
S'|'
p829
NNNI3
I1
I0
tp830
bS'PCA'
p831
tp832
Rp833
sg60
F0.2
sg61
g11
(g12
(S'S8'
p834
I0
I1
tp835
Rp836
(I3
S'|'
p837
NNNI8
I1
I0
tp838
bS'haralick'
p839
tp840
Rp841
sg38
g825
sg70
g11
(g15
S'\xd1\xf5\xeeu\xa4\xb0\xf6?'
p842
tp843
Rp844
sg74
g11
(g12
(S'S2'
p845
I0
I1
tp846
Rp847
(I3
S'|'
p848
NNNI2
I1
I0
tp849
bS'RF'
p850
tp851
Rp852
sg83
I3
sg148
g822
sg84
g85
sg86
g11
(g15
S'\t\x19\xfb6\xbf\xae\xe7?'
p853
tp854
Rp855
sg90
g91
sg92
g93
sbag4
(g5
g6
Ntp856
Rp857
(dp858
g10
g11
(g15
S'\x00\x00\x00\x00\x00\x00\xf8\xff'
p859
tp860
Rp861
sg143
g11
(g15
S'\x00\x00\x00\x00\x00\xc0p@'
p862
tp863
Rp864
sg30
g31
sg205
g11
(g41
S'\x07\x00\x00\x00\x00\x00\x00\x00'
p865
tp866
Rp867
sg32
(dp868
g143
g864
sg205
g867
sg226
g11
(g41
S'\x04\x00\x00\x00\x00\x00\x00\x00'
p869
tp870
Rp871
sg148
g11
(g15
S'\x82\x02\x06Uy\xce\xed?'
p872
tp873
Rp874
ssg51
g11
(g12
(S'S6'
p875
I0
I1
tp876
Rp877
(I3
S'|'
p878
NNNI6
I1
I0
tp879
bS'ISOMAP'
p880
tp881
Rp882
sg60
F0.2
sg226
g871
sg61
g11
(g12
(S'S9'
p883
I0
I1
tp884
Rp885
(I3
S'|'
p886
NNNI9
I1
I0
tp887
bS'inception'
p888
tp889
Rp890
sg70
g11
(g15
S'\xb3Uf\xf0\xa8\xec\xe7?'
p891
tp892
Rp893
sg74
g11
(g12
(S'S2'
p894
I0
I1
tp895
Rp896
(I3
S'|'
p897
NNNI2
I1
I0
tp898
bS'RF'
p899
tp900
Rp901
sg83
I3
sg148
g874
sg84
g85
sg86
g11
(g15
S'W3{\xeb\n\xcc\xe5?'
p902
tp903
Rp904
sg90
g91
sg92
g93
sbag4
(g5
g6
Ntp905
Rp906
(dp907
g10
g11
(g15
S'\x00\x00\x00\x00\x00\x00\xf8\xff'
p908
tp909
Rp910
sg143
g11
(g15
S'\x00\x00\x00\x00\x00@a@'
p911
tp912
Rp913
sg21
g29
sg30
g31
sg32
(dp914
g143
g913
sg148
g11
(g15
S'\xdc\x9b8\xa6C\xd1\xee?'
p915
tp916
Rp917
sg21
g29
sg38
g11
(g41
S'\x02\x00\x00\x00\x00\x00\x00\x00'
p918
tp919
Rp920
ssg51
g11
(g12
(S'S3'
p921
I0
I1
tp922
Rp923
(I3
S'|'
p924
NNNI3
I1
I0
tp925
bS'PCA'
p926
tp927
Rp928
sg60
F0.2
sg61
g11
(g12
(S'S8'
p929
I0
I1
tp930
Rp931
(I3
S'|'
p932
NNNI8
I1
I0
tp933
bS'haralick'
p934
tp935
Rp936
sg38
g920
sg70
g11
(g15
S'\xa6^\xd4c\xa7\n\xe5?'
p937
tp938
Rp939
sg74
g11
(g12
(S'S2'
p940
I0
I1
tp941
Rp942
(I3
S'|'
p943
NNNI2
I1
I0
tp944
bS'RF'
p945
tp946
Rp947
sg83
I3
sg148
g917
sg84
g85
sg86
g11
(g15
S'Pn2\xaa\xba\x99\xeb?'
p948
tp949
Rp950
sg90
g91
sg92
g93
sbag4
(g5
g6
Ntp951
Rp952
(dp953
g10
g11
(g15
S'\x00\x00\x00\x00\x00\x00\xf8\xff'
p954
tp955
Rp956
sg143
g11
(g15
S'\x00\x00\x00\x00\x00\xc0r@'
p957
tp958
Rp959
sg30
g31
sg205
g11
(g41
S'\x05\x00\x00\x00\x00\x00\x00\x00'
p960
tp961
Rp962
sg32
(dp963
g143
g959
sg205
g962
sg38
g11
(g41
S'\x03\x00\x00\x00\x00\x00\x00\x00'
p964
tp965
Rp966
sg226
g11
(g41
S'\x03\x00\x00\x00\x00\x00\x00\x00'
p967
tp968
Rp969
sg148
g11
(g15
S'\xcd$D\xbf\x1dF\xe7?'
p970
tp971
Rp972
ssg51
g11
(g12
(S'S6'
p973
I0
I1
tp974
Rp975
(I3
S'|'
p976
NNNI6
I1
I0
tp977
bS'ISOMAP'
p978
tp979
Rp980
sg60
F0.2
sg226
g969
sg61
g11
(g12
(S'S8'
p981
I0
I1
tp982
Rp983
(I3
S'|'
p984
NNNI8
I1
I0
tp985
bS'haralick'
p986
tp987
Rp988
sg38
g966
sg70
g11
(g15
S'\xfc\xd0\x9a#\x80\xde\xef?'
p989
tp990
Rp991
sg74
g11
(g12
(S'S2'
p992
I0
I1
tp993
Rp994
(I3
S'|'
p995
NNNI2
I1
I0
tp996
bS'RF'
p997
tp998
Rp999
sg83
I3
sg148
g972
sg84
g85
sg86
g11
(g15
S'\xe4\xdc\xeb\xcd\t\x92\xe9?'
p1000
tp1001
Rp1002
sg90
g91
sg92
g93
sbag4
(g5
g6
Ntp1003
Rp1004
(dp1005
g10
g11
(g15
S'\x00\x00\x00\x00\x00\x00\xf8\xff'
p1006
tp1007
Rp1008
sg143
g11
(g15
S'\x00\x00\x00\x00\x00`m@'
p1009
tp1010
Rp1011
sg30
g31
sg205
g11
(g41
S'\x04\x00\x00\x00\x00\x00\x00\x00'
p1012
tp1013
Rp1014
sg32
(dp1015
g143
g1011
sg205
g1014
sg226
g11
(g41
S'\x03\x00\x00\x00\x00\x00\x00\x00'
p1016
tp1017
Rp1018
sg148
g11
(g15
S'P\x94\x99\xde\xe4i\xdb?'
p1019
tp1020
Rp1021
ssg51
g11
(g12
(S'S6'
p1022
I0
I1
tp1023
Rp1024
(I3
S'|'
p1025
NNNI6
I1
I0
tp1026
bS'ISOMAP'
p1027
tp1028
Rp1029
sg60
F0.2
sg226
g1018
sg61
g11
(g12
(S'S3'
p1030
I0
I1
tp1031
Rp1032
(I3
S'|'
p1033
NNNI3
I1
I0
tp1034
bS'VGG'
p1035
tp1036
Rp1037
sg70
g11
(g15
S'a\xc5z\x1dx\xa6\xe6?'
p1038
tp1039
Rp1040
sg74
g11
(g12
(S'S2'
p1041
I0
I1
tp1042
Rp1043
(I3
S'|'
p1044
NNNI2
I1
I0
tp1045
bS'RF'
p1046
tp1047
Rp1048
sg83
I3
sg148
g1021
sg84
g85
sg86
g11
(g15
S'\x9c\xb8\x7f\xf1\r\xd5\xea?'
p1049
tp1050
Rp1051
sg90
g91
sg92
g93
sbag4
(g5
g6
Ntp1052
Rp1053
(dp1054
g10
g11
(g15
S'\x00\x00\x00\x00\x00\x00\xf8\xff'
p1055
tp1056
Rp1057
sg205
g11
(g41
S'\x06\x00\x00\x00\x00\x00\x00\x00'
p1058
tp1059
Rp1060
sg30
g31
sg32
(dp1061
g205
g1060
sg34
g11
(g15
S'\r\xfeD \x82\xd3C@'
p1062
tp1063
Rp1064
sg226
g11
(g41
S'\x03\x00\x00\x00\x00\x00\x00\x00'
p1065
tp1066
Rp1067
sg47
g11
(g15
S'd\xa5\x7f\xff+\x1e\x1a@'
p1068
tp1069
Rp1070
ssg47
g1070
sg51
g11
(g12
(S'S6'
p1071
I0
I1
tp1072
Rp1073
(I3
S'|'
p1074
NNNI6
I1
I0
tp1075
bS'ISOMAP'
p1076
tp1077
Rp1078
sg60
F0.2
sg226
g1067
sg61
g11
(g12
(S'S9'
p1079
I0
I1
tp1080
Rp1081
(I3
S'|'
p1082
NNNI9
I1
I0
tp1083
bS'inception'
p1084
tp1085
Rp1086
sg34
g1064
sg70
g11
(g15
S'L4\xf4\xb2\xdf!\xe0?'
p1087
tp1088
Rp1089
sg74
g11
(g12
(S'S3'
p1090
I0
I1
tp1091
Rp1092
(I3
S'|'
p1093
NNNI3
I1
I0
tp1094
bS'SVM'
p1095
tp1096
Rp1097
sg83
I3
sg84
g85
sg86
g11
(g15
S'\tt\x9fH\xf6\x9a\xe1?'
p1098
tp1099
Rp1100
sg90
g91
sg92
g93
sbag4
(g5
g6
Ntp1101
Rp1102
(dp1103
g10
g11
(g15
S'\x00\x00\x00\x00\x00\x00\xf8\xff'
p1104
tp1105
Rp1106
sg21
g29
sg30
g31
sg32
(dp1107
g21
g29
sg34
g11
(g15
S'A\x00\xe8 \xe4\xc8$@'
p1108
tp1109
Rp1110
sg47
g11
(g15
S'\x88v\xf4\xa2\xd9\xce\x1c@'
p1111
tp1112
Rp1113
ssg51
g11
(g12
(S'S3'
p1114
I0
I1
tp1115
Rp1116
(I3
S'|'
p1117
NNNI3
I1
I0
tp1118
bS'PCA'
p1119
tp1120
Rp1121
sg60
F0.2
sg47
g1113
sg61
g11
(g12
(S'S9'
p1122
I0
I1
tp1123
Rp1124
(I3
S'|'
p1125
NNNI9
I1
I0
tp1126
bS'inception'
p1127
tp1128
Rp1129
sg34
g1110
sg70
g11
(g15
S'\xe0\x16|Tg^\xe0?'
p1130
tp1131
Rp1132
sg74
g11
(g12
(S'S3'
p1133
I0
I1
tp1134
Rp1135
(I3
S'|'
p1136
NNNI3
I1
I0
tp1137
bS'SVM'
p1138
tp1139
Rp1140
sg83
I3
sg84
g85
sg86
g11
(g15
S'Y\xb7\xfas\x81f\xe4?'
p1141
tp1142
Rp1143
sg90
g91
sg92
g93
sbag4
(g5
g6
Ntp1144
Rp1145
(dp1146
g10
g11
(g15
S'\x00\x00\x00\x00\x00\x00\xf8\xff'
p1147
tp1148
Rp1149
sg205
g11
(g41
S'\x03\x00\x00\x00\x00\x00\x00\x00'
p1150
tp1151
Rp1152
sg30
g31
sg32
(dp1153
g205
g1152
sg34
g11
(g15
S'\x13!\xf1g\xef\xfaV@'
p1154
tp1155
Rp1156
sg226
g11
(g41
S'\x04\x00\x00\x00\x00\x00\x00\x00'
p1157
tp1158
Rp1159
sg47
g11
(g15
S'\x93\x01\xd9\xc6\xf6\x13\xc4?'
p1160
tp1161
Rp1162
ssg47
g1162
sg51
g11
(g12
(S'S6'
p1163
I0
I1
tp1164
Rp1165
(I3
S'|'
p1166
NNNI6
I1
I0
tp1167
bS'ISOMAP'
p1168
tp1169
Rp1170
sg60
F0.2
sg226
g1159
sg61
g11
(g12
(S'S3'
p1171
I0
I1
tp1172
Rp1173
(I3
S'|'
p1174
NNNI3
I1
I0
tp1175
bS'VGG'
p1176
tp1177
Rp1178
sg34
g1156
sg70
g11
(g15
S'\xa5"v\xc1M2\xda?'
p1179
tp1180
Rp1181
sg74
g11
(g12
(S'S3'
p1182
I0
I1
tp1183
Rp1184
(I3
S'|'
p1185
NNNI3
I1
I0
tp1186
bS'SVM'
p1187
tp1188
Rp1189
sg83
I3
sg84
g85
sg86
g11
(g15
S'\x03\x82\x83\x80\x86z\xea?'
p1190
tp1191
Rp1192
sg90
g91
sg92
g93
sbag4
(g5
g6
Ntp1193
Rp1194
(dp1195
g10
g11
(g15
S'\x00\x00\x00\x00\x00\x00\xf8\xff'
p1196
tp1197
Rp1198
sg21
g680
sg30
g31
sg32
(dp1199
g21
g680
sg34
g11
(g15
S']\xd45\xf5\xbf\xff1@'
p1200
tp1201
Rp1202
sg47
g11
(g15
S'\xce\xb0\xd8{\x03\xb1\x1a@'
p1203
tp1204
Rp1205
ssg51
g11
(g12
(S'S3'
p1206
I0
I1
tp1207
Rp1208
(I3
S'|'
p1209
NNNI3
I1
I0
tp1210
bS'PCA'
p1211
tp1212
Rp1213
sg60
F0.2
sg47
g1205
sg61
g11
(g12
(S'S9'
p1214
I0
I1
tp1215
Rp1216
(I3
S'|'
p1217
NNNI9
I1
I0
tp1218
bS'inception'
p1219
tp1220
Rp1221
sg34
g1202
sg70
g11
(g15
S'\x9e\xa3\x1e\x9d\x8ei\xe0?'
p1222
tp1223
Rp1224
sg74
g11
(g12
(S'S3'
p1225
I0
I1
tp1226
Rp1227
(I3
S'|'
p1228
NNNI3
I1
I0
tp1229
bS'SVM'
p1230
tp1231
Rp1232
sg83
I3
sg84
g85
sg86
g11
(g15
S'\xb0\x91\xcdUEf\xe4?'
p1233
tp1234
Rp1235
sg90
g91
sg92
g93
sbag4
(g5
g6
Ntp1236
Rp1237
(dp1238
g10
g11
(g15
S'\x00\x00\x00\x00\x00\x00\xf8\xff'
p1239
tp1240
Rp1241
sg143
g11
(g15
S'\x00\x00\x00\x00\x00\x00D@'
p1242
tp1243
Rp1244
sg21
g29
sg30
g31
sg32
(dp1245
g143
g1244
sg148
g11
(g15
S'R\xf4\xd9\t\xbc\xb9\xef?'
p1246
tp1247
Rp1248
sg21
g29
ssg51
g11
(g12
(S'S3'
p1249
I0
I1
tp1250
Rp1251
(I3
S'|'
p1252
NNNI3
I1
I0
tp1253
bS'PCA'
p1254
tp1255
Rp1256
sg60
F0.2
sg61
g11
(g12
(S'S9'
p1257
I0
I1
tp1258
Rp1259
(I3
S'|'
p1260
NNNI9
I1
I0
tp1261
bS'inception'
p1262
tp1263
Rp1264
sg70
g11
(g15
S'\xe5\xea\x93\xe9d\x9d\xea?'
p1265
tp1266
Rp1267
sg74
g11
(g12
(S'S2'
p1268
I0
I1
tp1269
Rp1270
(I3
S'|'
p1271
NNNI2
I1
I0
tp1272
bS'RF'
p1273
tp1274
Rp1275
sg83
I3
sg148
g1248
sg84
g85
sg86
g11
(g15
S'p\x11\xceTGb\xe8?'
p1276
tp1277
Rp1278
sg90
g91
sg92
g93
sbag4
(g5
g6
Ntp1279
Rp1280
(dp1281
g10
g11
(g15
S'\x00\x00\x00\x00\x00\x00\xf8\xff'
p1282
tp1283
Rp1284
sg21
g29
sg30
g31
sg32
(dp1285
g21
g29
sg34
g11
(g15
S'\t\xea\xe3\x80\x01\xdbB@'
p1286
tp1287
Rp1288
sg47
g11
(g15
S'\x9c\x19u\xe7\x9e\xd8\x1e@'
p1289
tp1290
Rp1291
ssg51
g11
(g12
(S'S3'
p1292
I0
I1
tp1293
Rp1294
(I3
S'|'
p1295
NNNI3
I1
I0
tp1296
bS'PCA'
p1297
tp1298
Rp1299
sg60
F0.2
sg47
g1291
sg61
g11
(g12
(S'S9'
p1300
I0
I1
tp1301
Rp1302
(I3
S'|'
p1303
NNNI9
I1
I0
tp1304
bS'inception'
p1305
tp1306
Rp1307
sg34
g1288
sg70
g11
(g15
S'\x8b/\xbb\x06\x86\x86\xe0?'
p1308
tp1309
Rp1310
sg74
g11
(g12
(S'S3'
p1311
I0
I1
tp1312
Rp1313
(I3
S'|'
p1314
NNNI3
I1
I0
tp1315
bS'SVM'
p1316
tp1317
Rp1318
sg83
I3
sg84
g85
sg86
g11
(g15
S'\x90\x1c\x036\xd0\x9b\xe4?'
p1319
tp1320
Rp1321
sg90
g91
sg92
g93
sbag4
(g5
g6
Ntp1322
Rp1323
(dp1324
g10
g11
(g15
S'\x00\x00\x00\x00\x00\x00\xf8\xff'
p1325
tp1326
Rp1327
sg21
g29
sg30
g31
sg32
(dp1328
g21
g29
sg34
g11
(g15
S'\xee\xe2\x0f\xdc\x1b:X@'
p1329
tp1330
Rp1331
sg38
g11
(g41
S'\x03\x00\x00\x00\x00\x00\x00\x00'
p1332
tp1333
Rp1334
sg47
g11
(g15
S'\x03\xceT- \xc5\x0b@'
p1335
tp1336
Rp1337
ssg51
g11
(g12
(S'S3'
p1338
I0
I1
tp1339
Rp1340
(I3
S'|'
p1341
NNNI3
I1
I0
tp1342
bS'PCA'
p1343
tp1344
Rp1345
sg60
F0.2
sg47
g1337
sg61
g11
(g12
(S'S8'
p1346
I0
I1
tp1347
Rp1348
(I3
S'|'
p1349
NNNI8
I1
I0
tp1350
bS'haralick'
p1351
tp1352
Rp1353
sg34
g1331
sg38
g1334
sg70
g11
(g15
S'\x9d\xf8\x8bs\xce\x9e\xdd?'
p1354
tp1355
Rp1356
sg74
g11
(g12
(S'S3'
p1357
I0
I1
tp1358
Rp1359
(I3
S'|'
p1360
NNNI3
I1
I0
tp1361
bS'SVM'
p1362
tp1363
Rp1364
sg83
I3
sg84
g85
sg86
g11
(g15
S'K\x89\x0b\x07\x10\xfe\xe9?'
p1365
tp1366
Rp1367
sg90
g91
sg92
g93
sbag4
(g5
g6
Ntp1368
Rp1369
(dp1370
g10
g11
(g15
S'\x00\x00\x00\x00\x00\x00\xf8\xff'
p1371
tp1372
Rp1373
sg205
g11
(g41
S'\x04\x00\x00\x00\x00\x00\x00\x00'
p1374
tp1375
Rp1376
sg30
g31
sg32
(dp1377
g205
g1376
sg34
g11
(g15
S'/\xc9\x1b\xdf\xd8\x87R@'
p1378
tp1379
Rp1380
sg38
g11
(g41
S'\x03\x00\x00\x00\x00\x00\x00\x00'
p1381
tp1382
Rp1383
sg226
g11
(g41
S'\x03\x00\x00\x00\x00\x00\x00\x00'
p1384
tp1385
Rp1386
sg47
g11
(g15
S'\x8e\xf3~\xe4\x89\xa9\x13@'
p1387
tp1388
Rp1389
ssg47
g1389
sg51
g11
(g12
(S'S6'
p1390
I0
I1
tp1391
Rp1392
(I3
S'|'
p1393
NNNI6
I1
I0
tp1394
bS'ISOMAP'
p1395
tp1396
Rp1397
sg60
F0.2
sg226
g1386
sg61
g11
(g12
(S'S8'
p1398
I0
I1
tp1399
Rp1400
(I3
S'|'
p1401
NNNI8
I1
I0
tp1402
bS'haralick'
p1403
tp1404
Rp1405
sg34
g1380
sg38
g1383
sg70
g11
(g15
S'{\xad\xd1_\xfd\xdc\xde?'
p1406
tp1407
Rp1408
sg74
g11
(g12
(S'S3'
p1409
I0
I1
tp1410
Rp1411
(I3
S'|'
p1412
NNNI3
I1
I0
tp1413
bS'SVM'
p1414
tp1415
Rp1416
sg83
I3
sg84
g85
sg86
g11
(g15
S'\xc1\xd8\xa8\x08I\xc8\xe9?'
p1417
tp1418
Rp1419
sg90
g91
sg92
g93
sbag4
(g5
g6
Ntp1420
Rp1421
(dp1422
g10
g11
(g15
S'\x00\x00\x00\x00\x00\x00\xf8\xff'
p1423
tp1424
Rp1425
sg143
g11
(g15
S'\x00\x00\x00\x00\x00@R@'
p1426
tp1427
Rp1428
sg30
g31
sg205
g11
(g41
S'\x03\x00\x00\x00\x00\x00\x00\x00'
p1429
tp1430
Rp1431
sg32
(dp1432
g143
g1428
sg205
g1431
sg226
g11
(g41
S'\x03\x00\x00\x00\x00\x00\x00\x00'
p1433
tp1434
Rp1435
sg148
g11
(g15
S'\xb6\xe9R\x0f\x8cZ\xe3?'
p1436
tp1437
Rp1438
ssg51
g11
(g12
(S'S6'
p1439
I0
I1
tp1440
Rp1441
(I3
S'|'
p1442
NNNI6
I1
I0
tp1443
bS'ISOMAP'
p1444
tp1445
Rp1446
sg60
F0.2
sg226
g1435
sg61
g11
(g12
(S'S3'
p1447
I0
I1
tp1448
Rp1449
(I3
S'|'
p1450
NNNI3
I1
I0
tp1451
bS'VGG'
p1452
tp1453
Rp1454
sg70
g11
(g15
S'\xdc,\x85d1\xb0\xea?'
p1455
tp1456
Rp1457
sg74
g11
(g12
(S'S2'
p1458
I0
I1
tp1459
Rp1460
(I3
S'|'
p1461
NNNI2
I1
I0
tp1462
bS'RF'
p1463
tp1464
Rp1465
sg83
I3
sg148
g1438
sg84
g85
sg86
g11
(g15
S'\xac?\x17h\xc6\t\xeb?'
p1466
tp1467
Rp1468
sg90
g91
sg92
g93
sbag4
(g5
g6
Ntp1469
Rp1470
(dp1471
g10
g11
(g15
S'\x00\x00\x00\x00\x00\x00\xf8\xff'
p1472
tp1473
Rp1474
sg143
g11
(g15
S'\x00\x00\x00\x00\x00\xc0r@'
p1475
tp1476
Rp1477
sg21
g29
sg30
g31
sg32
(dp1478
g143
g1477
sg148
g11
(g15
S'6\x9c\xdf\x0f\x19D\xdc?'
p1479
tp1480
Rp1481
sg21
g29
ssg51
g11
(g12
(S'S3'
p1482
I0
I1
tp1483
Rp1484
(I3
S'|'
p1485
NNNI3
I1
I0
tp1486
bS'PCA'
p1487
tp1488
Rp1489
sg60
F0.2
sg61
g11
(g12
(S'S9'
p1490
I0
I1
tp1491
Rp1492
(I3
S'|'
p1493
NNNI9
I1
I0
tp1494
bS'inception'
p1495
tp1496
Rp1497
sg70
g11
(g15
S'w\xda\xb4P\xfbe\xe0?'
p1498
tp1499
Rp1500
sg74
g11
(g12
(S'S2'
p1501
I0
I1
tp1502
Rp1503
(I3
S'|'
p1504
NNNI2
I1
I0
tp1505
bS'RF'
p1506
tp1507
Rp1508
sg83
I3
sg148
g1481
sg84
g85
sg86
g11
(g15
S'\x9b~\xb7E)b\xe8?'
p1509
tp1510
Rp1511
sg90
g91
sg92
g93
sbag4
(g5
g6
Ntp1512
Rp1513
(dp1514
g10
g11
(g15
S'\x00\x00\x00\x00\x00\x00\xf8\xff'
p1515
tp1516
Rp1517
sg143
g11
(g15
S'\x00\x00\x00\x00\x00@Z@'
p1518
tp1519
Rp1520
sg21
g29
sg30
g31
sg32
(dp1521
g143
g1520
sg148
g11
(g15
S'\x87\\\xbfW\x89\x88\xe8?'
p1522
tp1523
Rp1524
sg21
g29
ssg51
g11
(g12
(S'S3'
p1525
I0
I1
tp1526
Rp1527
(I3
S'|'
p1528
NNNI3
I1
I0
tp1529
bS'PCA'
p1530
tp1531
Rp1532
sg60
F0.2
sg61
g11
(g12
(S'S3'
p1533
I0
I1
tp1534
Rp1535
(I3
S'|'
p1536
NNNI3
I1
I0
tp1537
bS'VGG'
p1538
tp1539
Rp1540
sg70
g11
(g15
S'3\x8b\xa2<\xeaT\xd3?'
p1541
tp1542
Rp1543
sg74
g11
(g12
(S'S2'
p1544
I0
I1
tp1545
Rp1546
(I3
S'|'
p1547
NNNI2
I1
I0
tp1548
bS'RF'
p1549
tp1550
Rp1551
sg83
I3
sg148
g1524
sg84
g85
sg86
g11
(g15
S'h^pL\x94\x04\xec?'
p1552
tp1553
Rp1554
sg90
g91
sg92
g93
sbag4
(g5
g6
Ntp1555
Rp1556
(dp1557
g10
g11
(g15
S'\x00\x00\x00\x00\x00\x00\xf8\xff'
p1558
tp1559
Rp1560
sg143
g11
(g15
S'\x00\x00\x00\x00\x00\xc0r@'
p1561
tp1562
Rp1563
sg30
g31
sg205
g11
(g41
S'\x07\x00\x00\x00\x00\x00\x00\x00'
p1564
tp1565
Rp1566
sg32
(dp1567
g143
g1563
sg205
g1566
sg226
g11
(g41
S'\x02\x00\x00\x00\x00\x00\x00\x00'
p1568
tp1569
Rp1570
sg148
g11
(g15
S'\xdc\xd3,\xa2j\x14\xea?'
p1571
tp1572
Rp1573
ssg51
g11
(g12
(S'S6'
p1574
I0
I1
tp1575
Rp1576
(I3
S'|'
p1577
NNNI6
I1
I0
tp1578
bS'ISOMAP'
p1579
tp1580
Rp1581
sg60
F0.2
sg226
g1570
sg61
g11
(g12
(S'S3'
p1582
I0
I1
tp1583
Rp1584
(I3
S'|'
p1585
NNNI3
I1
I0
tp1586
bS'VGG'
p1587
tp1588
Rp1589
sg70
g11
(g15
S' \xda\xe45\x0e\x17\xea?'
p1590
tp1591
Rp1592
sg74
g11
(g12
(S'S2'
p1593
I0
I1
tp1594
Rp1595
(I3
S'|'
p1596
NNNI2
I1
I0
tp1597
bS'RF'
p1598
tp1599
Rp1600
sg83
I3
sg148
g1573
sg84
g85
sg86
g11
(g15
S'\xe4\xdc\xeb\xcd\t\x92\xe9?'
p1601
tp1602
Rp1603
sg90
g91
sg92
g93
sbag4
(g5
g6
Ntp1604
Rp1605
(dp1606
g10
g11
(g15
S'\x00\x00\x00\x00\x00\x00\xf8\xff'
p1607
tp1608
Rp1609
sg143
g11
(g15
S'\x00\x00\x00\x00\x00`m@'
p1610
tp1611
Rp1612
sg21
g29
sg30
g31
sg32
(dp1613
g143
g1612
sg148
g11
(g15
S'\x92\xcb\xf6\xad\xec\x10\xea?'
p1614
tp1615
Rp1616
sg21
g29
ssg51
g11
(g12
(S'S3'
p1617
I0
I1
tp1618
Rp1619
(I3
S'|'
p1620
NNNI3
I1
I0
tp1621
bS'PCA'
p1622
tp1623
Rp1624
sg60
F0.2
sg61
g11
(g12
(S'S3'
p1625
I0
I1
tp1626
Rp1627
(I3
S'|'
p1628
NNNI3
I1
I0
tp1629
bS'VGG'
p1630
tp1631
Rp1632
sg70
g11
(g15
S'K\xa0\xd7\x84W\xca\xd2?'
p1633
tp1634
Rp1635
sg74
g11
(g12
(S'S2'
p1636
I0
I1
tp1637
Rp1638
(I3
S'|'
p1639
NNNI2
I1
I0
tp1640
bS'RF'
p1641
tp1642
Rp1643
sg83
I3
sg148
g1616
sg84
g85
sg86
g11
(g15
S'\x1c|\xbc;=:\xec?'
p1644
tp1645
Rp1646
sg90
g91
sg92
g93
sbag4
(g5
g6
Ntp1647
Rp1648
(dp1649
g10
g11
(g15
S'\x00\x00\x00\x00\x00\x00\xf8\xff'
p1650
tp1651
Rp1652
sg143
g11
(g15
S'\x00\x00\x00\x00\x00`m@'
p1653
tp1654
Rp1655
sg21
g29
sg30
g31
sg32
(dp1656
g143
g1655
sg148
g11
(g15
S'\x16\xa9\xf1\xa6\x15\x1d\xef?'
p1657
tp1658
Rp1659
sg21
g29
ssg51
g11
(g12
(S'S3'
p1660
I0
I1
tp1661
Rp1662
(I3
S'|'
p1663
NNNI3
I1
I0
tp1664
bS'PCA'
p1665
tp1666
Rp1667
sg60
F0.2
sg61
g11
(g12
(S'S9'
p1668
I0
I1
tp1669
Rp1670
(I3
S'|'
p1671
NNNI9
I1
I0
tp1672
bS'inception'
p1673
tp1674
Rp1675
sg70
g11
(g15
S'\njSc\xf4\x88\xe0?'
p1676
tp1677
Rp1678
sg74
g11
(g12
(S'S2'
p1679
I0
I1
tp1680
Rp1681
(I3
S'|'
p1682
NNNI2
I1
I0
tp1683
bS'RF'
p1684
tp1685
Rp1686
sg83
I3
sg148
g1659
sg84
g85
sg86
g11
(g15
S'0\x8f\xd2KY>\xe8?'
p1687
tp1688
Rp1689
sg90
g91
sg92
g93
sbag4
(g5
g6
Ntp1690
Rp1691
(dp1692
g10
g11
(g15
S'\x00\x00\x00\x00\x00\x00\xf8\xff'
p1693
tp1694
Rp1695
sg143
g11
(g15
S'\x00\x00\x00\x00\x00\xc0r@'
p1696
tp1697
Rp1698
sg30
g31
sg205
g11
(g41
S'\x05\x00\x00\x00\x00\x00\x00\x00'
p1699
tp1700
Rp1701
sg32
(dp1702
g143
g1698
sg205
g1701
sg38
g11
(g41
S'\x03\x00\x00\x00\x00\x00\x00\x00'
p1703
tp1704
Rp1705
sg226
g11
(g41
S'\x03\x00\x00\x00\x00\x00\x00\x00'
p1706
tp1707
Rp1708
sg148
g11
(g15
S'\x9c\xb5\xc9\xd4R\xe4\xeb?'
p1709
tp1710
Rp1711
ssg51
g11
(g12
(S'S6'
p1712
I0
I1
tp1713
Rp1714
(I3
S'|'
p1715
NNNI6
I1
I0
tp1716
bS'ISOMAP'
p1717
tp1718
Rp1719
sg60
F0.2
sg226
g1708
sg61
g11
(g12
(S'S8'
p1720
I0
I1
tp1721
Rp1722
(I3
S'|'
p1723
NNNI8
I1
I0
tp1724
bS'haralick'
p1725
tp1726
Rp1727
sg38
g1705
sg70
g11
(g15
S'\x91`\x99-\x18\xd4\xf0?'
p1728
tp1729
Rp1730
sg74
g11
(g12
(S'S2'
p1731
I0
I1
tp1732
Rp1733
(I3
S'|'
p1734
NNNI2
I1
I0
tp1735
bS'RF'
p1736
tp1737
Rp1738
sg83
I3
sg148
g1711
sg84
g85
sg86
g11
(g15
S'\xd8\xc8\xe6\xaa"3\xea?'
p1739
tp1740
Rp1741
sg90
g91
sg92
g93
sbag4
(g5
g6
Ntp1742
Rp1743
(dp1744
g10
g11
(g15
S'\x00\x00\x00\x00\x00\x00\xf8\xff'
p1745
tp1746
Rp1747
sg143
g11
(g15
S'\x00\x00\x00\x00\x00\xc0p@'
p1748
tp1749
Rp1750
sg30
g31
sg205
g11
(g41
S'\x07\x00\x00\x00\x00\x00\x00\x00'
p1751
tp1752
Rp1753
sg32
(dp1754
g143
g1750
sg205
g1753
sg226
g11
(g41
S'\x04\x00\x00\x00\x00\x00\x00\x00'
p1755
tp1756
Rp1757
sg148
g11
(g15
S'H"Q\x1c\x14\x05\xe7?'
p1758
tp1759
Rp1760
ssg51
g11
(g12
(S'S6'
p1761
I0
I1
tp1762
Rp1763
(I3
S'|'
p1764
NNNI6
I1
I0
tp1765
bS'ISOMAP'
p1766
tp1767
Rp1768
sg60
F0.2
sg226
g1757
sg61
g11
(g12
(S'S9'
p1769
I0
I1
tp1770
Rp1771
(I3
S'|'
p1772
NNNI9
I1
I0
tp1773
bS'inception'
p1774
tp1775
Rp1776
sg70
g11
(g15
S'\xb3\x07\xbd:\xae\xf7\xe7?'
p1777
tp1778
Rp1779
sg74
g11
(g12
(S'S2'
p1780
I0
I1
tp1781
Rp1782
(I3
S'|'
p1783
NNNI2
I1
I0
tp1784
bS'RF'
p1785
tp1786
Rp1787
sg83
I3
sg148
g1760
sg84
g85
sg86
g11
(g15
S'8r\xfd\xe6\x13\xba\xe5?'
p1788
tp1789
Rp1790
sg90
g91
sg92
g93
sbag4
(g5
g6
Ntp1791
Rp1792
(dp1793
g10
g11
(g15
S'\x00\x00\x00\x00\x00\x00\xf8\xff'
p1794
tp1795
Rp1796
sg205
g11
(g41
S'\x04\x00\x00\x00\x00\x00\x00\x00'
p1797
tp1798
Rp1799
sg30
g31
sg32
(dp1800
g205
g1799
sg34
g11
(g15
S'n"\xa9\xea\xa9\xeaU@'
p1801
tp1802
Rp1803
sg38
g11
(g41
S'\x01\x00\x00\x00\x00\x00\x00\x00'
p1804
tp1805
Rp1806
sg226
g11
(g41
S'\x02\x00\x00\x00\x00\x00\x00\x00'
p1807
tp1808
Rp1809
sg47
g11
(g15
S'\xaf\x94[\xa8\x82K\x05@'
p1810
tp1811
Rp1812
ssg47
g1812
sg51
g11
(g12
(S'S6'
p1813
I0
I1
tp1814
Rp1815
(I3
S'|'
p1816
NNNI6
I1
I0
tp1817
bS'ISOMAP'
p1818
tp1819
Rp1820
sg60
F0.2
sg226
g1809
sg61
g11
(g12
(S'S8'
p1821
I0
I1
tp1822
Rp1823
(I3
S'|'
p1824
NNNI8
I1
I0
tp1825
bS'haralick'
p1826
tp1827
Rp1828
sg34
g1803
sg38
g1806
sg70
g11
(g15
S'G?9R\x9aI\xda?'
p1829
tp1830
Rp1831
sg74
g11
(g12
(S'S3'
p1832
I0
I1
tp1833
Rp1834
(I3
S'|'
p1835
NNNI3
I1
I0
tp1836
bS'SVM'
p1837
tp1838
Rp1839
sg83
I3
sg84
g85
sg86
g11
(g15
S'\x0f\x96\x88\xa3m\xd9\xe9?'
p1840
tp1841
Rp1842
sg90
g91
sg92
g93
sbag4
(g5
g6
Ntp1843
Rp1844
(dp1845
g10
g11
(g15
S'\x00\x00\x00\x00\x00\x00\xf8\xff'
p1846
tp1847
Rp1848
sg205
g11
(g41
S'\x03\x00\x00\x00\x00\x00\x00\x00'
p1849
tp1850
Rp1851
sg30
g31
sg32
(dp1852
g205
g1851
sg34
g11
(g15
S'\x1f\xffT\xe5\x00\xc3<@'
p1853
tp1854
Rp1855
sg226
g11
(g41
S'\x04\x00\x00\x00\x00\x00\x00\x00'
p1856
tp1857
Rp1858
sg47
g11
(g15
S'\x01\x10$F/\xf2\xfe?'
p1859
tp1860
Rp1861
ssg47
g1861
sg51
g11
(g12
(S'S6'
p1862
I0
I1
tp1863
Rp1864
(I3
S'|'
p1865
NNNI6
I1
I0
tp1866
bS'ISOMAP'
p1867
tp1868
Rp1869
sg60
F0.2
sg226
g1858
sg61
g11
(g12
(S'S9'
p1870
I0
I1
tp1871
Rp1872
(I3
S'|'
p1873
NNNI9
I1
I0
tp1874
bS'inception'
p1875
tp1876
Rp1877
sg34
g1855
sg70
g11
(g15
S'\x88\xd5\xbc\x90\x05\x84\xe0?'
p1878
tp1879
Rp1880
sg74
g11
(g12
(S'S3'
p1881
I0
I1
tp1882
Rp1883
(I3
S'|'
p1884
NNNI3
I1
I0
tp1885
bS'SVM'
p1886
tp1887
Rp1888
sg83
I3
sg84
g85
sg86
g11
(g15
S'\x07\x99s\xbe(T\xe1?'
p1889
tp1890
Rp1891
sg90
g91
sg92
g93
sbag4
(g5
g6
Ntp1892
Rp1893
(dp1894
g10
g11
(g15
S'\x00\x00\x00\x00\x00\x00\xf8\xff'
p1895
tp1896
Rp1897
sg143
g11
(g15
S'\x00\x00\x00\x00\x00`m@'
p1898
tp1899
Rp1900
sg30
g31
sg205
g11
(g41
S'\x03\x00\x00\x00\x00\x00\x00\x00'
p1901
tp1902
Rp1903
sg32
(dp1904
g143
g1900
sg205
g1903
sg38
g11
(g41
S'\x02\x00\x00\x00\x00\x00\x00\x00'
p1905
tp1906
Rp1907
sg226
g11
(g41
S'\x04\x00\x00\x00\x00\x00\x00\x00'
p1908
tp1909
Rp1910
sg148
g11
(g15
S'\xc4=\xa9\x1d&\x9e\xeb?'
p1911
tp1912
Rp1913
ssg51
g11
(g12
(S'S6'
p1914
I0
I1
tp1915
Rp1916
(I3
S'|'
p1917
NNNI6
I1
I0
tp1918
bS'ISOMAP'
p1919
tp1920
Rp1921
sg60
F0.2
sg226
g1910
sg61
g11
(g12
(S'S8'
p1922
I0
I1
tp1923
Rp1924
(I3
S'|'
p1925
NNNI8
I1
I0
tp1926
bS'haralick'
p1927
tp1928
Rp1929
sg38
g1907
sg70
g11
(g15
S'\x91U\x83\xc2\xea\xc5\xf6?'
p1930
tp1931
Rp1932
sg74
g11
(g12
(S'S2'
p1933
I0
I1
tp1934
Rp1935
(I3
S'|'
p1936
NNNI2
I1
I0
tp1937
bS'RF'
p1938
tp1939
Rp1940
sg83
I3
sg148
g1913
sg84
g85
sg86
g11
(g15
S'8\xdc\x92%\x00K\xe9?'
p1941
tp1942
Rp1943
sg90
g91
sg92
g93
sbag4
(g5
g6
Ntp1944
Rp1945
(dp1946
g10
g11
(g15
S'\x00\x00\x00\x00\x00\x00\xf8\xff'
p1947
tp1948
Rp1949
sg143
g11
(g15
S'\x00\x00\x00\x00\x00@Z@'
p1950
tp1951
Rp1952
sg21
g29
sg30
g31
sg32
(dp1953
g143
g1952
sg148
g11
(g15
S'^\xc2\xbe\xa6\xe1\xc5\xd6?'
p1954
tp1955
Rp1956
sg21
g29
ssg51
g11
(g12
(S'S3'
p1957
I0
I1
tp1958
Rp1959
(I3
S'|'
p1960
NNNI3
I1
I0
tp1961
bS'PCA'
p1962
tp1963
Rp1964
sg60
F0.2
sg61
g11
(g12
(S'S9'
p1965
I0
I1
tp1966
Rp1967
(I3
S'|'
p1968
NNNI9
I1
I0
tp1969
bS'inception'
p1970
tp1971
Rp1972
sg70
g11
(g15
S'\xedh\xc8\x15\xf5\xb0\xe2?'
p1973
tp1974
Rp1975
sg74
g11
(g12
(S'S2'
p1976
I0
I1
tp1977
Rp1978
(I3
S'|'
p1979
NNNI2
I1
I0
tp1980
bS'RF'
p1981
tp1982
Rp1983
sg83
I3
sg148
g1956
sg84
g85
sg86
g11
(g15
S'0\x8f\xd2KY>\xe8?'
p1984
tp1985
Rp1986
sg90
g91
sg92
g93
sbag4
(g5
g6
Ntp1987
Rp1988
(dp1989
g10
g11
(g15
S'\x00\x00\x00\x00\x00\x00\xf8\xff'
p1990
tp1991
Rp1992
sg143
g11
(g15
S'\x00\x00\x00\x00\x00@e@'
p1993
tp1994
Rp1995
sg30
g31
sg205
g11
(g41
S'\x06\x00\x00\x00\x00\x00\x00\x00'
p1996
tp1997
Rp1998
sg32
(dp1999
g143
g1995
sg205
g1998
sg38
g11
(g41
S'\x02\x00\x00\x00\x00\x00\x00\x00'
p2000
tp2001
Rp2002
sg226
g11
(g41
S'\x04\x00\x00\x00\x00\x00\x00\x00'
p2003
tp2004
Rp2005
sg148
g11
(g15
S'#)\x95c\xae\xe2\xe0?'
p2006
tp2007
Rp2008
ssg51
g11
(g12
(S'S6'
p2009
I0
I1
tp2010
Rp2011
(I3
S'|'
p2012
NNNI6
I1
I0
tp2013
bS'ISOMAP'
p2014
tp2015
Rp2016
sg60
F0.2
sg226
g2005
sg61
g11
(g12
(S'S8'
p2017
I0
I1
tp2018
Rp2019
(I3
S'|'
p2020
NNNI8
I1
I0
tp2021
bS'haralick'
p2022
tp2023
Rp2024
sg38
g2002
sg70
g11
(g15
S'-\x17`\x96\xe2\xe6\xe7?'
p2025
tp2026
Rp2027
sg74
g11
(g12
(S'S2'
p2028
I0
I1
tp2029
Rp2030
(I3
S'|'
p2031
NNNI2
I1
I0
tp2032
bS'RF'
p2033
tp2034
Rp2035
sg83
I3
sg148
g2008
sg84
g85
sg86
g11
(g15
S'\x88\xef \xbe\x83\xf8\xea?'
p2036
tp2037
Rp2038
sg90
g91
sg92
g93
sbag4
(g5
g6
Ntp2039
Rp2040
(dp2041
g10
g11
(g15
S'\x00\x00\x00\x00\x00\x00\xf8\xff'
p2042
tp2043
Rp2044
sg21
g680
sg30
g31
sg32
(dp2045
g21
g680
sg34
g11
(g15
S'\xe5/\xa19o,D@'
p2046
tp2047
Rp2048
sg47
g11
(g15
S'r}W\x98\x8c\xaa\x04@'
p2049
tp2050
Rp2051
ssg51
g11
(g12
(S'S3'
p2052
I0
I1
tp2053
Rp2054
(I3
S'|'
p2055
NNNI3
I1
I0
tp2056
bS'PCA'
p2057
tp2058
Rp2059
sg60
F0.2
sg47
g2051
sg61
g11
(g12
(S'S3'
p2060
I0
I1
tp2061
Rp2062
(I3
S'|'
p2063
NNNI3
I1
I0
tp2064
bS'VGG'
p2065
tp2066
Rp2067
sg34
g2048
sg70
g11
(g15
S'\x7f\x86\xc0\xc8_\x9d\xd8?'
p2068
tp2069
Rp2070
sg74
g11
(g12
(S'S3'
p2071
I0
I1
tp2072
Rp2073
(I3
S'|'
p2074
NNNI3
I1
I0
tp2075
bS'SVM'
p2076
tp2077
Rp2078
sg83
I3
sg84
g85
sg86
g11
(g15
S'\x8c\xe62\x9a\xcbh\xea?'
p2079
tp2080
Rp2081
sg90
g91
sg92
g93
sbag4
(g5
g6
Ntp2082
Rp2083
(dp2084
g10
g11
(g15
S'\x00\x00\x00\x00\x00\x00\xf8\xff'
p2085
tp2086
Rp2087
sg205
g11
(g41
S'\x05\x00\x00\x00\x00\x00\x00\x00'
p2088
tp2089
Rp2090
sg30
g31
sg32
(dp2091
g205
g2090
sg34
g11
(g15
S'\xf4\xc1mh\xb5.X@'
p2092
tp2093
Rp2094
sg226
g11
(g41
S'\x04\x00\x00\x00\x00\x00\x00\x00'
p2095
tp2096
Rp2097
sg47
g11
(g15
S'\xf7\x9d\xf2<\xa1\xf1\x12@'
p2098
tp2099
Rp2100
ssg47
g2100
sg51
g11
(g12
(S'S6'
p2101
I0
I1
tp2102
Rp2103
(I3
S'|'
p2104
NNNI6
I1
I0
tp2105
bS'ISOMAP'
p2106
tp2107
Rp2108
sg60
F0.2
sg226
g2097
sg61
g11
(g12
(S'S3'
p2109
I0
I1
tp2110
Rp2111
(I3
S'|'
p2112
NNNI3
I1
I0
tp2113
bS'VGG'
p2114
tp2115
Rp2116
sg34
g2094
sg70
g11
(g15
S'\xc19\xdb\x19Bb\xd9?'
p2117
tp2118
Rp2119
sg74
g11
(g12
(S'S3'
p2120
I0
I1
tp2121
Rp2122
(I3
S'|'
p2123
NNNI3
I1
I0
tp2124
bS'SVM'
p2125
tp2126
Rp2127
sg83
I3
sg84
g85
sg86
g11
(g15
S'\xa4>\ns\xa1D\xea?'
p2128
tp2129
Rp2130
sg90
g91
sg92
g93
sbag4
(g5
g6
Ntp2131
Rp2132
(dp2133
g10
g11
(g15
S'\x00\x00\x00\x00\x00\x00\xf8\xff'
p2134
tp2135
Rp2136
sg21
g680
sg30
g31
sg32
(dp2137
g21
g680
sg34
g11
(g15
S'h\x82dv\xd0\x9dD@'
p2138
tp2139
Rp2140
sg38
g11
(g41
S'\x01\x00\x00\x00\x00\x00\x00\x00'
p2141
tp2142
Rp2143
sg47
g11
(g15
S'\te\xdd0\x13A\x1d@'
p2144
tp2145
Rp2146
ssg51
g11
(g12
(S'S3'
p2147
I0
I1
tp2148
Rp2149
(I3
S'|'
p2150
NNNI3
I1
I0
tp2151
bS'PCA'
p2152
tp2153
Rp2154
sg60
F0.2
sg47
g2146
sg61
g11
(g12
(S'S8'
p2155
I0
I1
tp2156
Rp2157
(I3
S'|'
p2158
NNNI8
I1
I0
tp2159
bS'haralick'
p2160
tp2161
Rp2162
sg34
g2140
sg38
g2143
sg70
g11
(g15
S'0\xba\xa3\xe6=4\xdc?'
p2163
tp2164
Rp2165
sg74
g11
(g12
(S'S3'
p2166
I0
I1
tp2167
Rp2168
(I3
S'|'
p2169
NNNI3
I1
I0
tp2170
bS'SVM'
p2171
tp2172
Rp2173
sg83
I3
sg84
g85
sg86
g11
(g15
S'\x8cC\xd3\xb3\xf2t\xe8?'
p2174
tp2175
Rp2176
sg90
g91
sg92
g93
sbag4
(g5
g6
Ntp2177
Rp2178
(dp2179
g10
g11
(g15
S'\x00\x00\x00\x00\x00\x00\xf8\xff'
p2180
tp2181
Rp2182
sg21
g29
sg30
g31
sg32
(dp2183
g21
g29
sg34
g11
(g15
S'\r\x0ek\x07KfC@'
p2184
tp2185
Rp2186
sg47
g11
(g15
S'\x04\x95\xda\x8d}\xcc\x19@'
p2187
tp2188
Rp2189
ssg51
g11
(g12
(S'S3'
p2190
I0
I1
tp2191
Rp2192
(I3
S'|'
p2193
NNNI3
I1
I0
tp2194
bS'PCA'
p2195
tp2196
Rp2197
sg60
F0.2
sg47
g2189
sg61
g11
(g12
(S'S3'
p2198
I0
I1
tp2199
Rp2200
(I3
S'|'
p2201
NNNI3
I1
I0
tp2202
bS'VGG'
p2203
tp2204
Rp2205
sg34
g2186
sg70
g11
(g15
S'\xbbF~\xbcqo\xd9?'
p2206
tp2207
Rp2208
sg74
g11
(g12
(S'S3'
p2209
I0
I1
tp2210
Rp2211
(I3
S'|'
p2212
NNNI3
I1
I0
tp2213
bS'SVM'
p2214
tp2215
Rp2216
sg83
I3
sg84
g85
sg86
g11
(g15
S'\xad\xc3\x96\xf0<\xa4\xe9?'
p2217
tp2218
Rp2219
sg90
g91
sg92
g93
sbag4
(g5
g6
Ntp2220
Rp2221
(dp2222
g10
g11
(g15
S'\x00\x00\x00\x00\x00\x00\xf8\xff'
p2223
tp2224
Rp2225
sg205
g11
(g41
S'\x04\x00\x00\x00\x00\x00\x00\x00'
p2226
tp2227
Rp2228
sg30
g31
sg32
(dp2229
g205
g2228
sg34
g11
(g15
S'\x85\x99\xf7\x92\x93\x9aK@'
p2230
tp2231
Rp2232
sg226
g11
(g41
S'\x04\x00\x00\x00\x00\x00\x00\x00'
p2233
tp2234
Rp2235
sg47
g11
(g15
S'\x08Ij\xee!?\xf8?'
p2236
tp2237
Rp2238
ssg47
g2238
sg51
g11
(g12
(S'S6'
p2239
I0
I1
tp2240
Rp2241
(I3
S'|'
p2242
NNNI6
I1
I0
tp2243
bS'ISOMAP'
p2244
tp2245
Rp2246
sg60
F0.2
sg226
g2235
sg61
g11
(g12
(S'S3'
p2247
I0
I1
tp2248
Rp2249
(I3
S'|'
p2250
NNNI3
I1
I0
tp2251
bS'VGG'
p2252
tp2253
Rp2254
sg34
g2232
sg70
g11
(g15
S'\xebE\x8b\xa9r\xad\xdb?'
p2255
tp2256
Rp2257
sg74
g11
(g12
(S'S3'
p2258
I0
I1
tp2259
Rp2260
(I3
S'|'
p2261
NNNI3
I1
I0
tp2262
bS'SVM'
p2263
tp2264
Rp2265
sg83
I3
sg84
g85
sg86
g11
(g15
S'\xbby\xfd\xf5\x04\xe7\xea?'
p2266
tp2267
Rp2268
sg90
g91
sg92
g93
sbag4
(g5
g6
Ntp2269
Rp2270
(dp2271
g10
g11
(g15
S'\x00\x00\x00\x00\x00\x00\xf8\xff'
p2272
tp2273
Rp2274
sg143
g11
(g15
S'\x00\x00\x00\x00\x00\xc0r@'
p2275
tp2276
Rp2277
sg30
g31
sg205
g11
(g41
S'\x04\x00\x00\x00\x00\x00\x00\x00'
p2278
tp2279
Rp2280
sg32
(dp2281
g143
g2277
sg205
g2280
sg226
g11
(g41
S'\x04\x00\x00\x00\x00\x00\x00\x00'
p2282
tp2283
Rp2284
sg148
g11
(g15
S'\x9e\x14|\xe5\x9a\x87\xe3?'
p2285
tp2286
Rp2287
ssg51
g11
(g12
(S'S6'
p2288
I0
I1
tp2289
Rp2290
(I3
S'|'
p2291
NNNI6
I1
I0
tp2292
bS'ISOMAP'
p2293
tp2294
Rp2295
sg60
F0.2
sg226
g2284
sg61
g11
(g12
(S'S9'
p2296
I0
I1
tp2297
Rp2298
(I3
S'|'
p2299
NNNI9
I1
I0
tp2300
bS'inception'
p2301
tp2302
Rp2303
sg70
g11
(g15
S'\x82m7\x94\x8a\x1d\xf2?'
p2304
tp2305
Rp2306
sg74
g11
(g12
(S'S2'
p2307
I0
I1
tp2308
Rp2309
(I3
S'|'
p2310
NNNI2
I1
I0
tp2311
bS'RF'
p2312
tp2313
Rp2314
sg83
I3
sg148
g2287
sg84
g85
sg86
g11
(g15
S'\x01\r\xf5$\xc5\x84\xe5?'
p2315
tp2316
Rp2317
sg90
g91
sg92
g93
sbag4
(g5
g6
Ntp2318
Rp2319
(dp2320
g10
g11
(g15
S'\x00\x00\x00\x00\x00\x00\xf8\xff'
p2321
tp2322
Rp2323
sg143
g11
(g15
S'\x00\x00\x00\x00\x00`m@'
p2324
tp2325
Rp2326
sg21
g680
sg30
g31
sg32
(dp2327
g143
g2326
sg148
g11
(g15
S'D\x94^\xc6\xee\xf0\xdd?'
p2328
tp2329
Rp2330
sg21
g680
ssg51
g11
(g12
(S'S3'
p2331
I0
I1
tp2332
Rp2333
(I3
S'|'
p2334
NNNI3
I1
I0
tp2335
bS'PCA'
p2336
tp2337
Rp2338
sg60
F0.2
sg61
g11
(g12
(S'S3'
p2339
I0
I1
tp2340
Rp2341
(I3
S'|'
p2342
NNNI3
I1
I0
tp2343
bS'VGG'
p2344
tp2345
Rp2346
sg70
g11
(g15
S'\xfdR\x07Q\x1e\xfa\xd2?'
p2347
tp2348
Rp2349
sg74
g11
(g12
(S'S2'
p2350
I0
I1
tp2351
Rp2352
(I3
S'|'
p2353
NNNI2
I1
I0
tp2354
bS'RF'
p2355
tp2356
Rp2357
sg83
I3
sg148
g2330
sg84
g85
sg86
g11
(g15
S'0E\x1bo\xc7\x16\xec?'
p2358
tp2359
Rp2360
sg90
g91
sg92
g93
sbag4
(g5
g6
Ntp2361
Rp2362
(dp2363
g10
g11
(g15
S'\x00\x00\x00\x00\x00\x00\xf8\xff'
p2364
tp2365
Rp2366
sg143
g11
(g15
S'\x00\x00\x00\x00\x00@e@'
p2367
tp2368
Rp2369
sg30
g31
sg205
g11
(g41
S'\x05\x00\x00\x00\x00\x00\x00\x00'
p2370
tp2371
Rp2372
sg32
(dp2373
g143
g2369
sg205
g2372
sg226
g11
(g41
S'\x04\x00\x00\x00\x00\x00\x00\x00'
p2374
tp2375
Rp2376
sg148
g11
(g15
S'\xc7\xa7\xd8_\xc7\xfa\xe4?'
p2377
tp2378
Rp2379
ssg51
g11
(g12
(S'S6'
p2380
I0
I1
tp2381
Rp2382
(I3
S'|'
p2383
NNNI6
I1
I0
tp2384
bS'ISOMAP'
p2385
tp2386
Rp2387
sg60
F0.2
sg226
g2376
sg61
g11
(g12
(S'S3'
p2388
I0
I1
tp2389
Rp2390
(I3
S'|'
p2391
NNNI3
I1
I0
tp2392
bS'VGG'
p2393
tp2394
Rp2395
sg70
g11
(g15
S'1q\x81\xbaBi\xde?'
p2396
tp2397
Rp2398
sg74
g11
(g12
(S'S2'
p2399
I0
I1
tp2400
Rp2401
(I3
S'|'
p2402
NNNI2
I1
I0
tp2403
bS'RF'
p2404
tp2405
Rp2406
sg83
I3
sg148
g2379
sg84
g85
sg86
g11
(g15
S'5<-K\x0f\x87\xeb?'
p2407
tp2408
Rp2409
sg90
g91
sg92
g93
sbag4
(g5
g6
Ntp2410
Rp2411
(dp2412
g10
g11
(g15
S'\x00\x00\x00\x00\x00\x00\xf8\xff'
p2413
tp2414
Rp2415
sg21
g29
sg30
g31
sg32
(dp2416
g21
g29
sg34
g11
(g15
S'x\\\x14\xf7\x11C2@'
p2417
tp2418
Rp2419
sg47
g11
(g15
S'\x8e\x1e\xd8\x18\x00t\xfb?'
p2420
tp2421
Rp2422
ssg51
g11
(g12
(S'S3'
p2423
I0
I1
tp2424
Rp2425
(I3
S'|'
p2426
NNNI3
I1
I0
tp2427
bS'PCA'
p2428
tp2429
Rp2430
sg60
F0.2
sg47
g2422
sg61
g11
(g12
(S'S9'
p2431
I0
I1
tp2432
Rp2433
(I3
S'|'
p2434
NNNI9
I1
I0
tp2435
bS'inception'
p2436
tp2437
Rp2438
sg34
g2419
sg70
g11
(g15
S'M \xeb@kz\xe0?'
p2439
tp2440
Rp2441
sg74
g11
(g12
(S'S3'
p2442
I0
I1
tp2443
Rp2444
(I3
S'|'
p2445
NNNI3
I1
I0
tp2446
bS'SVM'
p2447
tp2448
Rp2449
sg83
I3
sg84
g85
sg86
g11
(g15
S'\x0f\xf1,\xb5\xa4\xc5\xe3?'
p2450
tp2451
Rp2452
sg90
g91
sg92
g93
sbag4
(g5
g6
Ntp2453
Rp2454
(dp2455
g10
g11
(g15
S'\x00\x00\x00\x00\x00\x00\xf8\xff'
p2456
tp2457
Rp2458
sg143
g11
(g15
S'\x00\x00\x00\x00\x00\xc0p@'
p2459
tp2460
Rp2461
sg21
g29
sg30
g31
sg32
(dp2462
g143
g2461
sg148
g11
(g15
S'\x9a\xac8\xc6r*\xd8?'
p2463
tp2464
Rp2465
sg21
g29
sg38
g11
(g41
S'\x01\x00\x00\x00\x00\x00\x00\x00'
p2466
tp2467
Rp2468
ssg51
g11
(g12
(S'S3'
p2469
I0
I1
tp2470
Rp2471
(I3
S'|'
p2472
NNNI3
I1
I0
tp2473
bS'PCA'
p2474
tp2475
Rp2476
sg60
F0.2
sg61
g11
(g12
(S'S8'
p2477
I0
I1
tp2478
Rp2479
(I3
S'|'
p2480
NNNI8
I1
I0
tp2481
bS'haralick'
p2482
tp2483
Rp2484
sg38
g2468
sg70
g11
(g15
S'\x07+\xc0Q\xc7\xa4\xf5?'
p2485
tp2486
Rp2487
sg74
g11
(g12
(S'S2'
p2488
I0
I1
tp2489
Rp2490
(I3
S'|'
p2491
NNNI2
I1
I0
tp2492
bS'RF'
p2493
tp2494
Rp2495
sg83
I3
sg148
g2465
sg84
g85
sg86
g11
(g15
S'\t\x19\xfb6\xbf\xae\xe7?'
p2496
tp2497
Rp2498
sg90
g91
sg92
g93
sbag4
(g5
g6
Ntp2499
Rp2500
(dp2501
g10
g11
(g15
S'\x00\x00\x00\x00\x00\x00\xf8\xff'
p2502
tp2503
Rp2504
sg143
g11
(g15
S'\x00\x00\x00\x00\x00@R@'
p2505
tp2506
Rp2507
sg30
g31
sg205
g11
(g41
S'\x05\x00\x00\x00\x00\x00\x00\x00'
p2508
tp2509
Rp2510
sg32
(dp2511
g143
g2507
sg205
g2510
sg38
g11
(g41
S'\x03\x00\x00\x00\x00\x00\x00\x00'
p2512
tp2513
Rp2514
sg226
g11
(g41
S'\x03\x00\x00\x00\x00\x00\x00\x00'
p2515
tp2516
Rp2517
sg148
g11
(g15
S'\x9e\xc6\x18.\x0b\xd9\xe2?'
p2518
tp2519
Rp2520
ssg51
g11
(g12
(S'S6'
p2521
I0
I1
tp2522
Rp2523
(I3
S'|'
p2524
NNNI6
I1
I0
tp2525
bS'ISOMAP'
p2526
tp2527
Rp2528
sg60
F0.2
sg226
g2517
sg61
g11
(g12
(S'S8'
p2529
I0
I1
tp2530
Rp2531
(I3
S'|'
p2532
NNNI8
I1
I0
tp2533
bS'haralick'
p2534
tp2535
Rp2536
sg38
g2514
sg70
g11
(g15
S'\x9d\xcf\xc9\x9b\xc0\xed\xf3?'
p2537
tp2538
Rp2539
sg74
g11
(g12
(S'S2'
p2540
I0
I1
tp2541
Rp2542
(I3
S'|'
p2543
NNNI2
I1
I0
tp2544
bS'RF'
p2545
tp2546
Rp2547
sg83
I3
sg148
g2520
sg84
g85
sg86
g11
(g15
S'm\xd9\x01\xb1R\x0f\xea?'
p2548
tp2549
Rp2550
sg90
g91
sg92
g93
sbag4
(g5
g6
Ntp2551
Rp2552
(dp2553
g10
g11
(g15
S'\x00\x00\x00\x00\x00\x00\xf8\xff'
p2554
tp2555
Rp2556
sg143
g11
(g15
S'\x00\x00\x00\x00\x00`i@'
p2557
tp2558
Rp2559
sg30
g31
sg205
g11
(g41
S'\x03\x00\x00\x00\x00\x00\x00\x00'
p2560
tp2561
Rp2562
sg32
(dp2563
g143
g2559
sg205
g2562
sg226
g11
(g41
S'\x02\x00\x00\x00\x00\x00\x00\x00'
p2564
tp2565
Rp2566
sg148
g11
(g15
S'\x19\xael\xcbG\xf2\xd7?'
p2567
tp2568
Rp2569
ssg51
g11
(g12
(S'S6'
p2570
I0
I1
tp2571
Rp2572
(I3
S'|'
p2573
NNNI6
I1
I0
tp2574
bS'ISOMAP'
p2575
tp2576
Rp2577
sg60
F0.2
sg226
g2566
sg61
g11
(g12
(S'S3'
p2578
I0
I1
tp2579
Rp2580
(I3
S'|'
p2581
NNNI3
I1
I0
tp2582
bS'VGG'
p2583
tp2584
Rp2585
sg70
g11
(g15
S'(\xe5\x97\x86U[\xea?'
p2586
tp2587
Rp2588
sg74
g11
(g12
(S'S2'
p2589
I0
I1
tp2590
Rp2591
(I3
S'|'
p2592
NNNI2
I1
I0
tp2593
bS'RF'
p2594
tp2595
Rp2596
sg83
I3
sg148
g2569
sg84
g85
sg86
g11
(g15
S'S\xf3\xaf6)D\xea?'
p2597
tp2598
Rp2599
sg90
g91
sg92
g93
sbag4
(g5
g6
Ntp2600
Rp2601
(dp2602
g10
g11
(g15
S'\x00\x00\x00\x00\x00\x00\xf8\xff'
p2603
tp2604
Rp2605
sg143
g11
(g15
S'\x00\x00\x00\x00\x00`m@'
p2606
tp2607
Rp2608
sg30
g31
sg205
g11
(g41
S'\x04\x00\x00\x00\x00\x00\x00\x00'
p2609
tp2610
Rp2611
sg32
(dp2612
g143
g2608
sg205
g2611
sg226
g11
(g41
S'\x04\x00\x00\x00\x00\x00\x00\x00'
p2613
tp2614
Rp2615
sg148
g11
(g15
S'Pw\xbe\xdd\xc8\\\xd4?'
p2616
tp2617
Rp2618
ssg51
g11
(g12
(S'S6'
p2619
I0
I1
tp2620
Rp2621
(I3
S'|'
p2622
NNNI6
I1
I0
tp2623
bS'ISOMAP'
p2624
tp2625
Rp2626
sg60
F0.2
sg226
g2615
sg61
g11
(g12
(S'S3'
p2627
I0
I1
tp2628
Rp2629
(I3
S'|'
p2630
NNNI3
I1
I0
tp2631
bS'VGG'
p2632
tp2633
Rp2634
sg70
g11
(g15
S'\\\xcb9\xe8\x96a\xe1?'
p2635
tp2636
Rp2637
sg74
g11
(g12
(S'S2'
p2638
I0
I1
tp2639
Rp2640
(I3
S'|'
p2641
NNNI2
I1
I0
tp2642
bS'RF'
p2643
tp2644
Rp2645
sg83
I3
sg148
g2618
sg84
g85
sg86
g11
(g15
S'\xa8\xfcQ\xa7\xfcQ\xeb?'
p2646
tp2647
Rp2648
sg90
g91
sg92
g93
sbag4
(g5
g6
Ntp2649
Rp2650
(dp2651
g10
g11
(g15
S'\x00\x00\x00\x00\x00\x00\xf8\xff'
p2652
tp2653
Rp2654
sg205
g11
(g41
S'\x04\x00\x00\x00\x00\x00\x00\x00'
p2655
tp2656
Rp2657
sg30
g31
sg32
(dp2658
g205
g2657
sg34
g11
(g15
S'\x1c\x1b\x85\xcc\xef\xb36@'
p2659
tp2660
Rp2661
sg226
g11
(g41
S'\x04\x00\x00\x00\x00\x00\x00\x00'
p2662
tp2663
Rp2664
sg47
g11
(g15
S'< \x0c\x9b\xad\x96\xef?'
p2665
tp2666
Rp2667
ssg47
g2667
sg51
g11
(g12
(S'S6'
p2668
I0
I1
tp2669
Rp2670
(I3
S'|'
p2671
NNNI6
I1
I0
tp2672
bS'ISOMAP'
p2673
tp2674
Rp2675
sg60
F0.2
sg226
g2664
sg61
g11
(g12
(S'S9'
p2676
I0
I1
tp2677
Rp2678
(I3
S'|'
p2679
NNNI9
I1
I0
tp2680
bS'inception'
p2681
tp2682
Rp2683
sg34
g2661
sg70
g11
(g15
S'\xbdB\xd2\xf6\xcc\x8d\xe0?'
p2684
tp2685
Rp2686
sg74
g11
(g12
(S'S3'
p2687
I0
I1
tp2688
Rp2689
(I3
S'|'
p2690
NNNI3
I1
I0
tp2691
bS'SVM'
p2692
tp2693
Rp2694
sg83
I3
sg84
g85
sg86
g11
(g15
S'\xa7\xa1\xad\x95\xc5e\xe1?'
p2695
tp2696
Rp2697
sg90
g91
sg92
g93
sbag4
(g5
g6
Ntp2698
Rp2699
(dp2700
g10
g11
(g15
S'\x00\x00\x00\x00\x00\x00\xf8\xff'
p2701
tp2702
Rp2703
sg143
g11
(g15
S'\x00\x00\x00\x00\x00@a@'
p2704
tp2705
Rp2706
sg21
g29
sg30
g31
sg32
(dp2707
g143
g2706
sg148
g11
(g15
S'\xcc\x13.@\xaf*\xea?'
p2708
tp2709
Rp2710
sg21
g29
sg38
g11
(g41
S'\x01\x00\x00\x00\x00\x00\x00\x00'
p2711
tp2712
Rp2713
ssg51
g11
(g12
(S'S3'
p2714
I0
I1
tp2715
Rp2716
(I3
S'|'
p2717
NNNI3
I1
I0
tp2718
bS'PCA'
p2719
tp2720
Rp2721
sg60
F0.2
sg61
g11
(g12
(S'S8'
p2722
I0
I1
tp2723
Rp2724
(I3
S'|'
p2725
NNNI8
I1
I0
tp2726
bS'haralick'
p2727
tp2728
Rp2729
sg38
g2713
sg70
g11
(g15
S'\xa1&qp\xfe\xa3\xf7?'
p2730
tp2731
Rp2732
sg74
g11
(g12
(S'S2'
p2733
I0
I1
tp2734
Rp2735
(I3
S'|'
p2736
NNNI2
I1
I0
tp2737
bS'RF'
p2738
tp2739
Rp2740
sg83
I3
sg148
g2710
sg84
g85
sg86
g11
(g15
S'\t\x19\xfb6\xbf\xae\xe7?'
p2741
tp2742
Rp2743
sg90
g91
sg92
g93
sbag4
(g5
g6
Ntp2744
Rp2745
(dp2746
g10
g11
(g15
S'\x00\x00\x00\x00\x00\x00\xf8\xff'
p2747
tp2748
Rp2749
sg143
g11
(g15
S'\x00\x00\x00\x00\x00\xc0r@'
p2750
tp2751
Rp2752
sg21
g29
sg30
g31
sg32
(dp2753
g143
g2752
sg148
g11
(g15
S'\xb4\x9b\x87\xcf\xac\xb1\xe4?'
p2754
tp2755
Rp2756
sg21
g29
ssg51
g11
(g12
(S'S3'
p2757
I0
I1
tp2758
Rp2759
(I3
S'|'
p2760
NNNI3
I1
I0
tp2761
bS'PCA'
p2762
tp2763
Rp2764
sg60
F0.2
sg61
g11
(g12
(S'S3'
p2765
I0
I1
tp2766
Rp2767
(I3
S'|'
p2768
NNNI3
I1
I0
tp2769
bS'VGG'
p2770
tp2771
Rp2772
sg70
g11
(g15
S'\xb3\xeak\xf4\xad\xa4\xd2?'
p2773
tp2774
Rp2775
sg74
g11
(g12
(S'S2'
p2776
I0
I1
tp2777
Rp2778
(I3
S'|'
p2779
NNNI2
I1
I0
tp2780
bS'RF'
p2781
tp2782
Rp2783
sg83
I3
sg148
g2756
sg84
g85
sg86
g11
(g15
S'h^pL\x94\x04\xec?'
p2784
tp2785
Rp2786
sg90
g91
sg92
g93
sbasS'error_curve'
p2787
(lp2788
g73
ag73
ag125
ag125
ag170
ag170
ag170
ag170
ag170
ag170
ag170
ag170
ag170
ag170
ag170
ag170
ag170
ag170
ag170
ag170
ag170
ag170
ag170
ag170
ag170
ag170
ag170
ag170
ag170
ag170
ag170
ag170
ag170
ag170
ag170
ag170
ag170
ag170
ag170
ag170
ag170
ag170
ag170
ag170
ag170
ag170
ag170
ag170
ag170
ag170
ag170
ag170
ag170
ag170
ag170
ag170
ag170
asS'iters'
p2789
I51
sg30
g31
sS'results_loc'
p2790
S'/gpfs/u/home/CGHI/CGHIarch/barn/EP_project/results/'
p2791
sS'times'
p2792
(lp2793
F16.389089107513428
aF33.847651958465576
aF34.106406927108765
aF52.05594801902771
aF54.25917410850525
aF54.85436797142029
aF55.80746006965637
aF73.62132692337036
aF76.6770749092102
aF78.9394268989563
aF81.66671895980835
aF82.59988307952881
aF99.32655000686646
aF99.5851309299469
aF101.30304598808289
aF122.76304006576538
aF125.85485911369324
aF143.23011589050293
aF162.0086109638214
aF164.60933303833008
aF165.5774838924408
aF165.8438229560852
aF166.6787281036377
aF166.9347460269928
aF167.53469491004944
aF167.80696511268616
aF184.71610808372498
aF201.20438408851624
aF202.53332805633545
aF205.4325408935547
aF206.68289303779602
aF209.85311102867126
aF213.47042894363403
aF216.22812509536743
aF235.940691947937
aF238.98798298835754
aF255.7559220790863
aF256.65339398384094
aF275.4895589351654
aF276.5786180496216
aF297.4608418941498
aF297.7138900756836
aF298.62111711502075
aF315.1322109699249
aF315.39619302749634
aF316.2612159252167
aF319.48768401145935
aF321.8083689212799
aF323.9834020137787
aF324.23623490333557
aF342.6611649990082
aF360.3844060897827
aF362.6991820335388
aF365.3026270866394
aF366.23512411117554
aF383.7618598937988
aF386.87231612205505
asS'data_loc'
p2794
g93
sS'run'
p2795
I2
sg90
S'random_MCMC'
p2796
sb.