(iprototypes.random_based_mcmc1
random_MCMC
p0
(dp1
S'best_pipelines'
p2
(lp3
ccopy_reg
_reconstructor
p4
(cprototypes.data_analytic_pipeline
image_classification_pipeline
p5
c__builtin__
object
p6
Ntp7
Rp8
(dp9
S'f1_score'
p10
cnumpy.core.multiarray
scalar
p11
(cnumpy
dtype
p12
(S'f8'
p13
I0
I1
tp14
Rp15
(I3
S'<'
p16
NNNI-1
I-1
I0
tp17
bS'\x00\x00\x00\x00\x00\x00\xf8\xff'
p18
tp19
Rp20
sS'pca_whiten'
p21
g11
(g12
(S'b1'
p22
I0
I1
tp23
Rp24
(I3
S'|'
p25
NNNI-1
I-1
I0
tp26
bS'\x00'
p27
tp28
Rp29
sS'data_name'
p30
S'breast'
p31
sS'kwargs'
p32
(dp33
g21
g29
sS'svm_C'
p34
g11
(g15
S'L\xde\x91|\x9e\xbfP@'
p35
tp36
Rp37
sS'haralick_distance'
p38
g11
(g12
(S'i8'
p39
I0
I1
tp40
Rp41
(I3
S'<'
p42
NNNI-1
I-1
I0
tp43
bS'\x02\x00\x00\x00\x00\x00\x00\x00'
p44
tp45
Rp46
sS'svm_gamma'
p47
g11
(g15
S'\xdd\xdb\xe0Z\xab\t\xf8?'
p48
tp49
Rp50
ssS'dimensionality_reduction'
p51
g11
(g12
(S'S3'
p52
I0
I1
tp53
Rp54
(I3
S'|'
p55
NNNI3
I1
I0
tp56
bS'PCA'
p57
tp58
Rp59
sS'test_size'
p60
F0.2
sg47
g50
sS'feature_extraction'
p61
g11
(g12
(S'S8'
p62
I0
I1
tp63
Rp64
(I3
S'|'
p65
NNNI8
I1
I0
tp66
bS'haralick'
p67
tp68
Rp69
sg34
g37
sg38
g46
sS'result'
p70
g11
(g15
S'\xed\xebA\xc4h\xa5\xea?'
p71
tp72
Rp73
sS'learning_algorithm'
p74
g11
(g12
(S'S3'
p75
I0
I1
tp76
Rp77
(I3
S'|'
p78
NNNI3
I1
I0
tp79
bS'SVM'
p80
tp81
Rp82
sS'val_splits'
p83
I3
sS'ml_type'
p84
S'validation'
p85
sS'accuracy'
p86
g11
(g15
S'\xb9\xbezY\xa0\x1f\xe4?'
p87
tp88
Rp89
sS'type1'
p90
S'random1'
p91
sS'data_location'
p92
S'/gpfs/u/home/CGHI/CGHIarch/barn/EP_project/data/'
p93
sbag4
(g5
g6
Ntp94
Rp95
(dp96
g10
g11
(g15
S'\x00\x00\x00\x00\x00\x00\xf8\xff'
p97
tp98
Rp99
sS'n_estimators'
p100
g11
(g15
S'\x00\x00\x00\x00\x00`m@'
p101
tp102
Rp103
sg21
g11
(g24
S'\x01'
p104
tp105
Rp106
sg30
g31
sg32
(dp107
g100
g103
sS'max_features'
p108
g11
(g15
S'7\x93\xd5\r\xdfI\xe1?'
p109
tp110
Rp111
sg21
g106
ssg51
g11
(g12
(S'S3'
p112
I0
I1
tp113
Rp114
(I3
S'|'
p115
NNNI3
I1
I0
tp116
bS'PCA'
p117
tp118
Rp119
sg60
F0.2
sg61
g11
(g12
(S'S3'
p120
I0
I1
tp121
Rp122
(I3
S'|'
p123
NNNI3
I1
I0
tp124
bS'VGG'
p125
tp126
Rp127
sg70
g11
(g15
S'-a\xca\x11\xf5\xed\xe6?'
p128
tp129
Rp130
sg74
g11
(g12
(S'S2'
p131
I0
I1
tp132
Rp133
(I3
S'|'
p134
NNNI2
I1
I0
tp135
bS'RF'
p136
tp137
Rp138
sg83
I3
sg108
g111
sg84
g85
sg86
g11
(g15
S'D\xc0\x8a?\xb3c\xe6?'
p139
tp140
Rp141
sg90
g91
sg92
g93
sbag4
(g5
g6
Ntp142
Rp143
(dp144
g10
g11
(g15
S'\x00\x00\x00\x00\x00\x00\xf8\xff'
p145
tp146
Rp147
sg100
g11
(g15
S'\x00\x00\x00\x00\x00`m@'
p148
tp149
Rp150
sg21
g106
sg30
g31
sg32
(dp151
g100
g150
sg108
g11
(g15
S'_\xd8}L\xf1b\xe4?'
p152
tp153
Rp154
sg21
g106
ssg51
g11
(g12
(S'S3'
p155
I0
I1
tp156
Rp157
(I3
S'|'
p158
NNNI3
I1
I0
tp159
bS'PCA'
p160
tp161
Rp162
sg60
F0.2
sg61
g11
(g12
(S'S3'
p163
I0
I1
tp164
Rp165
(I3
S'|'
p166
NNNI3
I1
I0
tp167
bS'VGG'
p168
tp169
Rp170
sg70
g11
(g15
S'\x19\x93\xcf\xf6)\xec\xe6?'
p171
tp172
Rp173
sg74
g11
(g12
(S'S2'
p174
I0
I1
tp175
Rp176
(I3
S'|'
p177
NNNI2
I1
I0
tp178
bS'RF'
p179
tp180
Rp181
sg83
I3
sg108
g154
sg84
g85
sg86
g11
(g15
S'\xbf\xdb\x87\xe1C\xc0\xe6?'
p182
tp183
Rp184
sg90
g91
sg92
g93
sbag4
(g5
g6
Ntp185
Rp186
(dp187
g10
g11
(g15
S'\x00\x00\x00\x00\x00\x00\xf8\xff'
p188
tp189
Rp190
sg100
g11
(g15
S'\x00\x00\x00\x00\x00\x00D@'
p191
tp192
Rp193
sg21
g29
sg30
g31
sg32
(dp194
g100
g193
sg108
g11
(g15
S'\xa0\x84=\xa8/\x1e\xe3?'
p195
tp196
Rp197
sg21
g29
ssg51
g11
(g12
(S'S3'
p198
I0
I1
tp199
Rp200
(I3
S'|'
p201
NNNI3
I1
I0
tp202
bS'PCA'
p203
tp204
Rp205
sg60
F0.2
sg61
g11
(g12
(S'S3'
p206
I0
I1
tp207
Rp208
(I3
S'|'
p209
NNNI3
I1
I0
tp210
bS'VGG'
p211
tp212
Rp213
sg70
g11
(g15
S'\xa86\x9c\xbff\xdf\xe6?'
p214
tp215
Rp216
sg74
g11
(g12
(S'S2'
p217
I0
I1
tp218
Rp219
(I3
S'|'
p220
NNNI2
I1
I0
tp221
bS'RF'
p222
tp223
Rp224
sg83
I3
sg108
g197
sg84
g85
sg86
g11
(g15
S'P[\xd3\x90\x1e\x1d\xe6?'
p225
tp226
Rp227
sg90
g91
sg92
g93
sbag4
(g5
g6
Ntp228
Rp229
(dp230
g10
g11
(g15
S'\x00\x00\x00\x00\x00\x00\xf8\xff'
p231
tp232
Rp233
sg21
g29
sg30
g31
sg32
(dp234
g21
g29
sg34
g11
(g15
S'\r#Y\xfb\xb4R"@'
p235
tp236
Rp237
sg47
g11
(g15
S'\xe3\xfc\xcb\x14\x0e2\xa2?'
p238
tp239
Rp240
ssg51
g11
(g12
(S'S3'
p241
I0
I1
tp242
Rp243
(I3
S'|'
p244
NNNI3
I1
I0
tp245
bS'PCA'
p246
tp247
Rp248
sg60
F0.2
sg47
g240
sg61
g11
(g12
(S'S3'
p249
I0
I1
tp250
Rp251
(I3
S'|'
p252
NNNI3
I1
I0
tp253
bS'VGG'
p254
tp255
Rp256
sg34
g237
sg70
g11
(g15
S'\x97+\x9ax\x18\xbf\xe5?'
p257
tp258
Rp259
sg74
g11
(g12
(S'S3'
p260
I0
I1
tp261
Rp262
(I3
S'|'
p263
NNNI3
I1
I0
tp264
bS'SVM'
p265
tp266
Rp267
sg83
I3
sg84
g85
sg86
g11
(g15
S'\xe8*\x9d\x9eM\x05\xe7?'
p268
tp269
Rp270
sg90
g91
sg92
g93
sbasS'paths'
p271
(lp272
(lp273
S'VGG'
p274
aS'PCA'
p275
aS'SVM'
p276
aa(lp277
g274
ag275
aS'RF'
p278
aa(lp279
g274
aS'ISOMAP'
p280
ag276
aa(lp281
g274
ag280
ag278
aa(lp282
S'haralick'
p283
ag275
ag276
aa(lp284
g283
ag275
ag278
aa(lp285
g283
ag280
ag276
aa(lp286
g283
ag280
ag278
aa(lp287
S'inception'
p288
ag275
ag276
aa(lp289
g288
ag275
ag278
aa(lp290
g288
ag280
ag276
aa(lp291
g288
ag280
ag278
aasS'pipeline'
p292
(dp293
S'n_neighbors'
p294
(lp295
I3
aI4
aI5
aI6
aI7
asg21
(lp296
I01
aI00
asg100
cnumpy.core.multiarray
_reconstruct
p297
(cnumpy
ndarray
p298
(I0
tp299
S'b'
p300
tp301
Rp302
(I1
(I10
tp303
g15
I00
S'\x00\x00\x00\x00\x00\x00 @\x00\x00\x00\x00\x00\x00D@\x00\x00\x00\x00\x00@R@\x00\x00\x00\x00\x00@Z@\x00\x00\x00\x00\x00@a@\x00\x00\x00\x00\x00@e@\x00\x00\x00\x00\x00`i@\x00\x00\x00\x00\x00`m@\x00\x00\x00\x00\x00\xc0p@\x00\x00\x00\x00\x00\xc0r@'
p304
tp305
bsg51
(lp306
g275
ag280
asg47
g297
(g298
(I0
tp307
g300
tp308
Rp309
(I1
(I10
tp310
g15
I00
S"{\x14\xaeG\xe1z\x84?\x102Tv\x98\xba\xec?\xe7\xd5\xc4\xb3\xa2\x91\xfc?b\xc9/\x96\xfcb\x05@\xd2'}\xd2'}\x0c@!Ce\x87\xa9\xcb\x11@X\xf2\x8b%\xbfX\x15@\x90\xa1\xb2\xc3\xd4\xe5\x18@\xc8P\xd9a\xear\x1c@\x00\x00\x00\x00\x00\x00 @"
p311
tp312
bsg61
(lp313
g274
ag283
ag288
asg38
(lp314
I1
aI2
aI3
asS'n_components'
p315
(lp316
I2
aI3
aI4
asg74
(lp317
g276
ag278
asg108
g297
(g298
(I0
tp318
g300
tp319
Rp320
(I1
(I5
tp321
g15
I00
S'333333\xd3?\x9a\x99\x99\x99\x99\x99\xd9?\x00\x00\x00\x00\x00\x00\xe0?433333\xe3?hfffff\xe6?'
p322
tp323
bsg34
g297
(g298
(I0
tp324
g300
tp325
Rp326
(I1
(I10
tp327
g15
I00
S'\x9a\x99\x99\x99\x99\x99\xb9?gfffff&@\xce\xcc\xcc\xcc\xccL6@43333\xb3@@\x01\x00\x00\x00\x00@F@\xce\xcc\xcc\xcc\xcc\xccK@\xcd\xcc\xcc\xcc\xcc\xacP@43333sS@\x9a\x99\x99\x99\x999V@\x00\x00\x00\x00\x00\x00Y@'
p328
tp329
bssS'pipelines'
p330
(lp331
g8
ag4
(g5
g6
Ntp332
Rp333
(dp334
g10
g11
(g15
S'\x00\x00\x00\x00\x00\x00\xf8\xff'
p335
tp336
Rp337
sg21
g29
sg30
g31
sg32
(dp338
g21
g29
sg34
g11
(g15
S'\x03\xfd\x1by\xa5\xdbQ@'
p339
tp340
Rp341
sg47
g11
(g15
S'\x01c\xbdof\xf8\x08@'
p342
tp343
Rp344
ssg51
g11
(g12
(S'S3'
p345
I0
I1
tp346
Rp347
(I3
S'|'
p348
NNNI3
I1
I0
tp349
bS'PCA'
p350
tp351
Rp352
sg60
F0.2
sg47
g344
sg61
g11
(g12
(S'S3'
p353
I0
I1
tp354
Rp355
(I3
S'|'
p356
NNNI3
I1
I0
tp357
bS'VGG'
p358
tp359
Rp360
sg34
g341
sg70
g11
(g15
S'\xb1\x0f1\x11J\x01\xf0?'
p361
tp362
Rp363
sg74
g11
(g12
(S'S3'
p364
I0
I1
tp365
Rp366
(I3
S'|'
p367
NNNI3
I1
I0
tp368
bS'SVM'
p369
tp370
Rp371
sg83
I3
sg84
g85
sg86
g11
(g15
S'\xa3Z,LV\x1f\xdd?'
p372
tp373
Rp374
sg90
g91
sg92
g93
sbag4
(g5
g6
Ntp375
Rp376
(dp377
g10
g11
(g15
S'\x00\x00\x00\x00\x00\x00\xf8\xff'
p378
tp379
Rp380
sg21
g29
sg30
g31
sg32
(dp381
g21
g29
sg34
g11
(g15
S'\xf4R\xb7d\xd35T@'
p382
tp383
Rp384
sg38
g11
(g41
S'\x02\x00\x00\x00\x00\x00\x00\x00'
p385
tp386
Rp387
sg47
g11
(g15
S'\x01A_\x19\x14\xf8\x07@'
p388
tp389
Rp390
ssg51
g11
(g12
(S'S3'
p391
I0
I1
tp392
Rp393
(I3
S'|'
p394
NNNI3
I1
I0
tp395
bS'PCA'
p396
tp397
Rp398
sg60
F0.2
sg47
g390
sg61
g11
(g12
(S'S8'
p399
I0
I1
tp400
Rp401
(I3
S'|'
p402
NNNI8
I1
I0
tp403
bS'haralick'
p404
tp405
Rp406
sg34
g384
sg38
g387
sg70
g11
(g15
S'\xf5\xa2Y\x0e%\x97\xeb?'
p407
tp408
Rp409
sg74
g11
(g12
(S'S3'
p410
I0
I1
tp411
Rp412
(I3
S'|'
p413
NNNI3
I1
I0
tp414
bS'SVM'
p415
tp416
Rp417
sg83
I3
sg84
g85
sg86
g11
(g15
S'!\xdc\x0b\x9bHQ\xe3?'
p418
tp419
Rp420
sg90
g91
sg92
g93
sbag4
(g5
g6
Ntp421
Rp422
(dp423
g10
g11
(g15
S'\x00\x00\x00\x00\x00\x00\xf8\xff'
p424
tp425
Rp426
sg294
g11
(g41
S'\x06\x00\x00\x00\x00\x00\x00\x00'
p427
tp428
Rp429
sg30
g31
sg32
(dp430
g294
g429
sg34
g11
(g15
S"l'mO\xb2\x85O@"
p431
tp432
Rp433
sg38
g11
(g41
S'\x02\x00\x00\x00\x00\x00\x00\x00'
p434
tp435
Rp436
sg315
g11
(g41
S'\x03\x00\x00\x00\x00\x00\x00\x00'
p437
tp438
Rp439
sg47
g11
(g15
S'+\xcf\x16\xfa\xeeX\xf8?'
p440
tp441
Rp442
ssg47
g442
sg51
g11
(g12
(S'S6'
p443
I0
I1
tp444
Rp445
(I3
S'|'
p446
NNNI6
I1
I0
tp447
bS'ISOMAP'
p448
tp449
Rp450
sg60
F0.2
sg315
g439
sg61
g11
(g12
(S'S8'
p451
I0
I1
tp452
Rp453
(I3
S'|'
p454
NNNI8
I1
I0
tp455
bS'haralick'
p456
tp457
Rp458
sg34
g433
sg38
g436
sg70
g11
(g15
S'\rP\xec\x93\x9f\xe3\xec?'
p459
tp460
Rp461
sg74
g11
(g12
(S'S3'
p462
I0
I1
tp463
Rp464
(I3
S'|'
p465
NNNI3
I1
I0
tp466
bS'SVM'
p467
tp468
Rp469
sg83
I3
sg84
g85
sg86
g11
(g15
S'V\xe1\x81c\x08\xf7\xe2?'
p470
tp471
Rp472
sg90
g91
sg92
g93
sbag4
(g5
g6
Ntp473
Rp474
(dp475
g10
g11
(g15
S'\x00\x00\x00\x00\x00\x00\xf8\xff'
p476
tp477
Rp478
sg21
g29
sg30
g31
sg32
(dp479
g21
g29
sg34
g11
(g15
S'\x19\xcb6\x10\xdf\x9f8@'
p480
tp481
Rp482
sg47
g11
(g15
S'O\xfa\xc3L\xde\x84\xf5?'
p483
tp484
Rp485
ssg51
g11
(g12
(S'S3'
p486
I0
I1
tp487
Rp488
(I3
S'|'
p489
NNNI3
I1
I0
tp490
bS'PCA'
p491
tp492
Rp493
sg60
F0.2
sg47
g485
sg61
g11
(g12
(S'S9'
p494
I0
I1
tp495
Rp496
(I3
S'|'
p497
NNNI9
I1
I0
tp498
bS'inception'
p499
tp500
Rp501
sg34
g482
sg70
g11
(g15
S'\xbbum2\xec=\xf0?'
p502
tp503
Rp504
sg74
g11
(g12
(S'S3'
p505
I0
I1
tp506
Rp507
(I3
S'|'
p508
NNNI3
I1
I0
tp509
bS'SVM'
p510
tp511
Rp512
sg83
I3
sg84
g85
sg86
g11
(g15
S'\xa9\xd8g\x15\x1e8\xde?'
p513
tp514
Rp515
sg90
g91
sg92
g93
sbag4
(g5
g6
Ntp516
Rp517
(dp518
g10
g11
(g15
S'\x00\x00\x00\x00\x00\x00\xf8\xff'
p519
tp520
Rp521
sg294
g11
(g41
S'\x06\x00\x00\x00\x00\x00\x00\x00'
p522
tp523
Rp524
sg30
g31
sg32
(dp525
g294
g524
sg34
g11
(g15
S'C\xe4a\xb2\xd0\xea@@'
p526
tp527
Rp528
sg315
g11
(g41
S'\x02\x00\x00\x00\x00\x00\x00\x00'
p529
tp530
Rp531
sg47
g11
(g15
S'#t\x11_\x8e\xa3\xf5?'
p532
tp533
Rp534
ssg47
g534
sg51
g11
(g12
(S'S6'
p535
I0
I1
tp536
Rp537
(I3
S'|'
p538
NNNI6
I1
I0
tp539
bS'ISOMAP'
p540
tp541
Rp542
sg60
F0.2
sg315
g531
sg61
g11
(g12
(S'S9'
p543
I0
I1
tp544
Rp545
(I3
S'|'
p546
NNNI9
I1
I0
tp547
bS'inception'
p548
tp549
Rp550
sg34
g528
sg70
g11
(g15
S'\xc0\x1f)\xac\x07L\xf0?'
p551
tp552
Rp553
sg74
g11
(g12
(S'S3'
p554
I0
I1
tp555
Rp556
(I3
S'|'
p557
NNNI3
I1
I0
tp558
bS'SVM'
p559
tp560
Rp561
sg83
I3
sg84
g85
sg86
g11
(g15
S'\xb0 sjP\x02\xe0?'
p562
tp563
Rp564
sg90
g91
sg92
g93
sbag4
(g5
g6
Ntp565
Rp566
(dp567
g10
g11
(g15
S'\x00\x00\x00\x00\x00\x00\xf8\xff'
p568
tp569
Rp570
sg294
g11
(g41
S'\x05\x00\x00\x00\x00\x00\x00\x00'
p571
tp572
Rp573
sg30
g31
sg32
(dp574
g294
g573
sg34
g11
(g15
S'\xee\xc6!\xb1\x8c[\xe9?'
p575
tp576
Rp577
sg315
g11
(g41
S'\x03\x00\x00\x00\x00\x00\x00\x00'
p578
tp579
Rp580
sg47
g11
(g15
S'\x14\xd2jH\xfd\x17\xf8?'
p581
tp582
Rp583
ssg47
g583
sg51
g11
(g12
(S'S6'
p584
I0
I1
tp585
Rp586
(I3
S'|'
p587
NNNI6
I1
I0
tp588
bS'ISOMAP'
p589
tp590
Rp591
sg60
F0.2
sg315
g580
sg61
g11
(g12
(S'S9'
p592
I0
I1
tp593
Rp594
(I3
S'|'
p595
NNNI9
I1
I0
tp596
bS'inception'
p597
tp598
Rp599
sg34
g577
sg70
g11
(g15
S'\xd4\xa2o\xad0g\xf0?'
p600
tp601
Rp602
sg74
g11
(g12
(S'S3'
p603
I0
I1
tp604
Rp605
(I3
S'|'
p606
NNNI3
I1
I0
tp607
bS'SVM'
p608
tp609
Rp610
sg83
I3
sg84
g85
sg86
g11
(g15
S'\xa3\xb3\xe7\x83X\xd6\xdf?'
p611
tp612
Rp613
sg90
g91
sg92
g93
sbag4
(g5
g6
Ntp614
Rp615
(dp616
g10
g11
(g15
S'\x00\x00\x00\x00\x00\x00\xf8\xff'
p617
tp618
Rp619
sg21
g29
sg30
g31
sg32
(dp620
g21
g29
sg34
g11
(g15
S'jO\xd8c\xdb\xcb\xd1?'
p621
tp622
Rp623
sg47
g11
(g15
S'\x170\xb8\xc8\x87\xd5\x03@'
p624
tp625
Rp626
ssg51
g11
(g12
(S'S3'
p627
I0
I1
tp628
Rp629
(I3
S'|'
p630
NNNI3
I1
I0
tp631
bS'PCA'
p632
tp633
Rp634
sg60
F0.2
sg47
g626
sg61
g11
(g12
(S'S9'
p635
I0
I1
tp636
Rp637
(I3
S'|'
p638
NNNI9
I1
I0
tp639
bS'inception'
p640
tp641
Rp642
sg34
g623
sg70
g11
(g15
S'\xc8\x17o\xb0\x19\xcf\xf0?'
p643
tp644
Rp645
sg74
g11
(g12
(S'S3'
p646
I0
I1
tp647
Rp648
(I3
S'|'
p649
NNNI3
I1
I0
tp650
bS'SVM'
p651
tp652
Rp653
sg83
I3
sg84
g85
sg86
g11
(g15
S'\xa9\x9a\xc4\x97f(\xdb?'
p654
tp655
Rp656
sg90
g91
sg92
g93
sbag4
(g5
g6
Ntp657
Rp658
(dp659
g10
g11
(g15
S'\x00\x00\x00\x00\x00\x00\xf8\xff'
p660
tp661
Rp662
sg21
g106
sg30
g31
sg32
(dp663
g21
g106
sg34
g11
(g15
S'V\x0cGY\xdb\xbeQ@'
p664
tp665
Rp666
sg38
g11
(g41
S'\x01\x00\x00\x00\x00\x00\x00\x00'
p667
tp668
Rp669
sg47
g11
(g15
S'\xa8\x8a\t\xd7k\xde\x0e@'
p670
tp671
Rp672
ssg51
g11
(g12
(S'S3'
p673
I0
I1
tp674
Rp675
(I3
S'|'
p676
NNNI3
I1
I0
tp677
bS'PCA'
p678
tp679
Rp680
sg60
F0.2
sg47
g672
sg61
g11
(g12
(S'S8'
p681
I0
I1
tp682
Rp683
(I3
S'|'
p684
NNNI8
I1
I0
tp685
bS'haralick'
p686
tp687
Rp688
sg34
g666
sg38
g669
sg70
g11
(g15
S'o\x9eE\x8e\xa6\x84\xee?'
p689
tp690
Rp691
sg74
g11
(g12
(S'S3'
p692
I0
I1
tp693
Rp694
(I3
S'|'
p695
NNNI3
I1
I0
tp696
bS'SVM'
p697
tp698
Rp699
sg83
I3
sg84
g85
sg86
g11
(g15
S'\xd3\xab6\xd7\xb8]\xe0?'
p700
tp701
Rp702
sg90
g91
sg92
g93
sbag4
(g5
g6
Ntp703
Rp704
(dp705
g10
g11
(g15
S'\x00\x00\x00\x00\x00\x00\xf8\xff'
p706
tp707
Rp708
sg100
g11
(g15
S'\x00\x00\x00\x00\x00\x00 @'
p709
tp710
Rp711
sg21
g106
sg30
g31
sg32
(dp712
g100
g711
sg108
g11
(g15
S'Rf\x0b\x99\x17A\xee?'
p713
tp714
Rp715
sg21
g106
ssg51
g11
(g12
(S'S3'
p716
I0
I1
tp717
Rp718
(I3
S'|'
p719
NNNI3
I1
I0
tp720
bS'PCA'
p721
tp722
Rp723
sg60
F0.2
sg61
g11
(g12
(S'S3'
p724
I0
I1
tp725
Rp726
(I3
S'|'
p727
NNNI3
I1
I0
tp728
bS'VGG'
p729
tp730
Rp731
sg70
g11
(g15
S'p\x80\xc0+\x1a\x8b\xfe?'
p732
tp733
Rp734
sg74
g11
(g12
(S'S2'
p735
I0
I1
tp736
Rp737
(I3
S'|'
p738
NNNI2
I1
I0
tp739
bS'RF'
p740
tp741
Rp742
sg83
I3
sg108
g715
sg84
g85
sg86
g11
(g15
S'L\xb7Mf\x058\xe5?'
p743
tp744
Rp745
sg90
g91
sg92
g93
sbag4
(g5
g6
Ntp746
Rp747
(dp748
g10
g11
(g15
S'\x00\x00\x00\x00\x00\x00\xf8\xff'
p749
tp750
Rp751
sg21
g106
sg30
g31
sg32
(dp752
g21
g106
sg34
g11
(g15
S'\xa2\xa5\xbc\xb2XTM@'
p753
tp754
Rp755
sg47
g11
(g15
S'p7\xad~\xf2\xf8\x11@'
p756
tp757
Rp758
ssg51
g11
(g12
(S'S3'
p759
I0
I1
tp760
Rp761
(I3
S'|'
p762
NNNI3
I1
I0
tp763
bS'PCA'
p764
tp765
Rp766
sg60
F0.2
sg47
g758
sg61
g11
(g12
(S'S9'
p767
I0
I1
tp768
Rp769
(I3
S'|'
p770
NNNI9
I1
I0
tp771
bS'inception'
p772
tp773
Rp774
sg34
g755
sg70
g11
(g15
S'\xff\x1a\xda\xe4\xdcH\xf0?'
p775
tp776
Rp777
sg74
g11
(g12
(S'S3'
p778
I0
I1
tp779
Rp780
(I3
S'|'
p781
NNNI3
I1
I0
tp782
bS'SVM'
p783
tp784
Rp785
sg83
I3
sg84
g85
sg86
g11
(g15
S'5 \x8e\x82\nM\xdf?'
p786
tp787
Rp788
sg90
g91
sg92
g93
sbag4
(g5
g6
Ntp789
Rp790
(dp791
g10
g11
(g15
S'\x00\x00\x00\x00\x00\x00\xf8\xff'
p792
tp793
Rp794
sg100
g11
(g15
S'\x00\x00\x00\x00\x00\xc0r@'
p795
tp796
Rp797
sg30
g31
sg294
g11
(g41
S'\x06\x00\x00\x00\x00\x00\x00\x00'
p798
tp799
Rp800
sg32
(dp801
g100
g797
sg294
g800
sg315
g11
(g41
S'\x02\x00\x00\x00\x00\x00\x00\x00'
p802
tp803
Rp804
sg108
g11
(g15
S':\xff:+\xba_\xd6?'
p805
tp806
Rp807
ssg51
g11
(g12
(S'S6'
p808
I0
I1
tp809
Rp810
(I3
S'|'
p811
NNNI6
I1
I0
tp812
bS'ISOMAP'
p813
tp814
Rp815
sg60
F0.2
sg315
g804
sg61
g11
(g12
(S'S9'
p816
I0
I1
tp817
Rp818
(I3
S'|'
p819
NNNI9
I1
I0
tp820
bS'inception'
p821
tp822
Rp823
sg70
g11
(g15
S'\x8f\x88\xb9CY\x8d\x00@'
p824
tp825
Rp826
sg74
g11
(g12
(S'S2'
p827
I0
I1
tp828
Rp829
(I3
S'|'
p830
NNNI2
I1
I0
tp831
bS'RF'
p832
tp833
Rp834
sg83
I3
sg108
g807
sg84
g85
sg86
g11
(g15
S'\nh\xd7z\xba\xce\xe0?'
p835
tp836
Rp837
sg90
g91
sg92
g93
sbag4
(g5
g6
Ntp838
Rp839
(dp840
g10
g11
(g15
S'\x00\x00\x00\x00\x00\x00\xf8\xff'
p841
tp842
Rp843
sg294
g11
(g41
S'\x04\x00\x00\x00\x00\x00\x00\x00'
p844
tp845
Rp846
sg30
g31
sg32
(dp847
g294
g846
sg34
g11
(g15
S"\xa8\xd1\xdeS'\xd6T@"
p848
tp849
Rp850
sg315
g11
(g41
S'\x04\x00\x00\x00\x00\x00\x00\x00'
p851
tp852
Rp853
sg47
g11
(g15
S'\x12\x9ck\\\xd6,\x1a@'
p854
tp855
Rp856
ssg47
g856
sg51
g11
(g12
(S'S6'
p857
I0
I1
tp858
Rp859
(I3
S'|'
p860
NNNI6
I1
I0
tp861
bS'ISOMAP'
p862
tp863
Rp864
sg60
F0.2
sg315
g853
sg61
g11
(g12
(S'S3'
p865
I0
I1
tp866
Rp867
(I3
S'|'
p868
NNNI3
I1
I0
tp869
bS'VGG'
p870
tp871
Rp872
sg34
g850
sg70
g11
(g15
S'i\x1cr7\xf0\x07\xf0?'
p873
tp874
Rp875
sg74
g11
(g12
(S'S3'
p876
I0
I1
tp877
Rp878
(I3
S'|'
p879
NNNI3
I1
I0
tp880
bS'SVM'
p881
tp882
Rp883
sg83
I3
sg84
g85
sg86
g11
(g15
S'@?\x90\xd8\x06\xe7\xe0?'
p884
tp885
Rp886
sg90
g91
sg92
g93
sbag4
(g5
g6
Ntp887
Rp888
(dp889
g10
g11
(g15
S'\x00\x00\x00\x00\x00\x00\xf8\xff'
p890
tp891
Rp892
sg100
g11
(g15
S'\x00\x00\x00\x00\x00\xc0p@'
p893
tp894
Rp895
sg30
g31
sg294
g11
(g41
S'\x06\x00\x00\x00\x00\x00\x00\x00'
p896
tp897
Rp898
sg32
(dp899
g100
g895
sg294
g898
sg315
g11
(g41
S'\x04\x00\x00\x00\x00\x00\x00\x00'
p900
tp901
Rp902
sg108
g11
(g15
S'\x1e\x8a\xecs\xc2\x86\xea?'
p903
tp904
Rp905
ssg51
g11
(g12
(S'S6'
p906
I0
I1
tp907
Rp908
(I3
S'|'
p909
NNNI6
I1
I0
tp910
bS'ISOMAP'
p911
tp912
Rp913
sg60
F0.2
sg315
g902
sg61
g11
(g12
(S'S3'
p914
I0
I1
tp915
Rp916
(I3
S'|'
p917
NNNI3
I1
I0
tp918
bS'VGG'
p919
tp920
Rp921
sg70
g11
(g15
S'\xb5\xa1w\xfa\xee4\xf0?'
p922
tp923
Rp924
sg74
g11
(g12
(S'S2'
p925
I0
I1
tp926
Rp927
(I3
S'|'
p928
NNNI2
I1
I0
tp929
bS'RF'
p930
tp931
Rp932
sg83
I3
sg108
g905
sg84
g85
sg86
g11
(g15
S'+\xc0)\x11r?\xe2?'
p933
tp934
Rp935
sg90
g91
sg92
g93
sbag4
(g5
g6
Ntp936
Rp937
(dp938
g10
g11
(g15
S'\x00\x00\x00\x00\x00\x00\xf8\xff'
p939
tp940
Rp941
sg100
g11
(g15
S'\x00\x00\x00\x00\x00`m@'
p942
tp943
Rp944
sg21
g106
sg30
g31
sg32
(dp945
g100
g944
sg108
g11
(g15
S'8N\xac\xf9\x9e\xfd\xe7?'
p946
tp947
Rp948
sg21
g106
sg38
g11
(g41
S'\x02\x00\x00\x00\x00\x00\x00\x00'
p949
tp950
Rp951
ssg51
g11
(g12
(S'S3'
p952
I0
I1
tp953
Rp954
(I3
S'|'
p955
NNNI3
I1
I0
tp956
bS'PCA'
p957
tp958
Rp959
sg60
F0.2
sg61
g11
(g12
(S'S8'
p960
I0
I1
tp961
Rp962
(I3
S'|'
p963
NNNI8
I1
I0
tp964
bS'haralick'
p965
tp966
Rp967
sg38
g951
sg70
g11
(g15
S'\xddV\x8b\x1f4z\xf5?'
p968
tp969
Rp970
sg74
g11
(g12
(S'S2'
p971
I0
I1
tp972
Rp973
(I3
S'|'
p974
NNNI2
I1
I0
tp975
bS'RF'
p976
tp977
Rp978
sg83
I3
sg108
g948
sg84
g85
sg86
g11
(g15
S'\xf7Y\x85\x07\x8e!\xe4?'
p979
tp980
Rp981
sg90
g91
sg92
g93
sbag4
(g5
g6
Ntp982
Rp983
(dp984
g10
g11
(g15
S'\x00\x00\x00\x00\x00\x00\xf8\xff'
p985
tp986
Rp987
sg21
g106
sg30
g31
sg32
(dp988
g21
g106
sg34
g11
(g15
S')\xcbi\xab\xeb\x8d;@'
p989
tp990
Rp991
sg47
g11
(g15
S'\x92\x15}\xfd@1\x11@'
p992
tp993
Rp994
ssg51
g11
(g12
(S'S3'
p995
I0
I1
tp996
Rp997
(I3
S'|'
p998
NNNI3
I1
I0
tp999
bS'PCA'
p1000
tp1001
Rp1002
sg60
F0.2
sg47
g994
sg61
g11
(g12
(S'S3'
p1003
I0
I1
tp1004
Rp1005
(I3
S'|'
p1006
NNNI3
I1
I0
tp1007
bS'VGG'
p1008
tp1009
Rp1010
sg34
g991
sg70
g11
(g15
S'\\\xcd\xdcjBh\xf0?'
p1011
tp1012
Rp1013
sg74
g11
(g12
(S'S3'
p1014
I0
I1
tp1015
Rp1016
(I3
S'|'
p1017
NNNI3
I1
I0
tp1018
bS'SVM'
p1019
tp1020
Rp1021
sg83
I3
sg84
g85
sg86
g11
(g15
S'(?/\xaa\xc5\xc2\xdc?'
p1022
tp1023
Rp1024
sg90
g91
sg92
g93
sbag4
(g5
g6
Ntp1025
Rp1026
(dp1027
g10
g11
(g15
S'\x00\x00\x00\x00\x00\x00\xf8\xff'
p1028
tp1029
Rp1030
sg294
g11
(g41
S'\x07\x00\x00\x00\x00\x00\x00\x00'
p1031
tp1032
Rp1033
sg30
g31
sg32
(dp1034
g294
g1033
sg34
g11
(g15
S'.|\x0e\x1e\xd0\xd9S@'
p1035
tp1036
Rp1037
sg315
g11
(g41
S'\x03\x00\x00\x00\x00\x00\x00\x00'
p1038
tp1039
Rp1040
sg47
g11
(g15
S'\x9ex\x96\xc2\xc0/\x1f@'
p1041
tp1042
Rp1043
ssg47
g1043
sg51
g11
(g12
(S'S6'
p1044
I0
I1
tp1045
Rp1046
(I3
S'|'
p1047
NNNI6
I1
I0
tp1048
bS'ISOMAP'
p1049
tp1050
Rp1051
sg60
F0.2
sg315
g1040
sg61
g11
(g12
(S'S3'
p1052
I0
I1
tp1053
Rp1054
(I3
S'|'
p1055
NNNI3
I1
I0
tp1056
bS'VGG'
p1057
tp1058
Rp1059
sg34
g1037
sg70
g11
(g15
S"v`>'\x8dY\xf0?"
p1060
tp1061
Rp1062
sg74
g11
(g12
(S'S3'
p1063
I0
I1
tp1064
Rp1065
(I3
S'|'
p1066
NNNI3
I1
I0
tp1067
bS'SVM'
p1068
tp1069
Rp1070
sg83
I3
sg84
g85
sg86
g11
(g15
S'\t\xc9\x05\xbc\xdeF\xdf?'
p1071
tp1072
Rp1073
sg90
g91
sg92
g93
sbag95
ag4
(g5
g6
Ntp1074
Rp1075
(dp1076
g10
g11
(g15
S'\x00\x00\x00\x00\x00\x00\xf8\xff'
p1077
tp1078
Rp1079
sg21
g29
sg30
g31
sg32
(dp1080
g21
g29
sg34
g11
(g15
S'\xd7\xb0C\xa3]EG@'
p1081
tp1082
Rp1083
sg47
g11
(g15
S'\x1b\xee\to`\xfe\x1c@'
p1084
tp1085
Rp1086
ssg51
g11
(g12
(S'S3'
p1087
I0
I1
tp1088
Rp1089
(I3
S'|'
p1090
NNNI3
I1
I0
tp1091
bS'PCA'
p1092
tp1093
Rp1094
sg60
F0.2
sg47
g1086
sg61
g11
(g12
(S'S3'
p1095
I0
I1
tp1096
Rp1097
(I3
S'|'
p1098
NNNI3
I1
I0
tp1099
bS'VGG'
p1100
tp1101
Rp1102
sg34
g1083
sg70
g11
(g15
S'\xe9\tL\xf5\xd7\xbf\xf0?'
p1103
tp1104
Rp1105
sg74
g11
(g12
(S'S3'
p1106
I0
I1
tp1107
Rp1108
(I3
S'|'
p1109
NNNI3
I1
I0
tp1110
bS'SVM'
p1111
tp1112
Rp1113
sg83
I3
sg84
g85
sg86
g11
(g15
S'\xcb\xd7\xfes\xd3\xf1\xdc?'
p1114
tp1115
Rp1116
sg90
g91
sg92
g93
sbag4
(g5
g6
Ntp1117
Rp1118
(dp1119
g10
g11
(g15
S'\x00\x00\x00\x00\x00\x00\xf8\xff'
p1120
tp1121
Rp1122
sg100
g11
(g15
S'\x00\x00\x00\x00\x00@R@'
p1123
tp1124
Rp1125
sg30
g31
sg294
g11
(g41
S'\x04\x00\x00\x00\x00\x00\x00\x00'
p1126
tp1127
Rp1128
sg32
(dp1129
g100
g1125
sg294
g1128
sg315
g11
(g41
S'\x04\x00\x00\x00\x00\x00\x00\x00'
p1130
tp1131
Rp1132
sg108
g11
(g15
S'T\xda\x85\x9f\xbbA\xeb?'
p1133
tp1134
Rp1135
ssg51
g11
(g12
(S'S6'
p1136
I0
I1
tp1137
Rp1138
(I3
S'|'
p1139
NNNI6
I1
I0
tp1140
bS'ISOMAP'
p1141
tp1142
Rp1143
sg60
F0.2
sg315
g1132
sg61
g11
(g12
(S'S9'
p1144
I0
I1
tp1145
Rp1146
(I3
S'|'
p1147
NNNI9
I1
I0
tp1148
bS'inception'
p1149
tp1150
Rp1151
sg70
g11
(g15
S'\xcf=\xa7Z\xd6\x85\x04@'
p1152
tp1153
Rp1154
sg74
g11
(g12
(S'S2'
p1155
I0
I1
tp1156
Rp1157
(I3
S'|'
p1158
NNNI2
I1
I0
tp1159
bS'RF'
p1160
tp1161
Rp1162
sg83
I3
sg108
g1135
sg84
g85
sg86
g11
(g15
S'%\x80\x91\xc5a6\xdc?'
p1163
tp1164
Rp1165
sg90
g91
sg92
g93
sbag4
(g5
g6
Ntp1166
Rp1167
(dp1168
g10
g11
(g15
S'\x00\x00\x00\x00\x00\x00\xf8\xff'
p1169
tp1170
Rp1171
sg100
g11
(g15
S'\x00\x00\x00\x00\x00\x00 @'
p1172
tp1173
Rp1174
sg30
g31
sg294
g11
(g41
S'\x06\x00\x00\x00\x00\x00\x00\x00'
p1175
tp1176
Rp1177
sg32
(dp1178
g100
g1174
sg294
g1177
sg315
g11
(g41
S'\x04\x00\x00\x00\x00\x00\x00\x00'
p1179
tp1180
Rp1181
sg108
g11
(g15
S'\x1dm\x9bw\x92\xdb\xd4?'
p1182
tp1183
Rp1184
ssg51
g11
(g12
(S'S6'
p1185
I0
I1
tp1186
Rp1187
(I3
S'|'
p1188
NNNI6
I1
I0
tp1189
bS'ISOMAP'
p1190
tp1191
Rp1192
sg60
F0.2
sg315
g1181
sg61
g11
(g12
(S'S9'
p1193
I0
I1
tp1194
Rp1195
(I3
S'|'
p1196
NNNI9
I1
I0
tp1197
bS'inception'
p1198
tp1199
Rp1200
sg70
g11
(g15
S'YlH\xe6\xdd@\x15@'
p1201
tp1202
Rp1203
sg74
g11
(g12
(S'S2'
p1204
I0
I1
tp1205
Rp1206
(I3
S'|'
p1207
NNNI2
I1
I0
tp1208
bS'RF'
p1209
tp1210
Rp1211
sg83
I3
sg108
g1184
sg84
g85
sg86
g11
(g15
S'c\xc2\xe0;M\x81\xdd?'
p1212
tp1213
Rp1214
sg90
g91
sg92
g93
sbag4
(g5
g6
Ntp1215
Rp1216
(dp1217
g10
g11
(g15
S'\x00\x00\x00\x00\x00\x00\xf8\xff'
p1218
tp1219
Rp1220
sg100
g11
(g15
S'\x00\x00\x00\x00\x00`i@'
p1221
tp1222
Rp1223
sg30
g31
sg294
g11
(g41
S'\x06\x00\x00\x00\x00\x00\x00\x00'
p1224
tp1225
Rp1226
sg32
(dp1227
g100
g1223
sg294
g1226
sg38
g11
(g41
S'\x02\x00\x00\x00\x00\x00\x00\x00'
p1228
tp1229
Rp1230
sg315
g11
(g41
S'\x04\x00\x00\x00\x00\x00\x00\x00'
p1231
tp1232
Rp1233
sg108
g11
(g15
S'.\xdc\x0f\xd4\xa3\xfb\xe4?'
p1234
tp1235
Rp1236
ssg51
g11
(g12
(S'S6'
p1237
I0
I1
tp1238
Rp1239
(I3
S'|'
p1240
NNNI6
I1
I0
tp1241
bS'ISOMAP'
p1242
tp1243
Rp1244
sg60
F0.2
sg315
g1233
sg61
g11
(g12
(S'S8'
p1245
I0
I1
tp1246
Rp1247
(I3
S'|'
p1248
NNNI8
I1
I0
tp1249
bS'haralick'
p1250
tp1251
Rp1252
sg38
g1230
sg70
g11
(g15
S'\xb9\x81\xa7\xd1\xcf\x19\xf0?'
p1253
tp1254
Rp1255
sg74
g11
(g12
(S'S2'
p1256
I0
I1
tp1257
Rp1258
(I3
S'|'
p1259
NNNI2
I1
I0
tp1260
bS'RF'
p1261
tp1262
Rp1263
sg83
I3
sg108
g1236
sg84
g85
sg86
g11
(g15
S'XR\x96\xb7p\xf1\xe4?'
p1264
tp1265
Rp1266
sg90
g91
sg92
g93
sbag4
(g5
g6
Ntp1267
Rp1268
(dp1269
g10
g11
(g15
S'\x00\x00\x00\x00\x00\x00\xf8\xff'
p1270
tp1271
Rp1272
sg100
g11
(g15
S'\x00\x00\x00\x00\x00`m@'
p1273
tp1274
Rp1275
sg21
g106
sg30
g31
sg32
(dp1276
g100
g1275
sg108
g11
(g15
S'\x02\x18\xc3\x91Fi\xdf?'
p1277
tp1278
Rp1279
sg21
g106
ssg51
g11
(g12
(S'S3'
p1280
I0
I1
tp1281
Rp1282
(I3
S'|'
p1283
NNNI3
I1
I0
tp1284
bS'PCA'
p1285
tp1286
Rp1287
sg60
F0.2
sg61
g11
(g12
(S'S9'
p1288
I0
I1
tp1289
Rp1290
(I3
S'|'
p1291
NNNI9
I1
I0
tp1292
bS'inception'
p1293
tp1294
Rp1295
sg70
g11
(g15
S'\x11\xbcy<} \xf4?'
p1296
tp1297
Rp1298
sg74
g11
(g12
(S'S2'
p1299
I0
I1
tp1300
Rp1301
(I3
S'|'
p1302
NNNI2
I1
I0
tp1303
bS'RF'
p1304
tp1305
Rp1306
sg83
I3
sg108
g1279
sg84
g85
sg86
g11
(g15
S'\xe0\x18\xc2\xbd\xb0\x89\xe0?'
p1307
tp1308
Rp1309
sg90
g91
sg92
g93
sbag4
(g5
g6
Ntp1310
Rp1311
(dp1312
g10
g11
(g15
S'\x00\x00\x00\x00\x00\x00\xf8\xff'
p1313
tp1314
Rp1315
sg294
g11
(g41
S'\x04\x00\x00\x00\x00\x00\x00\x00'
p1316
tp1317
Rp1318
sg30
g31
sg32
(dp1319
g294
g1318
sg34
g11
(g15
S'i\xb8^\xe6E#;@'
p1320
tp1321
Rp1322
sg315
g11
(g41
S'\x03\x00\x00\x00\x00\x00\x00\x00'
p1323
tp1324
Rp1325
sg47
g11
(g15
S'\xae\x9b\xb4?\xc4,\x1f@'
p1326
tp1327
Rp1328
ssg47
g1328
sg51
g11
(g12
(S'S6'
p1329
I0
I1
tp1330
Rp1331
(I3
S'|'
p1332
NNNI6
I1
I0
tp1333
bS'ISOMAP'
p1334
tp1335
Rp1336
sg60
F0.2
sg315
g1325
sg61
g11
(g12
(S'S9'
p1337
I0
I1
tp1338
Rp1339
(I3
S'|'
p1340
NNNI9
I1
I0
tp1341
bS'inception'
p1342
tp1343
Rp1344
sg34
g1322
sg70
g11
(g15
S'\xd7n\xc0\x1e\xe2D\xf0?'
p1345
tp1346
Rp1347
sg74
g11
(g12
(S'S3'
p1348
I0
I1
tp1349
Rp1350
(I3
S'|'
p1351
NNNI3
I1
I0
tp1352
bS'SVM'
p1353
tp1354
Rp1355
sg83
I3
sg84
g85
sg86
g11
(g15
S'P\xfa\xa4O\xfa\xa4\xdf?'
p1356
tp1357
Rp1358
sg90
g91
sg92
g93
sbag143
ag4
(g5
g6
Ntp1359
Rp1360
(dp1361
g10
g11
(g15
S'\x00\x00\x00\x00\x00\x00\xf8\xff'
p1362
tp1363
Rp1364
sg294
g11
(g41
S'\x07\x00\x00\x00\x00\x00\x00\x00'
p1365
tp1366
Rp1367
sg30
g31
sg32
(dp1368
g294
g1367
sg34
g11
(g15
S'CKh\xc9zn\xf3?'
p1369
tp1370
Rp1371
sg315
g11
(g41
S'\x04\x00\x00\x00\x00\x00\x00\x00'
p1372
tp1373
Rp1374
sg47
g11
(g15
S'\xf6\xb3*\x89\xde\xfb\x15@'
p1375
tp1376
Rp1377
ssg47
g1377
sg51
g11
(g12
(S'S6'
p1378
I0
I1
tp1379
Rp1380
(I3
S'|'
p1381
NNNI6
I1
I0
tp1382
bS'ISOMAP'
p1383
tp1384
Rp1385
sg60
F0.2
sg315
g1374
sg61
g11
(g12
(S'S3'
p1386
I0
I1
tp1387
Rp1388
(I3
S'|'
p1389
NNNI3
I1
I0
tp1390
bS'VGG'
p1391
tp1392
Rp1393
sg34
g1371
sg70
g11
(g15
S'`\xc7\x12\x12\x83L\xef?'
p1394
tp1395
Rp1396
sg74
g11
(g12
(S'S3'
p1397
I0
I1
tp1398
Rp1399
(I3
S'|'
p1400
NNNI3
I1
I0
tp1401
bS'SVM'
p1402
tp1403
Rp1404
sg83
I3
sg84
g85
sg86
g11
(g15
S'\xf0r\xa8\xf3\x7f\xcf\xe0?'
p1405
tp1406
Rp1407
sg90
g91
sg92
g93
sbag4
(g5
g6
Ntp1408
Rp1409
(dp1410
g10
g11
(g15
S'\x00\x00\x00\x00\x00\x00\xf8\xff'
p1411
tp1412
Rp1413
sg21
g29
sg30
g31
sg32
(dp1414
g21
g29
sg34
g11
(g15
S'\xff\x91\x8d\xc2!<M@'
p1415
tp1416
Rp1417
sg38
g11
(g41
S'\x02\x00\x00\x00\x00\x00\x00\x00'
p1418
tp1419
Rp1420
sg47
g11
(g15
S'M\x81\xfc\xcbx\x87\x16@'
p1421
tp1422
Rp1423
ssg51
g11
(g12
(S'S3'
p1424
I0
I1
tp1425
Rp1426
(I3
S'|'
p1427
NNNI3
I1
I0
tp1428
bS'PCA'
p1429
tp1430
Rp1431
sg60
F0.2
sg47
g1423
sg61
g11
(g12
(S'S8'
p1432
I0
I1
tp1433
Rp1434
(I3
S'|'
p1435
NNNI8
I1
I0
tp1436
bS'haralick'
p1437
tp1438
Rp1439
sg34
g1417
sg38
g1420
sg70
g11
(g15
S'\x14\xdd=\xcf\x1b+\xec?'
p1440
tp1441
Rp1442
sg74
g11
(g12
(S'S3'
p1443
I0
I1
tp1444
Rp1445
(I3
S'|'
p1446
NNNI3
I1
I0
tp1447
bS'SVM'
p1448
tp1449
Rp1450
sg83
I3
sg84
g85
sg86
g11
(g15
S'f P\xdf\x8c\x95\xe3?'
p1451
tp1452
Rp1453
sg90
g91
sg92
g93
sbag4
(g5
g6
Ntp1454
Rp1455
(dp1456
g10
g11
(g15
S'\x00\x00\x00\x00\x00\x00\xf8\xff'
p1457
tp1458
Rp1459
sg100
g11
(g15
S'\x00\x00\x00\x00\x00\xc0p@'
p1460
tp1461
Rp1462
sg30
g31
sg294
g11
(g41
S'\x03\x00\x00\x00\x00\x00\x00\x00'
p1463
tp1464
Rp1465
sg32
(dp1466
g100
g1462
sg294
g1465
sg315
g11
(g41
S'\x02\x00\x00\x00\x00\x00\x00\x00'
p1467
tp1468
Rp1469
sg108
g11
(g15
S'\x93\xc4!\xf9\x90\xd7\xe3?'
p1470
tp1471
Rp1472
ssg51
g11
(g12
(S'S6'
p1473
I0
I1
tp1474
Rp1475
(I3
S'|'
p1476
NNNI6
I1
I0
tp1477
bS'ISOMAP'
p1478
tp1479
Rp1480
sg60
F0.2
sg315
g1469
sg61
g11
(g12
(S'S3'
p1481
I0
I1
tp1482
Rp1483
(I3
S'|'
p1484
NNNI3
I1
I0
tp1485
bS'VGG'
p1486
tp1487
Rp1488
sg70
g11
(g15
S'\xf4\xa4#K\xe6\x88\xf5?'
p1489
tp1490
Rp1491
sg74
g11
(g12
(S'S2'
p1492
I0
I1
tp1493
Rp1494
(I3
S'|'
p1495
NNNI2
I1
I0
tp1496
bS'RF'
p1497
tp1498
Rp1499
sg83
I3
sg108
g1472
sg84
g85
sg86
g11
(g15
S'\xae\xed\x01\x94\x9f\x17\xe1?'
p1500
tp1501
Rp1502
sg90
g91
sg92
g93
sbag4
(g5
g6
Ntp1503
Rp1504
(dp1505
g10
g11
(g15
S'\x00\x00\x00\x00\x00\x00\xf8\xff'
p1506
tp1507
Rp1508
sg100
g11
(g15
S'\x00\x00\x00\x00\x00\x00 @'
p1509
tp1510
Rp1511
sg21
g106
sg30
g31
sg32
(dp1512
g100
g1511
sg108
g11
(g15
S'3p\x16\x16}\xc3\xe8?'
p1513
tp1514
Rp1515
sg21
g106
ssg51
g11
(g12
(S'S3'
p1516
I0
I1
tp1517
Rp1518
(I3
S'|'
p1519
NNNI3
I1
I0
tp1520
bS'PCA'
p1521
tp1522
Rp1523
sg60
F0.2
sg61
g11
(g12
(S'S3'
p1524
I0
I1
tp1525
Rp1526
(I3
S'|'
p1527
NNNI3
I1
I0
tp1528
bS'VGG'
p1529
tp1530
Rp1531
sg70
g11
(g15
S'\x8f\xc7\x8d\xbb\x94\x85\x05@'
p1532
tp1533
Rp1534
sg74
g11
(g12
(S'S2'
p1535
I0
I1
tp1536
Rp1537
(I3
S'|'
p1538
NNNI2
I1
I0
tp1539
bS'RF'
p1540
tp1541
Rp1542
sg83
I3
sg108
g1515
sg84
g85
sg86
g11
(g15
S'\x00\xddt<\x93\x97\xe4?'
p1543
tp1544
Rp1545
sg90
g91
sg92
g93
sbag4
(g5
g6
Ntp1546
Rp1547
(dp1548
g10
g11
(g15
S'\x00\x00\x00\x00\x00\x00\xf8\xff'
p1549
tp1550
Rp1551
sg21
g106
sg30
g31
sg32
(dp1552
g21
g106
sg34
g11
(g15
S'\x12\x91\xbbp\x0cWR@'
p1553
tp1554
Rp1555
sg38
g11
(g41
S'\x03\x00\x00\x00\x00\x00\x00\x00'
p1556
tp1557
Rp1558
sg47
g11
(g15
S'\xa8a\xca$\xe1\xb3\n@'
p1559
tp1560
Rp1561
ssg51
g11
(g12
(S'S3'
p1562
I0
I1
tp1563
Rp1564
(I3
S'|'
p1565
NNNI3
I1
I0
tp1566
bS'PCA'
p1567
tp1568
Rp1569
sg60
F0.2
sg47
g1561
sg61
g11
(g12
(S'S8'
p1570
I0
I1
tp1571
Rp1572
(I3
S'|'
p1573
NNNI8
I1
I0
tp1574
bS'haralick'
p1575
tp1576
Rp1577
sg34
g1555
sg38
g1558
sg70
g11
(g15
S'D\xe7H\xe3\xd2\x15\xeb?'
p1578
tp1579
Rp1580
sg74
g11
(g12
(S'S3'
p1581
I0
I1
tp1582
Rp1583
(I3
S'|'
p1584
NNNI3
I1
I0
tp1585
bS'SVM'
p1586
tp1587
Rp1588
sg83
I3
sg84
g85
sg86
g11
(g15
S'\x05\x15\x9a~\x81\xdf\xe2?'
p1589
tp1590
Rp1591
sg90
g91
sg92
g93
sbag4
(g5
g6
Ntp1592
Rp1593
(dp1594
g10
g11
(g15
S'\x00\x00\x00\x00\x00\x00\xf8\xff'
p1595
tp1596
Rp1597
sg21
g29
sg30
g31
sg32
(dp1598
g21
g29
sg34
g11
(g15
S'\xa0\xdfV\xd8\xe5=S@'
p1599
tp1600
Rp1601
sg47
g11
(g15
S',\xa0\x89\x85\x9b\x92\x03@'
p1602
tp1603
Rp1604
ssg51
g11
(g12
(S'S3'
p1605
I0
I1
tp1606
Rp1607
(I3
S'|'
p1608
NNNI3
I1
I0
tp1609
bS'PCA'
p1610
tp1611
Rp1612
sg60
F0.2
sg47
g1604
sg61
g11
(g12
(S'S9'
p1613
I0
I1
tp1614
Rp1615
(I3
S'|'
p1616
NNNI9
I1
I0
tp1617
bS'inception'
p1618
tp1619
Rp1620
sg34
g1601
sg70
g11
(g15
S'\xd5\x99^\x10\xbcC\xf0?'
p1621
tp1622
Rp1623
sg74
g11
(g12
(S'S3'
p1624
I0
I1
tp1625
Rp1626
(I3
S'|'
p1627
NNNI3
I1
I0
tp1628
bS'SVM'
p1629
tp1630
Rp1631
sg83
I3
sg84
g85
sg86
g11
(g15
S'\xdf\xc2\xc5#\x936\xde?'
p1632
tp1633
Rp1634
sg90
g91
sg92
g93
sbag4
(g5
g6
Ntp1635
Rp1636
(dp1637
g10
g11
(g15
S'\x00\x00\x00\x00\x00\x00\xf8\xff'
p1638
tp1639
Rp1640
sg21
g29
sg30
g31
sg32
(dp1641
g21
g29
sg34
g11
(g15
S'7\xedg_\xd9\xc3U@'
p1642
tp1643
Rp1644
sg38
g11
(g41
S'\x02\x00\x00\x00\x00\x00\x00\x00'
p1645
tp1646
Rp1647
sg47
g11
(g15
S'F(\xa7\xaa\t\xd2\x12@'
p1648
tp1649
Rp1650
ssg51
g11
(g12
(S'S3'
p1651
I0
I1
tp1652
Rp1653
(I3
S'|'
p1654
NNNI3
I1
I0
tp1655
bS'PCA'
p1656
tp1657
Rp1658
sg60
F0.2
sg47
g1650
sg61
g11
(g12
(S'S8'
p1659
I0
I1
tp1660
Rp1661
(I3
S'|'
p1662
NNNI8
I1
I0
tp1663
bS'haralick'
p1664
tp1665
Rp1666
sg34
g1644
sg38
g1647
sg70
g11
(g15
S'\x87\xc4\x11K\xd7\xf2\xeb?'
p1667
tp1668
Rp1669
sg74
g11
(g12
(S'S3'
p1670
I0
I1
tp1671
Rp1672
(I3
S'|'
p1673
NNNI3
I1
I0
tp1674
bS'SVM'
p1675
tp1676
Rp1677
sg83
I3
sg84
g85
sg86
g11
(g15
S'_\\\xfe\x8e\xeb\xab\xe3?'
p1678
tp1679
Rp1680
sg90
g91
sg92
g93
sbag4
(g5
g6
Ntp1681
Rp1682
(dp1683
g10
g11
(g15
S'\x00\x00\x00\x00\x00\x00\xf8\xff'
p1684
tp1685
Rp1686
sg21
g106
sg30
g31
sg32
(dp1687
g21
g106
sg34
g11
(g15
S'%\xa3N\xfb\xf0\x01T@'
p1688
tp1689
Rp1690
sg47
g11
(g15
S'Z$\xcd\x12n\xb2\t@'
p1691
tp1692
Rp1693
ssg51
g11
(g12
(S'S3'
p1694
I0
I1
tp1695
Rp1696
(I3
S'|'
p1697
NNNI3
I1
I0
tp1698
bS'PCA'
p1699
tp1700
Rp1701
sg60
F0.2
sg47
g1693
sg61
g11
(g12
(S'S9'
p1702
I0
I1
tp1703
Rp1704
(I3
S'|'
p1705
NNNI9
I1
I0
tp1706
bS'inception'
p1707
tp1708
Rp1709
sg34
g1690
sg70
g11
(g15
S'\x8c\xaf\xab\xecr)\xf0?'
p1710
tp1711
Rp1712
sg74
g11
(g12
(S'S3'
p1713
I0
I1
tp1714
Rp1715
(I3
S'|'
p1716
NNNI3
I1
I0
tp1717
bS'SVM'
p1718
tp1719
Rp1720
sg83
I3
sg84
g85
sg86
g11
(g15
S'I\xb2\x99\xfa\xc7\xda\xdd?'
p1721
tp1722
Rp1723
sg90
g91
sg92
g93
sbag4
(g5
g6
Ntp1724
Rp1725
(dp1726
g10
g11
(g15
S'\x00\x00\x00\x00\x00\x00\xf8\xff'
p1727
tp1728
Rp1729
sg294
g11
(g41
S'\x03\x00\x00\x00\x00\x00\x00\x00'
p1730
tp1731
Rp1732
sg30
g31
sg32
(dp1733
g294
g1732
sg34
g11
(g15
S'#J\x82\x97)\x01J@'
p1734
tp1735
Rp1736
sg38
g11
(g41
S'\x02\x00\x00\x00\x00\x00\x00\x00'
p1737
tp1738
Rp1739
sg315
g11
(g41
S'\x03\x00\x00\x00\x00\x00\x00\x00'
p1740
tp1741
Rp1742
sg47
g11
(g15
S'\xd0\xd9!\xb5~g\x14@'
p1743
tp1744
Rp1745
ssg47
g1745
sg51
g11
(g12
(S'S6'
p1746
I0
I1
tp1747
Rp1748
(I3
S'|'
p1749
NNNI6
I1
I0
tp1750
bS'ISOMAP'
p1751
tp1752
Rp1753
sg60
F0.2
sg315
g1742
sg61
g11
(g12
(S'S8'
p1754
I0
I1
tp1755
Rp1756
(I3
S'|'
p1757
NNNI8
I1
I0
tp1758
bS'haralick'
p1759
tp1760
Rp1761
sg34
g1736
sg38
g1739
sg70
g11
(g15
S'3\x1aoo\x9d\x82\xec?'
p1762
tp1763
Rp1764
sg74
g11
(g12
(S'S3'
p1765
I0
I1
tp1766
Rp1767
(I3
S'|'
p1768
NNNI3
I1
I0
tp1769
bS'SVM'
p1770
tp1771
Rp1772
sg83
I3
sg84
g85
sg86
g11
(g15
S'\xf3\xb5\xff\xdct<\xe3?'
p1773
tp1774
Rp1775
sg90
g91
sg92
g93
sbag4
(g5
g6
Ntp1776
Rp1777
(dp1778
g10
g11
(g15
S'\x00\x00\x00\x00\x00\x00\xf8\xff'
p1779
tp1780
Rp1781
sg294
g11
(g41
S'\x03\x00\x00\x00\x00\x00\x00\x00'
p1782
tp1783
Rp1784
sg30
g31
sg32
(dp1785
g294
g1784
sg34
g11
(g15
S'\x81\xb0\x92\xe8#\xfbD@'
p1786
tp1787
Rp1788
sg315
g11
(g41
S'\x02\x00\x00\x00\x00\x00\x00\x00'
p1789
tp1790
Rp1791
sg47
g11
(g15
S'\xaa.g\x80%\x14\x0c@'
p1792
tp1793
Rp1794
ssg47
g1794
sg51
g11
(g12
(S'S6'
p1795
I0
I1
tp1796
Rp1797
(I3
S'|'
p1798
NNNI6
I1
I0
tp1799
bS'ISOMAP'
p1800
tp1801
Rp1802
sg60
F0.2
sg315
g1791
sg61
g11
(g12
(S'S3'
p1803
I0
I1
tp1804
Rp1805
(I3
S'|'
p1806
NNNI3
I1
I0
tp1807
bS'VGG'
p1808
tp1809
Rp1810
sg34
g1788
sg70
g11
(g15
S'h\x8evm\xc7.\xef?'
p1811
tp1812
Rp1813
sg74
g11
(g12
(S'S3'
p1814
I0
I1
tp1815
Rp1816
(I3
S'|'
p1817
NNNI3
I1
I0
tp1818
bS'SVM'
p1819
tp1820
Rp1821
sg83
I3
sg84
g85
sg86
g11
(g15
S'\xd7\x9dE\x92\xcd\xd4\xdf?'
p1822
tp1823
Rp1824
sg90
g91
sg92
g93
sbag4
(g5
g6
Ntp1825
Rp1826
(dp1827
g10
g11
(g15
S'\x00\x00\x00\x00\x00\x00\xf8\xff'
p1828
tp1829
Rp1830
sg21
g29
sg30
g31
sg32
(dp1831
g21
g29
sg34
g11
(g15
S'SU\x80.LNF@'
p1832
tp1833
Rp1834
sg47
g11
(g15
S'RV\x92[q4\x1f@'
p1835
tp1836
Rp1837
ssg51
g11
(g12
(S'S3'
p1838
I0
I1
tp1839
Rp1840
(I3
S'|'
p1841
NNNI3
I1
I0
tp1842
bS'PCA'
p1843
tp1844
Rp1845
sg60
F0.2
sg47
g1837
sg61
g11
(g12
(S'S9'
p1846
I0
I1
tp1847
Rp1848
(I3
S'|'
p1849
NNNI9
I1
I0
tp1850
bS'inception'
p1851
tp1852
Rp1853
sg34
g1834
sg70
g11
(g15
S'Eh\xbc\xe3\xd6[\xf0?'
p1854
tp1855
Rp1856
sg74
g11
(g12
(S'S3'
p1857
I0
I1
tp1858
Rp1859
(I3
S'|'
p1860
NNNI3
I1
I0
tp1861
bS'SVM'
p1862
tp1863
Rp1864
sg83
I3
sg84
g85
sg86
g11
(g15
S'\xc7\x8c4\x81\xbc\xc3\xde?'
p1865
tp1866
Rp1867
sg90
g91
sg92
g93
sbag4
(g5
g6
Ntp1868
Rp1869
(dp1870
g10
g11
(g15
S'\x00\x00\x00\x00\x00\x00\xf8\xff'
p1871
tp1872
Rp1873
sg100
g11
(g15
S'\x00\x00\x00\x00\x00@a@'
p1874
tp1875
Rp1876
sg21
g29
sg30
g31
sg32
(dp1877
g100
g1876
sg108
g11
(g15
S'\x94\x82\x15l|t\xea?'
p1878
tp1879
Rp1880
sg21
g29
ssg51
g11
(g12
(S'S3'
p1881
I0
I1
tp1882
Rp1883
(I3
S'|'
p1884
NNNI3
I1
I0
tp1885
bS'PCA'
p1886
tp1887
Rp1888
sg60
F0.2
sg61
g11
(g12
(S'S9'
p1889
I0
I1
tp1890
Rp1891
(I3
S'|'
p1892
NNNI9
I1
I0
tp1893
bS'inception'
p1894
tp1895
Rp1896
sg70
g11
(g15
S'\xab\xfa\xa5\xc1\xf5{\xfa?'
p1897
tp1898
Rp1899
sg74
g11
(g12
(S'S2'
p1900
I0
I1
tp1901
Rp1902
(I3
S'|'
p1903
NNNI2
I1
I0
tp1904
bS'RF'
p1905
tp1906
Rp1907
sg83
I3
sg108
g1880
sg84
g85
sg86
g11
(g15
S'Yb|\xca\xb4s\xe0?'
p1908
tp1909
Rp1910
sg90
g91
sg92
g93
sbag4
(g5
g6
Ntp1911
Rp1912
(dp1913
g10
g11
(g15
S'\x00\x00\x00\x00\x00\x00\xf8\xff'
p1914
tp1915
Rp1916
sg100
g11
(g15
S'\x00\x00\x00\x00\x00@Z@'
p1917
tp1918
Rp1919
sg21
g106
sg30
g31
sg32
(dp1920
g100
g1919
sg108
g11
(g15
S'\xb8/\x88\xa8\x05\x85\xe3?'
p1921
tp1922
Rp1923
sg21
g106
ssg51
g11
(g12
(S'S3'
p1924
I0
I1
tp1925
Rp1926
(I3
S'|'
p1927
NNNI3
I1
I0
tp1928
bS'PCA'
p1929
tp1930
Rp1931
sg60
F0.2
sg61
g11
(g12
(S'S3'
p1932
I0
I1
tp1933
Rp1934
(I3
S'|'
p1935
NNNI3
I1
I0
tp1936
bS'VGG'
p1937
tp1938
Rp1939
sg70
g11
(g15
S'\xbf\x04,\x81\xed\xf4\xe6?'
p1940
tp1941
Rp1942
sg74
g11
(g12
(S'S2'
p1943
I0
I1
tp1944
Rp1945
(I3
S'|'
p1946
NNNI2
I1
I0
tp1947
bS'RF'
p1948
tp1949
Rp1950
sg83
I3
sg108
g1923
sg84
g85
sg86
g11
(g15
S'\xa8\xeb\x0c\xc6F\x1e\xe6?'
p1951
tp1952
Rp1953
sg90
g91
sg92
g93
sbag4
(g5
g6
Ntp1954
Rp1955
(dp1956
g10
g11
(g15
S'\x00\x00\x00\x00\x00\x00\xf8\xff'
p1957
tp1958
Rp1959
sg100
g11
(g15
S'\x00\x00\x00\x00\x00@Z@'
p1960
tp1961
Rp1962
sg30
g31
sg294
g11
(g41
S'\x03\x00\x00\x00\x00\x00\x00\x00'
p1963
tp1964
Rp1965
sg32
(dp1966
g100
g1962
sg294
g1965
sg315
g11
(g41
S'\x03\x00\x00\x00\x00\x00\x00\x00'
p1967
tp1968
Rp1969
sg108
g11
(g15
S'\xc4\xff\xb6z\xeb\xe0\xd4?'
p1970
tp1971
Rp1972
ssg51
g11
(g12
(S'S6'
p1973
I0
I1
tp1974
Rp1975
(I3
S'|'
p1976
NNNI6
I1
I0
tp1977
bS'ISOMAP'
p1978
tp1979
Rp1980
sg60
F0.2
sg315
g1969
sg61
g11
(g12
(S'S9'
p1981
I0
I1
tp1982
Rp1983
(I3
S'|'
p1984
NNNI9
I1
I0
tp1985
bS'inception'
p1986
tp1987
Rp1988
sg70
g11
(g15
S'[\x06?!\xba"\x05@'
p1989
tp1990
Rp1991
sg74
g11
(g12
(S'S2'
p1992
I0
I1
tp1993
Rp1994
(I3
S'|'
p1995
NNNI2
I1
I0
tp1996
bS'RF'
p1997
tp1998
Rp1999
sg83
I3
sg108
g1972
sg84
g85
sg86
g11
(g15
S'\xe5\xe7E\xb5X\x98\xdc?'
p2000
tp2001
Rp2002
sg90
g91
sg92
g93
sbag4
(g5
g6
Ntp2003
Rp2004
(dp2005
g10
g11
(g15
S'\x00\x00\x00\x00\x00\x00\xf8\xff'
p2006
tp2007
Rp2008
sg100
g11
(g15
S'\x00\x00\x00\x00\x00`i@'
p2009
tp2010
Rp2011
sg30
g31
sg294
g11
(g41
S'\x06\x00\x00\x00\x00\x00\x00\x00'
p2012
tp2013
Rp2014
sg32
(dp2015
g100
g2011
sg294
g2014
sg315
g11
(g41
S'\x02\x00\x00\x00\x00\x00\x00\x00'
p2016
tp2017
Rp2018
sg108
g11
(g15
S'jCT\xbf\x0eJ\xe2?'
p2019
tp2020
Rp2021
ssg51
g11
(g12
(S'S6'
p2022
I0
I1
tp2023
Rp2024
(I3
S'|'
p2025
NNNI6
I1
I0
tp2026
bS'ISOMAP'
p2027
tp2028
Rp2029
sg60
F0.2
sg315
g2018
sg61
g11
(g12
(S'S9'
p2030
I0
I1
tp2031
Rp2032
(I3
S'|'
p2033
NNNI9
I1
I0
tp2034
bS'inception'
p2035
tp2036
Rp2037
sg70
g11
(g15
S'[Xq#A\xa0\x02@'
p2038
tp2039
Rp2040
sg74
g11
(g12
(S'S2'
p2041
I0
I1
tp2042
Rp2043
(I3
S'|'
p2044
NNNI2
I1
I0
tp2045
bS'RF'
p2046
tp2047
Rp2048
sg83
I3
sg108
g2021
sg84
g85
sg86
g11
(g15
S'G\x16\x87\xd9\xd0\xb6\xe0?'
p2049
tp2050
Rp2051
sg90
g91
sg92
g93
sbag4
(g5
g6
Ntp2052
Rp2053
(dp2054
g10
g11
(g15
S'\x00\x00\x00\x00\x00\x00\xf8\xff'
p2055
tp2056
Rp2057
sg294
g11
(g41
S'\x07\x00\x00\x00\x00\x00\x00\x00'
p2058
tp2059
Rp2060
sg30
g31
sg32
(dp2061
g294
g2060
sg34
g11
(g15
S'~\xf5\xf4 \xd2"S@'
p2062
tp2063
Rp2064
sg315
g11
(g41
S'\x04\x00\x00\x00\x00\x00\x00\x00'
p2065
tp2066
Rp2067
sg47
g11
(g15
S'\xa2\x1f\x05\x18xS\x18@'
p2068
tp2069
Rp2070
ssg47
g2070
sg51
g11
(g12
(S'S6'
p2071
I0
I1
tp2072
Rp2073
(I3
S'|'
p2074
NNNI6
I1
I0
tp2075
bS'ISOMAP'
p2076
tp2077
Rp2078
sg60
F0.2
sg315
g2067
sg61
g11
(g12
(S'S9'
p2079
I0
I1
tp2080
Rp2081
(I3
S'|'
p2082
NNNI9
I1
I0
tp2083
bS'inception'
p2084
tp2085
Rp2086
sg34
g2064
sg70
g11
(g15
S'\xf9\xb6g\xf8bn\xf0?'
p2087
tp2088
Rp2089
sg74
g11
(g12
(S'S3'
p2090
I0
I1
tp2091
Rp2092
(I3
S'|'
p2093
NNNI3
I1
I0
tp2094
bS'SVM'
p2095
tp2096
Rp2097
sg83
I3
sg84
g85
sg86
g11
(g15
S'S\xb9B4^1\xe0?'
p2098
tp2099
Rp2100
sg90
g91
sg92
g93
sbag4
(g5
g6
Ntp2101
Rp2102
(dp2103
g10
g11
(g15
S'\x00\x00\x00\x00\x00\x00\xf8\xff'
p2104
tp2105
Rp2106
sg100
g11
(g15
S'\x00\x00\x00\x00\x00@e@'
p2107
tp2108
Rp2109
sg30
g31
sg294
g11
(g41
S'\x07\x00\x00\x00\x00\x00\x00\x00'
p2110
tp2111
Rp2112
sg32
(dp2113
g100
g2109
sg294
g2112
sg38
g11
(g41
S'\x03\x00\x00\x00\x00\x00\x00\x00'
p2114
tp2115
Rp2116
sg315
g11
(g41
S'\x03\x00\x00\x00\x00\x00\x00\x00'
p2117
tp2118
Rp2119
sg108
g11
(g15
S'-\x84\x85\xdc\xdb\x85\xd7?'
p2120
tp2121
Rp2122
ssg51
g11
(g12
(S'S6'
p2123
I0
I1
tp2124
Rp2125
(I3
S'|'
p2126
NNNI6
I1
I0
tp2127
bS'ISOMAP'
p2128
tp2129
Rp2130
sg60
F0.2
sg315
g2119
sg61
g11
(g12
(S'S8'
p2131
I0
I1
tp2132
Rp2133
(I3
S'|'
p2134
NNNI8
I1
I0
tp2135
bS'haralick'
p2136
tp2137
Rp2138
sg38
g2116
sg70
g11
(g15
S'\xa0\x1e\x01v4$\xef?'
p2139
tp2140
Rp2141
sg74
g11
(g12
(S'S2'
p2142
I0
I1
tp2143
Rp2144
(I3
S'|'
p2145
NNNI2
I1
I0
tp2146
bS'RF'
p2147
tp2148
Rp2149
sg83
I3
sg108
g2122
sg84
g85
sg86
g11
(g15
S'y\x0b\x17\x8fL\xda\xe4?'
p2150
tp2151
Rp2152
sg90
g91
sg92
g93
sbag4
(g5
g6
Ntp2153
Rp2154
(dp2155
g10
g11
(g15
S'\x00\x00\x00\x00\x00\x00\xf8\xff'
p2156
tp2157
Rp2158
sg294
g11
(g41
S'\x04\x00\x00\x00\x00\x00\x00\x00'
p2159
tp2160
Rp2161
sg30
g31
sg32
(dp2162
g294
g2161
sg34
g11
(g15
S';\xa3T\xe7A\xd1D@'
p2163
tp2164
Rp2165
sg315
g11
(g41
S'\x04\x00\x00\x00\x00\x00\x00\x00'
p2166
tp2167
Rp2168
sg47
g11
(g15
S'!"?f\xc1;\xea?'
p2169
tp2170
Rp2171
ssg47
g2171
sg51
g11
(g12
(S'S6'
p2172
I0
I1
tp2173
Rp2174
(I3
S'|'
p2175
NNNI6
I1
I0
tp2176
bS'ISOMAP'
p2177
tp2178
Rp2179
sg60
F0.2
sg315
g2168
sg61
g11
(g12
(S'S3'
p2180
I0
I1
tp2181
Rp2182
(I3
S'|'
p2183
NNNI3
I1
I0
tp2184
bS'VGG'
p2185
tp2186
Rp2187
sg34
g2165
sg70
g11
(g15
S'Dp\x90\xeb\xbct\xee?'
p2188
tp2189
Rp2190
sg74
g11
(g12
(S'S3'
p2191
I0
I1
tp2192
Rp2193
(I3
S'|'
p2194
NNNI3
I1
I0
tp2195
bS'SVM'
p2196
tp2197
Rp2198
sg83
I3
sg84
g85
sg86
g11
(g15
S'2\xe5\xa9\xa27\xa1\xe0?'
p2199
tp2200
Rp2201
sg90
g91
sg92
g93
sbag4
(g5
g6
Ntp2202
Rp2203
(dp2204
g10
g11
(g15
S'\x00\x00\x00\x00\x00\x00\xf8\xff'
p2205
tp2206
Rp2207
sg100
g11
(g15
S'\x00\x00\x00\x00\x00@Z@'
p2208
tp2209
Rp2210
sg30
g31
sg294
g11
(g41
S'\x04\x00\x00\x00\x00\x00\x00\x00'
p2211
tp2212
Rp2213
sg32
(dp2214
g100
g2210
sg294
g2213
sg315
g11
(g41
S'\x02\x00\x00\x00\x00\x00\x00\x00'
p2215
tp2216
Rp2217
sg108
g11
(g15
S'\xaf\x9a\x96=\xf9\x0f\xdd?'
p2218
tp2219
Rp2220
ssg51
g11
(g12
(S'S6'
p2221
I0
I1
tp2222
Rp2223
(I3
S'|'
p2224
NNNI6
I1
I0
tp2225
bS'ISOMAP'
p2226
tp2227
Rp2228
sg60
F0.2
sg315
g2217
sg61
g11
(g12
(S'S3'
p2229
I0
I1
tp2230
Rp2231
(I3
S'|'
p2232
NNNI3
I1
I0
tp2233
bS'VGG'
p2234
tp2235
Rp2236
sg70
g11
(g15
S'\x9b\xcdVVP\xf1\xf7?'
p2237
tp2238
Rp2239
sg74
g11
(g12
(S'S2'
p2240
I0
I1
tp2241
Rp2242
(I3
S'|'
p2243
NNNI2
I1
I0
tp2244
bS'RF'
p2245
tp2246
Rp2247
sg83
I3
sg108
g2220
sg84
g85
sg86
g11
(g15
S'\xe8\xc9n])\x8d\xe0?'
p2248
tp2249
Rp2250
sg90
g91
sg92
g93
sbag4
(g5
g6
Ntp2251
Rp2252
(dp2253
g10
g11
(g15
S'\x00\x00\x00\x00\x00\x00\xf8\xff'
p2254
tp2255
Rp2256
sg294
g11
(g41
S'\x04\x00\x00\x00\x00\x00\x00\x00'
p2257
tp2258
Rp2259
sg30
g31
sg32
(dp2260
g294
g2259
sg34
g11
(g15
S'a\xe7a\xb3\x96^Q@'
p2261
tp2262
Rp2263
sg315
g11
(g41
S'\x04\x00\x00\x00\x00\x00\x00\x00'
p2264
tp2265
Rp2266
sg47
g11
(g15
S'|\xfbMJ\x93\x13\x1e@'
p2267
tp2268
Rp2269
ssg47
g2269
sg51
g11
(g12
(S'S6'
p2270
I0
I1
tp2271
Rp2272
(I3
S'|'
p2273
NNNI6
I1
I0
tp2274
bS'ISOMAP'
p2275
tp2276
Rp2277
sg60
F0.2
sg315
g2266
sg61
g11
(g12
(S'S3'
p2278
I0
I1
tp2279
Rp2280
(I3
S'|'
p2281
NNNI3
I1
I0
tp2282
bS'VGG'
p2283
tp2284
Rp2285
sg34
g2263
sg70
g11
(g15
S'^Q\xf0\x14\xc2\x06\xf0?'
p2286
tp2287
Rp2288
sg74
g11
(g12
(S'S3'
p2289
I0
I1
tp2290
Rp2291
(I3
S'|'
p2292
NNNI3
I1
I0
tp2293
bS'SVM'
p2294
tp2295
Rp2296
sg83
I3
sg84
g85
sg86
g11
(g15
S'\xab.d\xaf;\x8b\xe0?'
p2297
tp2298
Rp2299
sg90
g91
sg92
g93
sbag4
(g5
g6
Ntp2300
Rp2301
(dp2302
g10
g11
(g15
S'\x00\x00\x00\x00\x00\x00\xf8\xff'
p2303
tp2304
Rp2305
sg100
g11
(g15
S'\x00\x00\x00\x00\x00@e@'
p2306
tp2307
Rp2308
sg21
g29
sg30
g31
sg32
(dp2309
g100
g2308
sg108
g11
(g15
S'&u\xdcI\x85\xc8\xe5?'
p2310
tp2311
Rp2312
sg21
g29
ssg51
g11
(g12
(S'S3'
p2313
I0
I1
tp2314
Rp2315
(I3
S'|'
p2316
NNNI3
I1
I0
tp2317
bS'PCA'
p2318
tp2319
Rp2320
sg60
F0.2
sg61
g11
(g12
(S'S3'
p2321
I0
I1
tp2322
Rp2323
(I3
S'|'
p2324
NNNI3
I1
I0
tp2325
bS'VGG'
p2326
tp2327
Rp2328
sg70
g11
(g15
S'8\xfa\xb4\x08T\xee\xe6?'
p2329
tp2330
Rp2331
sg74
g11
(g12
(S'S2'
p2332
I0
I1
tp2333
Rp2334
(I3
S'|'
p2335
NNNI2
I1
I0
tp2336
bS'RF'
p2337
tp2338
Rp2339
sg83
I3
sg108
g2312
sg84
g85
sg86
g11
(g15
S'\xdb\xa2\xf9\xfd\n2\xe7?'
p2340
tp2341
Rp2342
sg90
g91
sg92
g93
sbag4
(g5
g6
Ntp2343
Rp2344
(dp2345
g10
g11
(g15
S'\x00\x00\x00\x00\x00\x00\xf8\xff'
p2346
tp2347
Rp2348
sg21
g29
sg30
g31
sg32
(dp2349
g21
g29
sg34
g11
(g15
S'\xf7r\x84\t\xb3\xbe\x03@'
p2350
tp2351
Rp2352
sg38
g11
(g41
S'\x01\x00\x00\x00\x00\x00\x00\x00'
p2353
tp2354
Rp2355
sg47
g11
(g15
S'\xf7\x97HZ)\x14\x1d@'
p2356
tp2357
Rp2358
ssg51
g11
(g12
(S'S3'
p2359
I0
I1
tp2360
Rp2361
(I3
S'|'
p2362
NNNI3
I1
I0
tp2363
bS'PCA'
p2364
tp2365
Rp2366
sg60
F0.2
sg47
g2358
sg61
g11
(g12
(S'S8'
p2367
I0
I1
tp2368
Rp2369
(I3
S'|'
p2370
NNNI8
I1
I0
tp2371
bS'haralick'
p2372
tp2373
Rp2374
sg34
g2352
sg38
g2355
sg70
g11
(g15
S'?\x8b*\x8f8/\xee?'
p2375
tp2376
Rp2377
sg74
g11
(g12
(S'S3'
p2378
I0
I1
tp2379
Rp2380
(I3
S'|'
p2381
NNNI3
I1
I0
tp2382
bS'SVM'
p2383
tp2384
Rp2385
sg83
I3
sg84
g85
sg86
g11
(g15
S'\x00\x00\x00\x00\x00\x00\xe0?'
p2386
tp2387
Rp2388
sg90
g91
sg92
g93
sbag4
(g5
g6
Ntp2389
Rp2390
(dp2391
g10
g11
(g15
S'\x00\x00\x00\x00\x00\x00\xf8\xff'
p2392
tp2393
Rp2394
sg21
g106
sg30
g31
sg32
(dp2395
g21
g106
sg34
g11
(g15
S'\x01\x8b\xc8\xb5\xf6\x97W@'
p2396
tp2397
Rp2398
sg38
g11
(g41
S'\x03\x00\x00\x00\x00\x00\x00\x00'
p2399
tp2400
Rp2401
sg47
g11
(g15
S'%\xc6\x8aY\x8ds\x1f@'
p2402
tp2403
Rp2404
ssg51
g11
(g12
(S'S3'
p2405
I0
I1
tp2406
Rp2407
(I3
S'|'
p2408
NNNI3
I1
I0
tp2409
bS'PCA'
p2410
tp2411
Rp2412
sg60
F0.2
sg47
g2404
sg61
g11
(g12
(S'S8'
p2413
I0
I1
tp2414
Rp2415
(I3
S'|'
p2416
NNNI8
I1
I0
tp2417
bS'haralick'
p2418
tp2419
Rp2420
sg34
g2398
sg38
g2401
sg70
g11
(g15
S'`s\xb0\x00G\xdf\xec?'
p2421
tp2422
Rp2423
sg74
g11
(g12
(S'S3'
p2424
I0
I1
tp2425
Rp2426
(I3
S'|'
p2427
NNNI3
I1
I0
tp2428
bS'SVM'
p2429
tp2430
Rp2431
sg83
I3
sg84
g85
sg86
g11
(g15
S'\x85\x07\x8e!\xdc\x0b\xe3?'
p2432
tp2433
Rp2434
sg90
g91
sg92
g93
sbag4
(g5
g6
Ntp2435
Rp2436
(dp2437
g10
g11
(g15
S'\x00\x00\x00\x00\x00\x00\xf8\xff'
p2438
tp2439
Rp2440
sg21
g106
sg30
g31
sg32
(dp2441
g21
g106
sg34
g11
(g15
S'>^\xb4\xf4`\x10L@'
p2442
tp2443
Rp2444
sg38
g11
(g41
S'\x01\x00\x00\x00\x00\x00\x00\x00'
p2445
tp2446
Rp2447
sg47
g11
(g15
S'\xcb=\xbex\xbeY\x1d@'
p2448
tp2449
Rp2450
ssg51
g11
(g12
(S'S3'
p2451
I0
I1
tp2452
Rp2453
(I3
S'|'
p2454
NNNI3
I1
I0
tp2455
bS'PCA'
p2456
tp2457
Rp2458
sg60
F0.2
sg47
g2450
sg61
g11
(g12
(S'S8'
p2459
I0
I1
tp2460
Rp2461
(I3
S'|'
p2462
NNNI8
I1
I0
tp2463
bS'haralick'
p2464
tp2465
Rp2466
sg34
g2444
sg38
g2447
sg70
g11
(g15
S'\xcco\xc6\x15-\xb0\xee?'
p2467
tp2468
Rp2469
sg74
g11
(g12
(S'S3'
p2470
I0
I1
tp2471
Rp2472
(I3
S'|'
p2473
NNNI3
I1
I0
tp2474
bS'SVM'
p2475
tp2476
Rp2477
sg83
I3
sg84
g85
sg86
g11
(g15
S'\xed\xa0e^\xf3\\\xe0?'
p2478
tp2479
Rp2480
sg90
g91
sg92
g93
sbag4
(g5
g6
Ntp2481
Rp2482
(dp2483
g10
g11
(g15
S'\x00\x00\x00\x00\x00\x00\xf8\xff'
p2484
tp2485
Rp2486
sg100
g11
(g15
S'\x00\x00\x00\x00\x00\x00 @'
p2487
tp2488
Rp2489
sg30
g31
sg294
g11
(g41
S'\x04\x00\x00\x00\x00\x00\x00\x00'
p2490
tp2491
Rp2492
sg32
(dp2493
g100
g2489
sg294
g2492
sg315
g11
(g41
S'\x02\x00\x00\x00\x00\x00\x00\x00'
p2494
tp2495
Rp2496
sg108
g11
(g15
S'\x8e T\xfe\x9d\xfe\xe9?'
p2497
tp2498
Rp2499
ssg51
g11
(g12
(S'S6'
p2500
I0
I1
tp2501
Rp2502
(I3
S'|'
p2503
NNNI6
I1
I0
tp2504
bS'ISOMAP'
p2505
tp2506
Rp2507
sg60
F0.2
sg315
g2496
sg61
g11
(g12
(S'S3'
p2508
I0
I1
tp2509
Rp2510
(I3
S'|'
p2511
NNNI3
I1
I0
tp2512
bS'VGG'
p2513
tp2514
Rp2515
sg70
g11
(g15
S'X<`\x96\x88^\x15@'
p2516
tp2517
Rp2518
sg74
g11
(g12
(S'S2'
p2519
I0
I1
tp2520
Rp2521
(I3
S'|'
p2522
NNNI2
I1
I0
tp2523
bS'RF'
p2524
tp2525
Rp2526
sg83
I3
sg108
g2499
sg84
g85
sg86
g11
(g15
S'{6\x15\\\xdb\x03\xe0?'
p2527
tp2528
Rp2529
sg90
g91
sg92
g93
sbag4
(g5
g6
Ntp2530
Rp2531
(dp2532
g10
g11
(g15
S'\x00\x00\x00\x00\x00\x00\xf8\xff'
p2533
tp2534
Rp2535
sg21
g29
sg30
g31
sg32
(dp2536
g21
g29
sg34
g11
(g15
S'X\x8d\x8b\xa0E\xcf:@'
p2537
tp2538
Rp2539
sg47
g11
(g15
S'\x17\x94]N\x03\xa3\x12@'
p2540
tp2541
Rp2542
ssg51
g11
(g12
(S'S3'
p2543
I0
I1
tp2544
Rp2545
(I3
S'|'
p2546
NNNI3
I1
I0
tp2547
bS'PCA'
p2548
tp2549
Rp2550
sg60
F0.2
sg47
g2542
sg61
g11
(g12
(S'S9'
p2551
I0
I1
tp2552
Rp2553
(I3
S'|'
p2554
NNNI9
I1
I0
tp2555
bS'inception'
p2556
tp2557
Rp2558
sg34
g2539
sg70
g11
(g15
S'\x07\xd5\x1c\xa1\xea\x17\xf0?'
p2559
tp2560
Rp2561
sg74
g11
(g12
(S'S3'
p2562
I0
I1
tp2563
Rp2564
(I3
S'|'
p2565
NNNI3
I1
I0
tp2566
bS'SVM'
p2567
tp2568
Rp2569
sg83
I3
sg84
g85
sg86
g11
(g15
S'X\x9095(\x01\xe0?'
p2570
tp2571
Rp2572
sg90
g91
sg92
g93
sbag4
(g5
g6
Ntp2573
Rp2574
(dp2575
g10
g11
(g15
S'\x00\x00\x00\x00\x00\x00\xf8\xff'
p2576
tp2577
Rp2578
sg21
g106
sg30
g31
sg32
(dp2579
g21
g106
sg34
g11
(g15
S'\xa7\xd9\xdd\x13\xa9b\x1f@'
p2580
tp2581
Rp2582
sg47
g11
(g15
S'.\x92\xe3\xca\xa1%\xf8?'
p2583
tp2584
Rp2585
ssg51
g11
(g12
(S'S3'
p2586
I0
I1
tp2587
Rp2588
(I3
S'|'
p2589
NNNI3
I1
I0
tp2590
bS'PCA'
p2591
tp2592
Rp2593
sg60
F0.2
sg47
g2585
sg61
g11
(g12
(S'S3'
p2594
I0
I1
tp2595
Rp2596
(I3
S'|'
p2597
NNNI3
I1
I0
tp2598
bS'VGG'
p2599
tp2600
Rp2601
sg34
g2582
sg70
g11
(g15
S'\x98D\xe1\xf0D\x0f\xee?'
p2602
tp2603
Rp2604
sg74
g11
(g12
(S'S3'
p2605
I0
I1
tp2606
Rp2607
(I3
S'|'
p2608
NNNI3
I1
I0
tp2609
bS'SVM'
p2610
tp2611
Rp2612
sg83
I3
sg84
g85
sg86
g11
(g15
S']\x82H\xf0<x\xdf?'
p2613
tp2614
Rp2615
sg90
g91
sg92
g93
sbag4
(g5
g6
Ntp2616
Rp2617
(dp2618
g10
g11
(g15
S'\x00\x00\x00\x00\x00\x00\xf8\xff'
p2619
tp2620
Rp2621
sg21
g106
sg30
g31
sg32
(dp2622
g21
g106
sg34
g11
(g15
S'\x914\x8dL\xa1DL@'
p2623
tp2624
Rp2625
sg38
g11
(g41
S'\x02\x00\x00\x00\x00\x00\x00\x00'
p2626
tp2627
Rp2628
sg47
g11
(g15
S'}s\xc0\x92P\x10\x16@'
p2629
tp2630
Rp2631
ssg51
g11
(g12
(S'S3'
p2632
I0
I1
tp2633
Rp2634
(I3
S'|'
p2635
NNNI3
I1
I0
tp2636
bS'PCA'
p2637
tp2638
Rp2639
sg60
F0.2
sg47
g2631
sg61
g11
(g12
(S'S8'
p2640
I0
I1
tp2641
Rp2642
(I3
S'|'
p2643
NNNI8
I1
I0
tp2644
bS'haralick'
p2645
tp2646
Rp2647
sg34
g2625
sg38
g2628
sg70
g11
(g15
S'L\xcc\xe4\xad\xc1\xf1\xeb?'
p2648
tp2649
Rp2650
sg74
g11
(g12
(S'S3'
p2651
I0
I1
tp2652
Rp2653
(I3
S'|'
p2654
NNNI3
I1
I0
tp2655
bS'SVM'
p2656
tp2657
Rp2658
sg83
I3
sg84
g85
sg86
g11
(g15
S'\xf3\x9a\xe7"*\x95\xe3?'
p2659
tp2660
Rp2661
sg90
g91
sg92
g93
sbag4
(g5
g6
Ntp2662
Rp2663
(dp2664
g10
g11
(g15
S'\x00\x00\x00\x00\x00\x00\xf8\xff'
p2665
tp2666
Rp2667
sg21
g29
sg30
g31
sg32
(dp2668
g21
g29
sg34
g11
(g15
S"\x87\xf2'r\x9770@"
p2669
tp2670
Rp2671
sg47
g11
(g15
S'\xb1\xed&\xb5\xe5a\x1f@'
p2672
tp2673
Rp2674
ssg51
g11
(g12
(S'S3'
p2675
I0
I1
tp2676
Rp2677
(I3
S'|'
p2678
NNNI3
I1
I0
tp2679
bS'PCA'
p2680
tp2681
Rp2682
sg60
F0.2
sg47
g2674
sg61
g11
(g12
(S'S9'
p2683
I0
I1
tp2684
Rp2685
(I3
S'|'
p2686
NNNI9
I1
I0
tp2687
bS'inception'
p2688
tp2689
Rp2690
sg34
g2671
sg70
g11
(g15
S'\xcc\x1fT-1o\xf0?'
p2691
tp2692
Rp2693
sg74
g11
(g12
(S'S3'
p2694
I0
I1
tp2695
Rp2696
(I3
S'|'
p2697
NNNI3
I1
I0
tp2698
bS'SVM'
p2699
tp2700
Rp2701
sg83
I3
sg84
g85
sg86
g11
(g15
S'\xf4d\xb7\xae\x94F\xe0?'
p2702
tp2703
Rp2704
sg90
g91
sg92
g93
sbag4
(g5
g6
Ntp2705
Rp2706
(dp2707
g10
g11
(g15
S'\x00\x00\x00\x00\x00\x00\xf8\xff'
p2708
tp2709
Rp2710
sg21
g106
sg30
g31
sg32
(dp2711
g21
g106
sg34
g11
(g15
S':\x16\xa4o\xc9\xe2K@'
p2712
tp2713
Rp2714
sg47
g11
(g15
S'\x19\xa9\xb4\xc9\xdd"\x1c@'
p2715
tp2716
Rp2717
ssg51
g11
(g12
(S'S3'
p2718
I0
I1
tp2719
Rp2720
(I3
S'|'
p2721
NNNI3
I1
I0
tp2722
bS'PCA'
p2723
tp2724
Rp2725
sg60
F0.2
sg47
g2717
sg61
g11
(g12
(S'S9'
p2726
I0
I1
tp2727
Rp2728
(I3
S'|'
p2729
NNNI9
I1
I0
tp2730
bS'inception'
p2731
tp2732
Rp2733
sg34
g2714
sg70
g11
(g15
S'\x05\xfa\x8e\xbe^a\xf0?'
p2734
tp2735
Rp2736
sg74
g11
(g12
(S'S3'
p2737
I0
I1
tp2738
Rp2739
(I3
S'|'
p2740
NNNI3
I1
I0
tp2741
bS'SVM'
p2742
tp2743
Rp2744
sg83
I3
sg84
g85
sg86
g11
(g15
S'\x9f\x0fbY?\xf1\xde?'
p2745
tp2746
Rp2747
sg90
g91
sg92
g93
sbag186
ag4
(g5
g6
Ntp2748
Rp2749
(dp2750
g10
g11
(g15
S'\x00\x00\x00\x00\x00\x00\xf8\xff'
p2751
tp2752
Rp2753
sg21
g106
sg30
g31
sg32
(dp2754
g21
g106
sg34
g11
(g15
S'c\xdf\xf7OmEE@'
p2755
tp2756
Rp2757
sg38
g11
(g41
S'\x03\x00\x00\x00\x00\x00\x00\x00'
p2758
tp2759
Rp2760
sg47
g11
(g15
S'W\xd4x\xda\x9f\x82\xf1?'
p2761
tp2762
Rp2763
ssg51
g11
(g12
(S'S3'
p2764
I0
I1
tp2765
Rp2766
(I3
S'|'
p2767
NNNI3
I1
I0
tp2768
bS'PCA'
p2769
tp2770
Rp2771
sg60
F0.2
sg47
g2763
sg61
g11
(g12
(S'S8'
p2772
I0
I1
tp2773
Rp2774
(I3
S'|'
p2775
NNNI8
I1
I0
tp2776
bS'haralick'
p2777
tp2778
Rp2779
sg34
g2757
sg38
g2760
sg70
g11
(g15
S'\xa9?&\x16\xa6N\xe9?'
p2780
tp2781
Rp2782
sg74
g11
(g12
(S'S3'
p2783
I0
I1
tp2784
Rp2785
(I3
S'|'
p2786
NNNI3
I1
I0
tp2787
bS'SVM'
p2788
tp2789
Rp2790
sg83
I3
sg84
g85
sg86
g11
(g15
S'\xe5\xcc-\xfb\r\xf1\xe4?'
p2791
tp2792
Rp2793
sg90
g91
sg92
g93
sbag4
(g5
g6
Ntp2794
Rp2795
(dp2796
g10
g11
(g15
S'\x00\x00\x00\x00\x00\x00\xf8\xff'
p2797
tp2798
Rp2799
sg21
g29
sg30
g31
sg32
(dp2800
g21
g29
sg34
g11
(g15
S'>`\xa8M\xab2=@'
p2801
tp2802
Rp2803
sg47
g11
(g15
S'\xa1Xc\x8f\xb4\x9f\xfa?'
p2804
tp2805
Rp2806
ssg51
g11
(g12
(S'S3'
p2807
I0
I1
tp2808
Rp2809
(I3
S'|'
p2810
NNNI3
I1
I0
tp2811
bS'PCA'
p2812
tp2813
Rp2814
sg60
F0.2
sg47
g2806
sg61
g11
(g12
(S'S3'
p2815
I0
I1
tp2816
Rp2817
(I3
S'|'
p2818
NNNI3
I1
I0
tp2819
bS'VGG'
p2820
tp2821
Rp2822
sg34
g2803
sg70
g11
(g15
S'\x90$i>A\x01\xee?'
p2823
tp2824
Rp2825
sg74
g11
(g12
(S'S3'
p2826
I0
I1
tp2827
Rp2828
(I3
S'|'
p2829
NNNI3
I1
I0
tp2830
bS'SVM'
p2831
tp2832
Rp2833
sg83
I3
sg84
g85
sg86
g11
(g15
S'3a\xf0\x9d\xa6\xc0\xde?'
p2834
tp2835
Rp2836
sg90
g91
sg92
g93
sbag4
(g5
g6
Ntp2837
Rp2838
(dp2839
g10
g11
(g15
S'\x00\x00\x00\x00\x00\x00\xf8\xff'
p2840
tp2841
Rp2842
sg294
g11
(g41
S'\x05\x00\x00\x00\x00\x00\x00\x00'
p2843
tp2844
Rp2845
sg30
g31
sg32
(dp2846
g294
g2845
sg34
g11
(g15
S'\xc8\x1f\xee~C\xad6@'
p2847
tp2848
Rp2849
sg315
g11
(g41
S'\x02\x00\x00\x00\x00\x00\x00\x00'
p2850
tp2851
Rp2852
sg47
g11
(g15
S'\xdf\x96>\x88&\xc3\x17@'
p2853
tp2854
Rp2855
ssg47
g2855
sg51
g11
(g12
(S'S6'
p2856
I0
I1
tp2857
Rp2858
(I3
S'|'
p2859
NNNI6
I1
I0
tp2860
bS'ISOMAP'
p2861
tp2862
Rp2863
sg60
F0.2
sg315
g2852
sg61
g11
(g12
(S'S3'
p2864
I0
I1
tp2865
Rp2866
(I3
S'|'
p2867
NNNI3
I1
I0
tp2868
bS'VGG'
p2869
tp2870
Rp2871
sg34
g2849
sg70
g11
(g15
S'\xfdX\xbe\x98\xdb\x15\xef?'
p2872
tp2873
Rp2874
sg74
g11
(g12
(S'S3'
p2875
I0
I1
tp2876
Rp2877
(I3
S'|'
p2878
NNNI3
I1
I0
tp2879
bS'SVM'
p2880
tp2881
Rp2882
sg83
I3
sg84
g85
sg86
g11
(g15
S'\xbd,\xd0\x0f$\xb6\xe1?'
p2883
tp2884
Rp2885
sg90
g91
sg92
g93
sbag4
(g5
g6
Ntp2886
Rp2887
(dp2888
g10
g11
(g15
S'\x00\x00\x00\x00\x00\x00\xf8\xff'
p2889
tp2890
Rp2891
sg21
g106
sg30
g31
sg32
(dp2892
g21
g106
sg34
g11
(g15
S'\x05u!\x07\xc9\xdd\x1d@'
p2893
tp2894
Rp2895
sg47
g11
(g15
S'\xdf\xe9J\n\x9a\xe4\x16@'
p2896
tp2897
Rp2898
ssg51
g11
(g12
(S'S3'
p2899
I0
I1
tp2900
Rp2901
(I3
S'|'
p2902
NNNI3
I1
I0
tp2903
bS'PCA'
p2904
tp2905
Rp2906
sg60
F0.2
sg47
g2898
sg61
g11
(g12
(S'S3'
p2907
I0
I1
tp2908
Rp2909
(I3
S'|'
p2910
NNNI3
I1
I0
tp2911
bS'VGG'
p2912
tp2913
Rp2914
sg34
g2895
sg70
g11
(g15
S'\xf7\xfb)\x1dd\x95\xf0?'
p2915
tp2916
Rp2917
sg74
g11
(g12
(S'S3'
p2918
I0
I1
tp2919
Rp2920
(I3
S'|'
p2921
NNNI3
I1
I0
tp2922
bS'SVM'
p2923
tp2924
Rp2925
sg83
I3
sg84
g85
sg86
g11
(g15
S'\rJ\x00#\x8b\xc3\xdc?'
p2926
tp2927
Rp2928
sg90
g91
sg92
g93
sbag4
(g5
g6
Ntp2929
Rp2930
(dp2931
g10
g11
(g15
S'\x00\x00\x00\x00\x00\x00\xf8\xff'
p2932
tp2933
Rp2934
sg100
g11
(g15
S'\x00\x00\x00\x00\x00\x00D@'
p2935
tp2936
Rp2937
sg21
g106
sg30
g31
sg32
(dp2938
g100
g2937
sg108
g11
(g15
S'z*19\xd2<\xd6?'
p2939
tp2940
Rp2941
sg21
g106
ssg51
g11
(g12
(S'S3'
p2942
I0
I1
tp2943
Rp2944
(I3
S'|'
p2945
NNNI3
I1
I0
tp2946
bS'PCA'
p2947
tp2948
Rp2949
sg60
F0.2
sg61
g11
(g12
(S'S9'
p2950
I0
I1
tp2951
Rp2952
(I3
S'|'
p2953
NNNI9
I1
I0
tp2954
bS'inception'
p2955
tp2956
Rp2957
sg70
g11
(g15
S'w\xbb\xac\xf1EL\x00@'
p2958
tp2959
Rp2960
sg74
g11
(g12
(S'S2'
p2961
I0
I1
tp2962
Rp2963
(I3
S'|'
p2964
NNNI2
I1
I0
tp2965
bS'RF'
p2966
tp2967
Rp2968
sg83
I3
sg108
g2941
sg84
g85
sg86
g11
(g15
S'\x7f\xbf\x82\xcc\xa9A\xe1?'
p2969
tp2970
Rp2971
sg90
g91
sg92
g93
sbag4
(g5
g6
Ntp2972
Rp2973
(dp2974
g10
g11
(g15
S'\x00\x00\x00\x00\x00\x00\xf8\xff'
p2975
tp2976
Rp2977
sg100
g11
(g15
S'\x00\x00\x00\x00\x00@e@'
p2978
tp2979
Rp2980
sg21
g106
sg30
g31
sg32
(dp2981
g100
g2980
sg108
g11
(g15
S'J\x97\x8d\xd1\xb1\n\xe8?'
p2982
tp2983
Rp2984
sg21
g106
ssg51
g11
(g12
(S'S3'
p2985
I0
I1
tp2986
Rp2987
(I3
S'|'
p2988
NNNI3
I1
I0
tp2989
bS'PCA'
p2990
tp2991
Rp2992
sg60
F0.2
sg61
g11
(g12
(S'S3'
p2993
I0
I1
tp2994
Rp2995
(I3
S'|'
p2996
NNNI3
I1
I0
tp2997
bS'VGG'
p2998
tp2999
Rp3000
sg70
g11
(g15
S'-~rY\x97\x10\xe7?'
p3001
tp3002
Rp3003
sg74
g11
(g12
(S'S2'
p3004
I0
I1
tp3005
Rp3006
(I3
S'|'
p3007
NNNI2
I1
I0
tp3008
bS'RF'
p3009
tp3010
Rp3011
sg83
I3
sg108
g2984
sg84
g85
sg86
g11
(g15
S'\x1dC\xb8\x176\x91\xe6?'
p3012
tp3013
Rp3014
sg90
g91
sg92
g93
sbag4
(g5
g6
Ntp3015
Rp3016
(dp3017
g10
g11
(g15
S'\x00\x00\x00\x00\x00\x00\xf8\xff'
p3018
tp3019
Rp3020
sg100
g11
(g15
S'\x00\x00\x00\x00\x00@e@'
p3021
tp3022
Rp3023
sg21
g106
sg30
g31
sg32
(dp3024
g100
g3023
sg108
g11
(g15
S'\x10M!a@H\xe7?'
p3025
tp3026
Rp3027
sg21
g106
sg38
g11
(g41
S'\x03\x00\x00\x00\x00\x00\x00\x00'
p3028
tp3029
Rp3030
ssg51
g11
(g12
(S'S3'
p3031
I0
I1
tp3032
Rp3033
(I3
S'|'
p3034
NNNI3
I1
I0
tp3035
bS'PCA'
p3036
tp3037
Rp3038
sg60
F0.2
sg61
g11
(g12
(S'S8'
p3039
I0
I1
tp3040
Rp3041
(I3
S'|'
p3042
NNNI8
I1
I0
tp3043
bS'haralick'
p3044
tp3045
Rp3046
sg38
g3030
sg70
g11
(g15
S'\x80\x94\xb2.\x11\x9e\xf5?'
p3047
tp3048
Rp3049
sg74
g11
(g12
(S'S2'
p3050
I0
I1
tp3051
Rp3052
(I3
S'|'
p3053
NNNI2
I1
I0
tp3054
bS'RF'
p3055
tp3056
Rp3057
sg83
I3
sg108
g3027
sg84
g85
sg86
g11
(g15
S'}\xaf\x9c\xb9e\xbf\xe5?'
p3058
tp3059
Rp3060
sg90
g91
sg92
g93
sbag4
(g5
g6
Ntp3061
Rp3062
(dp3063
g10
g11
(g15
S'\x00\x00\x00\x00\x00\x00\xf8\xff'
p3064
tp3065
Rp3066
sg100
g11
(g15
S'\x00\x00\x00\x00\x00\xc0p@'
p3067
tp3068
Rp3069
sg21
g29
sg30
g31
sg32
(dp3070
g100
g3069
sg108
g11
(g15
S'\xac\xd0\xb9\xc6\xf5c\xe8?'
p3071
tp3072
Rp3073
sg21
g29
ssg51
g11
(g12
(S'S3'
p3074
I0
I1
tp3075
Rp3076
(I3
S'|'
p3077
NNNI3
I1
I0
tp3078
bS'PCA'
p3079
tp3080
Rp3081
sg60
F0.2
sg61
g11
(g12
(S'S9'
p3082
I0
I1
tp3083
Rp3084
(I3
S'|'
p3085
NNNI9
I1
I0
tp3086
bS'inception'
p3087
tp3088
Rp3089
sg70
g11
(g15
S'o\x97\xbfo~\x06\xf6?'
p3090
tp3091
Rp3092
sg74
g11
(g12
(S'S2'
p3093
I0
I1
tp3094
Rp3095
(I3
S'|'
p3096
NNNI2
I1
I0
tp3097
bS'RF'
p3098
tp3099
Rp3100
sg83
I3
sg108
g3073
sg84
g85
sg86
g11
(g15
S'|\xed?7\x1d\xcf\xe0?'
p3101
tp3102
Rp3103
sg90
g91
sg92
g93
sbag4
(g5
g6
Ntp3104
Rp3105
(dp3106
g10
g11
(g15
S'\x00\x00\x00\x00\x00\x00\xf8\xff'
p3107
tp3108
Rp3109
sg21
g29
sg30
g31
sg32
(dp3110
g21
g29
sg34
g11
(g15
S'\xc7N\x05\xb1\xc2\\W@'
p3111
tp3112
Rp3113
sg47
g11
(g15
S'\xbd\x07\xf9\x03\xca\x95\x11@'
p3114
tp3115
Rp3116
ssg51
g11
(g12
(S'S3'
p3117
I0
I1
tp3118
Rp3119
(I3
S'|'
p3120
NNNI3
I1
I0
tp3121
bS'PCA'
p3122
tp3123
Rp3124
sg60
F0.2
sg47
g3116
sg61
g11
(g12
(S'S3'
p3125
I0
I1
tp3126
Rp3127
(I3
S'|'
p3128
NNNI3
I1
I0
tp3129
bS'VGG'
p3130
tp3131
Rp3132
sg34
g3113
sg70
g11
(g15
S'\xac\xd8\xa9\x82>h\xf0?'
p3133
tp3134
Rp3135
sg74
g11
(g12
(S'S3'
p3136
I0
I1
tp3137
Rp3138
(I3
S'|'
p3139
NNNI3
I1
I0
tp3140
bS'SVM'
p3141
tp3142
Rp3143
sg83
I3
sg84
g85
sg86
g11
(g15
S'P\xbc\x01\xd2B\x95\xdc?'
p3144
tp3145
Rp3146
sg90
g91
sg92
g93
sbag4
(g5
g6
Ntp3147
Rp3148
(dp3149
g10
g11
(g15
S'\x00\x00\x00\x00\x00\x00\xf8\xff'
p3150
tp3151
Rp3152
sg100
g11
(g15
S'\x00\x00\x00\x00\x00@Z@'
p3153
tp3154
Rp3155
sg30
g31
sg294
g11
(g41
S'\x06\x00\x00\x00\x00\x00\x00\x00'
p3156
tp3157
Rp3158
sg32
(dp3159
g100
g3155
sg294
g3158
sg38
g11
(g41
S'\x03\x00\x00\x00\x00\x00\x00\x00'
p3160
tp3161
Rp3162
sg315
g11
(g41
S'\x02\x00\x00\x00\x00\x00\x00\x00'
p3163
tp3164
Rp3165
sg108
g11
(g15
S'\x085;7\xb8\xd8\xea?'
p3166
tp3167
Rp3168
ssg51
g11
(g12
(S'S6'
p3169
I0
I1
tp3170
Rp3171
(I3
S'|'
p3172
NNNI6
I1
I0
tp3173
bS'ISOMAP'
p3174
tp3175
Rp3176
sg60
F0.2
sg315
g3165
sg61
g11
(g12
(S'S8'
p3177
I0
I1
tp3178
Rp3179
(I3
S'|'
p3180
NNNI8
I1
I0
tp3181
bS'haralick'
p3182
tp3183
Rp3184
sg38
g3162
sg70
g11
(g15
S'\x81g\xa7}g\x04\xfb?'
p3185
tp3186
Rp3187
sg74
g11
(g12
(S'S2'
p3188
I0
I1
tp3189
Rp3190
(I3
S'|'
p3191
NNNI2
I1
I0
tp3192
bS'RF'
p3193
tp3194
Rp3195
sg83
I3
sg108
g3168
sg84
g85
sg86
g11
(g15
S'\x8b7@Z\xa8\x92\xe5?'
p3196
tp3197
Rp3198
sg90
g91
sg92
g93
sbag4
(g5
g6
Ntp3199
Rp3200
(dp3201
g10
g11
(g15
S'\x00\x00\x00\x00\x00\x00\xf8\xff'
p3202
tp3203
Rp3204
sg100
g11
(g15
S'\x00\x00\x00\x00\x00\x00 @'
p3205
tp3206
Rp3207
sg21
g106
sg30
g31
sg32
(dp3208
g100
g3207
sg108
g11
(g15
S'.\xbe\x1d\t$\xfb\xef?'
p3209
tp3210
Rp3211
sg21
g106
sg38
g11
(g41
S'\x01\x00\x00\x00\x00\x00\x00\x00'
p3212
tp3213
Rp3214
ssg51
g11
(g12
(S'S3'
p3215
I0
I1
tp3216
Rp3217
(I3
S'|'
p3218
NNNI3
I1
I0
tp3219
bS'PCA'
p3220
tp3221
Rp3222
sg60
F0.2
sg61
g11
(g12
(S'S8'
p3223
I0
I1
tp3224
Rp3225
(I3
S'|'
p3226
NNNI8
I1
I0
tp3227
bS'haralick'
p3228
tp3229
Rp3230
sg38
g3214
sg70
g11
(g15
S'e\\\x17\xb0\xfc\xef!@'
p3231
tp3232
Rp3233
sg74
g11
(g12
(S'S2'
p3234
I0
I1
tp3235
Rp3236
(I3
S'|'
p3237
NNNI2
I1
I0
tp3238
bS'RF'
p3239
tp3240
Rp3241
sg83
I3
sg108
g3211
sg84
g85
sg86
g11
(g15
S'\x12\xfek`\xe8*\xe1?'
p3242
tp3243
Rp3244
sg90
g91
sg92
g93
sbag4
(g5
g6
Ntp3245
Rp3246
(dp3247
g10
g11
(g15
S'\x00\x00\x00\x00\x00\x00\xf8\xff'
p3248
tp3249
Rp3250
sg100
g11
(g15
S'\x00\x00\x00\x00\x00@R@'
p3251
tp3252
Rp3253
sg21
g106
sg30
g31
sg32
(dp3254
g100
g3253
sg108
g11
(g15
S"\x9e?\r\xe1]'\xe2?"
p3255
tp3256
Rp3257
sg21
g106
ssg51
g11
(g12
(S'S3'
p3258
I0
I1
tp3259
Rp3260
(I3
S'|'
p3261
NNNI3
I1
I0
tp3262
bS'PCA'
p3263
tp3264
Rp3265
sg60
F0.2
sg61
g11
(g12
(S'S9'
p3266
I0
I1
tp3267
Rp3268
(I3
S'|'
p3269
NNNI9
I1
I0
tp3270
bS'inception'
p3271
tp3272
Rp3273
sg70
g11
(g15
S'c\xb1\xd8b\xd12\xfe?'
p3274
tp3275
Rp3276
sg74
g11
(g12
(S'S2'
p3277
I0
I1
tp3278
Rp3279
(I3
S'|'
p3280
NNNI2
I1
I0
tp3281
bS'RF'
p3282
tp3283
Rp3284
sg83
I3
sg108
g3257
sg84
g85
sg86
g11
(g15
S'\x81\xdfN\xf21F\xe0?'
p3285
tp3286
Rp3287
sg90
g91
sg92
g93
sbag4
(g5
g6
Ntp3288
Rp3289
(dp3290
g10
g11
(g15
S'\x00\x00\x00\x00\x00\x00\xf8\xff'
p3291
tp3292
Rp3293
sg294
g11
(g41
S'\x05\x00\x00\x00\x00\x00\x00\x00'
p3294
tp3295
Rp3296
sg30
g31
sg32
(dp3297
g294
g3296
sg34
g11
(g15
S'\xc4\x1c#B\xbe\xfaR@'
p3298
tp3299
Rp3300
sg315
g11
(g41
S'\x04\x00\x00\x00\x00\x00\x00\x00'
p3301
tp3302
Rp3303
sg47
g11
(g15
S'\t\xe7\x11\x86\xdc\xdb\x1e@'
p3304
tp3305
Rp3306
ssg47
g3306
sg51
g11
(g12
(S'S6'
p3307
I0
I1
tp3308
Rp3309
(I3
S'|'
p3310
NNNI6
I1
I0
tp3311
bS'ISOMAP'
p3312
tp3313
Rp3314
sg60
F0.2
sg315
g3303
sg61
g11
(g12
(S'S3'
p3315
I0
I1
tp3316
Rp3317
(I3
S'|'
p3318
NNNI3
I1
I0
tp3319
bS'VGG'
p3320
tp3321
Rp3322
sg34
g3300
sg70
g11
(g15
S'9\x10I\x80\\A\xf0?'
p3323
tp3324
Rp3325
sg74
g11
(g12
(S'S3'
p3326
I0
I1
tp3327
Rp3328
(I3
S'|'
p3329
NNNI3
I1
I0
tp3330
bS'SVM'
p3331
tp3332
Rp3333
sg83
I3
sg84
g85
sg86
g11
(g15
S'\xe3fKN\xac\x1b\xdf?'
p3334
tp3335
Rp3336
sg90
g91
sg92
g93
sbag4
(g5
g6
Ntp3337
Rp3338
(dp3339
g10
g11
(g15
S'\x00\x00\x00\x00\x00\x00\xf8\xff'
p3340
tp3341
Rp3342
sg100
g11
(g15
S'\x00\x00\x00\x00\x00\xc0r@'
p3343
tp3344
Rp3345
sg21
g29
sg30
g31
sg32
(dp3346
g100
g3345
sg108
g11
(g15
S'\xd2.\n\xa5\xcbA\xec?'
p3347
tp3348
Rp3349
sg21
g29
ssg51
g11
(g12
(S'S3'
p3350
I0
I1
tp3351
Rp3352
(I3
S'|'
p3353
NNNI3
I1
I0
tp3354
bS'PCA'
p3355
tp3356
Rp3357
sg60
F0.2
sg61
g11
(g12
(S'S3'
p3358
I0
I1
tp3359
Rp3360
(I3
S'|'
p3361
NNNI3
I1
I0
tp3362
bS'VGG'
p3363
tp3364
Rp3365
sg70
g11
(g15
S'\x1c\xa3\xd8\xef\x82\x12\xe7?'
p3366
tp3367
Rp3368
sg74
g11
(g12
(S'S2'
p3369
I0
I1
tp3370
Rp3371
(I3
S'|'
p3372
NNNI2
I1
I0
tp3373
bS'RF'
p3374
tp3375
Rp3376
sg83
I3
sg108
g3349
sg84
g85
sg86
g11
(g15
S'\xed\x01\x94\x9f\x17\xd5\xe6?'
p3377
tp3378
Rp3379
sg90
g91
sg92
g93
sbag4
(g5
g6
Ntp3380
Rp3381
(dp3382
g10
g11
(g15
S'\x00\x00\x00\x00\x00\x00\xf8\xff'
p3383
tp3384
Rp3385
sg100
g11
(g15
S'\x00\x00\x00\x00\x00`m@'
p3386
tp3387
Rp3388
sg30
g31
sg294
g11
(g41
S'\x06\x00\x00\x00\x00\x00\x00\x00'
p3389
tp3390
Rp3391
sg32
(dp3392
g100
g3388
sg294
g3391
sg38
g11
(g41
S'\x01\x00\x00\x00\x00\x00\x00\x00'
p3393
tp3394
Rp3395
sg315
g11
(g41
S'\x02\x00\x00\x00\x00\x00\x00\x00'
p3396
tp3397
Rp3398
sg108
g11
(g15
S'RP\xef\x99p_\xee?'
p3399
tp3400
Rp3401
ssg51
g11
(g12
(S'S6'
p3402
I0
I1
tp3403
Rp3404
(I3
S'|'
p3405
NNNI6
I1
I0
tp3406
bS'ISOMAP'
p3407
tp3408
Rp3409
sg60
F0.2
sg315
g3398
sg61
g11
(g12
(S'S8'
p3410
I0
I1
tp3411
Rp3412
(I3
S'|'
p3413
NNNI8
I1
I0
tp3414
bS'haralick'
p3415
tp3416
Rp3417
sg38
g3395
sg70
g11
(g15
S'\x16eJ\xed~\xa4\xf4?'
p3418
tp3419
Rp3420
sg74
g11
(g12
(S'S2'
p3421
I0
I1
tp3422
Rp3423
(I3
S'|'
p3424
NNNI2
I1
I0
tp3425
bS'RF'
p3426
tp3427
Rp3428
sg83
I3
sg108
g3401
sg84
g85
sg86
g11
(g15
S'\x9b%\xc6\xa7L;\xe3?'
p3429
tp3430
Rp3431
sg90
g91
sg92
g93
sbag229
ag4
(g5
g6
Ntp3432
Rp3433
(dp3434
g10
g11
(g15
S'\x00\x00\x00\x00\x00\x00\xf8\xff'
p3435
tp3436
Rp3437
sg21
g106
sg30
g31
sg32
(dp3438
g21
g106
sg34
g11
(g15
S'(\xc1EEV\x8b<@'
p3439
tp3440
Rp3441
sg47
g11
(g15
S'\xa0U7\xaf\x8d]\xf2?'
p3442
tp3443
Rp3444
ssg51
g11
(g12
(S'S3'
p3445
I0
I1
tp3446
Rp3447
(I3
S'|'
p3448
NNNI3
I1
I0
tp3449
bS'PCA'
p3450
tp3451
Rp3452
sg60
F0.2
sg47
g3444
sg61
g11
(g12
(S'S3'
p3453
I0
I1
tp3454
Rp3455
(I3
S'|'
p3456
NNNI3
I1
I0
tp3457
bS'VGG'
p3458
tp3459
Rp3460
sg34
g3441
sg70
g11
(g15
S'\xdb1\x8f\x8e\xd1\x01\xed?'
p3461
tp3462
Rp3463
sg74
g11
(g12
(S'S3'
p3464
I0
I1
tp3465
Rp3466
(I3
S'|'
p3467
NNNI3
I1
I0
tp3468
bS'SVM'
p3469
tp3470
Rp3471
sg83
I3
sg84
g85
sg86
g11
(g15
S'\xa1JF9\x12\x9d\xe1?'
p3472
tp3473
Rp3474
sg90
g91
sg92
g93
sbag4
(g5
g6
Ntp3475
Rp3476
(dp3477
g10
g11
(g15
S'\x00\x00\x00\x00\x00\x00\xf8\xff'
p3478
tp3479
Rp3480
sg21
g29
sg30
g31
sg32
(dp3481
g21
g29
sg34
g11
(g15
S'\xb5\x8e\xec\x8f\xc9BD@'
p3482
tp3483
Rp3484
sg47
g11
(g15
S':\xc6\x9c\xfd"\x1c\x16@'
p3485
tp3486
Rp3487
ssg51
g11
(g12
(S'S3'
p3488
I0
I1
tp3489
Rp3490
(I3
S'|'
p3491
NNNI3
I1
I0
tp3492
bS'PCA'
p3493
tp3494
Rp3495
sg60
F0.2
sg47
g3487
sg61
g11
(g12
(S'S9'
p3496
I0
I1
tp3497
Rp3498
(I3
S'|'
p3499
NNNI9
I1
I0
tp3500
bS'inception'
p3501
tp3502
Rp3503
sg34
g3484
sg70
g11
(g15
S'\xe8/\x81l\x18w\xf0?'
p3504
tp3505
Rp3506
sg74
g11
(g12
(S'S3'
p3507
I0
I1
tp3508
Rp3509
(I3
S'|'
p3510
NNNI3
I1
I0
tp3511
bS'SVM'
p3512
tp3513
Rp3514
sg83
I3
sg84
g85
sg86
g11
(g15
S'\xcb0\xba\xab\xd5\xa8\xdf?'
p3515
tp3516
Rp3517
sg90
g91
sg92
g93
sbag4
(g5
g6
Ntp3518
Rp3519
(dp3520
g10
g11
(g15
S'\x00\x00\x00\x00\x00\x00\xf8\xff'
p3521
tp3522
Rp3523
sg294
g11
(g41
S'\x07\x00\x00\x00\x00\x00\x00\x00'
p3524
tp3525
Rp3526
sg30
g31
sg32
(dp3527
g294
g3526
sg34
g11
(g15
S'\xe8\xc3.hM\tX@'
p3528
tp3529
Rp3530
sg315
g11
(g41
S'\x04\x00\x00\x00\x00\x00\x00\x00'
p3531
tp3532
Rp3533
sg47
g11
(g15
S'D\xe5\xaa\xb1\xf9\xb7\x1e@'
p3534
tp3535
Rp3536
ssg47
g3536
sg51
g11
(g12
(S'S6'
p3537
I0
I1
tp3538
Rp3539
(I3
S'|'
p3540
NNNI6
I1
I0
tp3541
bS'ISOMAP'
p3542
tp3543
Rp3544
sg60
F0.2
sg315
g3533
sg61
g11
(g12
(S'S3'
p3545
I0
I1
tp3546
Rp3547
(I3
S'|'
p3548
NNNI3
I1
I0
tp3549
bS'VGG'
p3550
tp3551
Rp3552
sg34
g3530
sg70
g11
(g15
S'\x19U\xf0\x9cVZ\xf0?'
p3553
tp3554
Rp3555
sg74
g11
(g12
(S'S3'
p3556
I0
I1
tp3557
Rp3558
(I3
S'|'
p3559
NNNI3
I1
I0
tp3560
bS'SVM'
p3561
tp3562
Rp3563
sg83
I3
sg84
g85
sg86
g11
(g15
S'-\xbdjs\x8d\xdb\xdd?'
p3564
tp3565
Rp3566
sg90
g91
sg92
g93
sbag4
(g5
g6
Ntp3567
Rp3568
(dp3569
g10
g11
(g15
S'\x00\x00\x00\x00\x00\x00\xf8\xff'
p3570
tp3571
Rp3572
sg100
g11
(g15
S'\x00\x00\x00\x00\x00\xc0p@'
p3573
tp3574
Rp3575
sg21
g106
sg30
g31
sg32
(dp3576
g100
g3575
sg108
g11
(g15
S'\xab\xc4\x08\x89\xbb\x87\xe0?'
p3577
tp3578
Rp3579
sg21
g106
sg38
g11
(g41
S'\x02\x00\x00\x00\x00\x00\x00\x00'
p3580
tp3581
Rp3582
ssg51
g11
(g12
(S'S3'
p3583
I0
I1
tp3584
Rp3585
(I3
S'|'
p3586
NNNI3
I1
I0
tp3587
bS'PCA'
p3588
tp3589
Rp3590
sg60
F0.2
sg61
g11
(g12
(S'S8'
p3591
I0
I1
tp3592
Rp3593
(I3
S'|'
p3594
NNNI8
I1
I0
tp3595
bS'haralick'
p3596
tp3597
Rp3598
sg38
g3582
sg70
g11
(g15
S'\xfe \xd6\x82@e\xf0?'
p3599
tp3600
Rp3601
sg74
g11
(g12
(S'S2'
p3602
I0
I1
tp3603
Rp3604
(I3
S'|'
p3605
NNNI2
I1
I0
tp3606
bS'RF'
p3607
tp3608
Rp3609
sg83
I3
sg108
g3579
sg84
g85
sg86
g11
(g15
S'\xff\xef\x19\xed\xbb}\xe4?'
p3610
tp3611
Rp3612
sg90
g91
sg92
g93
sbag4
(g5
g6
Ntp3613
Rp3614
(dp3615
g10
g11
(g15
S'\x00\x00\x00\x00\x00\x00\xf8\xff'
p3616
tp3617
Rp3618
sg21
g29
sg30
g31
sg32
(dp3619
g21
g29
sg34
g11
(g15
S'\x8a\xbaW\x18Z\xcf4@'
p3620
tp3621
Rp3622
sg38
g11
(g41
S'\x03\x00\x00\x00\x00\x00\x00\x00'
p3623
tp3624
Rp3625
sg47
g11
(g15
S'\x96\x84\xc4\xcb\x93\x88\x13@'
p3626
tp3627
Rp3628
ssg51
g11
(g12
(S'S3'
p3629
I0
I1
tp3630
Rp3631
(I3
S'|'
p3632
NNNI3
I1
I0
tp3633
bS'PCA'
p3634
tp3635
Rp3636
sg60
F0.2
sg47
g3628
sg61
g11
(g12
(S'S8'
p3637
I0
I1
tp3638
Rp3639
(I3
S'|'
p3640
NNNI8
I1
I0
tp3641
bS'haralick'
p3642
tp3643
Rp3644
sg34
g3622
sg38
g3625
sg70
g11
(g15
S'\x85\xaa:\xc56}\xeb?'
p3645
tp3646
Rp3647
sg74
g11
(g12
(S'S3'
p3648
I0
I1
tp3649
Rp3650
(I3
S'|'
p3651
NNNI3
I1
I0
tp3652
bS'SVM'
p3653
tp3654
Rp3655
sg83
I3
sg84
g85
sg86
g11
(g15
S'\xffPH.\xe0\xf5\xe2?'
p3656
tp3657
Rp3658
sg90
g91
sg92
g93
sbag4
(g5
g6
Ntp3659
Rp3660
(dp3661
g10
g11
(g15
S'\x00\x00\x00\x00\x00\x00\xf8\xff'
p3662
tp3663
Rp3664
sg100
g11
(g15
S'\x00\x00\x00\x00\x00`i@'
p3665
tp3666
Rp3667
sg21
g29
sg30
g31
sg32
(dp3668
g100
g3667
sg108
g11
(g15
S'\xdas\x82\x87\xbbi\xe2?'
p3669
tp3670
Rp3671
sg21
g29
ssg51
g11
(g12
(S'S3'
p3672
I0
I1
tp3673
Rp3674
(I3
S'|'
p3675
NNNI3
I1
I0
tp3676
bS'PCA'
p3677
tp3678
Rp3679
sg60
F0.2
sg61
g11
(g12
(S'S3'
p3680
I0
I1
tp3681
Rp3682
(I3
S'|'
p3683
NNNI3
I1
I0
tp3684
bS'VGG'
p3685
tp3686
Rp3687
sg70
g11
(g15
S'\xcd;9\xd0=\x11\xe7?'
p3688
tp3689
Rp3690
sg74
g11
(g12
(S'S2'
p3691
I0
I1
tp3692
Rp3693
(I3
S'|'
p3694
NNNI2
I1
I0
tp3695
bS'RF'
p3696
tp3697
Rp3698
sg83
I3
sg108
g3671
sg84
g85
sg86
g11
(g15
S'\xb0\x81\xa1\xabtz\xe6?'
p3699
tp3700
Rp3701
sg90
g91
sg92
g93
sbag4
(g5
g6
Ntp3702
Rp3703
(dp3704
g10
g11
(g15
S'\x00\x00\x00\x00\x00\x00\xf8\xff'
p3705
tp3706
Rp3707
sg21
g29
sg30
g31
sg32
(dp3708
g21
g29
sg34
g11
(g15
S'*\xe9-\xc2v\x921@'
p3709
tp3710
Rp3711
sg47
g11
(g15
S'\x18/\xa9]\x16\x1e\x01@'
p3712
tp3713
Rp3714
ssg51
g11
(g12
(S'S3'
p3715
I0
I1
tp3716
Rp3717
(I3
S'|'
p3718
NNNI3
I1
I0
tp3719
bS'PCA'
p3720
tp3721
Rp3722
sg60
F0.2
sg47
g3714
sg61
g11
(g12
(S'S3'
p3723
I0
I1
tp3724
Rp3725
(I3
S'|'
p3726
NNNI3
I1
I0
tp3727
bS'VGG'
p3728
tp3729
Rp3730
sg34
g3711
sg70
g11
(g15
S'\x9b\xf1\xdf<\xb1\xfd\xee?'
p3731
tp3732
Rp3733
sg74
g11
(g12
(S'S3'
p3734
I0
I1
tp3735
Rp3736
(I3
S'|'
p3737
NNNI3
I1
I0
tp3738
bS'SVM'
p3739
tp3740
Rp3741
sg83
I3
sg84
g85
sg86
g11
(g15
S'<*\xf6Y\x85\x07\xde?'
p3742
tp3743
Rp3744
sg90
g91
sg92
g93
sbag4
(g5
g6
Ntp3745
Rp3746
(dp3747
g10
g11
(g15
S'\x00\x00\x00\x00\x00\x00\xf8\xff'
p3748
tp3749
Rp3750
sg21
g106
sg30
g31
sg32
(dp3751
g21
g106
sg34
g11
(g15
S'[\xea~\xf6>\xc8P@'
p3752
tp3753
Rp3754
sg47
g11
(g15
S'\xa2\xd5V\xe3g \x08@'
p3755
tp3756
Rp3757
ssg51
g11
(g12
(S'S3'
p3758
I0
I1
tp3759
Rp3760
(I3
S'|'
p3761
NNNI3
I1
I0
tp3762
bS'PCA'
p3763
tp3764
Rp3765
sg60
F0.2
sg47
g3757
sg61
g11
(g12
(S'S9'
p3766
I0
I1
tp3767
Rp3768
(I3
S'|'
p3769
NNNI9
I1
I0
tp3770
bS'inception'
p3771
tp3772
Rp3773
sg34
g3754
sg70
g11
(g15
S'\xd9\xc6\x14\x8a\xb8.\xf0?'
p3774
tp3775
Rp3776
sg74
g11
(g12
(S'S3'
p3777
I0
I1
tp3778
Rp3779
(I3
S'|'
p3780
NNNI3
I1
I0
tp3781
bS'SVM'
p3782
tp3783
Rp3784
sg83
I3
sg84
g85
sg86
g11
(g15
S'\x9cP\xc4t\xdbd\xde?'
p3785
tp3786
Rp3787
sg90
g91
sg92
g93
sbag4
(g5
g6
Ntp3788
Rp3789
(dp3790
g10
g11
(g15
S'\x00\x00\x00\x00\x00\x00\xf8\xff'
p3791
tp3792
Rp3793
sg100
g11
(g15
S'\x00\x00\x00\x00\x00\x00 @'
p3794
tp3795
Rp3796
sg30
g31
sg294
g11
(g41
S'\x05\x00\x00\x00\x00\x00\x00\x00'
p3797
tp3798
Rp3799
sg32
(dp3800
g100
g3796
sg294
g3799
sg315
g11
(g41
S'\x04\x00\x00\x00\x00\x00\x00\x00'
p3801
tp3802
Rp3803
sg108
g11
(g15
S'd?\x18\x8e\x8c\x1c\xe6?'
p3804
tp3805
Rp3806
ssg51
g11
(g12
(S'S6'
p3807
I0
I1
tp3808
Rp3809
(I3
S'|'
p3810
NNNI6
I1
I0
tp3811
bS'ISOMAP'
p3812
tp3813
Rp3814
sg60
F0.2
sg315
g3803
sg61
g11
(g12
(S'S3'
p3815
I0
I1
tp3816
Rp3817
(I3
S'|'
p3818
NNNI3
I1
I0
tp3819
bS'VGG'
p3820
tp3821
Rp3822
sg70
g11
(g15
S'u\xa3\xdb\x0f\xf2O\x0f@'
p3823
tp3824
Rp3825
sg74
g11
(g12
(S'S2'
p3826
I0
I1
tp3827
Rp3828
(I3
S'|'
p3829
NNNI2
I1
I0
tp3830
bS'RF'
p3831
tp3832
Rp3833
sg83
I3
sg108
g3806
sg84
g85
sg86
g11
(g15
S'\x11,)\xcb[\xb8\xe0?'
p3834
tp3835
Rp3836
sg90
g91
sg92
g93
sbag4
(g5
g6
Ntp3837
Rp3838
(dp3839
g10
g11
(g15
S'\x00\x00\x00\x00\x00\x00\xf8\xff'
p3840
tp3841
Rp3842
sg100
g11
(g15
S'\x00\x00\x00\x00\x00\xc0p@'
p3843
tp3844
Rp3845
sg30
g31
sg294
g11
(g41
S'\x05\x00\x00\x00\x00\x00\x00\x00'
p3846
tp3847
Rp3848
sg32
(dp3849
g100
g3845
sg294
g3848
sg315
g11
(g41
S'\x04\x00\x00\x00\x00\x00\x00\x00'
p3850
tp3851
Rp3852
sg108
g11
(g15
S'\xda8`\x8d)\xb8\xef?'
p3853
tp3854
Rp3855
ssg51
g11
(g12
(S'S6'
p3856
I0
I1
tp3857
Rp3858
(I3
S'|'
p3859
NNNI6
I1
I0
tp3860
bS'ISOMAP'
p3861
tp3862
Rp3863
sg60
F0.2
sg315
g3852
sg61
g11
(g12
(S'S9'
p3864
I0
I1
tp3865
Rp3866
(I3
S'|'
p3867
NNNI9
I1
I0
tp3868
bS'inception'
p3869
tp3870
Rp3871
sg70
g11
(g15
S'\xb8\xed\xa0]\xd2^\x01@'
p3872
tp3873
Rp3874
sg74
g11
(g12
(S'S2'
p3875
I0
I1
tp3876
Rp3877
(I3
S'|'
p3878
NNNI2
I1
I0
tp3879
bS'RF'
p3880
tp3881
Rp3882
sg83
I3
sg108
g3855
sg84
g85
sg86
g11
(g15
S'{\xddY$\xd9L\xdd?'
p3883
tp3884
Rp3885
sg90
g91
sg92
g93
sbag4
(g5
g6
Ntp3886
Rp3887
(dp3888
g10
g11
(g15
S'\x00\x00\x00\x00\x00\x00\xf8\xff'
p3889
tp3890
Rp3891
sg294
g11
(g41
S'\x06\x00\x00\x00\x00\x00\x00\x00'
p3892
tp3893
Rp3894
sg30
g31
sg32
(dp3895
g294
g3894
sg34
g11
(g15
S'\x02\xed\xf6\xc3-\x0f/@'
p3896
tp3897
Rp3898
sg315
g11
(g41
S'\x04\x00\x00\x00\x00\x00\x00\x00'
p3899
tp3900
Rp3901
sg47
g11
(g15
S'\xfe-\xfc\xe7a\xa8\xf1?'
p3902
tp3903
Rp3904
ssg47
g3904
sg51
g11
(g12
(S'S6'
p3905
I0
I1
tp3906
Rp3907
(I3
S'|'
p3908
NNNI6
I1
I0
tp3909
bS'ISOMAP'
p3910
tp3911
Rp3912
sg60
F0.2
sg315
g3901
sg61
g11
(g12
(S'S3'
p3913
I0
I1
tp3914
Rp3915
(I3
S'|'
p3916
NNNI3
I1
I0
tp3917
bS'VGG'
p3918
tp3919
Rp3920
sg34
g3898
sg70
g11
(g15
S'\xc0\xa88\x8c\x16\x0e\xef?'
p3921
tp3922
Rp3923
sg74
g11
(g12
(S'S3'
p3924
I0
I1
tp3925
Rp3926
(I3
S'|'
p3927
NNNI3
I1
I0
tp3928
bS'SVM'
p3929
tp3930
Rp3931
sg83
I3
sg84
g85
sg86
g11
(g15
S'\xf56\xfaC!\xb9\xe0?'
p3932
tp3933
Rp3934
sg90
g91
sg92
g93
sbag4
(g5
g6
Ntp3935
Rp3936
(dp3937
g10
g11
(g15
S'\x00\x00\x00\x00\x00\x00\xf8\xff'
p3938
tp3939
Rp3940
sg100
g11
(g15
S'\x00\x00\x00\x00\x00`i@'
p3941
tp3942
Rp3943
sg21
g29
sg30
g31
sg32
(dp3944
g100
g3943
sg108
g11
(g15
S'\xb22\x07\xf5\x9b?\xd3?'
p3945
tp3946
Rp3947
sg21
g29
ssg51
g11
(g12
(S'S3'
p3948
I0
I1
tp3949
Rp3950
(I3
S'|'
p3951
NNNI3
I1
I0
tp3952
bS'PCA'
p3953
tp3954
Rp3955
sg60
F0.2
sg61
g11
(g12
(S'S9'
p3956
I0
I1
tp3957
Rp3958
(I3
S'|'
p3959
NNNI9
I1
I0
tp3960
bS'inception'
p3961
tp3962
Rp3963
sg70
g11
(g15
S'M\n\xfe\x14t\x10\xf5?'
p3964
tp3965
Rp3966
sg74
g11
(g12
(S'S2'
p3967
I0
I1
tp3968
Rp3969
(I3
S'|'
p3970
NNNI2
I1
I0
tp3971
bS'RF'
p3972
tp3973
Rp3974
sg83
I3
sg108
g3947
sg84
g85
sg86
g11
(g15
S'\xc5#\x936v\x8a\xe0?'
p3975
tp3976
Rp3977
sg90
g91
sg92
g93
sbag4
(g5
g6
Ntp3978
Rp3979
(dp3980
g10
g11
(g15
S'\x00\x00\x00\x00\x00\x00\xf8\xff'
p3981
tp3982
Rp3983
sg21
g106
sg30
g31
sg32
(dp3984
g21
g106
sg34
g11
(g15
S'\x91\xa1t7\x12\x17C@'
p3985
tp3986
Rp3987
sg38
g11
(g41
S'\x01\x00\x00\x00\x00\x00\x00\x00'
p3988
tp3989
Rp3990
sg47
g11
(g15
S'm4M\x05\x17\xc3\x12@'
p3991
tp3992
Rp3993
ssg51
g11
(g12
(S'S3'
p3994
I0
I1
tp3995
Rp3996
(I3
S'|'
p3997
NNNI3
I1
I0
tp3998
bS'PCA'
p3999
tp4000
Rp4001
sg60
F0.2
sg47
g3993
sg61
g11
(g12
(S'S8'
p4002
I0
I1
tp4003
Rp4004
(I3
S'|'
p4005
NNNI8
I1
I0
tp4006
bS'haralick'
p4007
tp4008
Rp4009
sg34
g3987
sg38
g3990
sg70
g11
(g15
S'\xdc\x8a\x94\xe5\xae\x93\xee?'
p4010
tp4011
Rp4012
sg74
g11
(g12
(S'S3'
p4013
I0
I1
tp4014
Rp4015
(I3
S'|'
p4016
NNNI3
I1
I0
tp4017
bS'SVM'
p4018
tp4019
Rp4020
sg83
I3
sg84
g85
sg86
g11
(g15
S'7\xd7\xb8]L\x18\xe0?'
p4021
tp4022
Rp4023
sg90
g91
sg92
g93
sbag4
(g5
g6
Ntp4024
Rp4025
(dp4026
g10
g11
(g15
S'\x00\x00\x00\x00\x00\x00\xf8\xff'
p4027
tp4028
Rp4029
sg100
g11
(g15
S'\x00\x00\x00\x00\x00\x00D@'
p4030
tp4031
Rp4032
sg21
g106
sg30
g31
sg32
(dp4033
g100
g4032
sg108
g11
(g15
S'.6\xbf\xb5\x87:\xe5?'
p4034
tp4035
Rp4036
sg21
g106
ssg51
g11
(g12
(S'S3'
p4037
I0
I1
tp4038
Rp4039
(I3
S'|'
p4040
NNNI3
I1
I0
tp4041
bS'PCA'
p4042
tp4043
Rp4044
sg60
F0.2
sg61
g11
(g12
(S'S9'
p4045
I0
I1
tp4046
Rp4047
(I3
S'|'
p4048
NNNI9
I1
I0
tp4049
bS'inception'
p4050
tp4051
Rp4052
sg70
g11
(g15
S'\r<_\xc8\xd1\xfc\x03@'
p4053
tp4054
Rp4055
sg74
g11
(g12
(S'S2'
p4056
I0
I1
tp4057
Rp4058
(I3
S'|'
p4059
NNNI2
I1
I0
tp4060
bS'RF'
p4061
tp4062
Rp4063
sg83
I3
sg108
g4036
sg84
g85
sg86
g11
(g15
S'\xd7O\xbc\x01\xd2B\xe1?'
p4064
tp4065
Rp4066
sg90
g91
sg92
g93
sbag4
(g5
g6
Ntp4067
Rp4068
(dp4069
g10
g11
(g15
S'\x00\x00\x00\x00\x00\x00\xf8\xff'
p4070
tp4071
Rp4072
sg100
g11
(g15
S'\x00\x00\x00\x00\x00\xc0r@'
p4073
tp4074
Rp4075
sg30
g31
sg294
g11
(g41
S'\x04\x00\x00\x00\x00\x00\x00\x00'
p4076
tp4077
Rp4078
sg32
(dp4079
g100
g4075
sg294
g4078
sg315
g11
(g41
S'\x03\x00\x00\x00\x00\x00\x00\x00'
p4080
tp4081
Rp4082
sg108
g11
(g15
S'\xb4\xc3Bdd\xc1\xe2?'
p4083
tp4084
Rp4085
ssg51
g11
(g12
(S'S6'
p4086
I0
I1
tp4087
Rp4088
(I3
S'|'
p4089
NNNI6
I1
I0
tp4090
bS'ISOMAP'
p4091
tp4092
Rp4093
sg60
F0.2
sg315
g4082
sg61
g11
(g12
(S'S9'
p4094
I0
I1
tp4095
Rp4096
(I3
S'|'
p4097
NNNI9
I1
I0
tp4098
bS'inception'
p4099
tp4100
Rp4101
sg70
g11
(g15
S'\xf5;D\xe4\xd9B\xff?'
p4102
tp4103
Rp4104
sg74
g11
(g12
(S'S2'
p4105
I0
I1
tp4106
Rp4107
(I3
S'|'
p4108
NNNI2
I1
I0
tp4109
bS'RF'
p4110
tp4111
Rp4112
sg83
I3
sg108
g4085
sg84
g85
sg86
g11
(g15
S'\xad#2\x085f\xdc?'
p4113
tp4114
Rp4115
sg90
g91
sg92
g93
sbag4
(g5
g6
Ntp4116
Rp4117
(dp4118
g10
g11
(g15
S'\x00\x00\x00\x00\x00\x00\xf8\xff'
p4119
tp4120
Rp4121
sg100
g11
(g15
S'\x00\x00\x00\x00\x00`m@'
p4122
tp4123
Rp4124
sg21
g106
sg30
g31
sg32
(dp4125
g100
g4124
sg108
g11
(g15
S'B6\xde\x86\x7f\x91\xe1?'
p4126
tp4127
Rp4128
sg21
g106
ssg51
g11
(g12
(S'S3'
p4129
I0
I1
tp4130
Rp4131
(I3
S'|'
p4132
NNNI3
I1
I0
tp4133
bS'PCA'
p4134
tp4135
Rp4136
sg60
F0.2
sg61
g11
(g12
(S'S3'
p4137
I0
I1
tp4138
Rp4139
(I3
S'|'
p4140
NNNI3
I1
I0
tp4141
bS'VGG'
p4142
tp4143
Rp4144
sg70
g11
(g15
S'\xb4\xef\xb1#\x1e\xff\xe6?'
p4145
tp4146
Rp4147
sg74
g11
(g12
(S'S2'
p4148
I0
I1
tp4149
Rp4150
(I3
S'|'
p4151
NNNI2
I1
I0
tp4152
bS'RF'
p4153
tp4154
Rp4155
sg83
I3
sg108
g4128
sg84
g85
sg86
g11
(g15
S'\xdb\xd0\xb6h~\xbf\xe6?'
p4156
tp4157
Rp4158
sg90
g91
sg92
g93
sbag4
(g5
g6
Ntp4159
Rp4160
(dp4161
g10
g11
(g15
S'\x00\x00\x00\x00\x00\x00\xf8\xff'
p4162
tp4163
Rp4164
sg100
g11
(g15
S'\x00\x00\x00\x00\x00@e@'
p4165
tp4166
Rp4167
sg30
g31
sg294
g11
(g41
S'\x07\x00\x00\x00\x00\x00\x00\x00'
p4168
tp4169
Rp4170
sg32
(dp4171
g100
g4167
sg294
g4170
sg315
g11
(g41
S'\x02\x00\x00\x00\x00\x00\x00\x00'
p4172
tp4173
Rp4174
sg108
g11
(g15
S'\xaf\xf0\x949+\xb8\xd5?'
p4175
tp4176
Rp4177
ssg51
g11
(g12
(S'S6'
p4178
I0
I1
tp4179
Rp4180
(I3
S'|'
p4181
NNNI6
I1
I0
tp4182
bS'ISOMAP'
p4183
tp4184
Rp4185
sg60
F0.2
sg315
g4174
sg61
g11
(g12
(S'S3'
p4186
I0
I1
tp4187
Rp4188
(I3
S'|'
p4189
NNNI3
I1
I0
tp4190
bS'VGG'
p4191
tp4192
Rp4193
sg70
g11
(g15
S'o\t\xad\xad\x96z\xf5?'
p4194
tp4195
Rp4196
sg74
g11
(g12
(S'S2'
p4197
I0
I1
tp4198
Rp4199
(I3
S'|'
p4200
NNNI2
I1
I0
tp4201
bS'RF'
p4202
tp4203
Rp4204
sg83
I3
sg108
g4177
sg84
g85
sg86
g11
(g15
S'<\x0f\xde\x9f:`\xde?'
p4205
tp4206
Rp4207
sg90
g91
sg92
g93
sbag4
(g5
g6
Ntp4208
Rp4209
(dp4210
g10
g11
(g15
S'\x00\x00\x00\x00\x00\x00\xf8\xff'
p4211
tp4212
Rp4213
sg100
g11
(g15
S'\x00\x00\x00\x00\x00@e@'
p4214
tp4215
Rp4216
sg30
g31
sg294
g11
(g41
S'\x04\x00\x00\x00\x00\x00\x00\x00'
p4217
tp4218
Rp4219
sg32
(dp4220
g100
g4216
sg294
g4219
sg315
g11
(g41
S'\x02\x00\x00\x00\x00\x00\x00\x00'
p4221
tp4222
Rp4223
sg108
g11
(g15
S'2\x08p\xeb|<\xee?'
p4224
tp4225
Rp4226
ssg51
g11
(g12
(S'S6'
p4227
I0
I1
tp4228
Rp4229
(I3
S'|'
p4230
NNNI6
I1
I0
tp4231
bS'ISOMAP'
p4232
tp4233
Rp4234
sg60
F0.2
sg315
g4223
sg61
g11
(g12
(S'S3'
p4235
I0
I1
tp4236
Rp4237
(I3
S'|'
p4238
NNNI3
I1
I0
tp4239
bS'VGG'
p4240
tp4241
Rp4242
sg70
g11
(g15
S"\x82PZ'\x9c;\xf1?"
p4243
tp4244
Rp4245
sg74
g11
(g12
(S'S2'
p4246
I0
I1
tp4247
Rp4248
(I3
S'|'
p4249
NNNI2
I1
I0
tp4250
bS'RF'
p4251
tp4252
Rp4253
sg83
I3
sg108
g4226
sg84
g85
sg86
g11
(g15
S'\xe1\x05\x1d\r\x88\xa3\xe0?'
p4254
tp4255
Rp4256
sg90
g91
sg92
g93
sbag4
(g5
g6
Ntp4257
Rp4258
(dp4259
g10
g11
(g15
S'\x00\x00\x00\x00\x00\x00\xf8\xff'
p4260
tp4261
Rp4262
sg21
g106
sg30
g31
sg32
(dp4263
g21
g106
sg34
g11
(g15
S'1\x92\xb5lm\xc7X@'
p4264
tp4265
Rp4266
sg47
g11
(g15
S'\xc7\xf2\xda3\xc8F\x19@'
p4267
tp4268
Rp4269
ssg51
g11
(g12
(S'S3'
p4270
I0
I1
tp4271
Rp4272
(I3
S'|'
p4273
NNNI3
I1
I0
tp4274
bS'PCA'
p4275
tp4276
Rp4277
sg60
F0.2
sg47
g4269
sg61
g11
(g12
(S'S9'
p4278
I0
I1
tp4279
Rp4280
(I3
S'|'
p4281
NNNI9
I1
I0
tp4282
bS'inception'
p4283
tp4284
Rp4285
sg34
g4266
sg70
g11
(g15
S'\x1f\xf5\xfb\xc1\xa7D\xf0?'
p4286
tp4287
Rp4288
sg74
g11
(g12
(S'S3'
p4289
I0
I1
tp4290
Rp4291
(I3
S'|'
p4292
NNNI3
I1
I0
tp4293
bS'SVM'
p4294
tp4295
Rp4296
sg83
I3
sg84
g85
sg86
g11
(g15
S'\\\x9d`\xaa\x87\x1f\xdf?'
p4297
tp4298
Rp4299
sg90
g91
sg92
g93
sbag4
(g5
g6
Ntp4300
Rp4301
(dp4302
g10
g11
(g15
S'\x00\x00\x00\x00\x00\x00\xf8\xff'
p4303
tp4304
Rp4305
sg21
g106
sg30
g31
sg32
(dp4306
g21
g106
sg34
g11
(g15
S'\x10ns\xff\xc0\xa1F@'
p4307
tp4308
Rp4309
sg38
g11
(g41
S'\x02\x00\x00\x00\x00\x00\x00\x00'
p4310
tp4311
Rp4312
sg47
g11
(g15
S'\x1f\t\xdd\r#\xf3\xf9?'
p4313
tp4314
Rp4315
ssg51
g11
(g12
(S'S3'
p4316
I0
I1
tp4317
Rp4318
(I3
S'|'
p4319
NNNI3
I1
I0
tp4320
bS'PCA'
p4321
tp4322
Rp4323
sg60
F0.2
sg47
g4315
sg61
g11
(g12
(S'S8'
p4324
I0
I1
tp4325
Rp4326
(I3
S'|'
p4327
NNNI8
I1
I0
tp4328
bS'haralick'
p4329
tp4330
Rp4331
sg34
g4309
sg38
g4312
sg70
g11
(g15
S'm3\xfb\x0b?\xc0\xea?'
p4332
tp4333
Rp4334
sg74
g11
(g12
(S'S3'
p4335
I0
I1
tp4336
Rp4337
(I3
S'|'
p4338
NNNI3
I1
I0
tp4339
bS'SVM'
p4340
tp4341
Rp4342
sg83
I3
sg84
g85
sg86
g11
(g15
S'%\x80\x91\xc5a6\xe4?'
p4343
tp4344
Rp4345
sg90
g91
sg92
g93
sbag4
(g5
g6
Ntp4346
Rp4347
(dp4348
g10
g11
(g15
S'\x00\x00\x00\x00\x00\x00\xf8\xff'
p4349
tp4350
Rp4351
sg100
g11
(g15
S'\x00\x00\x00\x00\x00`m@'
p4352
tp4353
Rp4354
sg21
g29
sg30
g31
sg32
(dp4355
g100
g4354
sg108
g11
(g15
S'(\xd7M\xee\x82\x9a\xea?'
p4356
tp4357
Rp4358
sg21
g29
ssg51
g11
(g12
(S'S3'
p4359
I0
I1
tp4360
Rp4361
(I3
S'|'
p4362
NNNI3
I1
I0
tp4363
bS'PCA'
p4364
tp4365
Rp4366
sg60
F0.2
sg61
g11
(g12
(S'S9'
p4367
I0
I1
tp4368
Rp4369
(I3
S'|'
p4370
NNNI9
I1
I0
tp4371
bS'inception'
p4372
tp4373
Rp4374
sg70
g11
(g15
S'\x8c2~\t\x9f\xd2\xf5?'
p4375
tp4376
Rp4377
sg74
g11
(g12
(S'S2'
p4378
I0
I1
tp4379
Rp4380
(I3
S'|'
p4381
NNNI2
I1
I0
tp4382
bS'RF'
p4383
tp4384
Rp4385
sg83
I3
sg108
g4358
sg84
g85
sg86
g11
(g15
S'\xc7\xf5\xd5\xcb\x02\xfd\xe0?'
p4386
tp4387
Rp4388
sg90
g91
sg92
g93
sbag4
(g5
g6
Ntp4389
Rp4390
(dp4391
g10
g11
(g15
S'\x00\x00\x00\x00\x00\x00\xf8\xff'
p4392
tp4393
Rp4394
sg100
g11
(g15
S'\x00\x00\x00\x00\x00\x00 @'
p4395
tp4396
Rp4397
sg21
g106
sg30
g31
sg32
(dp4398
g100
g4397
sg108
g11
(g15
S'~xb\xa2D\xef\xdb?'
p4399
tp4400
Rp4401
sg21
g106
ssg51
g11
(g12
(S'S3'
p4402
I0
I1
tp4403
Rp4404
(I3
S'|'
p4405
NNNI3
I1
I0
tp4406
bS'PCA'
p4407
tp4408
Rp4409
sg60
F0.2
sg61
g11
(g12
(S'S3'
p4410
I0
I1
tp4411
Rp4412
(I3
S'|'
p4413
NNNI3
I1
I0
tp4414
bS'VGG'
p4415
tp4416
Rp4417
sg70
g11
(g15
S'$yq~\xb5\x1b\xf6?'
p4418
tp4419
Rp4420
sg74
g11
(g12
(S'S2'
p4421
I0
I1
tp4422
Rp4423
(I3
S'|'
p4424
NNNI2
I1
I0
tp4425
bS'RF'
p4426
tp4427
Rp4428
sg83
I3
sg108
g4401
sg84
g85
sg86
g11
(g15
S'I\x13\xc8;\xecR\xe4?'
p4429
tp4430
Rp4431
sg90
g91
sg92
g93
sbag4
(g5
g6
Ntp4432
Rp4433
(dp4434
g10
g11
(g15
S'\x00\x00\x00\x00\x00\x00\xf8\xff'
p4435
tp4436
Rp4437
sg100
g11
(g15
S'\x00\x00\x00\x00\x00@e@'
p4438
tp4439
Rp4440
sg21
g29
sg30
g31
sg32
(dp4441
g100
g4440
sg108
g11
(g15
S'\x1f+\xe5\x8c\xee\xf9\xd6?'
p4442
tp4443
Rp4444
sg21
g29
ssg51
g11
(g12
(S'S3'
p4445
I0
I1
tp4446
Rp4447
(I3
S'|'
p4448
NNNI3
I1
I0
tp4449
bS'PCA'
p4450
tp4451
Rp4452
sg60
F0.2
sg61
g11
(g12
(S'S9'
p4453
I0
I1
tp4454
Rp4455
(I3
S'|'
p4456
NNNI9
I1
I0
tp4457
bS'inception'
p4458
tp4459
Rp4460
sg70
g11
(g15
S'|~\xfc\xe3\xae\xba\xf6?'
p4461
tp4462
Rp4463
sg74
g11
(g12
(S'S2'
p4464
I0
I1
tp4465
Rp4466
(I3
S'|'
p4467
NNNI2
I1
I0
tp4468
bS'RF'
p4469
tp4470
Rp4471
sg83
I3
sg108
g4444
sg84
g85
sg86
g11
(g15
S'\nh\xd7z\xba\xce\xe0?'
p4472
tp4473
Rp4474
sg90
g91
sg92
g93
sbag4
(g5
g6
Ntp4475
Rp4476
(dp4477
g10
g11
(g15
S'\x00\x00\x00\x00\x00\x00\xf8\xff'
p4478
tp4479
Rp4480
sg21
g106
sg30
g31
sg32
(dp4481
g21
g106
sg34
g11
(g15
S'\xa6\x9a7%\x87\x1eT@'
p4482
tp4483
Rp4484
sg47
g11
(g15
S'\xa4)a\xa3P_\x19@'
p4485
tp4486
Rp4487
ssg51
g11
(g12
(S'S3'
p4488
I0
I1
tp4489
Rp4490
(I3
S'|'
p4491
NNNI3
I1
I0
tp4492
bS'PCA'
p4493
tp4494
Rp4495
sg60
F0.2
sg47
g4487
sg61
g11
(g12
(S'S3'
p4496
I0
I1
tp4497
Rp4498
(I3
S'|'
p4499
NNNI3
I1
I0
tp4500
bS'VGG'
p4501
tp4502
Rp4503
sg34
g4484
sg70
g11
(g15
S'\xa5\xa0\xbd\xe8\xe0\x95\xf0?'
p4504
tp4505
Rp4506
sg74
g11
(g12
(S'S3'
p4507
I0
I1
tp4508
Rp4509
(I3
S'|'
p4510
NNNI3
I1
I0
tp4511
bS'SVM'
p4512
tp4513
Rp4514
sg83
I3
sg84
g85
sg86
g11
(g15
S'\xcb\xd7\xfes\xd3\xf1\xdc?'
p4515
tp4516
Rp4517
sg90
g91
sg92
g93
sbag4
(g5
g6
Ntp4518
Rp4519
(dp4520
g10
g11
(g15
S'\x00\x00\x00\x00\x00\x00\xf8\xff'
p4521
tp4522
Rp4523
sg21
g106
sg30
g31
sg32
(dp4524
g21
g106
sg34
g11
(g15
S'f\xd4\xf9\xd7p\x809@'
p4525
tp4526
Rp4527
sg38
g11
(g41
S'\x02\x00\x00\x00\x00\x00\x00\x00'
p4528
tp4529
Rp4530
sg47
g11
(g15
S'\xfe\x18\x05\xc5\xa4\xa6\x01@'
p4531
tp4532
Rp4533
ssg51
g11
(g12
(S'S3'
p4534
I0
I1
tp4535
Rp4536
(I3
S'|'
p4537
NNNI3
I1
I0
tp4538
bS'PCA'
p4539
tp4540
Rp4541
sg60
F0.2
sg47
g4533
sg61
g11
(g12
(S'S8'
p4542
I0
I1
tp4543
Rp4544
(I3
S'|'
p4545
NNNI8
I1
I0
tp4546
bS'haralick'
p4547
tp4548
Rp4549
sg34
g4527
sg38
g4530
sg70
g11
(g15
S'\xc5\xfc\x01G\xc4\xaf\xea?'
p4550
tp4551
Rp4552
sg74
g11
(g12
(S'S3'
p4553
I0
I1
tp4554
Rp4555
(I3
S'|'
p4556
NNNI3
I1
I0
tp4557
bS'SVM'
p4558
tp4559
Rp4560
sg83
I3
sg84
g85
sg86
g11
(g15
S'\xd7rG\xc5>\xab\xe4?'
p4561
tp4562
Rp4563
sg90
g91
sg92
g93
sbag4
(g5
g6
Ntp4564
Rp4565
(dp4566
g10
g11
(g15
S'\x00\x00\x00\x00\x00\x00\xf8\xff'
p4567
tp4568
Rp4569
sg100
g11
(g15
S'\x00\x00\x00\x00\x00`m@'
p4570
tp4571
Rp4572
sg30
g31
sg294
g11
(g41
S'\x03\x00\x00\x00\x00\x00\x00\x00'
p4573
tp4574
Rp4575
sg32
(dp4576
g100
g4572
sg294
g4575
sg315
g11
(g41
S'\x02\x00\x00\x00\x00\x00\x00\x00'
p4577
tp4578
Rp4579
sg108
g11
(g15
S't\xfbtn)p\xed?'
p4580
tp4581
Rp4582
ssg51
g11
(g12
(S'S6'
p4583
I0
I1
tp4584
Rp4585
(I3
S'|'
p4586
NNNI6
I1
I0
tp4587
bS'ISOMAP'
p4588
tp4589
Rp4590
sg60
F0.2
sg315
g4579
sg61
g11
(g12
(S'S3'
p4591
I0
I1
tp4592
Rp4593
(I3
S'|'
p4594
NNNI3
I1
I0
tp4595
bS'VGG'
p4596
tp4597
Rp4598
sg70
g11
(g15
S'@@\xe3\x87VF\xf8?'
p4599
tp4600
Rp4601
sg74
g11
(g12
(S'S2'
p4602
I0
I1
tp4603
Rp4604
(I3
S'|'
p4605
NNNI2
I1
I0
tp4606
bS'RF'
p4607
tp4608
Rp4609
sg83
I3
sg108
g4582
sg84
g85
sg86
g11
(g15
S'\xa6Wm\xaeq\xbb\xe0?'
p4610
tp4611
Rp4612
sg90
g91
sg92
g93
sbag4
(g5
g6
Ntp4613
Rp4614
(dp4615
g10
g11
(g15
S'\x00\x00\x00\x00\x00\x00\xf8\xff'
p4616
tp4617
Rp4618
sg100
g11
(g15
S'\x00\x00\x00\x00\x00\x00D@'
p4619
tp4620
Rp4621
sg30
g31
sg294
g11
(g41
S'\x05\x00\x00\x00\x00\x00\x00\x00'
p4622
tp4623
Rp4624
sg32
(dp4625
g100
g4621
sg294
g4624
sg315
g11
(g41
S'\x04\x00\x00\x00\x00\x00\x00\x00'
p4626
tp4627
Rp4628
sg108
g11
(g15
S"<?\xbe'w\xef\xdb?"
p4629
tp4630
Rp4631
ssg51
g11
(g12
(S'S6'
p4632
I0
I1
tp4633
Rp4634
(I3
S'|'
p4635
NNNI6
I1
I0
tp4636
bS'ISOMAP'
p4637
tp4638
Rp4639
sg60
F0.2
sg315
g4628
sg61
g11
(g12
(S'S3'
p4640
I0
I1
tp4641
Rp4642
(I3
S'|'
p4643
NNNI3
I1
I0
tp4644
bS'VGG'
p4645
tp4646
Rp4647
sg70
g11
(g15
S'\x93\xa9\x80\xcf\xc8_\xf2?'
p4648
tp4649
Rp4650
sg74
g11
(g12
(S'S2'
p4651
I0
I1
tp4652
Rp4653
(I3
S'|'
p4654
NNNI2
I1
I0
tp4655
bS'RF'
p4656
tp4657
Rp4658
sg83
I3
sg108
g4631
sg84
g85
sg86
g11
(g15
S'b\xf8\x10\xb0\xe2\xcf\xe0?'
p4659
tp4660
Rp4661
sg90
g91
sg92
g93
sbag4
(g5
g6
Ntp4662
Rp4663
(dp4664
g10
g11
(g15
S'\x00\x00\x00\x00\x00\x00\xf8\xff'
p4665
tp4666
Rp4667
sg21
g106
sg30
g31
sg32
(dp4668
g21
g106
sg34
g11
(g15
S'\xa6H\xa1\x11\x03\xd3,@'
p4669
tp4670
Rp4671
sg47
g11
(g15
S'\x10\x0cg~\xf1\xeb\x1b@'
p4672
tp4673
Rp4674
ssg51
g11
(g12
(S'S3'
p4675
I0
I1
tp4676
Rp4677
(I3
S'|'
p4678
NNNI3
I1
I0
tp4679
bS'PCA'
p4680
tp4681
Rp4682
sg60
F0.2
sg47
g4674
sg61
g11
(g12
(S'S9'
p4683
I0
I1
tp4684
Rp4685
(I3
S'|'
p4686
NNNI9
I1
I0
tp4687
bS'inception'
p4688
tp4689
Rp4690
sg34
g4671
sg70
g11
(g15
S'\xd9\x1d"\xfd\xb49\xf0?'
p4691
tp4692
Rp4693
sg74
g11
(g12
(S'S3'
p4694
I0
I1
tp4695
Rp4696
(I3
S'|'
p4697
NNNI3
I1
I0
tp4698
bS'SVM'
p4699
tp4700
Rp4701
sg83
I3
sg84
g85
sg86
g11
(g15
S'X\x9095(\x01\xe0?'
p4702
tp4703
Rp4704
sg90
g91
sg92
g93
sbag4
(g5
g6
Ntp4705
Rp4706
(dp4707
g10
g11
(g15
S'\x00\x00\x00\x00\x00\x00\xf8\xff'
p4708
tp4709
Rp4710
sg100
g11
(g15
S'\x00\x00\x00\x00\x00\x00 @'
p4711
tp4712
Rp4713
sg30
g31
sg294
g11
(g41
S'\x04\x00\x00\x00\x00\x00\x00\x00'
p4714
tp4715
Rp4716
sg32
(dp4717
g100
g4713
sg294
g4716
sg38
g11
(g41
S'\x01\x00\x00\x00\x00\x00\x00\x00'
p4718
tp4719
Rp4720
sg315
g11
(g41
S'\x03\x00\x00\x00\x00\x00\x00\x00'
p4721
tp4722
Rp4723
sg108
g11
(g15
S"\xa0'\xf1hSd\xe2?"
p4724
tp4725
Rp4726
ssg51
g11
(g12
(S'S6'
p4727
I0
I1
tp4728
Rp4729
(I3
S'|'
p4730
NNNI6
I1
I0
tp4731
bS'ISOMAP'
p4732
tp4733
Rp4734
sg60
F0.2
sg315
g4723
sg61
g11
(g12
(S'S8'
p4735
I0
I1
tp4736
Rp4737
(I3
S'|'
p4738
NNNI8
I1
I0
tp4739
bS'haralick'
p4740
tp4741
Rp4742
sg38
g4720
sg70
g11
(g15
S'\xe5l{!@b\x11@'
p4743
tp4744
Rp4745
sg74
g11
(g12
(S'S2'
p4746
I0
I1
tp4747
Rp4748
(I3
S'|'
p4749
NNNI2
I1
I0
tp4750
bS'RF'
p4751
tp4752
Rp4753
sg83
I3
sg108
g4726
sg84
g85
sg86
g11
(g15
S'\r\xab.d\xaf;\xe3?'
p4754
tp4755
Rp4756
sg90
g91
sg92
g93
sbag4
(g5
g6
Ntp4757
Rp4758
(dp4759
g10
g11
(g15
S'\x00\x00\x00\x00\x00\x00\xf8\xff'
p4760
tp4761
Rp4762
sg21
g106
sg30
g31
sg32
(dp4763
g21
g106
sg34
g11
(g15
S'\tF!n\xbcV5@'
p4764
tp4765
Rp4766
sg38
g11
(g41
S'\x03\x00\x00\x00\x00\x00\x00\x00'
p4767
tp4768
Rp4769
sg47
g11
(g15
S'\x1e\xa6\xc9B\x16\xe6\x10@'
p4770
tp4771
Rp4772
ssg51
g11
(g12
(S'S3'
p4773
I0
I1
tp4774
Rp4775
(I3
S'|'
p4776
NNNI3
I1
I0
tp4777
bS'PCA'
p4778
tp4779
Rp4780
sg60
F0.2
sg47
g4772
sg61
g11
(g12
(S'S8'
p4781
I0
I1
tp4782
Rp4783
(I3
S'|'
p4784
NNNI8
I1
I0
tp4785
bS'haralick'
p4786
tp4787
Rp4788
sg34
g4766
sg38
g4769
sg70
g11
(g15
S'\xb7\x16-\xd2E\xef\xea?'
p4789
tp4790
Rp4791
sg74
g11
(g12
(S'S3'
p4792
I0
I1
tp4793
Rp4794
(I3
S'|'
p4795
NNNI3
I1
I0
tp4796
bS'SVM'
p4797
tp4798
Rp4799
sg83
I3
sg84
g85
sg86
g11
(g15
S'\xffPH.\xe0\xf5\xe2?'
p4800
tp4801
Rp4802
sg90
g91
sg92
g93
sbag4
(g5
g6
Ntp4803
Rp4804
(dp4805
g10
g11
(g15
S'\x00\x00\x00\x00\x00\x00\xf8\xff'
p4806
tp4807
Rp4808
sg294
g11
(g41
S'\x04\x00\x00\x00\x00\x00\x00\x00'
p4809
tp4810
Rp4811
sg30
g31
sg32
(dp4812
g294
g4811
sg34
g11
(g15
S'\xc3\x02\xf1p\xf1DA@'
p4813
tp4814
Rp4815
sg38
g11
(g41
S'\x01\x00\x00\x00\x00\x00\x00\x00'
p4816
tp4817
Rp4818
sg315
g11
(g41
S'\x02\x00\x00\x00\x00\x00\x00\x00'
p4819
tp4820
Rp4821
sg47
g11
(g15
S'\xa4\xed\xacT\xc8@\x15@'
p4822
tp4823
Rp4824
ssg47
g4824
sg51
g11
(g12
(S'S6'
p4825
I0
I1
tp4826
Rp4827
(I3
S'|'
p4828
NNNI6
I1
I0
tp4829
bS'ISOMAP'
p4830
tp4831
Rp4832
sg60
F0.2
sg315
g4821
sg61
g11
(g12
(S'S8'
p4833
I0
I1
tp4834
Rp4835
(I3
S'|'
p4836
NNNI8
I1
I0
tp4837
bS'haralick'
p4838
tp4839
Rp4840
sg34
g4815
sg38
g4818
sg70
g11
(g15
S'i\xedc,\xfbf\xed?'
p4841
tp4842
Rp4843
sg74
g11
(g12
(S'S3'
p4844
I0
I1
tp4845
Rp4846
(I3
S'|'
p4847
NNNI3
I1
I0
tp4848
bS'SVM'
p4849
tp4850
Rp4851
sg83
I3
sg84
g85
sg86
g11
(g15
S'\xd5\x013q\xd6\xb0\xe2?'
p4852
tp4853
Rp4854
sg90
g91
sg92
g93
sbag4
(g5
g6
Ntp4855
Rp4856
(dp4857
g10
g11
(g15
S'\x00\x00\x00\x00\x00\x00\xf8\xff'
p4858
tp4859
Rp4860
sg21
g106
sg30
g31
sg32
(dp4861
g21
g106
sg34
g11
(g15
S'\x90\xf4\xc0\xea\xe4\xf8U@'
p4862
tp4863
Rp4864
sg47
g11
(g15
S'^\x1e\xb0\xbd\xed\x08\x0f@'
p4865
tp4866
Rp4867
ssg51
g11
(g12
(S'S3'
p4868
I0
I1
tp4869
Rp4870
(I3
S'|'
p4871
NNNI3
I1
I0
tp4872
bS'PCA'
p4873
tp4874
Rp4875
sg60
F0.2
sg47
g4867
sg61
g11
(g12
(S'S3'
p4876
I0
I1
tp4877
Rp4878
(I3
S'|'
p4879
NNNI3
I1
I0
tp4880
bS'VGG'
p4881
tp4882
Rp4883
sg34
g4864
sg70
g11
(g15
S'\xcc\x0e:\x1b`V\xf0?'
p4884
tp4885
Rp4886
sg74
g11
(g12
(S'S3'
p4887
I0
I1
tp4888
Rp4889
(I3
S'|'
p4890
NNNI3
I1
I0
tp4891
bS'SVM'
p4892
tp4893
Rp4894
sg83
I3
sg84
g85
sg86
g11
(g15
S'\xe5\xcc-\xfb\r\xf1\xdc?'
p4895
tp4896
Rp4897
sg90
g91
sg92
g93
sbag4
(g5
g6
Ntp4898
Rp4899
(dp4900
g10
g11
(g15
S'\x00\x00\x00\x00\x00\x00\xf8\xff'
p4901
tp4902
Rp4903
sg100
g11
(g15
S'\x00\x00\x00\x00\x00\xc0p@'
p4904
tp4905
Rp4906
sg30
g31
sg294
g11
(g41
S'\x07\x00\x00\x00\x00\x00\x00\x00'
p4907
tp4908
Rp4909
sg32
(dp4910
g100
g4906
sg294
g4909
sg315
g11
(g41
S'\x02\x00\x00\x00\x00\x00\x00\x00'
p4911
tp4912
Rp4913
sg108
g11
(g15
S'S\x9f5\xebl\xd8\xdc?'
p4914
tp4915
Rp4916
ssg51
g11
(g12
(S'S6'
p4917
I0
I1
tp4918
Rp4919
(I3
S'|'
p4920
NNNI6
I1
I0
tp4921
bS'ISOMAP'
p4922
tp4923
Rp4924
sg60
F0.2
sg315
g4913
sg61
g11
(g12
(S'S9'
p4925
I0
I1
tp4926
Rp4927
(I3
S'|'
p4928
NNNI9
I1
I0
tp4929
bS'inception'
p4930
tp4931
Rp4932
sg70
g11
(g15
S'\x9d\x9eB\x1b\x18*\xfb?'
p4933
tp4934
Rp4935
sg74
g11
(g12
(S'S2'
p4936
I0
I1
tp4937
Rp4938
(I3
S'|'
p4939
NNNI2
I1
I0
tp4940
bS'RF'
p4941
tp4942
Rp4943
sg83
I3
sg108
g4916
sg84
g85
sg86
g11
(g15
S"(}\xd2'}\xd2\xdf?"
p4944
tp4945
Rp4946
sg90
g91
sg92
g93
sbag4
(g5
g6
Ntp4947
Rp4948
(dp4949
g10
g11
(g15
S'\x00\x00\x00\x00\x00\x00\xf8\xff'
p4950
tp4951
Rp4952
sg294
g11
(g41
S'\x05\x00\x00\x00\x00\x00\x00\x00'
p4953
tp4954
Rp4955
sg30
g31
sg32
(dp4956
g294
g4955
sg34
g11
(g15
S'\x03\xa1`\x9a?M@@'
p4957
tp4958
Rp4959
sg315
g11
(g41
S'\x04\x00\x00\x00\x00\x00\x00\x00'
p4960
tp4961
Rp4962
sg47
g11
(g15
S'\xb0YP\xa7\xa6\r\xf1?'
p4963
tp4964
Rp4965
ssg47
g4965
sg51
g11
(g12
(S'S6'
p4966
I0
I1
tp4967
Rp4968
(I3
S'|'
p4969
NNNI6
I1
I0
tp4970
bS'ISOMAP'
p4971
tp4972
Rp4973
sg60
F0.2
sg315
g4962
sg61
g11
(g12
(S'S9'
p4974
I0
I1
tp4975
Rp4976
(I3
S'|'
p4977
NNNI9
I1
I0
tp4978
bS'inception'
p4979
tp4980
Rp4981
sg34
g4959
sg70
g11
(g15
S'\\\x9f6N\xb2_\xf0?'
p4982
tp4983
Rp4984
sg74
g11
(g12
(S'S3'
p4985
I0
I1
tp4986
Rp4987
(I3
S'|'
p4988
NNNI3
I1
I0
tp4989
bS'SVM'
p4990
tp4991
Rp4992
sg83
I3
sg84
g85
sg86
g11
(g15
S'\x0c\xa3\xbbZ\x8dz\xdf?'
p4993
tp4994
Rp4995
sg90
g91
sg92
g93
sbag4
(g5
g6
Ntp4996
Rp4997
(dp4998
g10
g11
(g15
S'\x00\x00\x00\x00\x00\x00\xf8\xff'
p4999
tp5000
Rp5001
sg294
g11
(g41
S'\x03\x00\x00\x00\x00\x00\x00\x00'
p5002
tp5003
Rp5004
sg30
g31
sg32
(dp5005
g294
g5004
sg34
g11
(g15
S'\xb4\xa6[Y\xe4\x98R@'
p5006
tp5007
Rp5008
sg315
g11
(g41
S'\x03\x00\x00\x00\x00\x00\x00\x00'
p5009
tp5010
Rp5011
sg47
g11
(g15
S'q\xab\x86\xad\xdc\x84\x15@'
p5012
tp5013
Rp5014
ssg47
g5014
sg51
g11
(g12
(S'S6'
p5015
I0
I1
tp5016
Rp5017
(I3
S'|'
p5018
NNNI6
I1
I0
tp5019
bS'ISOMAP'
p5020
tp5021
Rp5022
sg60
F0.2
sg315
g5011
sg61
g11
(g12
(S'S9'
p5023
I0
I1
tp5024
Rp5025
(I3
S'|'
p5026
NNNI9
I1
I0
tp5027
bS'inception'
p5028
tp5029
Rp5030
sg34
g5008
sg70
g11
(g15
S'\x87\xb17j\xcfm\xf0?'
p5031
tp5032
Rp5033
sg74
g11
(g12
(S'S3'
p5034
I0
I1
tp5035
Rp5036
(I3
S'|'
p5037
NNNI3
I1
I0
tp5038
bS'SVM'
p5039
tp5040
Rp5041
sg83
I3
sg84
g85
sg86
g11
(g15
S'\xe5\n\xd1x\xc5\x00\xe0?'
p5042
tp5043
Rp5044
sg90
g91
sg92
g93
sbag4
(g5
g6
Ntp5045
Rp5046
(dp5047
g10
g11
(g15
S'\x00\x00\x00\x00\x00\x00\xf8\xff'
p5048
tp5049
Rp5050
sg21
g106
sg30
g31
sg32
(dp5051
g21
g106
sg34
g11
(g15
S'\x9e@\x03\x8a*kJ@'
p5052
tp5053
Rp5054
sg38
g11
(g41
S'\x01\x00\x00\x00\x00\x00\x00\x00'
p5055
tp5056
Rp5057
sg47
g11
(g15
S'\x1d\xea\xcfS\xe6\x90\r@'
p5058
tp5059
Rp5060
ssg51
g11
(g12
(S'S3'
p5061
I0
I1
tp5062
Rp5063
(I3
S'|'
p5064
NNNI3
I1
I0
tp5065
bS'PCA'
p5066
tp5067
Rp5068
sg60
F0.2
sg47
g5060
sg61
g11
(g12
(S'S8'
p5069
I0
I1
tp5070
Rp5071
(I3
S'|'
p5072
NNNI8
I1
I0
tp5073
bS'haralick'
p5074
tp5075
Rp5076
sg34
g5054
sg38
g5057
sg70
g11
(g15
S'\xe4\xf7\xec\x0eBa\xee?'
p5077
tp5078
Rp5079
sg74
g11
(g12
(S'S3'
p5080
I0
I1
tp5081
Rp5082
(I3
S'|'
p5083
NNNI3
I1
I0
tp5084
bS'SVM'
p5085
tp5086
Rp5087
sg83
I3
sg84
g85
sg86
g11
(g15
S'\x81\xdfN\xf21F\xe0?'
p5088
tp5089
Rp5090
sg90
g91
sg92
g93
sbag4
(g5
g6
Ntp5091
Rp5092
(dp5093
g10
g11
(g15
S'\x00\x00\x00\x00\x00\x00\xf8\xff'
p5094
tp5095
Rp5096
sg21
g29
sg30
g31
sg32
(dp5097
g21
g29
sg34
g11
(g15
S'\x1c\xc2\xd6\x94\x81h=@'
p5098
tp5099
Rp5100
sg47
g11
(g15
S"\xd3\xf8'\x1e\xb1\xe8\x15@"
p5101
tp5102
Rp5103
ssg51
g11
(g12
(S'S3'
p5104
I0
I1
tp5105
Rp5106
(I3
S'|'
p5107
NNNI3
I1
I0
tp5108
bS'PCA'
p5109
tp5110
Rp5111
sg60
F0.2
sg47
g5103
sg61
g11
(g12
(S'S9'
p5112
I0
I1
tp5113
Rp5114
(I3
S'|'
p5115
NNNI9
I1
I0
tp5116
bS'inception'
p5117
tp5118
Rp5119
sg34
g5100
sg70
g11
(g15
S'8\x98saQ$\xf0?'
p5120
tp5121
Rp5122
sg74
g11
(g12
(S'S3'
p5123
I0
I1
tp5124
Rp5125
(I3
S'|'
p5126
NNNI3
I1
I0
tp5127
bS'SVM'
p5128
tp5129
Rp5130
sg83
I3
sg84
g85
sg86
g11
(g15
S'\x81\xdfN\xf21F\xe0?'
p5131
tp5132
Rp5133
sg90
g91
sg92
g93
sbag4
(g5
g6
Ntp5134
Rp5135
(dp5136
g10
g11
(g15
S'\x00\x00\x00\x00\x00\x00\xf8\xff'
p5137
tp5138
Rp5139
sg100
g11
(g15
S'\x00\x00\x00\x00\x00`m@'
p5140
tp5141
Rp5142
sg21
g106
sg30
g31
sg32
(dp5143
g100
g5142
sg108
g11
(g15
S'\xc2\xe7+Ys\x0b\xe8?'
p5144
tp5145
Rp5146
sg21
g106
ssg51
g11
(g12
(S'S3'
p5147
I0
I1
tp5148
Rp5149
(I3
S'|'
p5150
NNNI3
I1
I0
tp5151
bS'PCA'
p5152
tp5153
Rp5154
sg60
F0.2
sg61
g11
(g12
(S'S9'
p5155
I0
I1
tp5156
Rp5157
(I3
S'|'
p5158
NNNI9
I1
I0
tp5159
bS'inception'
p5160
tp5161
Rp5162
sg70
g11
(g15
S' T\xb7\x88\x0b;\xf7?'
p5163
tp5164
Rp5165
sg74
g11
(g12
(S'S2'
p5166
I0
I1
tp5167
Rp5168
(I3
S'|'
p5169
NNNI2
I1
I0
tp5170
bS'RF'
p5171
tp5172
Rp5173
sg83
I3
sg108
g5146
sg84
g85
sg86
g11
(g15
S'\xbf_A\xe6\xd4\xa0\xe0?'
p5174
tp5175
Rp5176
sg90
g91
sg92
g93
sbag4
(g5
g6
Ntp5177
Rp5178
(dp5179
g10
g11
(g15
S'\x00\x00\x00\x00\x00\x00\xf8\xff'
p5180
tp5181
Rp5182
sg294
g11
(g41
S'\x04\x00\x00\x00\x00\x00\x00\x00'
p5183
tp5184
Rp5185
sg30
g31
sg32
(dp5186
g294
g5185
sg34
g11
(g15
S'\xe5{\xc7U\xc8\x885@'
p5187
tp5188
Rp5189
sg315
g11
(g41
S'\x02\x00\x00\x00\x00\x00\x00\x00'
p5190
tp5191
Rp5192
sg47
g11
(g15
S'5!\x0c\xab\xdd\xc4\xf1?'
p5193
tp5194
Rp5195
ssg47
g5195
sg51
g11
(g12
(S'S6'
p5196
I0
I1
tp5197
Rp5198
(I3
S'|'
p5199
NNNI6
I1
I0
tp5200
bS'ISOMAP'
p5201
tp5202
Rp5203
sg60
F0.2
sg315
g5192
sg61
g11
(g12
(S'S9'
p5204
I0
I1
tp5205
Rp5206
(I3
S'|'
p5207
NNNI9
I1
I0
tp5208
bS'inception'
p5209
tp5210
Rp5211
sg34
g5189
sg70
g11
(g15
S'\xdfx\xb4?\xa2c\xf0?'
p5212
tp5213
Rp5214
sg74
g11
(g12
(S'S3'
p5215
I0
I1
tp5216
Rp5217
(I3
S'|'
p5218
NNNI3
I1
I0
tp5219
bS'SVM'
p5220
tp5221
Rp5222
sg83
I3
sg84
g85
sg86
g11
(g15
S't\xd3\xf1L^\x92\xde?'
p5223
tp5224
Rp5225
sg90
g91
sg92
g93
sbag4
(g5
g6
Ntp5226
Rp5227
(dp5228
g10
g11
(g15
S'\x00\x00\x00\x00\x00\x00\xf8\xff'
p5229
tp5230
Rp5231
sg100
g11
(g15
S'\x00\x00\x00\x00\x00\x00D@'
p5232
tp5233
Rp5234
sg21
g29
sg30
g31
sg32
(dp5235
g100
g5234
sg108
g11
(g15
S'\xee\x88\xbf\xc7]-\xee?'
p5236
tp5237
Rp5238
sg21
g29
ssg51
g11
(g12
(S'S3'
p5239
I0
I1
tp5240
Rp5241
(I3
S'|'
p5242
NNNI3
I1
I0
tp5243
bS'PCA'
p5244
tp5245
Rp5246
sg60
F0.2
sg61
g11
(g12
(S'S3'
p5247
I0
I1
tp5248
Rp5249
(I3
S'|'
p5250
NNNI3
I1
I0
tp5251
bS'VGG'
p5252
tp5253
Rp5254
sg70
g11
(g15
S'P\xf7\x90H\x00\xd3\xe6?'
p5255
tp5256
Rp5257
sg74
g11
(g12
(S'S2'
p5258
I0
I1
tp5259
Rp5260
(I3
S'|'
p5261
NNNI2
I1
I0
tp5262
bS'RF'
p5263
tp5264
Rp5265
sg83
I3
sg108
g5238
sg84
g85
sg86
g11
(g15
S'\xccH\x13\xc8;\xec\xe6?'
p5266
tp5267
Rp5268
sg90
g91
sg92
g93
sbag4
(g5
g6
Ntp5269
Rp5270
(dp5271
g10
g11
(g15
S'\x00\x00\x00\x00\x00\x00\xf8\xff'
p5272
tp5273
Rp5274
sg294
g11
(g41
S'\x04\x00\x00\x00\x00\x00\x00\x00'
p5275
tp5276
Rp5277
sg30
g31
sg32
(dp5278
g294
g5277
sg34
g11
(g15
S'\xd8!\xeb(\xe6\x04\x07@'
p5279
tp5280
Rp5281
sg315
g11
(g41
S'\x03\x00\x00\x00\x00\x00\x00\x00'
p5282
tp5283
Rp5284
sg47
g11
(g15
S'\xc5}\x1a<t\x1c\x19@'
p5285
tp5286
Rp5287
ssg47
g5287
sg51
g11
(g12
(S'S6'
p5288
I0
I1
tp5289
Rp5290
(I3
S'|'
p5291
NNNI6
I1
I0
tp5292
bS'ISOMAP'
p5293
tp5294
Rp5295
sg60
F0.2
sg315
g5284
sg61
g11
(g12
(S'S3'
p5296
I0
I1
tp5297
Rp5298
(I3
S'|'
p5299
NNNI3
I1
I0
tp5300
bS'VGG'
p5301
tp5302
Rp5303
sg34
g5281
sg70
g11
(g15
S'\x8b\xf0\xf4O\x88}\xee?'
p5304
tp5305
Rp5306
sg74
g11
(g12
(S'S3'
p5307
I0
I1
tp5308
Rp5309
(I3
S'|'
p5310
NNNI3
I1
I0
tp5311
bS'SVM'
p5312
tp5313
Rp5314
sg83
I3
sg84
g85
sg86
g11
(g15
S'\xd8!\xff\x96^\xb5\xe1?'
p5315
tp5316
Rp5317
sg90
g91
sg92
g93
sbag4
(g5
g6
Ntp5318
Rp5319
(dp5320
g10
g11
(g15
S'\x00\x00\x00\x00\x00\x00\xf8\xff'
p5321
tp5322
Rp5323
sg294
g11
(g41
S'\x06\x00\x00\x00\x00\x00\x00\x00'
p5324
tp5325
Rp5326
sg30
g31
sg32
(dp5327
g294
g5326
sg34
g11
(g15
S'o\xbe\x03k\xf4\xbcI@'
p5328
tp5329
Rp5330
sg315
g11
(g41
S'\x04\x00\x00\x00\x00\x00\x00\x00'
p5331
tp5332
Rp5333
sg47
g11
(g15
S'\xb73\xe1\xdc\xc7\xc3\r@'
p5334
tp5335
Rp5336
ssg47
g5336
sg51
g11
(g12
(S'S6'
p5337
I0
I1
tp5338
Rp5339
(I3
S'|'
p5340
NNNI6
I1
I0
tp5341
bS'ISOMAP'
p5342
tp5343
Rp5344
sg60
F0.2
sg315
g5333
sg61
g11
(g12
(S'S9'
p5345
I0
I1
tp5346
Rp5347
(I3
S'|'
p5348
NNNI9
I1
I0
tp5349
bS'inception'
p5350
tp5351
Rp5352
sg34
g5330
sg70
g11
(g15
S'\x93h\xe7\xddjZ\xf0?'
p5353
tp5354
Rp5355
sg74
g11
(g12
(S'S3'
p5356
I0
I1
tp5357
Rp5358
(I3
S'|'
p5359
NNNI3
I1
I0
tp5360
bS'SVM'
p5361
tp5362
Rp5363
sg83
I3
sg84
g85
sg86
g11
(g15
S'\xbc\xc3.\xc5\xdd|\xdf?'
p5364
tp5365
Rp5366
sg90
g91
sg92
g93
sbag4
(g5
g6
Ntp5367
Rp5368
(dp5369
g10
g11
(g15
S'\x00\x00\x00\x00\x00\x00\xf8\xff'
p5370
tp5371
Rp5372
sg100
g11
(g15
S'\x00\x00\x00\x00\x00@Z@'
p5373
tp5374
Rp5375
sg30
g31
sg294
g11
(g41
S'\x04\x00\x00\x00\x00\x00\x00\x00'
p5376
tp5377
Rp5378
sg32
(dp5379
g100
g5375
sg294
g5378
sg315
g11
(g41
S'\x03\x00\x00\x00\x00\x00\x00\x00'
p5380
tp5381
Rp5382
sg108
g11
(g15
S'\xcc\xe7@\xf0D\x0b\xd5?'
p5383
tp5384
Rp5385
ssg51
g11
(g12
(S'S6'
p5386
I0
I1
tp5387
Rp5388
(I3
S'|'
p5389
NNNI6
I1
I0
tp5390
bS'ISOMAP'
p5391
tp5392
Rp5393
sg60
F0.2
sg315
g5382
sg61
g11
(g12
(S'S3'
p5394
I0
I1
tp5395
Rp5396
(I3
S'|'
p5397
NNNI3
I1
I0
tp5398
bS'VGG'
p5399
tp5400
Rp5401
sg70
g11
(g15
S'\xa0F\x9e\xd11\xff\xf0?'
p5402
tp5403
Rp5404
sg74
g11
(g12
(S'S2'
p5405
I0
I1
tp5406
Rp5407
(I3
S'|'
p5408
NNNI2
I1
I0
tp5409
bS'RF'
p5410
tp5411
Rp5412
sg83
I3
sg108
g5385
sg84
g85
sg86
g11
(g15
S'ci%\x04K\xca\xe2?'
p5413
tp5414
Rp5415
sg90
g91
sg92
g93
sbag4
(g5
g6
Ntp5416
Rp5417
(dp5418
g10
g11
(g15
S'\x00\x00\x00\x00\x00\x00\xf8\xff'
p5419
tp5420
Rp5421
sg294
g11
(g41
S'\x05\x00\x00\x00\x00\x00\x00\x00'
p5422
tp5423
Rp5424
sg30
g31
sg32
(dp5425
g294
g5424
sg34
g11
(g15
S'\xb7\xe2&P\x1b4K@'
p5426
tp5427
Rp5428
sg38
g11
(g41
S'\x01\x00\x00\x00\x00\x00\x00\x00'
p5429
tp5430
Rp5431
sg315
g11
(g41
S'\x04\x00\x00\x00\x00\x00\x00\x00'
p5432
tp5433
Rp5434
sg47
g11
(g15
S'\ry\t\x10\xbb\x8c\xf3?'
p5435
tp5436
Rp5437
ssg47
g5437
sg51
g11
(g12
(S'S6'
p5438
I0
I1
tp5439
Rp5440
(I3
S'|'
p5441
NNNI6
I1
I0
tp5442
bS'ISOMAP'
p5443
tp5444
Rp5445
sg60
F0.2
sg315
g5434
sg61
g11
(g12
(S'S8'
p5446
I0
I1
tp5447
Rp5448
(I3
S'|'
p5449
NNNI8
I1
I0
tp5450
bS'haralick'
p5451
tp5452
Rp5453
sg34
g5428
sg38
g5431
sg70
g11
(g15
S'\xe3\xdf\xca\xa4rh\xec?'
p5454
tp5455
Rp5456
sg74
g11
(g12
(S'S3'
p5457
I0
I1
tp5458
Rp5459
(I3
S'|'
p5460
NNNI3
I1
I0
tp5461
bS'SVM'
p5462
tp5463
Rp5464
sg83
I3
sg84
g85
sg86
g11
(g15
S'2\x085f\xa4\t\xe4?'
p5465
tp5466
Rp5467
sg90
g91
sg92
g93
sbag4
(g5
g6
Ntp5468
Rp5469
(dp5470
g10
g11
(g15
S'\x00\x00\x00\x00\x00\x00\xf8\xff'
p5471
tp5472
Rp5473
sg100
g11
(g15
S'\x00\x00\x00\x00\x00\x00 @'
p5474
tp5475
Rp5476
sg30
g31
sg294
g11
(g41
S'\x03\x00\x00\x00\x00\x00\x00\x00'
p5477
tp5478
Rp5479
sg32
(dp5480
g100
g5476
sg294
g5479
sg38
g11
(g41
S'\x03\x00\x00\x00\x00\x00\x00\x00'
p5481
tp5482
Rp5483
sg315
g11
(g41
S'\x04\x00\x00\x00\x00\x00\x00\x00'
p5484
tp5485
Rp5486
sg108
g11
(g15
S'\x8c\x02`(\xb6X\xea?'
p5487
tp5488
Rp5489
ssg51
g11
(g12
(S'S6'
p5490
I0
I1
tp5491
Rp5492
(I3
S'|'
p5493
NNNI6
I1
I0
tp5494
bS'ISOMAP'
p5495
tp5496
Rp5497
sg60
F0.2
sg315
g5486
sg61
g11
(g12
(S'S8'
p5498
I0
I1
tp5499
Rp5500
(I3
S'|'
p5501
NNNI8
I1
I0
tp5502
bS'haralick'
p5503
tp5504
Rp5505
sg38
g5483
sg70
g11
(g15
S'\xdf\xf3\xecF\xbb\x04\x18@'
p5506
tp5507
Rp5508
sg74
g11
(g12
(S'S2'
p5509
I0
I1
tp5510
Rp5511
(I3
S'|'
p5512
NNNI2
I1
I0
tp5513
bS'RF'
p5514
tp5515
Rp5516
sg83
I3
sg108
g5489
sg84
g85
sg86
g11
(g15
S'w\xad\xa7\xeb\x0c\xc6\xe2?'
p5517
tp5518
Rp5519
sg90
g91
sg92
g93
sbag4
(g5
g6
Ntp5520
Rp5521
(dp5522
g10
g11
(g15
S'\x00\x00\x00\x00\x00\x00\xf8\xff'
p5523
tp5524
Rp5525
sg294
g11
(g41
S'\x04\x00\x00\x00\x00\x00\x00\x00'
p5526
tp5527
Rp5528
sg30
g31
sg32
(dp5529
g294
g5528
sg34
g11
(g15
S'"W\xc9i\x93\xebA@'
p5530
tp5531
Rp5532
sg315
g11
(g41
S'\x03\x00\x00\x00\x00\x00\x00\x00'
p5533
tp5534
Rp5535
sg47
g11
(g15
S'\xf7\xe5p\xdd\nx\x1c@'
p5536
tp5537
Rp5538
ssg47
g5538
sg51
g11
(g12
(S'S6'
p5539
I0
I1
tp5540
Rp5541
(I3
S'|'
p5542
NNNI6
I1
I0
tp5543
bS'ISOMAP'
p5544
tp5545
Rp5546
sg60
F0.2
sg315
g5535
sg61
g11
(g12
(S'S9'
p5547
I0
I1
tp5548
Rp5549
(I3
S'|'
p5550
NNNI9
I1
I0
tp5551
bS'inception'
p5552
tp5553
Rp5554
sg34
g5532
sg70
g11
(g15
S'\xd5\x9cC\x161U\xf0?'
p5555
tp5556
Rp5557
sg74
g11
(g12
(S'S3'
p5558
I0
I1
tp5559
Rp5560
(I3
S'|'
p5561
NNNI3
I1
I0
tp5562
bS'SVM'
p5563
tp5564
Rp5565
sg83
I3
sg84
g85
sg86
g11
(g15
S'\x93l\xa6\xfe\xb1v\xdf?'
p5566
tp5567
Rp5568
sg90
g91
sg92
g93
sbag4
(g5
g6
Ntp5569
Rp5570
(dp5571
g10
g11
(g15
S'\x00\x00\x00\x00\x00\x00\xf8\xff'
p5572
tp5573
Rp5574
sg294
g11
(g41
S'\x03\x00\x00\x00\x00\x00\x00\x00'
p5575
tp5576
Rp5577
sg30
g31
sg32
(dp5578
g294
g5577
sg34
g11
(g15
S'\x06\xe9\xc3\x94\xb8K;@'
p5579
tp5580
Rp5581
sg315
g11
(g41
S'\x04\x00\x00\x00\x00\x00\x00\x00'
p5582
tp5583
Rp5584
sg47
g11
(g15
S'\xcc\xa1\x87\x9dzS\xfe?'
p5585
tp5586
Rp5587
ssg47
g5587
sg51
g11
(g12
(S'S6'
p5588
I0
I1
tp5589
Rp5590
(I3
S'|'
p5591
NNNI6
I1
I0
tp5592
bS'ISOMAP'
p5593
tp5594
Rp5595
sg60
F0.2
sg315
g5584
sg61
g11
(g12
(S'S9'
p5596
I0
I1
tp5597
Rp5598
(I3
S'|'
p5599
NNNI9
I1
I0
tp5600
bS'inception'
p5601
tp5602
Rp5603
sg34
g5581
sg70
g11
(g15
S'\xfc\xd2|\x17\x93T\xf0?'
p5604
tp5605
Rp5606
sg74
g11
(g12
(S'S3'
p5607
I0
I1
tp5608
Rp5609
(I3
S'|'
p5610
NNNI3
I1
I0
tp5611
bS'SVM'
p5612
tp5613
Rp5614
sg83
I3
sg84
g85
sg86
g11
(g15
S'\x81\xdfN\xf21F\xe0?'
p5615
tp5616
Rp5617
sg90
g91
sg92
g93
sbag4
(g5
g6
Ntp5618
Rp5619
(dp5620
g10
g11
(g15
S'\x00\x00\x00\x00\x00\x00\xf8\xff'
p5621
tp5622
Rp5623
sg21
g106
sg30
g31
sg32
(dp5624
g21
g106
sg34
g11
(g15
S"+;\xa3b\xa1\xb8'@"
p5625
tp5626
Rp5627
sg47
g11
(g15
S'\xd6\x16c\xfc\xa1K\xfc?'
p5628
tp5629
Rp5630
ssg51
g11
(g12
(S'S3'
p5631
I0
I1
tp5632
Rp5633
(I3
S'|'
p5634
NNNI3
I1
I0
tp5635
bS'PCA'
p5636
tp5637
Rp5638
sg60
F0.2
sg47
g5630
sg61
g11
(g12
(S'S3'
p5639
I0
I1
tp5640
Rp5641
(I3
S'|'
p5642
NNNI3
I1
I0
tp5643
bS'VGG'
p5644
tp5645
Rp5646
sg34
g5627
sg70
g11
(g15
S'(O\x7f92H\xee?'
p5647
tp5648
Rp5649
sg74
g11
(g12
(S'S3'
p5650
I0
I1
tp5651
Rp5652
(I3
S'|'
p5653
NNNI3
I1
I0
tp5654
bS'SVM'
p5655
tp5656
Rp5657
sg83
I3
sg84
g85
sg86
g11
(g15
S'$\xd9L\xfdc\xed\xde?'
p5658
tp5659
Rp5660
sg90
g91
sg92
g93
sbag4
(g5
g6
Ntp5661
Rp5662
(dp5663
g10
g11
(g15
S'\x00\x00\x00\x00\x00\x00\xf8\xff'
p5664
tp5665
Rp5666
sg294
g11
(g41
S'\x03\x00\x00\x00\x00\x00\x00\x00'
p5667
tp5668
Rp5669
sg30
g31
sg32
(dp5670
g294
g5669
sg34
g11
(g15
S'Cj\x8dP[\xdaW@'
p5671
tp5672
Rp5673
sg315
g11
(g41
S'\x04\x00\x00\x00\x00\x00\x00\x00'
p5674
tp5675
Rp5676
sg47
g11
(g15
S'0r#\xe2v\xd8\xed?'
p5677
tp5678
Rp5679
ssg47
g5679
sg51
g11
(g12
(S'S6'
p5680
I0
I1
tp5681
Rp5682
(I3
S'|'
p5683
NNNI6
I1
I0
tp5684
bS'ISOMAP'
p5685
tp5686
Rp5687
sg60
F0.2
sg315
g5676
sg61
g11
(g12
(S'S9'
p5688
I0
I1
tp5689
Rp5690
(I3
S'|'
p5691
NNNI9
I1
I0
tp5692
bS'inception'
p5693
tp5694
Rp5695
sg34
g5673
sg70
g11
(g15
S')\xc2\xb3\xd7>c\xf0?'
p5696
tp5697
Rp5698
sg74
g11
(g12
(S'S3'
p5699
I0
I1
tp5700
Rp5701
(I3
S'|'
p5702
NNNI3
I1
I0
tp5703
bS'SVM'
p5704
tp5705
Rp5706
sg83
I3
sg84
g85
sg86
g11
(g15
S'l\xc1\x16l\xc1\x16\xe0?'
p5707
tp5708
Rp5709
sg90
g91
sg92
g93
sbag4
(g5
g6
Ntp5710
Rp5711
(dp5712
g10
g11
(g15
S'\x00\x00\x00\x00\x00\x00\xf8\xff'
p5713
tp5714
Rp5715
sg100
g11
(g15
S'\x00\x00\x00\x00\x00@R@'
p5716
tp5717
Rp5718
sg30
g31
sg294
g11
(g41
S'\x07\x00\x00\x00\x00\x00\x00\x00'
p5719
tp5720
Rp5721
sg32
(dp5722
g100
g5718
sg294
g5721
sg315
g11
(g41
S'\x04\x00\x00\x00\x00\x00\x00\x00'
p5723
tp5724
Rp5725
sg108
g11
(g15
S'\xabB\x8bCH\xf2\xe1?'
p5726
tp5727
Rp5728
ssg51
g11
(g12
(S'S6'
p5729
I0
I1
tp5730
Rp5731
(I3
S'|'
p5732
NNNI6
I1
I0
tp5733
bS'ISOMAP'
p5734
tp5735
Rp5736
sg60
F0.2
sg315
g5725
sg61
g11
(g12
(S'S3'
p5737
I0
I1
tp5738
Rp5739
(I3
S'|'
p5740
NNNI3
I1
I0
tp5741
bS'VGG'
p5742
tp5743
Rp5744
sg70
g11
(g15
S'\xfd\xe1\xa3\xe4\xc3\xc2\xf3?'
p5745
tp5746
Rp5747
sg74
g11
(g12
(S'S2'
p5748
I0
I1
tp5749
Rp5750
(I3
S'|'
p5751
NNNI2
I1
I0
tp5752
bS'RF'
p5753
tp5754
Rp5755
sg83
I3
sg108
g5728
sg84
g85
sg86
g11
(g15
S'\xe1\x9c{\xc2Aj\xe2?'
p5756
tp5757
Rp5758
sg90
g91
sg92
g93
sbag4
(g5
g6
Ntp5759
Rp5760
(dp5761
g10
g11
(g15
S'\x00\x00\x00\x00\x00\x00\xf8\xff'
p5762
tp5763
Rp5764
sg294
g11
(g41
S'\x04\x00\x00\x00\x00\x00\x00\x00'
p5765
tp5766
Rp5767
sg30
g31
sg32
(dp5768
g294
g5767
sg34
g11
(g15
S'j\\\x93\xd8\xb2\x03C@'
p5769
tp5770
Rp5771
sg315
g11
(g41
S'\x02\x00\x00\x00\x00\x00\x00\x00'
p5772
tp5773
Rp5774
sg47
g11
(g15
S'\xc1\x07v\xd1H\x91\x10@'
p5775
tp5776
Rp5777
ssg47
g5777
sg51
g11
(g12
(S'S6'
p5778
I0
I1
tp5779
Rp5780
(I3
S'|'
p5781
NNNI6
I1
I0
tp5782
bS'ISOMAP'
p5783
tp5784
Rp5785
sg60
F0.2
sg315
g5774
sg61
g11
(g12
(S'S3'
p5786
I0
I1
tp5787
Rp5788
(I3
S'|'
p5789
NNNI3
I1
I0
tp5790
bS'VGG'
p5791
tp5792
Rp5793
sg34
g5771
sg70
g11
(g15
S'\xeb=\xb0a\x04\xae\xee?'
p5794
tp5795
Rp5796
sg74
g11
(g12
(S'S3'
p5797
I0
I1
tp5798
Rp5799
(I3
S'|'
p5800
NNNI3
I1
I0
tp5801
bS'SVM'
p5802
tp5803
Rp5804
sg83
I3
sg84
g85
sg86
g11
(g15
S'\x8fL\xda\xd8)r\xe0?'
p5805
tp5806
Rp5807
sg90
g91
sg92
g93
sbag4
(g5
g6
Ntp5808
Rp5809
(dp5810
g10
g11
(g15
S'\x00\x00\x00\x00\x00\x00\xf8\xff'
p5811
tp5812
Rp5813
sg100
g11
(g15
S'\x00\x00\x00\x00\x00\xc0p@'
p5814
tp5815
Rp5816
sg30
g31
sg294
g11
(g41
S'\x05\x00\x00\x00\x00\x00\x00\x00'
p5817
tp5818
Rp5819
sg32
(dp5820
g100
g5816
sg294
g5819
sg38
g11
(g41
S'\x03\x00\x00\x00\x00\x00\x00\x00'
p5821
tp5822
Rp5823
sg315
g11
(g41
S'\x02\x00\x00\x00\x00\x00\x00\x00'
p5824
tp5825
Rp5826
sg108
g11
(g15
S'l\xf6\xe0\x14\x88j\xe2?'
p5827
tp5828
Rp5829
ssg51
g11
(g12
(S'S6'
p5830
I0
I1
tp5831
Rp5832
(I3
S'|'
p5833
NNNI6
I1
I0
tp5834
bS'ISOMAP'
p5835
tp5836
Rp5837
sg60
F0.2
sg315
g5826
sg61
g11
(g12
(S'S8'
p5838
I0
I1
tp5839
Rp5840
(I3
S'|'
p5841
NNNI8
I1
I0
tp5842
bS'haralick'
p5843
tp5844
Rp5845
sg38
g5823
sg70
g11
(g15
S'\xbc\xa8\x1c\xf9|\xb3\xf7?'
p5846
tp5847
Rp5848
sg74
g11
(g12
(S'S2'
p5849
I0
I1
tp5850
Rp5851
(I3
S'|'
p5852
NNNI2
I1
I0
tp5853
bS'RF'
p5854
tp5855
Rp5856
sg83
I3
sg108
g5829
sg84
g85
sg86
g11
(g15
S'\x8b7@Z\xa8\x92\xe5?'
p5857
tp5858
Rp5859
sg90
g91
sg92
g93
sbasS'error_curve'
p5860
(lp5861
g73
ag73
ag73
ag73
ag73
ag73
ag73
ag73
ag73
ag73
ag73
ag73
ag73
ag73
ag73
ag73
ag73
ag130
ag130
ag130
ag130
ag130
ag130
ag130
ag173
ag173
ag173
ag173
ag173
ag173
ag173
ag173
ag173
ag173
ag173
ag173
ag173
ag173
ag173
ag173
ag173
ag173
ag173
ag173
ag173
ag173
ag173
ag173
ag173
ag173
ag173
ag173
ag173
ag173
ag173
ag216
ag216
ag216
ag216
ag216
ag216
ag216
ag216
ag216
ag216
ag216
ag216
ag216
ag216
ag216
ag216
ag259
ag259
ag259
ag259
ag259
ag259
ag259
ag259
ag259
ag259
ag259
ag259
ag259
ag259
ag259
ag259
ag259
ag259
ag259
ag259
ag259
ag259
ag259
ag259
ag259
ag259
ag259
ag259
ag259
ag259
ag259
ag259
ag259
ag259
ag259
ag259
ag259
ag259
ag259
ag259
ag259
ag259
ag259
ag259
ag259
ag259
ag259
ag259
ag259
ag259
ag259
ag259
ag259
asS'iters'
p5862
I51
sg30
g31
sS'results_loc'
p5863
S'/gpfs/u/home/CGHI/CGHIarch/barn/EP_project/results/'
p5864
sS'times'
p5865
(lp5866
F24.06178092956543
aF24.270174026489258
aF45.78910803794861
aF68.30465197563171
aF68.48112607002258
aF68.94377994537354
aF69.39287114143372
aF69.57070708274841
aF94.12934398651123
aF94.33032512664795
aF94.52841711044312
aF97.25736212730408
aF97.84319114685059
aF100.55639910697937
aF124.13947010040283
aF124.35133504867554
aF124.9627890586853
aF127.22864007949829
aF127.4438681602478
aF128.42870211601257
aF128.8970010280609
aF153.94198894500732
aF155.96867299079895
aF156.4260950088501
aF158.73531198501587
aF159.33989000320435
aF180.89060616493225
aF183.44243812561035
aF183.64044094085693
aF208.47909712791443
aF208.66947603225708
aF231.41466999053955
aF231.59975409507751
aF254.93748116493225
aF255.4994261264801
aF255.68225598335266
aF256.93936109542847
aF258.0242750644684
aF259.21027398109436
aF261.1770360469818
aF261.6620669364929
aF284.7829761505127
aF285.36275601387024
aF286.72508215904236
aF287.3074679374695
aF289.0363960266113
aF310.49164605140686
aF332.607479095459
aF354.2164001464844
aF354.77751302719116
aF354.9628710746765
aF355.15862107276917
aF377.7509939670563
aF377.9310579299927
aF378.1179709434509
aF378.59548711776733
aF400.2577929496765
aF400.469074010849
aF401.0597050189972
aF401.27745509147644
aF401.7118511199951
aF403.4639060497284
aF426.38191294670105
aF428.72278594970703
aF428.94976115226746
aF453.4260079860687
aF477.84390211105347
aF478.5486099720001
aF479.15300393104553
aF482.30462312698364
aF505.5797030925751
aF505.7544529438019
aF505.95118594169617
aF506.135272026062
aF506.750107049942
aF531.3787040710449
aF555.8261940479279
aF557.7920761108398
aF557.9916789531708
aF558.1756420135498
aF558.7535970211029
aF561.3174829483032
aF561.9014871120453
aF563.5869841575623
aF585.0958631038666
aF585.5327360630035
aF588.2365970611572
aF590.5409891605377
aF592.3882369995117
aF594.2019810676575
aF594.3918969631195
aF617.3715529441833
aF619.4523601531982
aF619.640946149826
aF621.1035470962524
aF621.3264780044556
aF643.2516341209412
aF645.5526461601257
aF646.3821790218353
aF646.5713970661163
aF669.2372779846191
aF693.9518749713898
aF718.1902320384979
aF718.409392118454
aF720.8877530097961
aF721.3468310832977
aF721.7963960170746
aF743.8949480056763
aF744.0824091434479
aF746.1548039913177
aF746.5987701416016
aF747.1947500705719
aF747.7661881446838
aF748.2491209506989
aF749.5637459754944
aF772.8129360675812
aF795.0197551250458
aF795.4765410423279
aF795.9165580272675
aF796.1154680252075
aF796.5584111213684
aF797.6706500053406
aF798.2525320053101
aF822.0091569423676
asS'data_loc'
p5867
g93
sS'run'
p5868
I4
sg90
S'random_MCMC'
p5869
sb.