(iprototypes.random_based_mcmc1
random_MCMC
p0
(dp1
S'best_pipelines'
p2
(lp3
ccopy_reg
_reconstructor
p4
(cprototypes.data_analytic_pipeline
image_classification_pipeline
p5
c__builtin__
object
p6
Ntp7
Rp8
(dp9
S'f1_score'
p10
cnumpy.core.multiarray
scalar
p11
(cnumpy
dtype
p12
(S'f8'
p13
I0
I1
tp14
Rp15
(I3
S'<'
p16
NNNI-1
I-1
I0
tp17
bS'\x00\x00\x00\x00\x00\x00\xf8\xff'
p18
tp19
Rp20
sS'n_estimators'
p21
g11
(g15
S'\x00\x00\x00\x00\x00`m@'
p22
tp23
Rp24
sS'pca_whiten'
p25
g11
(g12
(S'b1'
p26
I0
I1
tp27
Rp28
(I3
S'|'
p29
NNNI-1
I-1
I0
tp30
bS'\x01'
p31
tp32
Rp33
sS'data_name'
p34
S'matsc_dataset1'
p35
sS'kwargs'
p36
(dp37
g21
g24
sS'max_features'
p38
g11
(g15
S'\xec\xff\x0f\xc7\x03\xc8\xed?'
p39
tp40
Rp41
sg25
g33
sS'haralick_distance'
p42
g11
(g12
(S'i8'
p43
I0
I1
tp44
Rp45
(I3
S'<'
p46
NNNI-1
I-1
I0
tp47
bS'\x03\x00\x00\x00\x00\x00\x00\x00'
p48
tp49
Rp50
ssS'dimensionality_reduction'
p51
g11
(g12
(S'S3'
p52
I0
I1
tp53
Rp54
(I3
S'|'
p55
NNNI3
I1
I0
tp56
bS'PCA'
p57
tp58
Rp59
sS'test_size'
p60
F0.2
sS'feature_extraction'
p61
g11
(g12
(S'S8'
p62
I0
I1
tp63
Rp64
(I3
S'|'
p65
NNNI8
I1
I0
tp66
bS'haralick'
p67
tp68
Rp69
sg42
g50
sS'result'
p70
g11
(g15
S'LQ\x10\x19\xc3\xce\xe4?'
p71
tp72
Rp73
sS'learning_algorithm'
p74
g11
(g12
(S'S2'
p75
I0
I1
tp76
Rp77
(I3
S'|'
p78
NNNI2
I1
I0
tp79
bS'RF'
p80
tp81
Rp82
sS'val_splits'
p83
I3
sg38
g41
sS'ml_type'
p84
S'validation'
p85
sS'accuracy'
p86
g11
(g15
S'\xa8\xfcQ\xa7\xfcQ\xeb?'
p87
tp88
Rp89
sS'type1'
p90
S'random1'
p91
sS'data_location'
p92
S'/gpfs/u/home/CGHI/CGHIarch/barn/EP_project/data/'
p93
sbag4
(g5
g6
Ntp94
Rp95
(dp96
g10
g11
(g15
S'\x00\x00\x00\x00\x00\x00\xf8\xff'
p97
tp98
Rp99
sg21
g11
(g15
S'\x00\x00\x00\x00\x00@a@'
p100
tp101
Rp102
sg34
g35
sS'n_neighbors'
p103
g11
(g45
S'\x05\x00\x00\x00\x00\x00\x00\x00'
p104
tp105
Rp106
sg36
(dp107
g21
g102
sg103
g106
sS'n_components'
p108
g11
(g45
S'\x03\x00\x00\x00\x00\x00\x00\x00'
p109
tp110
Rp111
sg38
g11
(g15
S'\xbd\xcc\xd8K\xf22\xd5?'
p112
tp113
Rp114
ssg51
g11
(g12
(S'S6'
p115
I0
I1
tp116
Rp117
(I3
S'|'
p118
NNNI6
I1
I0
tp119
bS'ISOMAP'
p120
tp121
Rp122
sg60
F0.2
sg108
g111
sg61
g11
(g12
(S'S3'
p123
I0
I1
tp124
Rp125
(I3
S'|'
p126
NNNI3
I1
I0
tp127
bS'VGG'
p128
tp129
Rp130
sg70
g11
(g15
S'\x93P\xac:\x04k\xe3?'
p131
tp132
Rp133
sg74
g11
(g12
(S'S2'
p134
I0
I1
tp135
Rp136
(I3
S'|'
p137
NNNI2
I1
I0
tp138
bS'RF'
p139
tp140
Rp141
sg83
I3
sg38
g114
sg84
g85
sg86
g11
(g15
S'\x1d\x98\xa2\x8d\xb7c\xeb?'
p142
tp143
Rp144
sg90
g91
sg92
g93
sbag4
(g5
g6
Ntp145
Rp146
(dp147
g10
g11
(g15
S'\x00\x00\x00\x00\x00\x00\xf8\xff'
p148
tp149
Rp150
sg103
g11
(g45
S'\x07\x00\x00\x00\x00\x00\x00\x00'
p151
tp152
Rp153
sg34
g35
sg36
(dp154
g103
g153
sS'svm_C'
p155
g11
(g15
S's6\xf3m\x0f\x9bO@'
p156
tp157
Rp158
sg42
g11
(g45
S'\x03\x00\x00\x00\x00\x00\x00\x00'
p159
tp160
Rp161
sg108
g11
(g45
S'\x03\x00\x00\x00\x00\x00\x00\x00'
p162
tp163
Rp164
sS'svm_gamma'
p165
g11
(g15
S'\x1c\xb6N\xc9\x08~\xf2?'
p166
tp167
Rp168
ssg165
g168
sg51
g11
(g12
(S'S6'
p169
I0
I1
tp170
Rp171
(I3
S'|'
p172
NNNI6
I1
I0
tp173
bS'ISOMAP'
p174
tp175
Rp176
sg60
F0.2
sg108
g164
sg61
g11
(g12
(S'S8'
p177
I0
I1
tp178
Rp179
(I3
S'|'
p180
NNNI8
I1
I0
tp181
bS'haralick'
p182
tp183
Rp184
sg155
g158
sg42
g161
sg70
g11
(g15
S'\x1d/\xa8\x03=\x06\xdc?'
p185
tp186
Rp187
sg74
g11
(g12
(S'S3'
p188
I0
I1
tp189
Rp190
(I3
S'|'
p191
NNNI3
I1
I0
tp192
bS'SVM'
p193
tp194
Rp195
sg83
I3
sg84
g85
sg86
g11
(g15
S']\xea\xd0\x03\x9ei\xea?'
p196
tp197
Rp198
sg90
g91
sg92
g93
sbag4
(g5
g6
Ntp199
Rp200
(dp201
g10
g11
(g15
S'\x00\x00\x00\x00\x00\x00\xf8\xff'
p202
tp203
Rp204
sg25
g11
(g28
S'\x00'
p205
tp206
Rp207
sg34
g35
sg36
(dp208
g25
g207
sg155
g11
(g15
S'\xd8#U\x9a(\xe3J@'
p209
tp210
Rp211
sg165
g11
(g15
S'<t\xe9\xf3\xb0P\x17@'
p212
tp213
Rp214
ssg51
g11
(g12
(S'S3'
p215
I0
I1
tp216
Rp217
(I3
S'|'
p218
NNNI3
I1
I0
tp219
bS'PCA'
p220
tp221
Rp222
sg60
F0.2
sg165
g214
sg61
g11
(g12
(S'S3'
p223
I0
I1
tp224
Rp225
(I3
S'|'
p226
NNNI3
I1
I0
tp227
bS'VGG'
p228
tp229
Rp230
sg155
g211
sg70
g11
(g15
S'x\xab\x19&_;\xd9?'
p231
tp232
Rp233
sg74
g11
(g12
(S'S3'
p234
I0
I1
tp235
Rp236
(I3
S'|'
p237
NNNI3
I1
I0
tp238
bS'SVM'
p239
tp240
Rp241
sg83
I3
sg84
g85
sg86
g11
(g15
S'\xcd\x84\x14\xf53\xb6\xe9?'
p242
tp243
Rp244
sg90
g91
sg92
g93
sbag4
(g5
g6
Ntp245
Rp246
(dp247
g10
g11
(g15
S'\x00\x00\x00\x00\x00\x00\xf8\xff'
p248
tp249
Rp250
sg25
g33
sg34
g35
sg36
(dp251
g25
g33
sg155
g11
(g15
S'0\xa2\x13j\x96!@@'
p252
tp253
Rp254
sg165
g11
(g15
S'\x9fe\xd1RWT\x15@'
p255
tp256
Rp257
ssg51
g11
(g12
(S'S3'
p258
I0
I1
tp259
Rp260
(I3
S'|'
p261
NNNI3
I1
I0
tp262
bS'PCA'
p263
tp264
Rp265
sg60
F0.2
sg165
g257
sg61
g11
(g12
(S'S3'
p266
I0
I1
tp267
Rp268
(I3
S'|'
p269
NNNI3
I1
I0
tp270
bS'VGG'
p271
tp272
Rp273
sg155
g254
sg70
g11
(g15
S'\xa3\xfa\xef\xff\xca\xeb\xd8?'
p274
tp275
Rp276
sg74
g11
(g12
(S'S3'
p277
I0
I1
tp278
Rp279
(I3
S'|'
p280
NNNI3
I1
I0
tp281
bS'SVM'
p282
tp283
Rp284
sg83
I3
sg84
g85
sg86
g11
(g15
S'\xcd\x84\x14\xf53\xb6\xe9?'
p285
tp286
Rp287
sg90
g91
sg92
g93
sbag4
(g5
g6
Ntp288
Rp289
(dp290
g10
g11
(g15
S'\x00\x00\x00\x00\x00\x00\xf8\xff'
p291
tp292
Rp293
sg103
g11
(g45
S'\x03\x00\x00\x00\x00\x00\x00\x00'
p294
tp295
Rp296
sg34
g35
sg36
(dp297
g103
g296
sg155
g11
(g15
S'z\xadH\xab\xb7\xe8R@'
p298
tp299
Rp300
sg108
g11
(g45
S'\x02\x00\x00\x00\x00\x00\x00\x00'
p301
tp302
Rp303
sg165
g11
(g15
S'\xd7\x007\xdc\xefx\x08@'
p304
tp305
Rp306
ssg165
g306
sg51
g11
(g12
(S'S6'
p307
I0
I1
tp308
Rp309
(I3
S'|'
p310
NNNI6
I1
I0
tp311
bS'ISOMAP'
p312
tp313
Rp314
sg60
F0.2
sg108
g303
sg61
g11
(g12
(S'S3'
p315
I0
I1
tp316
Rp317
(I3
S'|'
p318
NNNI3
I1
I0
tp319
bS'VGG'
p320
tp321
Rp322
sg155
g300
sg70
g11
(g15
S'\xa4\xb7\xe3\x0b\xa1\xac\xd8?'
p323
tp324
Rp325
sg74
g11
(g12
(S'S3'
p326
I0
I1
tp327
Rp328
(I3
S'|'
p329
NNNI3
I1
I0
tp330
bS'SVM'
p331
tp332
Rp333
sg83
I3
sg84
g85
sg86
g11
(g15
S'#\xab\x9a\xbby\xfd\xe9?'
p334
tp335
Rp336
sg90
g91
sg92
g93
sbag4
(g5
g6
Ntp337
Rp338
(dp339
g10
g11
(g15
S'\x00\x00\x00\x00\x00\x00\xf8\xff'
p340
tp341
Rp342
sg21
g11
(g15
S'\x00\x00\x00\x00\x00`i@'
p343
tp344
Rp345
sg25
g207
sg34
g35
sg36
(dp346
g21
g345
sg38
g11
(g15
S'\n\xde\xb8\xf6\xf3\xe3\xe3?'
p347
tp348
Rp349
sg25
g207
ssg51
g11
(g12
(S'S3'
p350
I0
I1
tp351
Rp352
(I3
S'|'
p353
NNNI3
I1
I0
tp354
bS'PCA'
p355
tp356
Rp357
sg60
F0.2
sg61
g11
(g12
(S'S3'
p358
I0
I1
tp359
Rp360
(I3
S'|'
p361
NNNI3
I1
I0
tp362
bS'VGG'
p363
tp364
Rp365
sg70
g11
(g15
S'\xc7\xa2\xf43l\xdb\xd6?'
p366
tp367
Rp368
sg74
g11
(g12
(S'S2'
p369
I0
I1
tp370
Rp371
(I3
S'|'
p372
NNNI2
I1
I0
tp373
bS'RF'
p374
tp375
Rp376
sg83
I3
sg38
g349
sg84
g85
sg86
g11
(g15
S'<=:@4L\xec?'
p377
tp378
Rp379
sg90
g91
sg92
g93
sbag4
(g5
g6
Ntp380
Rp381
(dp382
g10
g11
(g15
S'\x00\x00\x00\x00\x00\x00\xf8\xff'
p383
tp384
Rp385
sg21
g11
(g15
S'\x00\x00\x00\x00\x00`i@'
p386
tp387
Rp388
sg25
g207
sg34
g35
sg36
(dp389
g21
g388
sg38
g11
(g15
S'\xe6\x96\xb4Z\x9a\xd0\xec?'
p390
tp391
Rp392
sg25
g207
ssg51
g11
(g12
(S'S3'
p393
I0
I1
tp394
Rp395
(I3
S'|'
p396
NNNI3
I1
I0
tp397
bS'PCA'
p398
tp399
Rp400
sg60
F0.2
sg61
g11
(g12
(S'S3'
p401
I0
I1
tp402
Rp403
(I3
S'|'
p404
NNNI3
I1
I0
tp405
bS'VGG'
p406
tp407
Rp408
sg70
g11
(g15
S':P\x12\x13\x9d/\xd4?'
p409
tp410
Rp411
sg74
g11
(g12
(S'S2'
p412
I0
I1
tp413
Rp414
(I3
S'|'
p415
NNNI2
I1
I0
tp416
bS'RF'
p417
tp418
Rp419
sg83
I3
sg38
g392
sg84
g85
sg86
g11
(g15
S'H\x9d\xf2G\x9d\xf2\xeb?'
p420
tp421
Rp422
sg90
g91
sg92
g93
sbag4
(g5
g6
Ntp423
Rp424
(dp425
g10
g11
(g15
S'\x00\x00\x00\x00\x00\x00\xf8\xff'
p426
tp427
Rp428
sg21
g11
(g15
S'\x00\x00\x00\x00\x00\xc0p@'
p429
tp430
Rp431
sg25
g33
sg34
g35
sg36
(dp432
g21
g431
sg38
g11
(g15
S'\xb0\xbb\x1e\t\xd1^\xe7?'
p433
tp434
Rp435
sg25
g33
ssg51
g11
(g12
(S'S3'
p436
I0
I1
tp437
Rp438
(I3
S'|'
p439
NNNI3
I1
I0
tp440
bS'PCA'
p441
tp442
Rp443
sg60
F0.2
sg61
g11
(g12
(S'S3'
p444
I0
I1
tp445
Rp446
(I3
S'|'
p447
NNNI3
I1
I0
tp448
bS'VGG'
p449
tp450
Rp451
sg70
g11
(g15
S'\xc6\x1f\x13\\\xd0\x93\xd2?'
p452
tp453
Rp454
sg74
g11
(g12
(S'S2'
p455
I0
I1
tp456
Rp457
(I3
S'|'
p458
NNNI2
I1
I0
tp459
bS'RF'
p460
tp461
Rp462
sg83
I3
sg38
g435
sg84
g85
sg86
g11
(g15
S'\x1c|\xbc;=:\xec?'
p463
tp464
Rp465
sg90
g91
sg92
g93
sbasS'paths'
p466
(lp467
(lp468
S'VGG'
p469
aS'PCA'
p470
aS'SVM'
p471
aa(lp472
g469
ag470
aS'RF'
p473
aa(lp474
g469
aS'ISOMAP'
p475
ag471
aa(lp476
g469
ag475
ag473
aa(lp477
S'haralick'
p478
ag470
ag471
aa(lp479
g478
ag470
ag473
aa(lp480
g478
ag475
ag471
aa(lp481
g478
ag475
ag473
aa(lp482
S'inception'
p483
ag470
ag471
aa(lp484
g483
ag470
ag473
aa(lp485
g483
ag475
ag471
aa(lp486
g483
ag475
ag473
aasS'pipeline'
p487
(dp488
g103
(lp489
I3
aI4
aI5
aI6
aI7
asg25
(lp490
I01
aI00
asg21
cnumpy.core.multiarray
_reconstruct
p491
(cnumpy
ndarray
p492
(I0
tp493
S'b'
p494
tp495
Rp496
(I1
(I10
tp497
g15
I00
S'\x00\x00\x00\x00\x00\x00 @\x00\x00\x00\x00\x00\x00D@\x00\x00\x00\x00\x00@R@\x00\x00\x00\x00\x00@Z@\x00\x00\x00\x00\x00@a@\x00\x00\x00\x00\x00@e@\x00\x00\x00\x00\x00`i@\x00\x00\x00\x00\x00`m@\x00\x00\x00\x00\x00\xc0p@\x00\x00\x00\x00\x00\xc0r@'
p498
tp499
bsg51
(lp500
g470
ag475
asg165
g491
(g492
(I0
tp501
g494
tp502
Rp503
(I1
(I10
tp504
g15
I00
S"{\x14\xaeG\xe1z\x84?\x102Tv\x98\xba\xec?\xe7\xd5\xc4\xb3\xa2\x91\xfc?b\xc9/\x96\xfcb\x05@\xd2'}\xd2'}\x0c@!Ce\x87\xa9\xcb\x11@X\xf2\x8b%\xbfX\x15@\x90\xa1\xb2\xc3\xd4\xe5\x18@\xc8P\xd9a\xear\x1c@\x00\x00\x00\x00\x00\x00 @"
p505
tp506
bsg61
(lp507
g469
ag478
ag483
asg42
(lp508
I1
aI2
aI3
asg108
(lp509
I2
aI3
aI4
asg74
(lp510
g471
ag473
asg38
g491
(g492
(I0
tp511
g494
tp512
Rp513
(I1
(I5
tp514
g15
I00
S'333333\xd3?\x9a\x99\x99\x99\x99\x99\xd9?\x00\x00\x00\x00\x00\x00\xe0?433333\xe3?hfffff\xe6?'
p515
tp516
bsg155
g491
(g492
(I0
tp517
g494
tp518
Rp519
(I1
(I10
tp520
g15
I00
S'\x9a\x99\x99\x99\x99\x99\xb9?gfffff&@\xce\xcc\xcc\xcc\xccL6@43333\xb3@@\x01\x00\x00\x00\x00@F@\xce\xcc\xcc\xcc\xcc\xccK@\xcd\xcc\xcc\xcc\xcc\xacP@43333sS@\x9a\x99\x99\x99\x999V@\x00\x00\x00\x00\x00\x00Y@'
p521
tp522
bssS'pipelines'
p523
(lp524
g8
ag4
(g5
g6
Ntp525
Rp526
(dp527
g10
g11
(g15
S'\x00\x00\x00\x00\x00\x00\xf8\xff'
p528
tp529
Rp530
sg21
g11
(g15
S'\x00\x00\x00\x00\x00\x00 @'
p531
tp532
Rp533
sg34
g35
sg103
g11
(g45
S'\x05\x00\x00\x00\x00\x00\x00\x00'
p534
tp535
Rp536
sg36
(dp537
g21
g533
sg103
g536
sg108
g11
(g45
S'\x02\x00\x00\x00\x00\x00\x00\x00'
p538
tp539
Rp540
sg38
g11
(g15
S'\x88\xce`\x9e\xc0u\xe1?'
p541
tp542
Rp543
ssg51
g11
(g12
(S'S6'
p544
I0
I1
tp545
Rp546
(I3
S'|'
p547
NNNI6
I1
I0
tp548
bS'ISOMAP'
p549
tp550
Rp551
sg60
F0.2
sg108
g540
sg61
g11
(g12
(S'S9'
p552
I0
I1
tp553
Rp554
(I3
S'|'
p555
NNNI9
I1
I0
tp556
bS'inception'
p557
tp558
Rp559
sg70
g11
(g15
S'< \xc3\x95Ue\xff?'
p560
tp561
Rp562
sg74
g11
(g12
(S'S2'
p563
I0
I1
tp564
Rp565
(I3
S'|'
p566
NNNI2
I1
I0
tp567
bS'RF'
p568
tp569
Rp570
sg83
I3
sg38
g543
sg84
g85
sg86
g11
(g15
S'\x0b\xaeg\xf4\xda\r\xe4?'
p571
tp572
Rp573
sg90
g91
sg92
g93
sbag95
ag146
ag4
(g5
g6
Ntp574
Rp575
(dp576
g10
g11
(g15
S'\x00\x00\x00\x00\x00\x00\xf8\xff'
p577
tp578
Rp579
sg25
g207
sg34
g35
sg36
(dp580
g25
g207
sg155
g11
(g15
S'Y\xe1zUI\x86K@'
p581
tp582
Rp583
sg165
g11
(g15
S'\xef\xa3\xf3\xfd*\xce\x15@'
p584
tp585
Rp586
ssg51
g11
(g12
(S'S3'
p587
I0
I1
tp588
Rp589
(I3
S'|'
p590
NNNI3
I1
I0
tp591
bS'PCA'
p592
tp593
Rp594
sg60
F0.2
sg165
g586
sg61
g11
(g12
(S'S9'
p595
I0
I1
tp596
Rp597
(I3
S'|'
p598
NNNI9
I1
I0
tp599
bS'inception'
p600
tp601
Rp602
sg155
g583
sg70
g11
(g15
S'\xecLr.\x05\x83\xe0?'
p603
tp604
Rp605
sg74
g11
(g12
(S'S3'
p606
I0
I1
tp607
Rp608
(I3
S'|'
p609
NNNI3
I1
I0
tp610
bS'SVM'
p611
tp612
Rp613
sg83
I3
sg84
g85
sg86
g11
(g15
S'\x90\x1c\x036\xd0\x9b\xe4?'
p614
tp615
Rp616
sg90
g91
sg92
g93
sbag4
(g5
g6
Ntp617
Rp618
(dp619
g10
g11
(g15
S'\x00\x00\x00\x00\x00\x00\xf8\xff'
p620
tp621
Rp622
sg21
g11
(g15
S'\x00\x00\x00\x00\x00@a@'
p623
tp624
Rp625
sg25
g33
sg34
g35
sg36
(dp626
g21
g625
sg38
g11
(g15
S'\xa5\xac\x04cFa\xe4?'
p627
tp628
Rp629
sg25
g33
sg42
g11
(g45
S'\x01\x00\x00\x00\x00\x00\x00\x00'
p630
tp631
Rp632
ssg51
g11
(g12
(S'S3'
p633
I0
I1
tp634
Rp635
(I3
S'|'
p636
NNNI3
I1
I0
tp637
bS'PCA'
p638
tp639
Rp640
sg60
F0.2
sg61
g11
(g12
(S'S8'
p641
I0
I1
tp642
Rp643
(I3
S'|'
p644
NNNI8
I1
I0
tp645
bS'haralick'
p646
tp647
Rp648
sg42
g632
sg70
g11
(g15
S'\xa0\x04\x98\xed\xa8\xaf\xf8?'
p649
tp650
Rp651
sg74
g11
(g12
(S'S2'
p652
I0
I1
tp653
Rp654
(I3
S'|'
p655
NNNI2
I1
I0
tp656
bS'RF'
p657
tp658
Rp659
sg83
I3
sg38
g629
sg84
g85
sg86
g11
(g15
S'\t\x19\xfb6\xbf\xae\xe7?'
p660
tp661
Rp662
sg90
g91
sg92
g93
sbag200
ag4
(g5
g6
Ntp663
Rp664
(dp665
g10
g11
(g15
S'\x00\x00\x00\x00\x00\x00\xf8\xff'
p666
tp667
Rp668
sg21
g11
(g15
S'\x00\x00\x00\x00\x00\x00D@'
p669
tp670
Rp671
sg25
g207
sg34
g35
sg36
(dp672
g21
g671
sg38
g11
(g15
S',\xd14\xe8\xe1\xe0\xdd?'
p673
tp674
Rp675
sg25
g207
ssg51
g11
(g12
(S'S3'
p676
I0
I1
tp677
Rp678
(I3
S'|'
p679
NNNI3
I1
I0
tp680
bS'PCA'
p681
tp682
Rp683
sg60
F0.2
sg61
g11
(g12
(S'S9'
p684
I0
I1
tp685
Rp686
(I3
S'|'
p687
NNNI9
I1
I0
tp688
bS'inception'
p689
tp690
Rp691
sg70
g11
(g15
S'\xfb\xf4\x13\x99\x12\x1f\xe5?'
p692
tp693
Rp694
sg74
g11
(g12
(S'S2'
p695
I0
I1
tp696
Rp697
(I3
S'|'
p698
NNNI2
I1
I0
tp699
bS'RF'
p700
tp701
Rp702
sg83
I3
sg38
g675
sg84
g85
sg86
g11
(g15
S'\xd3KY>t\x08\xe8?'
p703
tp704
Rp705
sg90
g91
sg92
g93
sbag4
(g5
g6
Ntp706
Rp707
(dp708
g10
g11
(g15
S'\x00\x00\x00\x00\x00\x00\xf8\xff'
p709
tp710
Rp711
sg21
g11
(g15
S'\x00\x00\x00\x00\x00\x00 @'
p712
tp713
Rp714
sg25
g207
sg34
g35
sg36
(dp715
g21
g714
sg38
g11
(g15
S'\xef_\xdc\xfe\xdc\x83\xe5?'
p716
tp717
Rp718
sg25
g207
ssg51
g11
(g12
(S'S3'
p719
I0
I1
tp720
Rp721
(I3
S'|'
p722
NNNI3
I1
I0
tp723
bS'PCA'
p724
tp725
Rp726
sg60
F0.2
sg61
g11
(g12
(S'S9'
p727
I0
I1
tp728
Rp729
(I3
S'|'
p730
NNNI9
I1
I0
tp731
bS'inception'
p732
tp733
Rp734
sg70
g11
(g15
S'\xa7|V\xa9\xde,\xfb?'
p735
tp736
Rp737
sg74
g11
(g12
(S'S2'
p738
I0
I1
tp739
Rp740
(I3
S'|'
p741
NNNI2
I1
I0
tp742
bS'RF'
p743
tp744
Rp745
sg83
I3
sg38
g718
sg84
g85
sg86
g11
(g15
S"I\xb7\xdc\x91'\xfc\xe6?"
p746
tp747
Rp748
sg90
g91
sg92
g93
sbag4
(g5
g6
Ntp749
Rp750
(dp751
g10
g11
(g15
S'\x00\x00\x00\x00\x00\x00\xf8\xff'
p752
tp753
Rp754
sg103
g11
(g45
S'\x07\x00\x00\x00\x00\x00\x00\x00'
p755
tp756
Rp757
sg34
g35
sg36
(dp758
g103
g757
sg155
g11
(g15
S'8^`I8\xefB@'
p759
tp760
Rp761
sg42
g11
(g45
S'\x01\x00\x00\x00\x00\x00\x00\x00'
p762
tp763
Rp764
sg108
g11
(g45
S'\x03\x00\x00\x00\x00\x00\x00\x00'
p765
tp766
Rp767
sg165
g11
(g15
S')e\xdejRQ\x1d@'
p768
tp769
Rp770
ssg165
g770
sg51
g11
(g12
(S'S6'
p771
I0
I1
tp772
Rp773
(I3
S'|'
p774
NNNI6
I1
I0
tp775
bS'ISOMAP'
p776
tp777
Rp778
sg60
F0.2
sg108
g767
sg61
g11
(g12
(S'S8'
p779
I0
I1
tp780
Rp781
(I3
S'|'
p782
NNNI8
I1
I0
tp783
bS'haralick'
p784
tp785
Rp786
sg155
g761
sg42
g764
sg70
g11
(g15
S'\xfc"j\x85c\xf9\xda?'
p787
tp788
Rp789
sg74
g11
(g12
(S'S3'
p790
I0
I1
tp791
Rp792
(I3
S'|'
p793
NNNI3
I1
I0
tp794
bS'SVM'
p795
tp796
Rp797
sg83
I3
sg84
g85
sg86
g11
(g15
S'\x18\xb3{\xea\x0c\xc8\xe9?'
p798
tp799
Rp800
sg90
g91
sg92
g93
sbag4
(g5
g6
Ntp801
Rp802
(dp803
g10
g11
(g15
S'\x00\x00\x00\x00\x00\x00\xf8\xff'
p804
tp805
Rp806
sg21
g11
(g15
S'\x00\x00\x00\x00\x00@Z@'
p807
tp808
Rp809
sg34
g35
sg103
g11
(g45
S'\x07\x00\x00\x00\x00\x00\x00\x00'
p810
tp811
Rp812
sg36
(dp813
g21
g809
sg103
g812
sg108
g11
(g45
S'\x03\x00\x00\x00\x00\x00\x00\x00'
p814
tp815
Rp816
sg38
g11
(g15
S'b\xf3\xb8JQ\x15\xed?'
p817
tp818
Rp819
ssg51
g11
(g12
(S'S6'
p820
I0
I1
tp821
Rp822
(I3
S'|'
p823
NNNI6
I1
I0
tp824
bS'ISOMAP'
p825
tp826
Rp827
sg60
F0.2
sg108
g816
sg61
g11
(g12
(S'S3'
p828
I0
I1
tp829
Rp830
(I3
S'|'
p831
NNNI3
I1
I0
tp832
bS'VGG'
p833
tp834
Rp835
sg70
g11
(g15
S'Yz\x82\xf1\xdd~\xeb?'
p836
tp837
Rp838
sg74
g11
(g12
(S'S2'
p839
I0
I1
tp840
Rp841
(I3
S'|'
p842
NNNI2
I1
I0
tp843
bS'RF'
p844
tp845
Rp846
sg83
I3
sg38
g819
sg84
g85
sg86
g11
(g15
S'\xc0\xbc\xc2\xb6\xce\x9e\xea?'
p847
tp848
Rp849
sg90
g91
sg92
g93
sbag4
(g5
g6
Ntp850
Rp851
(dp852
g10
g11
(g15
S'\x00\x00\x00\x00\x00\x00\xf8\xff'
p853
tp854
Rp855
sg103
g11
(g45
S'\x07\x00\x00\x00\x00\x00\x00\x00'
p856
tp857
Rp858
sg34
g35
sg36
(dp859
g103
g858
sg155
g11
(g15
S'en\x0b\x90\xcfK"@'
p860
tp861
Rp862
sg42
g11
(g45
S'\x02\x00\x00\x00\x00\x00\x00\x00'
p863
tp864
Rp865
sg108
g11
(g45
S'\x04\x00\x00\x00\x00\x00\x00\x00'
p866
tp867
Rp868
sg165
g11
(g15
S'\x7fzU9\x94\xdb\xca?'
p869
tp870
Rp871
ssg165
g871
sg51
g11
(g12
(S'S6'
p872
I0
I1
tp873
Rp874
(I3
S'|'
p875
NNNI6
I1
I0
tp876
bS'ISOMAP'
p877
tp878
Rp879
sg60
F0.2
sg108
g868
sg61
g11
(g12
(S'S8'
p880
I0
I1
tp881
Rp882
(I3
S'|'
p883
NNNI8
I1
I0
tp884
bS'haralick'
p885
tp886
Rp887
sg155
g862
sg42
g865
sg70
g11
(g15
S'?\xbcQTZ\xc8\xda?'
p888
tp889
Rp890
sg74
g11
(g12
(S'S3'
p891
I0
I1
tp892
Rp893
(I3
S'|'
p894
NNNI3
I1
I0
tp895
bS'SVM'
p896
tp897
Rp898
sg83
I3
sg84
g85
sg86
g11
(g15
S'Oc9\x8d\xe54\xea?'
p899
tp900
Rp901
sg90
g91
sg92
g93
sbag4
(g5
g6
Ntp902
Rp903
(dp904
g10
g11
(g15
S'\x00\x00\x00\x00\x00\x00\xf8\xff'
p905
tp906
Rp907
sg25
g33
sg34
g35
sg36
(dp908
g25
g33
sg155
g11
(g15
S'h8m\xe3\x00\xf8E@'
p909
tp910
Rp911
sg42
g11
(g45
S'\x01\x00\x00\x00\x00\x00\x00\x00'
p912
tp913
Rp914
sg165
g11
(g15
S'u\n\x8b]8\xee\xf8?'
p915
tp916
Rp917
ssg51
g11
(g12
(S'S3'
p918
I0
I1
tp919
Rp920
(I3
S'|'
p921
NNNI3
I1
I0
tp922
bS'PCA'
p923
tp924
Rp925
sg60
F0.2
sg165
g917
sg61
g11
(g12
(S'S8'
p926
I0
I1
tp927
Rp928
(I3
S'|'
p929
NNNI8
I1
I0
tp930
bS'haralick'
p931
tp932
Rp933
sg155
g911
sg42
g914
sg70
g11
(g15
S"'\n\x88}kQ\xdc?"
p934
tp935
Rp936
sg74
g11
(g12
(S'S3'
p937
I0
I1
tp938
Rp939
(I3
S'|'
p940
NNNI3
I1
I0
tp941
bS'SVM'
p942
tp943
Rp944
sg83
I3
sg84
g85
sg86
g11
(g15
S'\xb4\xa6\xc1\x8b\xf7\x1f\xe7?'
p945
tp946
Rp947
sg90
g91
sg92
g93
sbag4
(g5
g6
Ntp948
Rp949
(dp950
g10
g11
(g15
S'\x00\x00\x00\x00\x00\x00\xf8\xff'
p951
tp952
Rp953
sg21
g11
(g15
S'\x00\x00\x00\x00\x00\x00 @'
p954
tp955
Rp956
sg34
g35
sg103
g11
(g45
S'\x04\x00\x00\x00\x00\x00\x00\x00'
p957
tp958
Rp959
sg36
(dp960
g21
g956
sg103
g959
sg108
g11
(g45
S'\x03\x00\x00\x00\x00\x00\x00\x00'
p961
tp962
Rp963
sg38
g11
(g15
S'\xd2\xf9\xcc\xfd\xd1c\xe9?'
p964
tp965
Rp966
ssg51
g11
(g12
(S'S6'
p967
I0
I1
tp968
Rp969
(I3
S'|'
p970
NNNI6
I1
I0
tp971
bS'ISOMAP'
p972
tp973
Rp974
sg60
F0.2
sg108
g963
sg61
g11
(g12
(S'S3'
p975
I0
I1
tp976
Rp977
(I3
S'|'
p978
NNNI3
I1
I0
tp979
bS'VGG'
p980
tp981
Rp982
sg70
g11
(g15
S'\xfa\xd4\xda`oS\x00@'
p983
tp984
Rp985
sg74
g11
(g12
(S'S2'
p986
I0
I1
tp987
Rp988
(I3
S'|'
p989
NNNI2
I1
I0
tp990
bS'RF'
p991
tp992
Rp993
sg83
I3
sg38
g966
sg84
g85
sg86
g11
(g15
S'\x9c\xb8\x7f\xf1\r\xd5\xea?'
p994
tp995
Rp996
sg90
g91
sg92
g93
sbag246
ag289
ag4
(g5
g6
Ntp997
Rp998
(dp999
g10
g11
(g15
S'\x00\x00\x00\x00\x00\x00\xf8\xff'
p1000
tp1001
Rp1002
sg21
g11
(g15
S'\x00\x00\x00\x00\x00\x00 @'
p1003
tp1004
Rp1005
sg34
g35
sg103
g11
(g45
S'\x07\x00\x00\x00\x00\x00\x00\x00'
p1006
tp1007
Rp1008
sg36
(dp1009
g21
g1005
sg103
g1008
sg108
g11
(g45
S'\x04\x00\x00\x00\x00\x00\x00\x00'
p1010
tp1011
Rp1012
sg38
g11
(g15
S'6\xa0\xd6\xab\x1a\xaa\xe8?'
p1013
tp1014
Rp1015
ssg51
g11
(g12
(S'S6'
p1016
I0
I1
tp1017
Rp1018
(I3
S'|'
p1019
NNNI6
I1
I0
tp1020
bS'ISOMAP'
p1021
tp1022
Rp1023
sg60
F0.2
sg108
g1012
sg61
g11
(g12
(S'S9'
p1024
I0
I1
tp1025
Rp1026
(I3
S'|'
p1027
NNNI9
I1
I0
tp1028
bS'inception'
p1029
tp1030
Rp1031
sg70
g11
(g15
S'a\xaf\xf1\xa4\xfa\x11\xfe?'
p1032
tp1033
Rp1034
sg74
g11
(g12
(S'S2'
p1035
I0
I1
tp1036
Rp1037
(I3
S'|'
p1038
NNNI2
I1
I0
tp1039
bS'RF'
p1040
tp1041
Rp1042
sg83
I3
sg38
g1015
sg84
g85
sg86
g11
(g15
S'\x19\x19\x19\x19\x19\x19\xe5?'
p1043
tp1044
Rp1045
sg90
g91
sg92
g93
sbag4
(g5
g6
Ntp1046
Rp1047
(dp1048
g10
g11
(g15
S'\x00\x00\x00\x00\x00\x00\xf8\xff'
p1049
tp1050
Rp1051
sg21
g11
(g15
S'\x00\x00\x00\x00\x00`m@'
p1052
tp1053
Rp1054
sg34
g35
sg103
g11
(g45
S'\x06\x00\x00\x00\x00\x00\x00\x00'
p1055
tp1056
Rp1057
sg36
(dp1058
g21
g1054
sg103
g1057
sg108
g11
(g45
S'\x02\x00\x00\x00\x00\x00\x00\x00'
p1059
tp1060
Rp1061
sg38
g11
(g15
S'8?(\xfa\xf8R\xe1?'
p1062
tp1063
Rp1064
ssg51
g11
(g12
(S'S6'
p1065
I0
I1
tp1066
Rp1067
(I3
S'|'
p1068
NNNI6
I1
I0
tp1069
bS'ISOMAP'
p1070
tp1071
Rp1072
sg60
F0.2
sg108
g1061
sg61
g11
(g12
(S'S3'
p1073
I0
I1
tp1074
Rp1075
(I3
S'|'
p1076
NNNI3
I1
I0
tp1077
bS'VGG'
p1078
tp1079
Rp1080
sg70
g11
(g15
S'\x1f\xdcl"\xed\x06\xe7?'
p1081
tp1082
Rp1083
sg74
g11
(g12
(S'S2'
p1084
I0
I1
tp1085
Rp1086
(I3
S'|'
p1087
NNNI2
I1
I0
tp1088
bS'RF'
p1089
tp1090
Rp1091
sg83
I3
sg38
g1064
sg84
g85
sg86
g11
(g15
S'\x8d\x9a\x7f\xb5I!\xea?'
p1092
tp1093
Rp1094
sg90
g91
sg92
g93
sbag338
ag4
(g5
g6
Ntp1095
Rp1096
(dp1097
g10
g11
(g15
S'\x00\x00\x00\x00\x00\x00\xf8\xff'
p1098
tp1099
Rp1100
sg21
g11
(g15
S'\x00\x00\x00\x00\x00\x00D@'
p1101
tp1102
Rp1103
sg34
g35
sg103
g11
(g45
S'\x05\x00\x00\x00\x00\x00\x00\x00'
p1104
tp1105
Rp1106
sg36
(dp1107
g21
g1103
sg103
g1106
sg108
g11
(g45
S'\x02\x00\x00\x00\x00\x00\x00\x00'
p1108
tp1109
Rp1110
sg38
g11
(g15
S'\xf4\x96\xb8z\x07\xd7\xef?'
p1111
tp1112
Rp1113
ssg51
g11
(g12
(S'S6'
p1114
I0
I1
tp1115
Rp1116
(I3
S'|'
p1117
NNNI6
I1
I0
tp1118
bS'ISOMAP'
p1119
tp1120
Rp1121
sg60
F0.2
sg108
g1110
sg61
g11
(g12
(S'S9'
p1122
I0
I1
tp1123
Rp1124
(I3
S'|'
p1125
NNNI9
I1
I0
tp1126
bS'inception'
p1127
tp1128
Rp1129
sg70
g11
(g15
S'\x9ffD\xad\xbb&\xf3?'
p1130
tp1131
Rp1132
sg74
g11
(g12
(S'S2'
p1133
I0
I1
tp1134
Rp1135
(I3
S'|'
p1136
NNNI2
I1
I0
tp1137
bS'RF'
p1138
tp1139
Rp1140
sg83
I3
sg38
g1113
sg84
g85
sg86
g11
(g15
S'\x19\x19\x19\x19\x19\x19\xe5?'
p1141
tp1142
Rp1143
sg90
g91
sg92
g93
sbag4
(g5
g6
Ntp1144
Rp1145
(dp1146
g10
g11
(g15
S'\x00\x00\x00\x00\x00\x00\xf8\xff'
p1147
tp1148
Rp1149
sg21
g11
(g15
S'\x00\x00\x00\x00\x00`m@'
p1150
tp1151
Rp1152
sg34
g35
sg103
g11
(g45
S'\x06\x00\x00\x00\x00\x00\x00\x00'
p1153
tp1154
Rp1155
sg36
(dp1156
g21
g1152
sg103
g1155
sg42
g11
(g45
S'\x01\x00\x00\x00\x00\x00\x00\x00'
p1157
tp1158
Rp1159
sg108
g11
(g45
S'\x03\x00\x00\x00\x00\x00\x00\x00'
p1160
tp1161
Rp1162
sg38
g11
(g15
S'\xe8\xbe\xfa\xd9%\t\xe2?'
p1163
tp1164
Rp1165
ssg51
g11
(g12
(S'S6'
p1166
I0
I1
tp1167
Rp1168
(I3
S'|'
p1169
NNNI6
I1
I0
tp1170
bS'ISOMAP'
p1171
tp1172
Rp1173
sg60
F0.2
sg108
g1162
sg61
g11
(g12
(S'S8'
p1174
I0
I1
tp1175
Rp1176
(I3
S'|'
p1177
NNNI8
I1
I0
tp1178
bS'haralick'
p1179
tp1180
Rp1181
sg42
g1159
sg70
g11
(g15
S'c\x01\xf7\xe8\xba!\xe6?'
p1182
tp1183
Rp1184
sg74
g11
(g12
(S'S2'
p1185
I0
I1
tp1186
Rp1187
(I3
S'|'
p1188
NNNI2
I1
I0
tp1189
bS'RF'
p1190
tp1191
Rp1192
sg83
I3
sg38
g1165
sg84
g85
sg86
g11
(g15
S'\xd3\xd1\xd4\xce\xda\xc2\xea?'
p1193
tp1194
Rp1195
sg90
g91
sg92
g93
sbag4
(g5
g6
Ntp1196
Rp1197
(dp1198
g10
g11
(g15
S'\x00\x00\x00\x00\x00\x00\xf8\xff'
p1199
tp1200
Rp1201
sg21
g11
(g15
S'\x00\x00\x00\x00\x00@e@'
p1202
tp1203
Rp1204
sg34
g35
sg103
g11
(g45
S'\x03\x00\x00\x00\x00\x00\x00\x00'
p1205
tp1206
Rp1207
sg36
(dp1208
g21
g1204
sg103
g1207
sg108
g11
(g45
S'\x03\x00\x00\x00\x00\x00\x00\x00'
p1209
tp1210
Rp1211
sg38
g11
(g15
S'\xfb\xa6Nl\xdc\xf9\xe4?'
p1212
tp1213
Rp1214
ssg51
g11
(g12
(S'S6'
p1215
I0
I1
tp1216
Rp1217
(I3
S'|'
p1218
NNNI6
I1
I0
tp1219
bS'ISOMAP'
p1220
tp1221
Rp1222
sg60
F0.2
sg108
g1211
sg61
g11
(g12
(S'S9'
p1223
I0
I1
tp1224
Rp1225
(I3
S'|'
p1226
NNNI9
I1
I0
tp1227
bS'inception'
p1228
tp1229
Rp1230
sg70
g11
(g15
S'\x0f_\xac\xfd\xdb\xb7\xec?'
p1231
tp1232
Rp1233
sg74
g11
(g12
(S'S2'
p1234
I0
I1
tp1235
Rp1236
(I3
S'|'
p1237
NNNI2
I1
I0
tp1238
bS'RF'
p1239
tp1240
Rp1241
sg83
I3
sg38
g1214
sg84
g85
sg86
g11
(g15
S'\xab2"C\x01\x85\xe5?'
p1242
tp1243
Rp1244
sg90
g91
sg92
g93
sbag4
(g5
g6
Ntp1245
Rp1246
(dp1247
g10
g11
(g15
S'\x00\x00\x00\x00\x00\x00\xf8\xff'
p1248
tp1249
Rp1250
sg21
g11
(g15
S'\x00\x00\x00\x00\x00@a@'
p1251
tp1252
Rp1253
sg34
g35
sg103
g11
(g45
S'\x07\x00\x00\x00\x00\x00\x00\x00'
p1254
tp1255
Rp1256
sg36
(dp1257
g21
g1253
sg103
g1256
sg42
g11
(g45
S'\x03\x00\x00\x00\x00\x00\x00\x00'
p1258
tp1259
Rp1260
sg108
g11
(g45
S'\x04\x00\x00\x00\x00\x00\x00\x00'
p1261
tp1262
Rp1263
sg38
g11
(g15
S'\x0e!S=]\xf2\xea?'
p1264
tp1265
Rp1266
ssg51
g11
(g12
(S'S6'
p1267
I0
I1
tp1268
Rp1269
(I3
S'|'
p1270
NNNI6
I1
I0
tp1271
bS'ISOMAP'
p1272
tp1273
Rp1274
sg60
F0.2
sg108
g1263
sg61
g11
(g12
(S'S8'
p1275
I0
I1
tp1276
Rp1277
(I3
S'|'
p1278
NNNI8
I1
I0
tp1279
bS'haralick'
p1280
tp1281
Rp1282
sg42
g1260
sg70
g11
(g15
S'\x05"@\xb1\\s\xe9?'
p1283
tp1284
Rp1285
sg74
g11
(g12
(S'S2'
p1286
I0
I1
tp1287
Rp1288
(I3
S'|'
p1289
NNNI2
I1
I0
tp1290
bS'RF'
p1291
tp1292
Rp1293
sg83
I3
sg38
g1266
sg84
g85
sg86
g11
(g15
S'}\xf7\x01\xed\x16\xc3\xea?'
p1294
tp1295
Rp1296
sg90
g91
sg92
g93
sbag4
(g5
g6
Ntp1297
Rp1298
(dp1299
g10
g11
(g15
S'\x00\x00\x00\x00\x00\x00\xf8\xff'
p1300
tp1301
Rp1302
sg103
g11
(g45
S'\x04\x00\x00\x00\x00\x00\x00\x00'
p1303
tp1304
Rp1305
sg34
g35
sg36
(dp1306
g103
g1305
sg155
g11
(g15
S'd\x90\xfd\x80\xca^%@'
p1307
tp1308
Rp1309
sg108
g11
(g45
S'\x03\x00\x00\x00\x00\x00\x00\x00'
p1310
tp1311
Rp1312
sg165
g11
(g15
S'>>X\xc4\xdc\x07\xe9?'
p1313
tp1314
Rp1315
ssg165
g1315
sg51
g11
(g12
(S'S6'
p1316
I0
I1
tp1317
Rp1318
(I3
S'|'
p1319
NNNI6
I1
I0
tp1320
bS'ISOMAP'
p1321
tp1322
Rp1323
sg60
F0.2
sg108
g1312
sg61
g11
(g12
(S'S9'
p1324
I0
I1
tp1325
Rp1326
(I3
S'|'
p1327
NNNI9
I1
I0
tp1328
bS'inception'
p1329
tp1330
Rp1331
sg155
g1309
sg70
g11
(g15
S"Q'8\xbc\xc5\x00\xe0?"
p1332
tp1333
Rp1334
sg74
g11
(g12
(S'S3'
p1335
I0
I1
tp1336
Rp1337
(I3
S'|'
p1338
NNNI3
I1
I0
tp1339
bS'SVM'
p1340
tp1341
Rp1342
sg83
I3
sg84
g85
sg86
g11
(g15
S'\xb3\x99\xccf2\x9b\xe1?'
p1343
tp1344
Rp1345
sg90
g91
sg92
g93
sbag4
(g5
g6
Ntp1346
Rp1347
(dp1348
g10
g11
(g15
S'\x00\x00\x00\x00\x00\x00\xf8\xff'
p1349
tp1350
Rp1351
sg21
g11
(g15
S'\x00\x00\x00\x00\x00\x00 @'
p1352
tp1353
Rp1354
sg25
g207
sg34
g35
sg36
(dp1355
g21
g1354
sg38
g11
(g15
S'\xac\xee\xef\x95\x90k\xef?'
p1356
tp1357
Rp1358
sg25
g207
sg42
g11
(g45
S'\x01\x00\x00\x00\x00\x00\x00\x00'
p1359
tp1360
Rp1361
ssg51
g11
(g12
(S'S3'
p1362
I0
I1
tp1363
Rp1364
(I3
S'|'
p1365
NNNI3
I1
I0
tp1366
bS'PCA'
p1367
tp1368
Rp1369
sg60
F0.2
sg61
g11
(g12
(S'S8'
p1370
I0
I1
tp1371
Rp1372
(I3
S'|'
p1373
NNNI8
I1
I0
tp1374
bS'haralick'
p1375
tp1376
Rp1377
sg42
g1361
sg70
g11
(g15
S'\xaf4\xcd\xdd"\xfb\x03@'
p1378
tp1379
Rp1380
sg74
g11
(g12
(S'S2'
p1381
I0
I1
tp1382
Rp1383
(I3
S'|'
p1384
NNNI2
I1
I0
tp1385
bS'RF'
p1386
tp1387
Rp1388
sg83
I3
sg38
g1358
sg84
g85
sg86
g11
(g15
S'H\xe7\xa9$/\x1a\xe8?'
p1389
tp1390
Rp1391
sg90
g91
sg92
g93
sbag4
(g5
g6
Ntp1392
Rp1393
(dp1394
g10
g11
(g15
S'\x00\x00\x00\x00\x00\x00\xf8\xff'
p1395
tp1396
Rp1397
sg25
g207
sg34
g35
sg36
(dp1398
g25
g207
sg155
g11
(g15
S'M\x8f\xa2R\xcaIR@'
p1399
tp1400
Rp1401
sg165
g11
(g15
S'?^s[\x0f\xa7\r@'
p1402
tp1403
Rp1404
ssg51
g11
(g12
(S'S3'
p1405
I0
I1
tp1406
Rp1407
(I3
S'|'
p1408
NNNI3
I1
I0
tp1409
bS'PCA'
p1410
tp1411
Rp1412
sg60
F0.2
sg165
g1404
sg61
g11
(g12
(S'S3'
p1413
I0
I1
tp1414
Rp1415
(I3
S'|'
p1416
NNNI3
I1
I0
tp1417
bS'VGG'
p1418
tp1419
Rp1420
sg155
g1401
sg70
g11
(g15
S'\xdb\xe6\xd7\x93z;\xd8?'
p1421
tp1422
Rp1423
sg74
g11
(g12
(S'S3'
p1424
I0
I1
tp1425
Rp1426
(I3
S'|'
p1427
NNNI3
I1
I0
tp1428
bS'SVM'
p1429
tp1430
Rp1431
sg83
I3
sg84
g85
sg86
g11
(g15
S'\xd8|3\xc6\xa0\xeb\xe9?'
p1432
tp1433
Rp1434
sg90
g91
sg92
g93
sbag4
(g5
g6
Ntp1435
Rp1436
(dp1437
g10
g11
(g15
S'\x00\x00\x00\x00\x00\x00\xf8\xff'
p1438
tp1439
Rp1440
sg21
g11
(g15
S'\x00\x00\x00\x00\x00@Z@'
p1441
tp1442
Rp1443
sg34
g35
sg103
g11
(g45
S'\x05\x00\x00\x00\x00\x00\x00\x00'
p1444
tp1445
Rp1446
sg36
(dp1447
g21
g1443
sg103
g1446
sg42
g11
(g45
S'\x02\x00\x00\x00\x00\x00\x00\x00'
p1448
tp1449
Rp1450
sg108
g11
(g45
S'\x04\x00\x00\x00\x00\x00\x00\x00'
p1451
tp1452
Rp1453
sg38
g11
(g15
S'}?G/\xe1;\xe1?'
p1454
tp1455
Rp1456
ssg51
g11
(g12
(S'S6'
p1457
I0
I1
tp1458
Rp1459
(I3
S'|'
p1460
NNNI6
I1
I0
tp1461
bS'ISOMAP'
p1462
tp1463
Rp1464
sg60
F0.2
sg108
g1453
sg61
g11
(g12
(S'S8'
p1465
I0
I1
tp1466
Rp1467
(I3
S'|'
p1468
NNNI8
I1
I0
tp1469
bS'haralick'
p1470
tp1471
Rp1472
sg42
g1450
sg70
g11
(g15
S'\x1d:\xb9\x92iV\xeb?'
p1473
tp1474
Rp1475
sg74
g11
(g12
(S'S2'
p1476
I0
I1
tp1477
Rp1478
(I3
S'|'
p1479
NNNI2
I1
I0
tp1480
bS'RF'
p1481
tp1482
Rp1483
sg83
I3
sg38
g1456
sg84
g85
sg86
g11
(g15
S'\xb0\x81\xde$\x98\xb1\xea?'
p1484
tp1485
Rp1486
sg90
g91
sg92
g93
sbag4
(g5
g6
Ntp1487
Rp1488
(dp1489
g10
g11
(g15
S'\x00\x00\x00\x00\x00\x00\xf8\xff'
p1490
tp1491
Rp1492
sg21
g11
(g15
S'\x00\x00\x00\x00\x00\xc0p@'
p1493
tp1494
Rp1495
sg34
g35
sg103
g11
(g45
S'\x03\x00\x00\x00\x00\x00\x00\x00'
p1496
tp1497
Rp1498
sg36
(dp1499
g21
g1495
sg103
g1498
sg108
g11
(g45
S'\x03\x00\x00\x00\x00\x00\x00\x00'
p1500
tp1501
Rp1502
sg38
g11
(g15
S'S\x8c\x11\xec\xddp\xdc?'
p1503
tp1504
Rp1505
ssg51
g11
(g12
(S'S6'
p1506
I0
I1
tp1507
Rp1508
(I3
S'|'
p1509
NNNI6
I1
I0
tp1510
bS'ISOMAP'
p1511
tp1512
Rp1513
sg60
F0.2
sg108
g1502
sg61
g11
(g12
(S'S9'
p1514
I0
I1
tp1515
Rp1516
(I3
S'|'
p1517
NNNI9
I1
I0
tp1518
bS'inception'
p1519
tp1520
Rp1521
sg70
g11
(g15
S'@\xcb\xb0S\xc8\x81\xec?'
p1522
tp1523
Rp1524
sg74
g11
(g12
(S'S2'
p1525
I0
I1
tp1526
Rp1527
(I3
S'|'
p1528
NNNI2
I1
I0
tp1529
bS'RF'
p1530
tp1531
Rp1532
sg83
I3
sg38
g1505
sg84
g85
sg86
g11
(g15
S'l\xb0&:\x13a\xe5?'
p1533
tp1534
Rp1535
sg90
g91
sg92
g93
sbag381
ag4
(g5
g6
Ntp1536
Rp1537
(dp1538
g10
g11
(g15
S'\x00\x00\x00\x00\x00\x00\xf8\xff'
p1539
tp1540
Rp1541
sg21
g11
(g15
S'\x00\x00\x00\x00\x00`m@'
p1542
tp1543
Rp1544
sg25
g207
sg34
g35
sg36
(dp1545
g21
g1544
sg38
g11
(g15
S'\x89u=K\x1ba\xe3?'
p1546
tp1547
Rp1548
sg25
g207
ssg51
g11
(g12
(S'S3'
p1549
I0
I1
tp1550
Rp1551
(I3
S'|'
p1552
NNNI3
I1
I0
tp1553
bS'PCA'
p1554
tp1555
Rp1556
sg60
F0.2
sg61
g11
(g12
(S'S9'
p1557
I0
I1
tp1558
Rp1559
(I3
S'|'
p1560
NNNI9
I1
I0
tp1561
bS'inception'
p1562
tp1563
Rp1564
sg70
g11
(g15
S'4\xc2D\x85\xba\xe7\xe0?'
p1565
tp1566
Rp1567
sg74
g11
(g12
(S'S2'
p1568
I0
I1
tp1569
Rp1570
(I3
S'|'
p1571
NNNI2
I1
I0
tp1572
bS'RF'
p1573
tp1574
Rp1575
sg83
I3
sg38
g1548
sg84
g85
sg86
g11
(g15
S'P\x04\x9dk\xce\x08\xe8?'
p1576
tp1577
Rp1578
sg90
g91
sg92
g93
sbag4
(g5
g6
Ntp1579
Rp1580
(dp1581
g10
g11
(g15
S'\x00\x00\x00\x00\x00\x00\xf8\xff'
p1582
tp1583
Rp1584
sg21
g11
(g15
S'\x00\x00\x00\x00\x00\x00D@'
p1585
tp1586
Rp1587
sg34
g35
sg103
g11
(g45
S'\x03\x00\x00\x00\x00\x00\x00\x00'
p1588
tp1589
Rp1590
sg36
(dp1591
g21
g1587
sg103
g1590
sg42
g11
(g45
S'\x03\x00\x00\x00\x00\x00\x00\x00'
p1592
tp1593
Rp1594
sg108
g11
(g45
S'\x02\x00\x00\x00\x00\x00\x00\x00'
p1595
tp1596
Rp1597
sg38
g11
(g15
S'g\xdd\xa1\n\x15\xe5\xd7?'
p1598
tp1599
Rp1600
ssg51
g11
(g12
(S'S6'
p1601
I0
I1
tp1602
Rp1603
(I3
S'|'
p1604
NNNI6
I1
I0
tp1605
bS'ISOMAP'
p1606
tp1607
Rp1608
sg60
F0.2
sg108
g1597
sg61
g11
(g12
(S'S8'
p1609
I0
I1
tp1610
Rp1611
(I3
S'|'
p1612
NNNI8
I1
I0
tp1613
bS'haralick'
p1614
tp1615
Rp1616
sg42
g1594
sg70
g11
(g15
S"\xc7|Y\x17'\xb2\xf6?"
p1617
tp1618
Rp1619
sg74
g11
(g12
(S'S2'
p1620
I0
I1
tp1621
Rp1622
(I3
S'|'
p1623
NNNI2
I1
I0
tp1624
bS'RF'
p1625
tp1626
Rp1627
sg83
I3
sg38
g1600
sg84
g85
sg86
g11
(g15
S'\x83\n\xfa\x1a\xd9\\\xe9?'
p1628
tp1629
Rp1630
sg90
g91
sg92
g93
sbag4
(g5
g6
Ntp1631
Rp1632
(dp1633
g10
g11
(g15
S'\x00\x00\x00\x00\x00\x00\xf8\xff'
p1634
tp1635
Rp1636
sg25
g33
sg34
g35
sg36
(dp1637
g25
g33
sg155
g11
(g15
S'I\x0c\xd3\xa7,\xfd"@'
p1638
tp1639
Rp1640
sg165
g11
(g15
S'\xedM\x10Sr3\xf0?'
p1641
tp1642
Rp1643
ssg51
g11
(g12
(S'S3'
p1644
I0
I1
tp1645
Rp1646
(I3
S'|'
p1647
NNNI3
I1
I0
tp1648
bS'PCA'
p1649
tp1650
Rp1651
sg60
F0.2
sg165
g1643
sg61
g11
(g12
(S'S9'
p1652
I0
I1
tp1653
Rp1654
(I3
S'|'
p1655
NNNI9
I1
I0
tp1656
bS'inception'
p1657
tp1658
Rp1659
sg155
g1640
sg70
g11
(g15
S'.B?#\x97m\xe0?'
p1660
tp1661
Rp1662
sg74
g11
(g12
(S'S3'
p1663
I0
I1
tp1664
Rp1665
(I3
S'|'
p1666
NNNI3
I1
I0
tp1667
bS'SVM'
p1668
tp1669
Rp1670
sg83
I3
sg84
g85
sg86
g11
(g15
S'g3\x99\xcdd6\xe3?'
p1671
tp1672
Rp1673
sg90
g91
sg92
g93
sbag4
(g5
g6
Ntp1674
Rp1675
(dp1676
g10
g11
(g15
S'\x00\x00\x00\x00\x00\x00\xf8\xff'
p1677
tp1678
Rp1679
sg25
g33
sg34
g35
sg36
(dp1680
g25
g33
sg155
g11
(g15
S'H \x88\xe0^SG@'
p1681
tp1682
Rp1683
sg165
g11
(g15
S'\n\x92\x9cT\xe0\xfd\xda?'
p1684
tp1685
Rp1686
ssg51
g11
(g12
(S'S3'
p1687
I0
I1
tp1688
Rp1689
(I3
S'|'
p1690
NNNI3
I1
I0
tp1691
bS'PCA'
p1692
tp1693
Rp1694
sg60
F0.2
sg165
g1686
sg61
g11
(g12
(S'S9'
p1695
I0
I1
tp1696
Rp1697
(I3
S'|'
p1698
NNNI9
I1
I0
tp1699
bS'inception'
p1700
tp1701
Rp1702
sg155
g1683
sg70
g11
(g15
S'\xdd\x14H\xae\xecP\xe0?'
p1703
tp1704
Rp1705
sg74
g11
(g12
(S'S3'
p1706
I0
I1
tp1707
Rp1708
(I3
S'|'
p1709
NNNI3
I1
I0
tp1710
bS'SVM'
p1711
tp1712
Rp1713
sg83
I3
sg84
g85
sg86
g11
(g15
S'\x91\xec5\xa3\xc8}\xe3?'
p1714
tp1715
Rp1716
sg90
g91
sg92
g93
sbag4
(g5
g6
Ntp1717
Rp1718
(dp1719
g10
g11
(g15
S'\x00\x00\x00\x00\x00\x00\xf8\xff'
p1720
tp1721
Rp1722
sg25
g207
sg34
g35
sg36
(dp1723
g25
g207
sg155
g11
(g15
S'/\xb7:m\xa3-P@'
p1724
tp1725
Rp1726
sg42
g11
(g45
S'\x01\x00\x00\x00\x00\x00\x00\x00'
p1727
tp1728
Rp1729
sg165
g11
(g15
S'\xd6\x9f\x8f\x18\xf3\x18\xfd?'
p1730
tp1731
Rp1732
ssg51
g11
(g12
(S'S3'
p1733
I0
I1
tp1734
Rp1735
(I3
S'|'
p1736
NNNI3
I1
I0
tp1737
bS'PCA'
p1738
tp1739
Rp1740
sg60
F0.2
sg165
g1732
sg61
g11
(g12
(S'S8'
p1741
I0
I1
tp1742
Rp1743
(I3
S'|'
p1744
NNNI8
I1
I0
tp1745
bS'haralick'
p1746
tp1747
Rp1748
sg155
g1726
sg42
g1729
sg70
g11
(g15
S'\xd3\x00\xdd\xcb\xf1\xc7\xdc?'
p1749
tp1750
Rp1751
sg74
g11
(g12
(S'S3'
p1752
I0
I1
tp1753
Rp1754
(I3
S'|'
p1755
NNNI3
I1
I0
tp1756
bS'SVM'
p1757
tp1758
Rp1759
sg83
I3
sg84
g85
sg86
g11
(g15
S'\xb8\xe9\x86L\xc1\xd7\xe6?'
p1760
tp1761
Rp1762
sg90
g91
sg92
g93
sbag4
(g5
g6
Ntp1763
Rp1764
(dp1765
g10
g11
(g15
S'\x00\x00\x00\x00\x00\x00\xf8\xff'
p1766
tp1767
Rp1768
sg25
g33
sg34
g35
sg36
(dp1769
g25
g33
sg155
g11
(g15
S'\x13\xe9\xac\xa3\xf3a@@'
p1770
tp1771
Rp1772
sg42
g11
(g45
S'\x02\x00\x00\x00\x00\x00\x00\x00'
p1773
tp1774
Rp1775
sg165
g11
(g15
S'P\xc3*\xa9\x89\x95\x1d@'
p1776
tp1777
Rp1778
ssg51
g11
(g12
(S'S3'
p1779
I0
I1
tp1780
Rp1781
(I3
S'|'
p1782
NNNI3
I1
I0
tp1783
bS'PCA'
p1784
tp1785
Rp1786
sg60
F0.2
sg165
g1778
sg61
g11
(g12
(S'S8'
p1787
I0
I1
tp1788
Rp1789
(I3
S'|'
p1790
NNNI8
I1
I0
tp1791
bS'haralick'
p1792
tp1793
Rp1794
sg155
g1772
sg42
g1775
sg70
g11
(g15
S'\xc4\xfb\xa6\xec\xfaw\xda?'
p1795
tp1796
Rp1797
sg74
g11
(g12
(S'S3'
p1798
I0
I1
tp1799
Rp1800
(I3
S'|'
p1801
NNNI3
I1
I0
tp1802
bS'SVM'
p1803
tp1804
Rp1805
sg83
I3
sg84
g85
sg86
g11
(g15
S'\x99\xfa7\xbd\xb2\xc7\xe9?'
p1806
tp1807
Rp1808
sg90
g91
sg92
g93
sbag4
(g5
g6
Ntp1809
Rp1810
(dp1811
g10
g11
(g15
S'\x00\x00\x00\x00\x00\x00\xf8\xff'
p1812
tp1813
Rp1814
sg21
g11
(g15
S'\x00\x00\x00\x00\x00\x00 @'
p1815
tp1816
Rp1817
sg25
g33
sg34
g35
sg36
(dp1818
g21
g1817
sg38
g11
(g15
S'\x05\xdb\x9cf\xa8s\xe1?'
p1819
tp1820
Rp1821
sg25
g33
sg42
g11
(g45
S'\x02\x00\x00\x00\x00\x00\x00\x00'
p1822
tp1823
Rp1824
ssg51
g11
(g12
(S'S3'
p1825
I0
I1
tp1826
Rp1827
(I3
S'|'
p1828
NNNI3
I1
I0
tp1829
bS'PCA'
p1830
tp1831
Rp1832
sg60
F0.2
sg61
g11
(g12
(S'S8'
p1833
I0
I1
tp1834
Rp1835
(I3
S'|'
p1836
NNNI8
I1
I0
tp1837
bS'haralick'
p1838
tp1839
Rp1840
sg42
g1824
sg70
g11
(g15
S'\rNf\x96\x1cN\xf9?'
p1841
tp1842
Rp1843
sg74
g11
(g12
(S'S2'
p1844
I0
I1
tp1845
Rp1846
(I3
S'|'
p1847
NNNI2
I1
I0
tp1848
bS'RF'
p1849
tp1850
Rp1851
sg83
I3
sg38
g1821
sg84
g85
sg86
g11
(g15
S'\x0b7\xdd\x90)\xf8\xea?'
p1852
tp1853
Rp1854
sg90
g91
sg92
g93
sbag4
(g5
g6
Ntp1855
Rp1856
(dp1857
g10
g11
(g15
S'\x00\x00\x00\x00\x00\x00\xf8\xff'
p1858
tp1859
Rp1860
sg25
g33
sg34
g35
sg36
(dp1861
g25
g33
sg155
g11
(g15
S'\xa3\xb1\x98\x8b:\xad;@'
p1862
tp1863
Rp1864
sg165
g11
(g15
S'\xc6\r2\x88\xdd\x12\x1b@'
p1865
tp1866
Rp1867
ssg51
g11
(g12
(S'S3'
p1868
I0
I1
tp1869
Rp1870
(I3
S'|'
p1871
NNNI3
I1
I0
tp1872
bS'PCA'
p1873
tp1874
Rp1875
sg60
F0.2
sg165
g1867
sg61
g11
(g12
(S'S3'
p1876
I0
I1
tp1877
Rp1878
(I3
S'|'
p1879
NNNI3
I1
I0
tp1880
bS'VGG'
p1881
tp1882
Rp1883
sg155
g1864
sg70
g11
(g15
S'\xf5\x9e!/\x04`\xd9?'
p1884
tp1885
Rp1886
sg74
g11
(g12
(S'S3'
p1887
I0
I1
tp1888
Rp1889
(I3
S'|'
p1890
NNNI3
I1
I0
tp1891
bS'SVM'
p1892
tp1893
Rp1894
sg83
I3
sg84
g85
sg86
g11
(g15
S'\xad\xc3\x96\xf0<\xa4\xe9?'
p1895
tp1896
Rp1897
sg90
g91
sg92
g93
sbag4
(g5
g6
Ntp1898
Rp1899
(dp1900
g10
g11
(g15
S'\x00\x00\x00\x00\x00\x00\xf8\xff'
p1901
tp1902
Rp1903
sg21
g11
(g15
S'\x00\x00\x00\x00\x00@R@'
p1904
tp1905
Rp1906
sg34
g35
sg103
g11
(g45
S'\x07\x00\x00\x00\x00\x00\x00\x00'
p1907
tp1908
Rp1909
sg36
(dp1910
g21
g1906
sg103
g1909
sg108
g11
(g45
S'\x04\x00\x00\x00\x00\x00\x00\x00'
p1911
tp1912
Rp1913
sg38
g11
(g15
S'\xbf\xa69\x03\x04f\xe0?'
p1914
tp1915
Rp1916
ssg51
g11
(g12
(S'S6'
p1917
I0
I1
tp1918
Rp1919
(I3
S'|'
p1920
NNNI6
I1
I0
tp1921
bS'ISOMAP'
p1922
tp1923
Rp1924
sg60
F0.2
sg108
g1913
sg61
g11
(g12
(S'S9'
p1925
I0
I1
tp1926
Rp1927
(I3
S'|'
p1928
NNNI9
I1
I0
tp1929
bS'inception'
p1930
tp1931
Rp1932
sg70
g11
(g15
S'\x1dqJ\xb9\x91\x1c\xea?'
p1933
tp1934
Rp1935
sg74
g11
(g12
(S'S2'
p1936
I0
I1
tp1937
Rp1938
(I3
S'|'
p1939
NNNI2
I1
I0
tp1940
bS'RF'
p1941
tp1942
Rp1943
sg83
I3
sg38
g1916
sg84
g85
sg86
g11
(g15
S'\xedC\x96\xf1:\xa8\xe5?'
p1944
tp1945
Rp1946
sg90
g91
sg92
g93
sbag4
(g5
g6
Ntp1947
Rp1948
(dp1949
g10
g11
(g15
S'\x00\x00\x00\x00\x00\x00\xf8\xff'
p1950
tp1951
Rp1952
sg21
g11
(g15
S'\x00\x00\x00\x00\x00`i@'
p1953
tp1954
Rp1955
sg34
g35
sg103
g11
(g45
S'\x04\x00\x00\x00\x00\x00\x00\x00'
p1956
tp1957
Rp1958
sg36
(dp1959
g21
g1955
sg103
g1958
sg42
g11
(g45
S'\x03\x00\x00\x00\x00\x00\x00\x00'
p1960
tp1961
Rp1962
sg108
g11
(g45
S'\x03\x00\x00\x00\x00\x00\x00\x00'
p1963
tp1964
Rp1965
sg38
g11
(g15
S'\xa5\xefVj\xbf\xf8\xdb?'
p1966
tp1967
Rp1968
ssg51
g11
(g12
(S'S6'
p1969
I0
I1
tp1970
Rp1971
(I3
S'|'
p1972
NNNI6
I1
I0
tp1973
bS'ISOMAP'
p1974
tp1975
Rp1976
sg60
F0.2
sg108
g1965
sg61
g11
(g12
(S'S8'
p1977
I0
I1
tp1978
Rp1979
(I3
S'|'
p1980
NNNI8
I1
I0
tp1981
bS'haralick'
p1982
tp1983
Rp1984
sg42
g1962
sg70
g11
(g15
S'\xc4\x81F|\xe9_\xef?'
p1985
tp1986
Rp1987
sg74
g11
(g12
(S'S2'
p1988
I0
I1
tp1989
Rp1990
(I3
S'|'
p1991
NNNI2
I1
I0
tp1992
bS'RF'
p1993
tp1994
Rp1995
sg83
I3
sg38
g1968
sg84
g85
sg86
g11
(g15
S'\xe0}@\xbb\xc5\xb0\xea?'
p1996
tp1997
Rp1998
sg90
g91
sg92
g93
sbag424
ag4
(g5
g6
Ntp1999
Rp2000
(dp2001
g10
g11
(g15
S'\x00\x00\x00\x00\x00\x00\xf8\xff'
p2002
tp2003
Rp2004
sg103
g11
(g45
S'\x05\x00\x00\x00\x00\x00\x00\x00'
p2005
tp2006
Rp2007
sg34
g35
sg36
(dp2008
g103
g2007
sg155
g11
(g15
S'R<"\x84\x17\xa9\xcc?'
p2009
tp2010
Rp2011
sg42
g11
(g45
S'\x02\x00\x00\x00\x00\x00\x00\x00'
p2012
tp2013
Rp2014
sg108
g11
(g45
S'\x02\x00\x00\x00\x00\x00\x00\x00'
p2015
tp2016
Rp2017
sg165
g11
(g15
S'\x81\xa8\x94\x17\xb0\xb2\x1e@'
p2018
tp2019
Rp2020
ssg165
g2020
sg51
g11
(g12
(S'S6'
p2021
I0
I1
tp2022
Rp2023
(I3
S'|'
p2024
NNNI6
I1
I0
tp2025
bS'ISOMAP'
p2026
tp2027
Rp2028
sg60
F0.2
sg108
g2017
sg61
g11
(g12
(S'S8'
p2029
I0
I1
tp2030
Rp2031
(I3
S'|'
p2032
NNNI8
I1
I0
tp2033
bS'haralick'
p2034
tp2035
Rp2036
sg155
g2011
sg42
g2014
sg70
g11
(g15
S'C\x10\xc3A\x00\xd0\xdb?'
p2037
tp2038
Rp2039
sg74
g11
(g12
(S'S3'
p2040
I0
I1
tp2041
Rp2042
(I3
S'|'
p2043
NNNI3
I1
I0
tp2044
bS'SVM'
p2045
tp2046
Rp2047
sg83
I3
sg84
g85
sg86
g11
(g15
S'\xbb\xf3\x81e\x9e,\xe8?'
p2048
tp2049
Rp2050
sg90
g91
sg92
g93
sbag4
(g5
g6
Ntp2051
Rp2052
(dp2053
g10
g11
(g15
S'\x00\x00\x00\x00\x00\x00\xf8\xff'
p2054
tp2055
Rp2056
sg21
g11
(g15
S'\x00\x00\x00\x00\x00@e@'
p2057
tp2058
Rp2059
sg34
g35
sg103
g11
(g45
S'\x07\x00\x00\x00\x00\x00\x00\x00'
p2060
tp2061
Rp2062
sg36
(dp2063
g21
g2059
sg103
g2062
sg108
g11
(g45
S'\x03\x00\x00\x00\x00\x00\x00\x00'
p2064
tp2065
Rp2066
sg38
g11
(g15
S'\xf2\xdf\xe5\xdb\x10\xa6\xe6?'
p2067
tp2068
Rp2069
ssg51
g11
(g12
(S'S6'
p2070
I0
I1
tp2071
Rp2072
(I3
S'|'
p2073
NNNI6
I1
I0
tp2074
bS'ISOMAP'
p2075
tp2076
Rp2077
sg60
F0.2
sg108
g2066
sg61
g11
(g12
(S'S3'
p2078
I0
I1
tp2079
Rp2080
(I3
S'|'
p2081
NNNI3
I1
I0
tp2082
bS'VGG'
p2083
tp2084
Rp2085
sg70
g11
(g15
S'L+\xcf\xd2\xe3r\xe5?'
p2086
tp2087
Rp2088
sg74
g11
(g12
(S'S2'
p2089
I0
I1
tp2090
Rp2091
(I3
S'|'
p2092
NNNI2
I1
I0
tp2093
bS'RF'
p2094
tp2095
Rp2096
sg83
I3
sg38
g2069
sg84
g85
sg86
g11
(g15
S'+\xac\xa7\xb0\x9e\xc2\xea?'
p2097
tp2098
Rp2099
sg90
g91
sg92
g93
sbag4
(g5
g6
Ntp2100
Rp2101
(dp2102
g10
g11
(g15
S'\x00\x00\x00\x00\x00\x00\xf8\xff'
p2103
tp2104
Rp2105
sg21
g11
(g15
S'\x00\x00\x00\x00\x00`i@'
p2106
tp2107
Rp2108
sg25
g33
sg34
g35
sg36
(dp2109
g21
g2108
sg38
g11
(g15
S'\x87\xa0\x10\xa8\xb0E\xe2?'
p2110
tp2111
Rp2112
sg25
g33
sg42
g11
(g45
S'\x02\x00\x00\x00\x00\x00\x00\x00'
p2113
tp2114
Rp2115
ssg51
g11
(g12
(S'S3'
p2116
I0
I1
tp2117
Rp2118
(I3
S'|'
p2119
NNNI3
I1
I0
tp2120
bS'PCA'
p2121
tp2122
Rp2123
sg60
F0.2
sg61
g11
(g12
(S'S8'
p2124
I0
I1
tp2125
Rp2126
(I3
S'|'
p2127
NNNI8
I1
I0
tp2128
bS'haralick'
p2129
tp2130
Rp2131
sg42
g2115
sg70
g11
(g15
S'\x9f\xe5uc\x17\xcb\xe6?'
p2132
tp2133
Rp2134
sg74
g11
(g12
(S'S2'
p2135
I0
I1
tp2136
Rp2137
(I3
S'|'
p2138
NNNI2
I1
I0
tp2139
bS'RF'
p2140
tp2141
Rp2142
sg83
I3
sg38
g2112
sg84
g85
sg86
g11
(g15
S'\xe5\xca\x00\x95l\xbd\xeb?'
p2143
tp2144
Rp2145
sg90
g91
sg92
g93
sbag4
(g5
g6
Ntp2146
Rp2147
(dp2148
g10
g11
(g15
S'\x00\x00\x00\x00\x00\x00\xf8\xff'
p2149
tp2150
Rp2151
sg25
g33
sg34
g35
sg36
(dp2152
g25
g33
sg155
g11
(g15
S'*\x0b:\xf6\xa8\x03U@'
p2153
tp2154
Rp2155
sg165
g11
(g15
S'W\x1d\x15\x0b\xe5\xd9\x17@'
p2156
tp2157
Rp2158
ssg51
g11
(g12
(S'S3'
p2159
I0
I1
tp2160
Rp2161
(I3
S'|'
p2162
NNNI3
I1
I0
tp2163
bS'PCA'
p2164
tp2165
Rp2166
sg60
F0.2
sg165
g2158
sg61
g11
(g12
(S'S9'
p2167
I0
I1
tp2168
Rp2169
(I3
S'|'
p2170
NNNI9
I1
I0
tp2171
bS'inception'
p2172
tp2173
Rp2174
sg155
g2155
sg70
g11
(g15
S'/\xef\xa9\x83_\xa1\xe0?'
p2175
tp2176
Rp2177
sg74
g11
(g12
(S'S3'
p2178
I0
I1
tp2179
Rp2180
(I3
S'|'
p2181
NNNI3
I1
I0
tp2182
bS'SVM'
p2183
tp2184
Rp2185
sg83
I3
sg84
g85
sg86
g11
(g15
S'p\xa78\x16[\xd1\xe4?'
p2186
tp2187
Rp2188
sg90
g91
sg92
g93
sbag4
(g5
g6
Ntp2189
Rp2190
(dp2191
g10
g11
(g15
S'\x00\x00\x00\x00\x00\x00\xf8\xff'
p2192
tp2193
Rp2194
sg21
g11
(g15
S'\x00\x00\x00\x00\x00`i@'
p2195
tp2196
Rp2197
sg25
g207
sg34
g35
sg36
(dp2198
g21
g2197
sg38
g11
(g15
S'\xa2\x9c\xf3\\Y\x89\xe8?'
p2199
tp2200
Rp2201
sg25
g207
ssg51
g11
(g12
(S'S3'
p2202
I0
I1
tp2203
Rp2204
(I3
S'|'
p2205
NNNI3
I1
I0
tp2206
bS'PCA'
p2207
tp2208
Rp2209
sg60
F0.2
sg61
g11
(g12
(S'S3'
p2210
I0
I1
tp2211
Rp2212
(I3
S'|'
p2213
NNNI3
I1
I0
tp2214
bS'VGG'
p2215
tp2216
Rp2217
sg70
g11
(g15
S'Sbl13;\xd3?'
p2218
tp2219
Rp2220
sg74
g11
(g12
(S'S2'
p2221
I0
I1
tp2222
Rp2223
(I3
S'|'
p2224
NNNI2
I1
I0
tp2225
bS'RF'
p2226
tp2227
Rp2228
sg83
I3
sg38
g2201
sg84
g85
sg86
g11
(g15
S'\xd1MUFd(\xec?'
p2229
tp2230
Rp2231
sg90
g91
sg92
g93
sbag4
(g5
g6
Ntp2232
Rp2233
(dp2234
g10
g11
(g15
S'\x00\x00\x00\x00\x00\x00\xf8\xff'
p2235
tp2236
Rp2237
sg103
g11
(g45
S'\x05\x00\x00\x00\x00\x00\x00\x00'
p2238
tp2239
Rp2240
sg34
g35
sg36
(dp2241
g103
g2240
sg155
g11
(g15
S'\xd3\xb1\xc7\xea-\x8cG@'
p2242
tp2243
Rp2244
sg42
g11
(g45
S'\x03\x00\x00\x00\x00\x00\x00\x00'
p2245
tp2246
Rp2247
sg108
g11
(g45
S'\x04\x00\x00\x00\x00\x00\x00\x00'
p2248
tp2249
Rp2250
sg165
g11
(g15
S'%\xc9\xd9\x8c\xd3H\x0b@'
p2251
tp2252
Rp2253
ssg165
g2253
sg51
g11
(g12
(S'S6'
p2254
I0
I1
tp2255
Rp2256
(I3
S'|'
p2257
NNNI6
I1
I0
tp2258
bS'ISOMAP'
p2259
tp2260
Rp2261
sg60
F0.2
sg108
g2250
sg61
g11
(g12
(S'S8'
p2262
I0
I1
tp2263
Rp2264
(I3
S'|'
p2265
NNNI8
I1
I0
tp2266
bS'haralick'
p2267
tp2268
Rp2269
sg155
g2244
sg42
g2247
sg70
g11
(g15
S'K\xf1\x892\x87\xda\xdd?'
p2270
tp2271
Rp2272
sg74
g11
(g12
(S'S3'
p2273
I0
I1
tp2274
Rp2275
(I3
S'|'
p2276
NNNI3
I1
I0
tp2277
bS'SVM'
p2278
tp2279
Rp2280
sg83
I3
sg84
g85
sg86
g11
(g15
S'_\x9e\x1d\x1f\x1c"\xea?'
p2281
tp2282
Rp2283
sg90
g91
sg92
g93
sbag4
(g5
g6
Ntp2284
Rp2285
(dp2286
g10
g11
(g15
S'\x00\x00\x00\x00\x00\x00\xf8\xff'
p2287
tp2288
Rp2289
sg103
g11
(g45
S'\x07\x00\x00\x00\x00\x00\x00\x00'
p2290
tp2291
Rp2292
sg34
g35
sg36
(dp2293
g103
g2292
sg155
g11
(g15
S'e\xfa\xa2u\xcd\x81\x1a@'
p2294
tp2295
Rp2296
sg108
g11
(g45
S'\x03\x00\x00\x00\x00\x00\x00\x00'
p2297
tp2298
Rp2299
sg165
g11
(g15
S'xU+h&\xf8\xf7?'
p2300
tp2301
Rp2302
ssg165
g2302
sg51
g11
(g12
(S'S6'
p2303
I0
I1
tp2304
Rp2305
(I3
S'|'
p2306
NNNI6
I1
I0
tp2307
bS'ISOMAP'
p2308
tp2309
Rp2310
sg60
F0.2
sg108
g2299
sg61
g11
(g12
(S'S9'
p2311
I0
I1
tp2312
Rp2313
(I3
S'|'
p2314
NNNI9
I1
I0
tp2315
bS'inception'
p2316
tp2317
Rp2318
sg155
g2296
sg70
g11
(g15
S'\xa1\xa2\xc8\x1a[\xe5\xdf?'
p2319
tp2320
Rp2321
sg74
g11
(g12
(S'S3'
p2322
I0
I1
tp2323
Rp2324
(I3
S'|'
p2325
NNNI3
I1
I0
tp2326
bS'SVM'
p2327
tp2328
Rp2329
sg83
I3
sg84
g85
sg86
g11
(g15
S'P\xab\xf4a\x87<\xe2?'
p2330
tp2331
Rp2332
sg90
g91
sg92
g93
sbag4
(g5
g6
Ntp2333
Rp2334
(dp2335
g10
g11
(g15
S'\x00\x00\x00\x00\x00\x00\xf8\xff'
p2336
tp2337
Rp2338
sg25
g207
sg34
g35
sg36
(dp2339
g25
g207
sg155
g11
(g15
S'u$\xc0\xda\xd5\x92@@'
p2340
tp2341
Rp2342
sg165
g11
(g15
S'\x1a7\\,3\x9b\x0c@'
p2343
tp2344
Rp2345
ssg51
g11
(g12
(S'S3'
p2346
I0
I1
tp2347
Rp2348
(I3
S'|'
p2349
NNNI3
I1
I0
tp2350
bS'PCA'
p2351
tp2352
Rp2353
sg60
F0.2
sg165
g2345
sg61
g11
(g12
(S'S9'
p2354
I0
I1
tp2355
Rp2356
(I3
S'|'
p2357
NNNI9
I1
I0
tp2358
bS'inception'
p2359
tp2360
Rp2361
sg155
g2342
sg70
g11
(g15
S'\xf8\xe5\x069sm\xe0?'
p2362
tp2363
Rp2364
sg74
g11
(g12
(S'S3'
p2365
I0
I1
tp2366
Rp2367
(I3
S'|'
p2368
NNNI3
I1
I0
tp2369
bS'SVM'
p2370
tp2371
Rp2372
sg83
I3
sg84
g85
sg86
g11
(g15
S'ecf`lT\xe4?'
p2373
tp2374
Rp2375
sg90
g91
sg92
g93
sbag4
(g5
g6
Ntp2376
Rp2377
(dp2378
g10
g11
(g15
S'\x00\x00\x00\x00\x00\x00\xf8\xff'
p2379
tp2380
Rp2381
sg103
g11
(g45
S'\x07\x00\x00\x00\x00\x00\x00\x00'
p2382
tp2383
Rp2384
sg34
g35
sg36
(dp2385
g103
g2384
sg155
g11
(g15
S'EL\x87\xbe\xbc\xe8Q@'
p2386
tp2387
Rp2388
sg42
g11
(g45
S'\x02\x00\x00\x00\x00\x00\x00\x00'
p2389
tp2390
Rp2391
sg108
g11
(g45
S'\x04\x00\x00\x00\x00\x00\x00\x00'
p2392
tp2393
Rp2394
sg165
g11
(g15
S'\x99\x1c-\\\x00\xcb\xc5?'
p2395
tp2396
Rp2397
ssg165
g2397
sg51
g11
(g12
(S'S6'
p2398
I0
I1
tp2399
Rp2400
(I3
S'|'
p2401
NNNI6
I1
I0
tp2402
bS'ISOMAP'
p2403
tp2404
Rp2405
sg60
F0.2
sg108
g2394
sg61
g11
(g12
(S'S8'
p2406
I0
I1
tp2407
Rp2408
(I3
S'|'
p2409
NNNI8
I1
I0
tp2410
bS'haralick'
p2411
tp2412
Rp2413
sg155
g2388
sg42
g2391
sg70
g11
(g15
S'\xf7\x11\xd9\x1d\xb6\t\xdd?'
p2414
tp2415
Rp2416
sg74
g11
(g12
(S'S3'
p2417
I0
I1
tp2418
Rp2419
(I3
S'|'
p2420
NNNI3
I1
I0
tp2421
bS'SVM'
p2422
tp2423
Rp2424
sg83
I3
sg84
g85
sg86
g11
(g15
S"'\xd1{&\xd1{\xea?"
p2425
tp2426
Rp2427
sg90
g91
sg92
g93
sbag4
(g5
g6
Ntp2428
Rp2429
(dp2430
g10
g11
(g15
S'\x00\x00\x00\x00\x00\x00\xf8\xff'
p2431
tp2432
Rp2433
sg25
g33
sg34
g35
sg36
(dp2434
g25
g33
sg155
g11
(g15
S'PN\xbf\xf5\xb8\x9d0@'
p2435
tp2436
Rp2437
sg42
g11
(g45
S'\x03\x00\x00\x00\x00\x00\x00\x00'
p2438
tp2439
Rp2440
sg165
g11
(g15
S'\xf5\xdf\xf3\xa2\xbd\x06\x1d@'
p2441
tp2442
Rp2443
ssg51
g11
(g12
(S'S3'
p2444
I0
I1
tp2445
Rp2446
(I3
S'|'
p2447
NNNI3
I1
I0
tp2448
bS'PCA'
p2449
tp2450
Rp2451
sg60
F0.2
sg165
g2443
sg61
g11
(g12
(S'S8'
p2452
I0
I1
tp2453
Rp2454
(I3
S'|'
p2455
NNNI8
I1
I0
tp2456
bS'haralick'
p2457
tp2458
Rp2459
sg155
g2437
sg42
g2440
sg70
g11
(g15
S'\xf5\x00hMO\x19\xdd?'
p2460
tp2461
Rp2462
sg74
g11
(g12
(S'S3'
p2463
I0
I1
tp2464
Rp2465
(I3
S'|'
p2466
NNNI3
I1
I0
tp2467
bS'SVM'
p2468
tp2469
Rp2470
sg83
I3
sg84
g85
sg86
g11
(g15
S'\xc0$\\\xed\xca\x0f\xea?'
p2471
tp2472
Rp2473
sg90
g91
sg92
g93
sbag4
(g5
g6
Ntp2474
Rp2475
(dp2476
g10
g11
(g15
S'\x00\x00\x00\x00\x00\x00\xf8\xff'
p2477
tp2478
Rp2479
sg25
g33
sg34
g35
sg36
(dp2480
g25
g33
sg155
g11
(g15
S'p\x15g\x7f\xe7,9@'
p2481
tp2482
Rp2483
sg165
g11
(g15
S'n\x14\n\x90\xbe\x96\x00@'
p2484
tp2485
Rp2486
ssg51
g11
(g12
(S'S3'
p2487
I0
I1
tp2488
Rp2489
(I3
S'|'
p2490
NNNI3
I1
I0
tp2491
bS'PCA'
p2492
tp2493
Rp2494
sg60
F0.2
sg165
g2486
sg61
g11
(g12
(S'S3'
p2495
I0
I1
tp2496
Rp2497
(I3
S'|'
p2498
NNNI3
I1
I0
tp2499
bS'VGG'
p2500
tp2501
Rp2502
sg155
g2483
sg70
g11
(g15
S'T\x0f\x04\xe0HG\xd8?'
p2503
tp2504
Rp2505
sg74
g11
(g12
(S'S3'
p2506
I0
I1
tp2507
Rp2508
(I3
S'|'
p2509
NNNI3
I1
I0
tp2510
bS'SVM'
p2511
tp2512
Rp2513
sg83
I3
sg84
g85
sg86
g11
(g15
S'!C\x01\x85}\x8c\xea?'
p2514
tp2515
Rp2516
sg90
g91
sg92
g93
sbag4
(g5
g6
Ntp2517
Rp2518
(dp2519
g10
g11
(g15
S'\x00\x00\x00\x00\x00\x00\xf8\xff'
p2520
tp2521
Rp2522
sg103
g11
(g45
S'\x03\x00\x00\x00\x00\x00\x00\x00'
p2523
tp2524
Rp2525
sg34
g35
sg36
(dp2526
g103
g2525
sg155
g11
(g15
S'hb\xbb\x8a\xcc\x85D@'
p2527
tp2528
Rp2529
sg42
g11
(g45
S'\x01\x00\x00\x00\x00\x00\x00\x00'
p2530
tp2531
Rp2532
sg108
g11
(g45
S'\x04\x00\x00\x00\x00\x00\x00\x00'
p2533
tp2534
Rp2535
sg165
g11
(g15
S'\x05\xb5l\x12\xfb\xc2\xe8?'
p2536
tp2537
Rp2538
ssg165
g2538
sg51
g11
(g12
(S'S6'
p2539
I0
I1
tp2540
Rp2541
(I3
S'|'
p2542
NNNI6
I1
I0
tp2543
bS'ISOMAP'
p2544
tp2545
Rp2546
sg60
F0.2
sg108
g2535
sg61
g11
(g12
(S'S8'
p2547
I0
I1
tp2548
Rp2549
(I3
S'|'
p2550
NNNI8
I1
I0
tp2551
bS'haralick'
p2552
tp2553
Rp2554
sg155
g2529
sg42
g2532
sg70
g11
(g15
S'\x95\xdfd\xfd\x95S\xdd?'
p2555
tp2556
Rp2557
sg74
g11
(g12
(S'S3'
p2558
I0
I1
tp2559
Rp2560
(I3
S'|'
p2561
NNNI3
I1
I0
tp2562
bS'SVM'
p2563
tp2564
Rp2565
sg83
I3
sg84
g85
sg86
g11
(g15
S']dUs7\xaf\xe7?'
p2566
tp2567
Rp2568
sg90
g91
sg92
g93
sbag4
(g5
g6
Ntp2569
Rp2570
(dp2571
g10
g11
(g15
S'\x00\x00\x00\x00\x00\x00\xf8\xff'
p2572
tp2573
Rp2574
sg103
g11
(g45
S'\x03\x00\x00\x00\x00\x00\x00\x00'
p2575
tp2576
Rp2577
sg34
g35
sg36
(dp2578
g103
g2577
sg155
g11
(g15
S'\xdar\x05\x19\xcf\x1c\x10@'
p2579
tp2580
Rp2581
sg108
g11
(g45
S'\x03\x00\x00\x00\x00\x00\x00\x00'
p2582
tp2583
Rp2584
sg165
g11
(g15
S'\x02V\xaf\xdc\xc3\x04\x07@'
p2585
tp2586
Rp2587
ssg165
g2587
sg51
g11
(g12
(S'S6'
p2588
I0
I1
tp2589
Rp2590
(I3
S'|'
p2591
NNNI6
I1
I0
tp2592
bS'ISOMAP'
p2593
tp2594
Rp2595
sg60
F0.2
sg108
g2584
sg61
g11
(g12
(S'S9'
p2596
I0
I1
tp2597
Rp2598
(I3
S'|'
p2599
NNNI9
I1
I0
tp2600
bS'inception'
p2601
tp2602
Rp2603
sg155
g2581
sg70
g11
(g15
S'\xa7\xc7\x05\xa1\x9es\xe0?'
p2604
tp2605
Rp2606
sg74
g11
(g12
(S'S3'
p2607
I0
I1
tp2608
Rp2609
(I3
S'|'
p2610
NNNI3
I1
I0
tp2611
bS'SVM'
p2612
tp2613
Rp2614
sg83
I3
sg84
g85
sg86
g11
(g15
S'}\x9c]\xdb\xdf\xd6\xe0?'
p2615
tp2616
Rp2617
sg90
g91
sg92
g93
sbag4
(g5
g6
Ntp2618
Rp2619
(dp2620
g10
g11
(g15
S'\x00\x00\x00\x00\x00\x00\xf8\xff'
p2621
tp2622
Rp2623
sg103
g11
(g45
S'\x04\x00\x00\x00\x00\x00\x00\x00'
p2624
tp2625
Rp2626
sg34
g35
sg36
(dp2627
g103
g2626
sg155
g11
(g15
S'\xb4\xa4\xd5\xcd\xdc\x81U@'
p2628
tp2629
Rp2630
sg42
g11
(g45
S'\x01\x00\x00\x00\x00\x00\x00\x00'
p2631
tp2632
Rp2633
sg108
g11
(g45
S'\x02\x00\x00\x00\x00\x00\x00\x00'
p2634
tp2635
Rp2636
sg165
g11
(g15
S'\x91\x04\\\xac\xc2\xc5\xb9?'
p2637
tp2638
Rp2639
ssg165
g2639
sg51
g11
(g12
(S'S6'
p2640
I0
I1
tp2641
Rp2642
(I3
S'|'
p2643
NNNI6
I1
I0
tp2644
bS'ISOMAP'
p2645
tp2646
Rp2647
sg60
F0.2
sg108
g2636
sg61
g11
(g12
(S'S8'
p2648
I0
I1
tp2649
Rp2650
(I3
S'|'
p2651
NNNI8
I1
I0
tp2652
bS'haralick'
p2653
tp2654
Rp2655
sg155
g2630
sg42
g2633
sg70
g11
(g15
S'\xcf!\x16\xc2\x94}\xde?'
p2656
tp2657
Rp2658
sg74
g11
(g12
(S'S3'
p2659
I0
I1
tp2660
Rp2661
(I3
S'|'
p2662
NNNI3
I1
I0
tp2663
bS'SVM'
p2664
tp2665
Rp2666
sg83
I3
sg84
g85
sg86
g11
(g15
S'\xb3\x8a\xdb9}\xf6\xe7?'
p2667
tp2668
Rp2669
sg90
g91
sg92
g93
sbag4
(g5
g6
Ntp2670
Rp2671
(dp2672
g10
g11
(g15
S'\x00\x00\x00\x00\x00\x00\xf8\xff'
p2673
tp2674
Rp2675
sg25
g33
sg34
g35
sg36
(dp2676
g25
g33
sg155
g11
(g15
S'\xc0\xd4XE\xb9\x1bD@'
p2677
tp2678
Rp2679
sg42
g11
(g45
S'\x03\x00\x00\x00\x00\x00\x00\x00'
p2680
tp2681
Rp2682
sg165
g11
(g15
S'\x1eg\x118\x0c\xa4\x1a@'
p2683
tp2684
Rp2685
ssg51
g11
(g12
(S'S3'
p2686
I0
I1
tp2687
Rp2688
(I3
S'|'
p2689
NNNI3
I1
I0
tp2690
bS'PCA'
p2691
tp2692
Rp2693
sg60
F0.2
sg165
g2685
sg61
g11
(g12
(S'S8'
p2694
I0
I1
tp2695
Rp2696
(I3
S'|'
p2697
NNNI8
I1
I0
tp2698
bS'haralick'
p2699
tp2700
Rp2701
sg155
g2679
sg42
g2682
sg70
g11
(g15
S'8D\xa7^\x94/\xde?'
p2702
tp2703
Rp2704
sg74
g11
(g12
(S'S3'
p2705
I0
I1
tp2706
Rp2707
(I3
S'|'
p2708
NNNI3
I1
I0
tp2709
bS'SVM'
p2710
tp2711
Rp2712
sg83
I3
sg84
g85
sg86
g11
(g15
S'w\xaaA\x13p\xb6\xe9?'
p2713
tp2714
Rp2715
sg90
g91
sg92
g93
sbag4
(g5
g6
Ntp2716
Rp2717
(dp2718
g10
g11
(g15
S'\x00\x00\x00\x00\x00\x00\xf8\xff'
p2719
tp2720
Rp2721
sg25
g207
sg34
g35
sg36
(dp2722
g25
g207
sg155
g11
(g15
S'\xd2\xc24\xaf\xaf\x9a5@'
p2723
tp2724
Rp2725
sg165
g11
(g15
S'RMT\x03*d\x15@'
p2726
tp2727
Rp2728
ssg51
g11
(g12
(S'S3'
p2729
I0
I1
tp2730
Rp2731
(I3
S'|'
p2732
NNNI3
I1
I0
tp2733
bS'PCA'
p2734
tp2735
Rp2736
sg60
F0.2
sg165
g2728
sg61
g11
(g12
(S'S9'
p2737
I0
I1
tp2738
Rp2739
(I3
S'|'
p2740
NNNI9
I1
I0
tp2741
bS'inception'
p2742
tp2743
Rp2744
sg155
g2725
sg70
g11
(g15
S'\xebnH\x1e\xafi\xe0?'
p2745
tp2746
Rp2747
sg74
g11
(g12
(S'S3'
p2748
I0
I1
tp2749
Rp2750
(I3
S'|'
p2751
NNNI3
I1
I0
tp2752
bS'SVM'
p2753
tp2754
Rp2755
sg83
I3
sg84
g85
sg86
g11
(g15
S'\xb0\x91\xcdUEf\xe4?'
p2756
tp2757
Rp2758
sg90
g91
sg92
g93
sbag4
(g5
g6
Ntp2759
Rp2760
(dp2761
g10
g11
(g15
S'\x00\x00\x00\x00\x00\x00\xf8\xff'
p2762
tp2763
Rp2764
sg21
g11
(g15
S'\x00\x00\x00\x00\x00`i@'
p2765
tp2766
Rp2767
sg34
g35
sg103
g11
(g45
S'\x07\x00\x00\x00\x00\x00\x00\x00'
p2768
tp2769
Rp2770
sg36
(dp2771
g21
g2767
sg103
g2770
sg108
g11
(g45
S'\x02\x00\x00\x00\x00\x00\x00\x00'
p2772
tp2773
Rp2774
sg38
g11
(g15
S':\xf0\xe9B\x17]\xea?'
p2775
tp2776
Rp2777
ssg51
g11
(g12
(S'S6'
p2778
I0
I1
tp2779
Rp2780
(I3
S'|'
p2781
NNNI6
I1
I0
tp2782
bS'ISOMAP'
p2783
tp2784
Rp2785
sg60
F0.2
sg108
g2774
sg61
g11
(g12
(S'S3'
p2786
I0
I1
tp2787
Rp2788
(I3
S'|'
p2789
NNNI3
I1
I0
tp2790
bS'VGG'
p2791
tp2792
Rp2793
sg70
g11
(g15
S'1Zj\x7fH\xd8\xeb?'
p2794
tp2795
Rp2796
sg74
g11
(g12
(S'S2'
p2797
I0
I1
tp2798
Rp2799
(I3
S'|'
p2800
NNNI2
I1
I0
tp2801
bS'RF'
p2802
tp2803
Rp2804
sg83
I3
sg38
g2777
sg84
g85
sg86
g11
(g15
S'\x8dN\xcc\xd0\xc7\xd9\xe9?'
p2805
tp2806
Rp2807
sg90
g91
sg92
g93
sbag4
(g5
g6
Ntp2808
Rp2809
(dp2810
g10
g11
(g15
S'\x00\x00\x00\x00\x00\x00\xf8\xff'
p2811
tp2812
Rp2813
sg21
g11
(g15
S'\x00\x00\x00\x00\x00\x00 @'
p2814
tp2815
Rp2816
sg25
g207
sg34
g35
sg36
(dp2817
g21
g2816
sg38
g11
(g15
S'\xac=\xd6\xa8\x03q\xec?'
p2818
tp2819
Rp2820
sg25
g207
ssg51
g11
(g12
(S'S3'
p2821
I0
I1
tp2822
Rp2823
(I3
S'|'
p2824
NNNI3
I1
I0
tp2825
bS'PCA'
p2826
tp2827
Rp2828
sg60
F0.2
sg61
g11
(g12
(S'S3'
p2829
I0
I1
tp2830
Rp2831
(I3
S'|'
p2832
NNNI3
I1
I0
tp2833
bS'VGG'
p2834
tp2835
Rp2836
sg70
g11
(g15
S'\x9dw\xf5\xdb\xf0\xd4\xf0?'
p2837
tp2838
Rp2839
sg74
g11
(g12
(S'S2'
p2840
I0
I1
tp2841
Rp2842
(I3
S'|'
p2843
NNNI2
I1
I0
tp2844
bS'RF'
p2845
tp2846
Rp2847
sg83
I3
sg38
g2820
sg84
g85
sg86
g11
(g15
S'%\x01I\xb9\xd8\x99\xeb?'
p2848
tp2849
Rp2850
sg90
g91
sg92
g93
sbag4
(g5
g6
Ntp2851
Rp2852
(dp2853
g10
g11
(g15
S'\x00\x00\x00\x00\x00\x00\xf8\xff'
p2854
tp2855
Rp2856
sg21
g11
(g15
S'\x00\x00\x00\x00\x00\x00 @'
p2857
tp2858
Rp2859
sg34
g35
sg103
g11
(g45
S'\x04\x00\x00\x00\x00\x00\x00\x00'
p2860
tp2861
Rp2862
sg36
(dp2863
g21
g2859
sg103
g2862
sg42
g11
(g45
S'\x03\x00\x00\x00\x00\x00\x00\x00'
p2864
tp2865
Rp2866
sg108
g11
(g45
S'\x02\x00\x00\x00\x00\x00\x00\x00'
p2867
tp2868
Rp2869
sg38
g11
(g15
S'*=\x82\xdd\x18\r\xe6?'
p2870
tp2871
Rp2872
ssg51
g11
(g12
(S'S6'
p2873
I0
I1
tp2874
Rp2875
(I3
S'|'
p2876
NNNI6
I1
I0
tp2877
bS'ISOMAP'
p2878
tp2879
Rp2880
sg60
F0.2
sg108
g2869
sg61
g11
(g12
(S'S8'
p2881
I0
I1
tp2882
Rp2883
(I3
S'|'
p2884
NNNI8
I1
I0
tp2885
bS'haralick'
p2886
tp2887
Rp2888
sg42
g2866
sg70
g11
(g15
S"\x82Z\xae'\xa0\xd9\x02@"
p2889
tp2890
Rp2891
sg74
g11
(g12
(S'S2'
p2892
I0
I1
tp2893
Rp2894
(I3
S'|'
p2895
NNNI2
I1
I0
tp2896
bS'RF'
p2897
tp2898
Rp2899
sg83
I3
sg38
g2872
sg84
g85
sg86
g11
(g15
S'@\x91\xec5\xa3\xc8\xe9?'
p2900
tp2901
Rp2902
sg90
g91
sg92
g93
sbag4
(g5
g6
Ntp2903
Rp2904
(dp2905
g10
g11
(g15
S'\x00\x00\x00\x00\x00\x00\xf8\xff'
p2906
tp2907
Rp2908
sg103
g11
(g45
S'\x06\x00\x00\x00\x00\x00\x00\x00'
p2909
tp2910
Rp2911
sg34
g35
sg36
(dp2912
g103
g2911
sg155
g11
(g15
S'\xa5\x08\xb7bz\xbdC@'
p2913
tp2914
Rp2915
sg108
g11
(g45
S'\x04\x00\x00\x00\x00\x00\x00\x00'
p2916
tp2917
Rp2918
sg165
g11
(g15
S'V}\xab\x96\xf4\xb8\x17@'
p2919
tp2920
Rp2921
ssg165
g2921
sg51
g11
(g12
(S'S6'
p2922
I0
I1
tp2923
Rp2924
(I3
S'|'
p2925
NNNI6
I1
I0
tp2926
bS'ISOMAP'
p2927
tp2928
Rp2929
sg60
F0.2
sg108
g2918
sg61
g11
(g12
(S'S9'
p2930
I0
I1
tp2931
Rp2932
(I3
S'|'
p2933
NNNI9
I1
I0
tp2934
bS'inception'
p2935
tp2936
Rp2937
sg155
g2915
sg70
g11
(g15
S'q!|\x0fRm\xe0?'
p2938
tp2939
Rp2940
sg74
g11
(g12
(S'S3'
p2941
I0
I1
tp2942
Rp2943
(I3
S'|'
p2944
NNNI3
I1
I0
tp2945
bS'SVM'
p2946
tp2947
Rp2948
sg83
I3
sg84
g85
sg86
g11
(g15
S'\x94\x8c\x9b}\xb9A\xe1?'
p2949
tp2950
Rp2951
sg90
g91
sg92
g93
sbag4
(g5
g6
Ntp2952
Rp2953
(dp2954
g10
g11
(g15
S'\x00\x00\x00\x00\x00\x00\xf8\xff'
p2955
tp2956
Rp2957
sg21
g11
(g15
S'\x00\x00\x00\x00\x00`m@'
p2958
tp2959
Rp2960
sg25
g207
sg34
g35
sg36
(dp2961
g21
g2960
sg38
g11
(g15
S'\xb2\x95\xbcu9\x92\xe7?'
p2962
tp2963
Rp2964
sg25
g207
sg42
g11
(g45
S'\x03\x00\x00\x00\x00\x00\x00\x00'
p2965
tp2966
Rp2967
ssg51
g11
(g12
(S'S3'
p2968
I0
I1
tp2969
Rp2970
(I3
S'|'
p2971
NNNI3
I1
I0
tp2972
bS'PCA'
p2973
tp2974
Rp2975
sg60
F0.2
sg61
g11
(g12
(S'S8'
p2976
I0
I1
tp2977
Rp2978
(I3
S'|'
p2979
NNNI8
I1
I0
tp2980
bS'haralick'
p2981
tp2982
Rp2983
sg42
g2967
sg70
g11
(g15
S'\x90S\xbb#\x84\xf0\xe6?'
p2984
tp2985
Rp2986
sg74
g11
(g12
(S'S2'
p2987
I0
I1
tp2988
Rp2989
(I3
S'|'
p2990
NNNI2
I1
I0
tp2991
bS'RF'
p2992
tp2993
Rp2994
sg83
I3
sg38
g2964
sg84
g85
sg86
g11
(g15
S'|\x8fh\xb6\x1aR\xeb?'
p2995
tp2996
Rp2997
sg90
g91
sg92
g93
sbag4
(g5
g6
Ntp2998
Rp2999
(dp3000
g10
g11
(g15
S'\x00\x00\x00\x00\x00\x00\xf8\xff'
p3001
tp3002
Rp3003
sg21
g11
(g15
S'\x00\x00\x00\x00\x00\xc0p@'
p3004
tp3005
Rp3006
sg25
g207
sg34
g35
sg36
(dp3007
g21
g3006
sg38
g11
(g15
S'\xea\xf4\xc4\x17\xc9\xdf\xe8?'
p3008
tp3009
Rp3010
sg25
g207
ssg51
g11
(g12
(S'S3'
p3011
I0
I1
tp3012
Rp3013
(I3
S'|'
p3014
NNNI3
I1
I0
tp3015
bS'PCA'
p3016
tp3017
Rp3018
sg60
F0.2
sg61
g11
(g12
(S'S3'
p3019
I0
I1
tp3020
Rp3021
(I3
S'|'
p3022
NNNI3
I1
I0
tp3023
bS'VGG'
p3024
tp3025
Rp3026
sg70
g11
(g15
S'\x06E\xc5\xb3\x90\xfe\xd2?'
p3027
tp3028
Rp3029
sg74
g11
(g12
(S'S2'
p3030
I0
I1
tp3031
Rp3032
(I3
S'|'
p3033
NNNI2
I1
I0
tp3034
bS'RF'
p3035
tp3036
Rp3037
sg83
I3
sg38
g3010
sg84
g85
sg86
g11
(g15
S'\xd1MUFd(\xec?'
p3038
tp3039
Rp3040
sg90
g91
sg92
g93
sbag4
(g5
g6
Ntp3041
Rp3042
(dp3043
g10
g11
(g15
S'\x00\x00\x00\x00\x00\x00\xf8\xff'
p3044
tp3045
Rp3046
sg21
g11
(g15
S'\x00\x00\x00\x00\x00@Z@'
p3047
tp3048
Rp3049
sg25
g207
sg34
g35
sg36
(dp3050
g21
g3049
sg38
g11
(g15
S'\x90At\xbaA\xd0\xec?'
p3051
tp3052
Rp3053
sg25
g207
ssg51
g11
(g12
(S'S3'
p3054
I0
I1
tp3055
Rp3056
(I3
S'|'
p3057
NNNI3
I1
I0
tp3058
bS'PCA'
p3059
tp3060
Rp3061
sg60
F0.2
sg61
g11
(g12
(S'S9'
p3062
I0
I1
tp3063
Rp3064
(I3
S'|'
p3065
NNNI9
I1
I0
tp3066
bS'inception'
p3067
tp3068
Rp3069
sg70
g11
(g15
S'\xdf\x1a\\\xda\xab\xd3\xe4?'
p3070
tp3071
Rp3072
sg74
g11
(g12
(S'S2'
p3073
I0
I1
tp3074
Rp3075
(I3
S'|'
p3076
NNNI2
I1
I0
tp3077
bS'RF'
p3078
tp3079
Rp3080
sg83
I3
sg38
g3053
sg84
g85
sg86
g11
(g15
S'%\x97\xb3z\xec\x08\xe8?'
p3081
tp3082
Rp3083
sg90
g91
sg92
g93
sbag4
(g5
g6
Ntp3084
Rp3085
(dp3086
g10
g11
(g15
S'\x00\x00\x00\x00\x00\x00\xf8\xff'
p3087
tp3088
Rp3089
sg21
g11
(g15
S'\x00\x00\x00\x00\x00\x00 @'
p3090
tp3091
Rp3092
sg34
g35
sg103
g11
(g45
S'\x05\x00\x00\x00\x00\x00\x00\x00'
p3093
tp3094
Rp3095
sg36
(dp3096
g21
g3092
sg103
g3095
sg108
g11
(g45
S'\x02\x00\x00\x00\x00\x00\x00\x00'
p3097
tp3098
Rp3099
sg38
g11
(g15
S'\x12g\xaa\xd4\xd0\x90\xdf?'
p3100
tp3101
Rp3102
ssg51
g11
(g12
(S'S6'
p3103
I0
I1
tp3104
Rp3105
(I3
S'|'
p3106
NNNI6
I1
I0
tp3107
bS'ISOMAP'
p3108
tp3109
Rp3110
sg60
F0.2
sg108
g3099
sg61
g11
(g12
(S'S9'
p3111
I0
I1
tp3112
Rp3113
(I3
S'|'
p3114
NNNI9
I1
I0
tp3115
bS'inception'
p3116
tp3117
Rp3118
sg70
g11
(g15
S'\x1b\x1d\x0bD\x97u\xfb?'
p3119
tp3120
Rp3121
sg74
g11
(g12
(S'S2'
p3122
I0
I1
tp3123
Rp3124
(I3
S'|'
p3125
NNNI2
I1
I0
tp3126
bS'RF'
p3127
tp3128
Rp3129
sg83
I3
sg38
g3102
sg84
g85
sg86
g11
(g15
S'\xa4M\xfb\x9fV\xe9\xe3?'
p3130
tp3131
Rp3132
sg90
g91
sg92
g93
sbag4
(g5
g6
Ntp3133
Rp3134
(dp3135
g10
g11
(g15
S'\x00\x00\x00\x00\x00\x00\xf8\xff'
p3136
tp3137
Rp3138
sg25
g207
sg34
g35
sg36
(dp3139
g25
g207
sg155
g11
(g15
S'\xd6\xe0\x80\x99\x994T@'
p3140
tp3141
Rp3142
sg42
g11
(g45
S'\x03\x00\x00\x00\x00\x00\x00\x00'
p3143
tp3144
Rp3145
sg165
g11
(g15
S'\xd1\x13\xecD\x96M\n@'
p3146
tp3147
Rp3148
ssg51
g11
(g12
(S'S3'
p3149
I0
I1
tp3150
Rp3151
(I3
S'|'
p3152
NNNI3
I1
I0
tp3153
bS'PCA'
p3154
tp3155
Rp3156
sg60
F0.2
sg165
g3148
sg61
g11
(g12
(S'S8'
p3157
I0
I1
tp3158
Rp3159
(I3
S'|'
p3160
NNNI8
I1
I0
tp3161
bS'haralick'
p3162
tp3163
Rp3164
sg155
g3142
sg42
g3145
sg70
g11
(g15
S'\xa0\xcc\x18\xfc\xa0\xaf\xdd?'
p3165
tp3166
Rp3167
sg74
g11
(g12
(S'S3'
p3168
I0
I1
tp3169
Rp3170
(I3
S'|'
p3171
NNNI3
I1
I0
tp3172
bS'SVM'
p3173
tp3174
Rp3175
sg83
I3
sg84
g85
sg86
g11
(g15
S'\x89W\xba\xf4\x7fi\xea?'
p3176
tp3177
Rp3178
sg90
g91
sg92
g93
sbag4
(g5
g6
Ntp3179
Rp3180
(dp3181
g10
g11
(g15
S'\x00\x00\x00\x00\x00\x00\xf8\xff'
p3182
tp3183
Rp3184
sg103
g11
(g45
S'\x03\x00\x00\x00\x00\x00\x00\x00'
p3185
tp3186
Rp3187
sg34
g35
sg36
(dp3188
g103
g3187
sg155
g11
(g15
S'#\xf5t\x1d\xff\x00R@'
p3189
tp3190
Rp3191
sg108
g11
(g45
S'\x04\x00\x00\x00\x00\x00\x00\x00'
p3192
tp3193
Rp3194
sg165
g11
(g15
S'\xef\x8e\xb1d1E\x18@'
p3195
tp3196
Rp3197
ssg165
g3197
sg51
g11
(g12
(S'S6'
p3198
I0
I1
tp3199
Rp3200
(I3
S'|'
p3201
NNNI6
I1
I0
tp3202
bS'ISOMAP'
p3203
tp3204
Rp3205
sg60
F0.2
sg108
g3194
sg61
g11
(g12
(S'S9'
p3206
I0
I1
tp3207
Rp3208
(I3
S'|'
p3209
NNNI9
I1
I0
tp3210
bS'inception'
p3211
tp3212
Rp3213
sg155
g3191
sg70
g11
(g15
S'\xa7\xe8t\x96\x90\x83\xe0?'
p3214
tp3215
Rp3216
sg74
g11
(g12
(S'S3'
p3217
I0
I1
tp3218
Rp3219
(I3
S'|'
p3220
NNNI3
I1
I0
tp3221
bS'SVM'
p3222
tp3223
Rp3224
sg83
I3
sg84
g85
sg86
g11
(g15
S'\x89\xe0/\x91\xceS\xe1?'
p3225
tp3226
Rp3227
sg90
g91
sg92
g93
sbag4
(g5
g6
Ntp3228
Rp3229
(dp3230
g10
g11
(g15
S'\x00\x00\x00\x00\x00\x00\xf8\xff'
p3231
tp3232
Rp3233
sg103
g11
(g45
S'\x07\x00\x00\x00\x00\x00\x00\x00'
p3234
tp3235
Rp3236
sg34
g35
sg36
(dp3237
g103
g3236
sg155
g11
(g15
S'\xbb\x84\xdd\xea\x1a\xfb"@'
p3238
tp3239
Rp3240
sg108
g11
(g45
S'\x04\x00\x00\x00\x00\x00\x00\x00'
p3241
tp3242
Rp3243
sg165
g11
(g15
S'\xf6SiB<\xe4\xf1?'
p3244
tp3245
Rp3246
ssg165
g3246
sg51
g11
(g12
(S'S6'
p3247
I0
I1
tp3248
Rp3249
(I3
S'|'
p3250
NNNI6
I1
I0
tp3251
bS'ISOMAP'
p3252
tp3253
Rp3254
sg60
F0.2
sg108
g3243
sg61
g11
(g12
(S'S9'
p3255
I0
I1
tp3256
Rp3257
(I3
S'|'
p3258
NNNI9
I1
I0
tp3259
bS'inception'
p3260
tp3261
Rp3262
sg155
g3240
sg70
g11
(g15
S'\x03\x84\x89\x04\xaa\xbd\xdf?'
p3263
tp3264
Rp3265
sg74
g11
(g12
(S'S3'
p3266
I0
I1
tp3267
Rp3268
(I3
S'|'
p3269
NNNI3
I1
I0
tp3270
bS'SVM'
p3271
tp3272
Rp3273
sg83
I3
sg84
g85
sg86
g11
(g15
S's\xdf\x04\xbaO$\xe3?'
p3274
tp3275
Rp3276
sg90
g91
sg92
g93
sbag4
(g5
g6
Ntp3277
Rp3278
(dp3279
g10
g11
(g15
S'\x00\x00\x00\x00\x00\x00\xf8\xff'
p3280
tp3281
Rp3282
sg103
g11
(g45
S'\x07\x00\x00\x00\x00\x00\x00\x00'
p3283
tp3284
Rp3285
sg34
g35
sg36
(dp3286
g103
g3285
sg155
g11
(g15
S'S\xc2\x13\x03I\xa06@'
p3287
tp3288
Rp3289
sg108
g11
(g45
S'\x04\x00\x00\x00\x00\x00\x00\x00'
p3290
tp3291
Rp3292
sg165
g11
(g15
S'\xe9\x06Da\xaa\x11\x1a@'
p3293
tp3294
Rp3295
ssg165
g3295
sg51
g11
(g12
(S'S6'
p3296
I0
I1
tp3297
Rp3298
(I3
S'|'
p3299
NNNI6
I1
I0
tp3300
bS'ISOMAP'
p3301
tp3302
Rp3303
sg60
F0.2
sg108
g3292
sg61
g11
(g12
(S'S9'
p3304
I0
I1
tp3305
Rp3306
(I3
S'|'
p3307
NNNI9
I1
I0
tp3308
bS'inception'
p3309
tp3310
Rp3311
sg155
g3289
sg70
g11
(g15
S'\xf1\x87\xe7\x17N\x92\xdf?'
p3312
tp3313
Rp3314
sg74
g11
(g12
(S'S3'
p3315
I0
I1
tp3316
Rp3317
(I3
S'|'
p3318
NNNI3
I1
I0
tp3319
bS'SVM'
p3320
tp3321
Rp3322
sg83
I3
sg84
g85
sg86
g11
(g15
S'\xbdu\x05\xe6$\xa7\xe2?'
p3323
tp3324
Rp3325
sg90
g91
sg92
g93
sbag4
(g5
g6
Ntp3326
Rp3327
(dp3328
g10
g11
(g15
S'\x00\x00\x00\x00\x00\x00\xf8\xff'
p3329
tp3330
Rp3331
sg103
g11
(g45
S'\x04\x00\x00\x00\x00\x00\x00\x00'
p3332
tp3333
Rp3334
sg34
g35
sg36
(dp3335
g103
g3334
sg155
g11
(g15
S'9\x0c\xa5c}\xa5@@'
p3336
tp3337
Rp3338
sg108
g11
(g45
S'\x03\x00\x00\x00\x00\x00\x00\x00'
p3339
tp3340
Rp3341
sg165
g11
(g15
S'\xb6q\xf7>\x8d\xe2\x18@'
p3342
tp3343
Rp3344
ssg165
g3344
sg51
g11
(g12
(S'S6'
p3345
I0
I1
tp3346
Rp3347
(I3
S'|'
p3348
NNNI6
I1
I0
tp3349
bS'ISOMAP'
p3350
tp3351
Rp3352
sg60
F0.2
sg108
g3341
sg61
g11
(g12
(S'S3'
p3353
I0
I1
tp3354
Rp3355
(I3
S'|'
p3356
NNNI3
I1
I0
tp3357
bS'VGG'
p3358
tp3359
Rp3360
sg155
g3338
sg70
g11
(g15
S'ey{\xb1n\xb5\xdb?'
p3361
tp3362
Rp3363
sg74
g11
(g12
(S'S3'
p3364
I0
I1
tp3365
Rp3366
(I3
S'|'
p3367
NNNI3
I1
I0
tp3368
bS'SVM'
p3369
tp3370
Rp3371
sg83
I3
sg84
g85
sg86
g11
(g15
S'c\xe1\xe2\xdf\xe5\xd9\xe9?'
p3372
tp3373
Rp3374
sg90
g91
sg92
g93
sbag4
(g5
g6
Ntp3375
Rp3376
(dp3377
g10
g11
(g15
S'\x00\x00\x00\x00\x00\x00\xf8\xff'
p3378
tp3379
Rp3380
sg103
g11
(g45
S'\x06\x00\x00\x00\x00\x00\x00\x00'
p3381
tp3382
Rp3383
sg34
g35
sg36
(dp3384
g103
g3383
sg155
g11
(g15
S'\xcdg7\xd7\x8d\x7fT@'
p3385
tp3386
Rp3387
sg108
g11
(g45
S'\x02\x00\x00\x00\x00\x00\x00\x00'
p3388
tp3389
Rp3390
sg165
g11
(g15
S'\xf6\xaa\x0f\xac\x80\x0c\x15@'
p3391
tp3392
Rp3393
ssg165
g3393
sg51
g11
(g12
(S'S6'
p3394
I0
I1
tp3395
Rp3396
(I3
S'|'
p3397
NNNI6
I1
I0
tp3398
bS'ISOMAP'
p3399
tp3400
Rp3401
sg60
F0.2
sg108
g3390
sg61
g11
(g12
(S'S3'
p3402
I0
I1
tp3403
Rp3404
(I3
S'|'
p3405
NNNI3
I1
I0
tp3406
bS'VGG'
p3407
tp3408
Rp3409
sg155
g3387
sg70
g11
(g15
S'A\x9b>\xceF\x89\xda?'
p3410
tp3411
Rp3412
sg74
g11
(g12
(S'S3'
p3413
I0
I1
tp3414
Rp3415
(I3
S'|'
p3416
NNNI3
I1
I0
tp3417
bS'SVM'
p3418
tp3419
Rp3420
sg83
I3
sg84
g85
sg86
g11
(g15
S'@\xca\xb6\xdd\x8f+\xe8?'
p3421
tp3422
Rp3423
sg90
g91
sg92
g93
sbag4
(g5
g6
Ntp3424
Rp3425
(dp3426
g10
g11
(g15
S'\x00\x00\x00\x00\x00\x00\xf8\xff'
p3427
tp3428
Rp3429
sg103
g11
(g45
S'\x05\x00\x00\x00\x00\x00\x00\x00'
p3430
tp3431
Rp3432
sg34
g35
sg36
(dp3433
g103
g3432
sg155
g11
(g15
S'\x9b\xb2\x18\xfa\x81\xa8A@'
p3434
tp3435
Rp3436
sg42
g11
(g45
S'\x01\x00\x00\x00\x00\x00\x00\x00'
p3437
tp3438
Rp3439
sg108
g11
(g45
S'\x04\x00\x00\x00\x00\x00\x00\x00'
p3440
tp3441
Rp3442
sg165
g11
(g15
S'\xf1\x8f8\xc3%\xed\xe4?'
p3443
tp3444
Rp3445
ssg165
g3445
sg51
g11
(g12
(S'S6'
p3446
I0
I1
tp3447
Rp3448
(I3
S'|'
p3449
NNNI6
I1
I0
tp3450
bS'ISOMAP'
p3451
tp3452
Rp3453
sg60
F0.2
sg108
g3442
sg61
g11
(g12
(S'S8'
p3454
I0
I1
tp3455
Rp3456
(I3
S'|'
p3457
NNNI8
I1
I0
tp3458
bS'haralick'
p3459
tp3460
Rp3461
sg155
g3436
sg42
g3439
sg70
g11
(g15
S'Q\xe7{\x9b\x91j\xd9?'
p3462
tp3463
Rp3464
sg74
g11
(g12
(S'S3'
p3465
I0
I1
tp3466
Rp3467
(I3
S'|'
p3468
NNNI3
I1
I0
tp3469
bS'SVM'
p3470
tp3471
Rp3472
sg83
I3
sg84
g85
sg86
g11
(g15
S'\x81:\xc7\xad\xe0z\xea?'
p3473
tp3474
Rp3475
sg90
g91
sg92
g93
sbag4
(g5
g6
Ntp3476
Rp3477
(dp3478
g10
g11
(g15
S'\x00\x00\x00\x00\x00\x00\xf8\xff'
p3479
tp3480
Rp3481
sg21
g11
(g15
S'\x00\x00\x00\x00\x00@e@'
p3482
tp3483
Rp3484
sg25
g207
sg34
g35
sg36
(dp3485
g21
g3484
sg38
g11
(g15
S'\xde\xa9\\:\xaa\xe2\xe0?'
p3486
tp3487
Rp3488
sg25
g207
ssg51
g11
(g12
(S'S3'
p3489
I0
I1
tp3490
Rp3491
(I3
S'|'
p3492
NNNI3
I1
I0
tp3493
bS'PCA'
p3494
tp3495
Rp3496
sg60
F0.2
sg61
g11
(g12
(S'S3'
p3497
I0
I1
tp3498
Rp3499
(I3
S'|'
p3500
NNNI3
I1
I0
tp3501
bS'VGG'
p3502
tp3503
Rp3504
sg70
g11
(g15
S'\xb8\x0e\x13\xda"/\xd7?'
p3505
tp3506
Rp3507
sg74
g11
(g12
(S'S2'
p3508
I0
I1
tp3509
Rp3510
(I3
S'|'
p3511
NNNI2
I1
I0
tp3512
bS'RF'
p3513
tp3514
Rp3515
sg83
I3
sg38
g3488
sg84
g85
sg86
g11
(g15
S'\x10\xd0PORL\xec?'
p3516
tp3517
Rp3518
sg90
g91
sg92
g93
sbag4
(g5
g6
Ntp3519
Rp3520
(dp3521
g10
g11
(g15
S'\x00\x00\x00\x00\x00\x00\xf8\xff'
p3522
tp3523
Rp3524
sg103
g11
(g45
S'\x04\x00\x00\x00\x00\x00\x00\x00'
p3525
tp3526
Rp3527
sg34
g35
sg36
(dp3528
g103
g3527
sg155
g11
(g15
S'\xba\xc3\xe4G\xe1\x9bB@'
p3529
tp3530
Rp3531
sg42
g11
(g45
S'\x01\x00\x00\x00\x00\x00\x00\x00'
p3532
tp3533
Rp3534
sg108
g11
(g45
S'\x04\x00\x00\x00\x00\x00\x00\x00'
p3535
tp3536
Rp3537
sg165
g11
(g15
S'\xe0!\xdf=\x89e\xe9?'
p3538
tp3539
Rp3540
ssg165
g3540
sg51
g11
(g12
(S'S6'
p3541
I0
I1
tp3542
Rp3543
(I3
S'|'
p3544
NNNI6
I1
I0
tp3545
bS'ISOMAP'
p3546
tp3547
Rp3548
sg60
F0.2
sg108
g3537
sg61
g11
(g12
(S'S8'
p3549
I0
I1
tp3550
Rp3551
(I3
S'|'
p3552
NNNI8
I1
I0
tp3553
bS'haralick'
p3554
tp3555
Rp3556
sg155
g3531
sg42
g3534
sg70
g11
(g15
S'\x08\x1f\xb0\x1b\x1f|\xda?'
p3557
tp3558
Rp3559
sg74
g11
(g12
(S'S3'
p3560
I0
I1
tp3561
Rp3562
(I3
S'|'
p3563
NNNI3
I1
I0
tp3564
bS'SVM'
p3565
tp3566
Rp3567
sg83
I3
sg84
g85
sg86
g11
(g15
S'\x14A\xe7\x9a3\x02\xe9?'
p3568
tp3569
Rp3570
sg90
g91
sg92
g93
sbag4
(g5
g6
Ntp3571
Rp3572
(dp3573
g10
g11
(g15
S'\x00\x00\x00\x00\x00\x00\xf8\xff'
p3574
tp3575
Rp3576
sg21
g11
(g15
S'\x00\x00\x00\x00\x00@e@'
p3577
tp3578
Rp3579
sg34
g35
sg103
g11
(g45
S'\x03\x00\x00\x00\x00\x00\x00\x00'
p3580
tp3581
Rp3582
sg36
(dp3583
g21
g3579
sg103
g3582
sg42
g11
(g45
S'\x01\x00\x00\x00\x00\x00\x00\x00'
p3584
tp3585
Rp3586
sg108
g11
(g45
S'\x04\x00\x00\x00\x00\x00\x00\x00'
p3587
tp3588
Rp3589
sg38
g11
(g15
S'L\xfc\x9b\x12\\\r\xdb?'
p3590
tp3591
Rp3592
ssg51
g11
(g12
(S'S6'
p3593
I0
I1
tp3594
Rp3595
(I3
S'|'
p3596
NNNI6
I1
I0
tp3597
bS'ISOMAP'
p3598
tp3599
Rp3600
sg60
F0.2
sg108
g3589
sg61
g11
(g12
(S'S8'
p3601
I0
I1
tp3602
Rp3603
(I3
S'|'
p3604
NNNI8
I1
I0
tp3605
bS'haralick'
p3606
tp3607
Rp3608
sg42
g3586
sg70
g11
(g15
S'\xa5!\x07\x9bA(\xe6?'
p3609
tp3610
Rp3611
sg74
g11
(g12
(S'S2'
p3612
I0
I1
tp3613
Rp3614
(I3
S'|'
p3615
NNNI2
I1
I0
tp3616
bS'RF'
p3617
tp3618
Rp3619
sg83
I3
sg38
g3592
sg84
g85
sg86
g11
(g15
S'k\xfe\xd5&\x85\xc8\xe9?'
p3620
tp3621
Rp3622
sg90
g91
sg92
g93
sbag4
(g5
g6
Ntp3623
Rp3624
(dp3625
g10
g11
(g15
S'\x00\x00\x00\x00\x00\x00\xf8\xff'
p3626
tp3627
Rp3628
sg25
g33
sg34
g35
sg36
(dp3629
g25
g33
sg155
g11
(g15
S'{\xb9N*\xf8\x12C@'
p3630
tp3631
Rp3632
sg165
g11
(g15
S'g:{<B4\x11@'
p3633
tp3634
Rp3635
ssg51
g11
(g12
(S'S3'
p3636
I0
I1
tp3637
Rp3638
(I3
S'|'
p3639
NNNI3
I1
I0
tp3640
bS'PCA'
p3641
tp3642
Rp3643
sg60
F0.2
sg165
g3635
sg61
g11
(g12
(S'S3'
p3644
I0
I1
tp3645
Rp3646
(I3
S'|'
p3647
NNNI3
I1
I0
tp3648
bS'VGG'
p3649
tp3650
Rp3651
sg155
g3632
sg70
g11
(g15
S'\xdc\xd2\x11$\xc67\xd8?'
p3652
tp3653
Rp3654
sg74
g11
(g12
(S'S3'
p3655
I0
I1
tp3656
Rp3657
(I3
S'|'
p3658
NNNI3
I1
I0
tp3659
bS'SVM'
p3660
tp3661
Rp3662
sg83
I3
sg84
g85
sg86
g11
(g15
S'\x17\xff.\xcf\x8e\x0f\xea?'
p3663
tp3664
Rp3665
sg90
g91
sg92
g93
sbag4
(g5
g6
Ntp3666
Rp3667
(dp3668
g10
g11
(g15
S'\x00\x00\x00\x00\x00\x00\xf8\xff'
p3669
tp3670
Rp3671
sg21
g11
(g15
S'\x00\x00\x00\x00\x00@e@'
p3672
tp3673
Rp3674
sg34
g35
sg103
g11
(g45
S'\x07\x00\x00\x00\x00\x00\x00\x00'
p3675
tp3676
Rp3677
sg36
(dp3678
g21
g3674
sg103
g3677
sg108
g11
(g45
S'\x04\x00\x00\x00\x00\x00\x00\x00'
p3679
tp3680
Rp3681
sg38
g11
(g15
S'\xfe\xfc}\xc6\xbe\xdb\xe8?'
p3682
tp3683
Rp3684
ssg51
g11
(g12
(S'S6'
p3685
I0
I1
tp3686
Rp3687
(I3
S'|'
p3688
NNNI6
I1
I0
tp3689
bS'ISOMAP'
p3690
tp3691
Rp3692
sg60
F0.2
sg108
g3681
sg61
g11
(g12
(S'S3'
p3693
I0
I1
tp3694
Rp3695
(I3
S'|'
p3696
NNNI3
I1
I0
tp3697
bS'VGG'
p3698
tp3699
Rp3700
sg70
g11
(g15
S'XOtw\x07\xf2\xe5?'
p3701
tp3702
Rp3703
sg74
g11
(g12
(S'S2'
p3704
I0
I1
tp3705
Rp3706
(I3
S'|'
p3707
NNNI2
I1
I0
tp3708
bS'RF'
p3709
tp3710
Rp3711
sg83
I3
sg38
g3684
sg84
g85
sg86
g11
(g15
S'h\xc6\t\x83\x90u\xeb?'
p3712
tp3713
Rp3714
sg90
g91
sg92
g93
sbag4
(g5
g6
Ntp3715
Rp3716
(dp3717
g10
g11
(g15
S'\x00\x00\x00\x00\x00\x00\xf8\xff'
p3718
tp3719
Rp3720
sg103
g11
(g45
S'\x03\x00\x00\x00\x00\x00\x00\x00'
p3721
tp3722
Rp3723
sg34
g35
sg36
(dp3724
g103
g3723
sg155
g11
(g15
S' \xea<\x8b\xfb~T@'
p3725
tp3726
Rp3727
sg108
g11
(g45
S'\x03\x00\x00\x00\x00\x00\x00\x00'
p3728
tp3729
Rp3730
sg165
g11
(g15
S'BD\x85_^\xe1\x03@'
p3731
tp3732
Rp3733
ssg165
g3733
sg51
g11
(g12
(S'S6'
p3734
I0
I1
tp3735
Rp3736
(I3
S'|'
p3737
NNNI6
I1
I0
tp3738
bS'ISOMAP'
p3739
tp3740
Rp3741
sg60
F0.2
sg108
g3730
sg61
g11
(g12
(S'S9'
p3742
I0
I1
tp3743
Rp3744
(I3
S'|'
p3745
NNNI9
I1
I0
tp3746
bS'inception'
p3747
tp3748
Rp3749
sg155
g3727
sg70
g11
(g15
S'\xbdMD\x8aU\xa8\xe0?'
p3750
tp3751
Rp3752
sg74
g11
(g12
(S'S3'
p3753
I0
I1
tp3754
Rp3755
(I3
S'|'
p3756
NNNI3
I1
I0
tp3757
bS'SVM'
p3758
tp3759
Rp3760
sg83
I3
sg84
g85
sg86
g11
(g15
S'\xe7\xd7\xf5\xb91B\xe1?'
p3761
tp3762
Rp3763
sg90
g91
sg92
g93
sbag4
(g5
g6
Ntp3764
Rp3765
(dp3766
g10
g11
(g15
S'\x00\x00\x00\x00\x00\x00\xf8\xff'
p3767
tp3768
Rp3769
sg21
g11
(g15
S'\x00\x00\x00\x00\x00`m@'
p3770
tp3771
Rp3772
sg25
g207
sg34
g35
sg36
(dp3773
g21
g3772
sg38
g11
(g15
S'\xe2\\r\xed\xdd\xd4\xeb?'
p3774
tp3775
Rp3776
sg25
g207
ssg51
g11
(g12
(S'S3'
p3777
I0
I1
tp3778
Rp3779
(I3
S'|'
p3780
NNNI3
I1
I0
tp3781
bS'PCA'
p3782
tp3783
Rp3784
sg60
F0.2
sg61
g11
(g12
(S'S9'
p3785
I0
I1
tp3786
Rp3787
(I3
S'|'
p3788
NNNI9
I1
I0
tp3789
bS'inception'
p3790
tp3791
Rp3792
sg70
g11
(g15
S'\x00\xa7\xdb\x80\xe2\xb1\xe2?'
p3793
tp3794
Rp3795
sg74
g11
(g12
(S'S2'
p3796
I0
I1
tp3797
Rp3798
(I3
S'|'
p3799
NNNI2
I1
I0
tp3800
bS'RF'
p3801
tp3802
Rp3803
sg83
I3
sg38
g3776
sg84
g85
sg86
g11
(g15
S'%\xe3f_nP\xe8?'
p3804
tp3805
Rp3806
sg90
g91
sg92
g93
sbag4
(g5
g6
Ntp3807
Rp3808
(dp3809
g10
g11
(g15
S'\x00\x00\x00\x00\x00\x00\xf8\xff'
p3810
tp3811
Rp3812
sg21
g11
(g15
S'\x00\x00\x00\x00\x00@a@'
p3813
tp3814
Rp3815
sg34
g35
sg103
g11
(g45
S'\x06\x00\x00\x00\x00\x00\x00\x00'
p3816
tp3817
Rp3818
sg36
(dp3819
g21
g3815
sg103
g3818
sg108
g11
(g45
S'\x03\x00\x00\x00\x00\x00\x00\x00'
p3820
tp3821
Rp3822
sg38
g11
(g15
S'J[,\xe9\x9d\x8b\xec?'
p3823
tp3824
Rp3825
ssg51
g11
(g12
(S'S6'
p3826
I0
I1
tp3827
Rp3828
(I3
S'|'
p3829
NNNI6
I1
I0
tp3830
bS'ISOMAP'
p3831
tp3832
Rp3833
sg60
F0.2
sg108
g3822
sg61
g11
(g12
(S'S3'
p3834
I0
I1
tp3835
Rp3836
(I3
S'|'
p3837
NNNI3
I1
I0
tp3838
bS'VGG'
p3839
tp3840
Rp3841
sg70
g11
(g15
S'K\xc1x\x01\x84e\xe4?'
p3842
tp3843
Rp3844
sg74
g11
(g12
(S'S2'
p3845
I0
I1
tp3846
Rp3847
(I3
S'|'
p3848
NNNI2
I1
I0
tp3849
bS'RF'
p3850
tp3851
Rp3852
sg83
I3
sg38
g3825
sg84
g85
sg86
g11
(g15
S'\xc0T)\x80\xd2-\xeb?'
p3853
tp3854
Rp3855
sg90
g91
sg92
g93
sbag4
(g5
g6
Ntp3856
Rp3857
(dp3858
g10
g11
(g15
S'\x00\x00\x00\x00\x00\x00\xf8\xff'
p3859
tp3860
Rp3861
sg25
g33
sg34
g35
sg36
(dp3862
g25
g33
sg155
g11
(g15
S'\xf7\xf7/V\xb8\xadU@'
p3863
tp3864
Rp3865
sg165
g11
(g15
S'\x0f\x8fiU\x1f\xf6\x04@'
p3866
tp3867
Rp3868
ssg51
g11
(g12
(S'S3'
p3869
I0
I1
tp3870
Rp3871
(I3
S'|'
p3872
NNNI3
I1
I0
tp3873
bS'PCA'
p3874
tp3875
Rp3876
sg60
F0.2
sg165
g3868
sg61
g11
(g12
(S'S9'
p3877
I0
I1
tp3878
Rp3879
(I3
S'|'
p3880
NNNI9
I1
I0
tp3881
bS'inception'
p3882
tp3883
Rp3884
sg155
g3865
sg70
g11
(g15
S"'\xdc\x00\xe4|w\xe0?"
p3885
tp3886
Rp3887
sg74
g11
(g12
(S'S3'
p3888
I0
I1
tp3889
Rp3890
(I3
S'|'
p3891
NNNI3
I1
I0
tp3892
bS'SVM'
p3893
tp3894
Rp3895
sg83
I3
sg84
g85
sg86
g11
(g15
S'\x9c|\xbb=9B\xe4?'
p3896
tp3897
Rp3898
sg90
g91
sg92
g93
sbag4
(g5
g6
Ntp3899
Rp3900
(dp3901
g10
g11
(g15
S'\x00\x00\x00\x00\x00\x00\xf8\xff'
p3902
tp3903
Rp3904
sg21
g11
(g15
S'\x00\x00\x00\x00\x00@a@'
p3905
tp3906
Rp3907
sg34
g35
sg103
g11
(g45
S'\x07\x00\x00\x00\x00\x00\x00\x00'
p3908
tp3909
Rp3910
sg36
(dp3911
g21
g3907
sg103
g3910
sg42
g11
(g45
S'\x03\x00\x00\x00\x00\x00\x00\x00'
p3912
tp3913
Rp3914
sg108
g11
(g45
S'\x03\x00\x00\x00\x00\x00\x00\x00'
p3915
tp3916
Rp3917
sg38
g11
(g15
S'\x87\xf2\xf5\xa5\xa5\x86\xe1?'
p3918
tp3919
Rp3920
ssg51
g11
(g12
(S'S6'
p3921
I0
I1
tp3922
Rp3923
(I3
S'|'
p3924
NNNI6
I1
I0
tp3925
bS'ISOMAP'
p3926
tp3927
Rp3928
sg60
F0.2
sg108
g3917
sg61
g11
(g12
(S'S8'
p3929
I0
I1
tp3930
Rp3931
(I3
S'|'
p3932
NNNI8
I1
I0
tp3933
bS'haralick'
p3934
tp3935
Rp3936
sg42
g3914
sg70
g11
(g15
S'\x8d\xdd\xf5\xc8w\x9a\xed?'
p3937
tp3938
Rp3939
sg74
g11
(g12
(S'S2'
p3940
I0
I1
tp3941
Rp3942
(I3
S'|'
p3943
NNNI2
I1
I0
tp3944
bS'RF'
p3945
tp3946
Rp3947
sg83
I3
sg38
g3920
sg84
g85
sg86
g11
(g15
S'\x9c\xb8\x7f\xf1\r\xd5\xea?'
p3948
tp3949
Rp3950
sg90
g91
sg92
g93
sbag4
(g5
g6
Ntp3951
Rp3952
(dp3953
g10
g11
(g15
S'\x00\x00\x00\x00\x00\x00\xf8\xff'
p3954
tp3955
Rp3956
sg25
g207
sg34
g35
sg36
(dp3957
g25
g207
sg155
g11
(g15
S'\xfa\xad\xb7\xf3\x93:R@'
p3958
tp3959
Rp3960
sg42
g11
(g45
S'\x03\x00\x00\x00\x00\x00\x00\x00'
p3961
tp3962
Rp3963
sg165
g11
(g15
S'N\xfd\xf3\xfa\xb0\xfb\x15@'
p3964
tp3965
Rp3966
ssg51
g11
(g12
(S'S3'
p3967
I0
I1
tp3968
Rp3969
(I3
S'|'
p3970
NNNI3
I1
I0
tp3971
bS'PCA'
p3972
tp3973
Rp3974
sg60
F0.2
sg165
g3966
sg61
g11
(g12
(S'S8'
p3975
I0
I1
tp3976
Rp3977
(I3
S'|'
p3978
NNNI8
I1
I0
tp3979
bS'haralick'
p3980
tp3981
Rp3982
sg155
g3960
sg42
g3963
sg70
g11
(g15
S'U\x97^\x98\xb0/\xde?'
p3983
tp3984
Rp3985
sg74
g11
(g12
(S'S3'
p3986
I0
I1
tp3987
Rp3988
(I3
S'|'
p3989
NNNI3
I1
I0
tp3990
bS'SVM'
p3991
tp3992
Rp3993
sg83
I3
sg84
g85
sg86
g11
(g15
S'\x00\x0f\xf1,\xb5\xa4\xe9?'
p3994
tp3995
Rp3996
sg90
g91
sg92
g93
sbag4
(g5
g6
Ntp3997
Rp3998
(dp3999
g10
g11
(g15
S'\x00\x00\x00\x00\x00\x00\xf8\xff'
p4000
tp4001
Rp4002
sg103
g11
(g45
S'\x06\x00\x00\x00\x00\x00\x00\x00'
p4003
tp4004
Rp4005
sg34
g35
sg36
(dp4006
g103
g4005
sg155
g11
(g15
S'\x8d\xbd\x8eU\x8c\xafW@'
p4007
tp4008
Rp4009
sg42
g11
(g45
S'\x01\x00\x00\x00\x00\x00\x00\x00'
p4010
tp4011
Rp4012
sg108
g11
(g45
S'\x03\x00\x00\x00\x00\x00\x00\x00'
p4013
tp4014
Rp4015
sg165
g11
(g15
S'\xf6\xe4\xd3\xe4c\xf0\x11@'
p4016
tp4017
Rp4018
ssg165
g4018
sg51
g11
(g12
(S'S6'
p4019
I0
I1
tp4020
Rp4021
(I3
S'|'
p4022
NNNI6
I1
I0
tp4023
bS'ISOMAP'
p4024
tp4025
Rp4026
sg60
F0.2
sg108
g4015
sg61
g11
(g12
(S'S8'
p4027
I0
I1
tp4028
Rp4029
(I3
S'|'
p4030
NNNI8
I1
I0
tp4031
bS'haralick'
p4032
tp4033
Rp4034
sg155
g4009
sg42
g4012
sg70
g11
(g15
S'\xc8\xfb`F\x9er\xda?'
p4035
tp4036
Rp4037
sg74
g11
(g12
(S'S3'
p4038
I0
I1
tp4039
Rp4040
(I3
S'|'
p4041
NNNI3
I1
I0
tp4042
bS'SVM'
p4043
tp4044
Rp4045
sg83
I3
sg84
g85
sg86
g11
(g15
S'\xcb\xb4\xe1\x87;\xd4\xea?'
p4046
tp4047
Rp4048
sg90
g91
sg92
g93
sbag4
(g5
g6
Ntp4049
Rp4050
(dp4051
g10
g11
(g15
S'\x00\x00\x00\x00\x00\x00\xf8\xff'
p4052
tp4053
Rp4054
sg25
g33
sg34
g35
sg36
(dp4055
g25
g33
sg155
g11
(g15
S'\xe5pfB\x19kR@'
p4056
tp4057
Rp4058
sg165
g11
(g15
S'\x18v\xdd\x9e".\xcf?'
p4059
tp4060
Rp4061
ssg51
g11
(g12
(S'S3'
p4062
I0
I1
tp4063
Rp4064
(I3
S'|'
p4065
NNNI3
I1
I0
tp4066
bS'PCA'
p4067
tp4068
Rp4069
sg60
F0.2
sg165
g4061
sg61
g11
(g12
(S'S3'
p4070
I0
I1
tp4071
Rp4072
(I3
S'|'
p4073
NNNI3
I1
I0
tp4074
bS'VGG'
p4075
tp4076
Rp4077
sg155
g4058
sg70
g11
(g15
S'\x89\xdc\x16b>V\xd7?'
p4078
tp4079
Rp4080
sg74
g11
(g12
(S'S3'
p4081
I0
I1
tp4082
Rp4083
(I3
S'|'
p4084
NNNI3
I1
I0
tp4085
bS'SVM'
p4086
tp4087
Rp4088
sg83
I3
sg84
g85
sg86
g11
(g15
S'\xb3\xf4pxi\x87\xeb?'
p4089
tp4090
Rp4091
sg90
g91
sg92
g93
sbag4
(g5
g6
Ntp4092
Rp4093
(dp4094
g10
g11
(g15
S'\x00\x00\x00\x00\x00\x00\xf8\xff'
p4095
tp4096
Rp4097
sg103
g11
(g45
S'\x07\x00\x00\x00\x00\x00\x00\x00'
p4098
tp4099
Rp4100
sg34
g35
sg36
(dp4101
g103
g4100
sg155
g11
(g15
S'\xa8\x9f_7\xd1\xddJ@'
p4102
tp4103
Rp4104
sg42
g11
(g45
S'\x03\x00\x00\x00\x00\x00\x00\x00'
p4105
tp4106
Rp4107
sg108
g11
(g45
S'\x04\x00\x00\x00\x00\x00\x00\x00'
p4108
tp4109
Rp4110
sg165
g11
(g15
S'r\x08\xa5\x19\x16\x12\xf9?'
p4111
tp4112
Rp4113
ssg165
g4113
sg51
g11
(g12
(S'S6'
p4114
I0
I1
tp4115
Rp4116
(I3
S'|'
p4117
NNNI6
I1
I0
tp4118
bS'ISOMAP'
p4119
tp4120
Rp4121
sg60
F0.2
sg108
g4110
sg61
g11
(g12
(S'S8'
p4122
I0
I1
tp4123
Rp4124
(I3
S'|'
p4125
NNNI8
I1
I0
tp4126
bS'haralick'
p4127
tp4128
Rp4129
sg155
g4104
sg42
g4107
sg70
g11
(g15
S'\xdcD;\x85\x9b\xd2\xdc?'
p4130
tp4131
Rp4132
sg74
g11
(g12
(S'S3'
p4133
I0
I1
tp4134
Rp4135
(I3
S'|'
p4136
NNNI3
I1
I0
tp4137
bS'SVM'
p4138
tp4139
Rp4140
sg83
I3
sg84
g85
sg86
g11
(g15
S'/\xa3\xb9\x8c\xe62\xea?'
p4141
tp4142
Rp4143
sg90
g91
sg92
g93
sbag4
(g5
g6
Ntp4144
Rp4145
(dp4146
g10
g11
(g15
S'\x00\x00\x00\x00\x00\x00\xf8\xff'
p4147
tp4148
Rp4149
sg21
g11
(g15
S'\x00\x00\x00\x00\x00\xc0r@'
p4150
tp4151
Rp4152
sg34
g35
sg103
g11
(g45
S'\x05\x00\x00\x00\x00\x00\x00\x00'
p4153
tp4154
Rp4155
sg36
(dp4156
g21
g4152
sg103
g4155
sg42
g11
(g45
S'\x03\x00\x00\x00\x00\x00\x00\x00'
p4157
tp4158
Rp4159
sg108
g11
(g45
S'\x02\x00\x00\x00\x00\x00\x00\x00'
p4160
tp4161
Rp4162
sg38
g11
(g15
S'\xe4dg\xb9\xce\xbe\xd3?'
p4163
tp4164
Rp4165
ssg51
g11
(g12
(S'S6'
p4166
I0
I1
tp4167
Rp4168
(I3
S'|'
p4169
NNNI6
I1
I0
tp4170
bS'ISOMAP'
p4171
tp4172
Rp4173
sg60
F0.2
sg108
g4162
sg61
g11
(g12
(S'S8'
p4174
I0
I1
tp4175
Rp4176
(I3
S'|'
p4177
NNNI8
I1
I0
tp4178
bS'haralick'
p4179
tp4180
Rp4181
sg42
g4159
sg70
g11
(g15
S'\x1b\xca\x10\x86Q4\xf2?'
p4182
tp4183
Rp4184
sg74
g11
(g12
(S'S2'
p4185
I0
I1
tp4186
Rp4187
(I3
S'|'
p4188
NNNI2
I1
I0
tp4189
bS'RF'
p4190
tp4191
Rp4192
sg83
I3
sg38
g4165
sg84
g85
sg86
g11
(g15
S'\xd8\x14\x9a\x8f\xa4z\xea?'
p4193
tp4194
Rp4195
sg90
g91
sg92
g93
sbag4
(g5
g6
Ntp4196
Rp4197
(dp4198
g10
g11
(g15
S'\x00\x00\x00\x00\x00\x00\xf8\xff'
p4199
tp4200
Rp4201
sg103
g11
(g45
S'\x07\x00\x00\x00\x00\x00\x00\x00'
p4202
tp4203
Rp4204
sg34
g35
sg36
(dp4205
g103
g4204
sg155
g11
(g15
S'\xa9k\xbb\nF\rM@'
p4206
tp4207
Rp4208
sg108
g11
(g45
S'\x04\x00\x00\x00\x00\x00\x00\x00'
p4209
tp4210
Rp4211
sg165
g11
(g15
S':\xbc$\xe6`y\x05@'
p4212
tp4213
Rp4214
ssg165
g4214
sg51
g11
(g12
(S'S6'
p4215
I0
I1
tp4216
Rp4217
(I3
S'|'
p4218
NNNI6
I1
I0
tp4219
bS'ISOMAP'
p4220
tp4221
Rp4222
sg60
F0.2
sg108
g4211
sg61
g11
(g12
(S'S9'
p4223
I0
I1
tp4224
Rp4225
(I3
S'|'
p4226
NNNI9
I1
I0
tp4227
bS'inception'
p4228
tp4229
Rp4230
sg155
g4208
sg70
g11
(g15
S'|f.v2`\xdf?'
p4231
tp4232
Rp4233
sg74
g11
(g12
(S'S3'
p4234
I0
I1
tp4235
Rp4236
(I3
S'|'
p4237
NNNI3
I1
I0
tp4238
bS'SVM'
p4239
tp4240
Rp4241
sg83
I3
sg84
g85
sg86
g11
(g15
S'\x95/\xfbc\x925\xe3?'
p4242
tp4243
Rp4244
sg90
g91
sg92
g93
sbag4
(g5
g6
Ntp4245
Rp4246
(dp4247
g10
g11
(g15
S'\x00\x00\x00\x00\x00\x00\xf8\xff'
p4248
tp4249
Rp4250
sg103
g11
(g45
S'\x03\x00\x00\x00\x00\x00\x00\x00'
p4251
tp4252
Rp4253
sg34
g35
sg36
(dp4254
g103
g4253
sg155
g11
(g15
S'.;\ns \x04>@'
p4255
tp4256
Rp4257
sg108
g11
(g45
S'\x04\x00\x00\x00\x00\x00\x00\x00'
p4258
tp4259
Rp4260
sg165
g11
(g15
S'~\x8ef\x11\xc3\xac\x1a@'
p4261
tp4262
Rp4263
ssg165
g4263
sg51
g11
(g12
(S'S6'
p4264
I0
I1
tp4265
Rp4266
(I3
S'|'
p4267
NNNI6
I1
I0
tp4268
bS'ISOMAP'
p4269
tp4270
Rp4271
sg60
F0.2
sg108
g4260
sg61
g11
(g12
(S'S3'
p4272
I0
I1
tp4273
Rp4274
(I3
S'|'
p4275
NNNI3
I1
I0
tp4276
bS'VGG'
p4277
tp4278
Rp4279
sg155
g4257
sg70
g11
(g15
S'`\x10\x0e-\x9a\x1f\xd9?'
p4280
tp4281
Rp4282
sg74
g11
(g12
(S'S3'
p4283
I0
I1
tp4284
Rp4285
(I3
S'|'
p4286
NNNI3
I1
I0
tp4287
bS'SVM'
p4288
tp4289
Rp4290
sg83
I3
sg84
g85
sg86
g11
(g15
S'\xb7\xeb\x82T\xb1\xf7\xea?'
p4291
tp4292
Rp4293
sg90
g91
sg92
g93
sbag4
(g5
g6
Ntp4294
Rp4295
(dp4296
g10
g11
(g15
S'\x00\x00\x00\x00\x00\x00\xf8\xff'
p4297
tp4298
Rp4299
sg21
g11
(g15
S'\x00\x00\x00\x00\x00\xc0p@'
p4300
tp4301
Rp4302
sg25
g207
sg34
g35
sg36
(dp4303
g21
g4302
sg38
g11
(g15
S'\x0f\xa4GZ\x98\x91\xe4?'
p4304
tp4305
Rp4306
sg25
g207
ssg51
g11
(g12
(S'S3'
p4307
I0
I1
tp4308
Rp4309
(I3
S'|'
p4310
NNNI3
I1
I0
tp4311
bS'PCA'
p4312
tp4313
Rp4314
sg60
F0.2
sg61
g11
(g12
(S'S9'
p4315
I0
I1
tp4316
Rp4317
(I3
S'|'
p4318
NNNI9
I1
I0
tp4319
bS'inception'
p4320
tp4321
Rp4322
sg70
g11
(g15
S'e6\xf2\x07\xfd\xb6\xe2?'
p4323
tp4324
Rp4325
sg74
g11
(g12
(S'S2'
p4326
I0
I1
tp4327
Rp4328
(I3
S'|'
p4329
NNNI2
I1
I0
tp4330
bS'RF'
p4331
tp4332
Rp4333
sg83
I3
sg38
g4306
sg84
g85
sg86
g11
(g15
S'%\xe3f_nP\xe8?'
p4334
tp4335
Rp4336
sg90
g91
sg92
g93
sbag4
(g5
g6
Ntp4337
Rp4338
(dp4339
g10
g11
(g15
S'\x00\x00\x00\x00\x00\x00\xf8\xff'
p4340
tp4341
Rp4342
sg103
g11
(g45
S'\x05\x00\x00\x00\x00\x00\x00\x00'
p4343
tp4344
Rp4345
sg34
g35
sg36
(dp4346
g103
g4345
sg155
g11
(g15
S'\x93\xcee\x96\x18\x97T@'
p4347
tp4348
Rp4349
sg108
g11
(g45
S'\x04\x00\x00\x00\x00\x00\x00\x00'
p4350
tp4351
Rp4352
sg165
g11
(g15
S'o\x8b\xfa\x93\xbf\xbb\xf7?'
p4353
tp4354
Rp4355
ssg165
g4355
sg51
g11
(g12
(S'S6'
p4356
I0
I1
tp4357
Rp4358
(I3
S'|'
p4359
NNNI6
I1
I0
tp4360
bS'ISOMAP'
p4361
tp4362
Rp4363
sg60
F0.2
sg108
g4352
sg61
g11
(g12
(S'S9'
p4364
I0
I1
tp4365
Rp4366
(I3
S'|'
p4367
NNNI9
I1
I0
tp4368
bS'inception'
p4369
tp4370
Rp4371
sg155
g4349
sg70
g11
(g15
S'A;\xa7U\xcb>\xe0?'
p4372
tp4373
Rp4374
sg74
g11
(g12
(S'S3'
p4375
I0
I1
tp4376
Rp4377
(I3
S'|'
p4378
NNNI3
I1
I0
tp4379
bS'SVM'
p4380
tp4381
Rp4382
sg83
I3
sg84
g85
sg86
g11
(g15
S'S:m\x07\xd3;\xe2?'
p4383
tp4384
Rp4385
sg90
g91
sg92
g93
sbag4
(g5
g6
Ntp4386
Rp4387
(dp4388
g10
g11
(g15
S'\x00\x00\x00\x00\x00\x00\xf8\xff'
p4389
tp4390
Rp4391
sg103
g11
(g45
S'\x06\x00\x00\x00\x00\x00\x00\x00'
p4392
tp4393
Rp4394
sg34
g35
sg36
(dp4395
g103
g4394
sg155
g11
(g15
S'\xef\xee\xf8{a\x87#@'
p4396
tp4397
Rp4398
sg108
g11
(g45
S'\x02\x00\x00\x00\x00\x00\x00\x00'
p4399
tp4400
Rp4401
sg165
g11
(g15
S'\xe7\xbe6t0\x8c\x04@'
p4402
tp4403
Rp4404
ssg165
g4404
sg51
g11
(g12
(S'S6'
p4405
I0
I1
tp4406
Rp4407
(I3
S'|'
p4408
NNNI6
I1
I0
tp4409
bS'ISOMAP'
p4410
tp4411
Rp4412
sg60
F0.2
sg108
g4401
sg61
g11
(g12
(S'S9'
p4413
I0
I1
tp4414
Rp4415
(I3
S'|'
p4416
NNNI9
I1
I0
tp4417
bS'inception'
p4418
tp4419
Rp4420
sg155
g4398
sg70
g11
(g15
S'\xcb\x9dC\xe9\x96\x14\xe0?'
p4421
tp4422
Rp4423
sg74
g11
(g12
(S'S3'
p4424
I0
I1
tp4425
Rp4426
(I3
S'|'
p4427
NNNI3
I1
I0
tp4428
bS'SVM'
p4429
tp4430
Rp4431
sg83
I3
sg84
g85
sg86
g11
(g15
S'Q\xc7\xda\xb3\x01f\xe1?'
p4432
tp4433
Rp4434
sg90
g91
sg92
g93
sbag4
(g5
g6
Ntp4435
Rp4436
(dp4437
g10
g11
(g15
S'\x00\x00\x00\x00\x00\x00\xf8\xff'
p4438
tp4439
Rp4440
sg25
g33
sg34
g35
sg36
(dp4441
g25
g33
sg155
g11
(g15
S'\x10\x9cE+!=W@'
p4442
tp4443
Rp4444
sg42
g11
(g45
S'\x02\x00\x00\x00\x00\x00\x00\x00'
p4445
tp4446
Rp4447
sg165
g11
(g15
S':)0\xea\x95_\x15@'
p4448
tp4449
Rp4450
ssg51
g11
(g12
(S'S3'
p4451
I0
I1
tp4452
Rp4453
(I3
S'|'
p4454
NNNI3
I1
I0
tp4455
bS'PCA'
p4456
tp4457
Rp4458
sg60
F0.2
sg165
g4450
sg61
g11
(g12
(S'S8'
p4459
I0
I1
tp4460
Rp4461
(I3
S'|'
p4462
NNNI8
I1
I0
tp4463
bS'haralick'
p4464
tp4465
Rp4466
sg155
g4444
sg42
g4447
sg70
g11
(g15
S'\xfd\xd1v\x8e\xaeK\xdb?'
p4467
tp4468
Rp4469
sg74
g11
(g12
(S'S3'
p4470
I0
I1
tp4471
Rp4472
(I3
S'|'
p4473
NNNI3
I1
I0
tp4474
bS'SVM'
p4475
tp4476
Rp4477
sg83
I3
sg84
g85
sg86
g11
(g15
S'\x8dN\xcc\xd0\xc7\xd9\xe9?'
p4478
tp4479
Rp4480
sg90
g91
sg92
g93
sbasS'error_curve'
p4481
(lp4482
g73
ag73
ag133
ag187
ag187
ag187
ag233
ag233
ag233
ag233
ag233
ag233
ag233
ag233
ag276
ag325
ag325
ag325
ag368
ag368
ag368
ag368
ag368
ag368
ag368
ag368
ag368
ag368
ag411
ag411
ag411
ag411
ag411
ag411
ag411
ag411
ag411
ag411
ag411
ag454
ag454
ag454
ag454
ag454
ag454
ag454
ag454
ag454
ag454
ag454
ag454
ag454
ag454
ag454
ag454
ag454
ag454
ag454
ag454
ag454
ag454
ag454
ag454
ag454
ag454
ag454
ag454
ag454
ag454
ag454
ag454
ag454
ag454
ag454
ag454
ag454
ag454
ag454
ag454
ag454
ag454
ag454
ag454
ag454
ag454
ag454
ag454
ag454
ag454
ag454
ag454
ag454
asS'iters'
p4483
I51
sg34
g35
sS'results_loc'
p4484
S'/gpfs/u/home/CGHI/CGHIarch/barn/EP_project/results/'
p4485
sS'times'
p4486
(lp4487
F18.463575839996338
aF19.413479804992676
aF21.307381868362427
aF39.91043782234192
aF40.16979193687439
aF60.90698480606079
aF61.188864946365356
aF61.72686696052551
aF61.976078033447266
aF78.65899085998535
aF80.38016080856323
aF97.2774829864502
aF113.85658192634583
aF114.73369598388672
aF115.00593185424805
aF115.82493185997009
aF116.81871581077576
aF119.48581385612488
aF121.65202188491821
aF122.8476049900055
aF141.41453289985657
aF143.53692388534546
aF161.40208101272583
aF162.31962299346924
aF178.8616349697113
aF179.12924981117249
aF198.093820810318
aF200.970538854599
aF203.35360884666443
aF205.83637499809265
aF222.78055500984192
aF223.02068400382996
aF223.2515959739685
aF239.77198696136475
aF256.637601852417
aF273.69535303115845
aF273.98141384124756
aF275.49374890327454
aF294.36234498023987
aF297.24704790115356
aF315.73441100120544
aF317.96151089668274
aF338.8345248699188
aF339.09285283088684
aF341.36152696609497
aF358.0842409133911
aF359.0729308128357
aF359.32957887649536
aF376.06134581565857
aF393.17144799232483
aF393.44590401649475
aF411.2839050292969
aF412.1666979789734
aF428.67084789276123
aF445.26288199424744
aF445.5164039134979
aF447.9531979560852
aF448.1907229423523
aF465.7502520084381
aF466.73052501678467
aF487.0821669101715
aF490.0769000053406
aF491.38707184791565
aF492.3407919406891
aF512.2186670303345
aF513.1176090240479
aF514.1017229557037
aF515.0986018180847
aF515.9638359546661
aF516.8919649124146
aF533.3361709117889
aF535.1016700267792
aF553.4019739627838
aF575.0399928092957
aF575.3189539909363
aF577.5881009101868
aF578.4965388774872
aF581.2076508998871
aF583.1724669933319
aF583.4466009140015
aF601.7561168670654
aF619.2738358974457
aF635.7472658157349
aF635.9727308750153
aF652.9631209373474
aF672.375020980835
aF673.3640630245209
aF674.1974029541016
aF677.0438468456268
aF677.9926450252533
aF678.9581890106201
aF695.4519770145416
asS'data_loc'
p4488
g93
sS'run'
p4489
I5
sg90
S'random_MCMC'
p4490
sb.