(iprototypes.random_based_mcmc1
random_MCMC
p0
(dp1
S'best_pipelines'
p2
(lp3
ccopy_reg
_reconstructor
p4
(cprototypes.data_analytic_pipeline
image_classification_pipeline
p5
c__builtin__
object
p6
Ntp7
Rp8
(dp9
S'f1_score'
p10
cnumpy.core.multiarray
scalar
p11
(cnumpy
dtype
p12
(S'f8'
p13
I0
I1
tp14
Rp15
(I3
S'<'
p16
NNNI-1
I-1
I0
tp17
bS'\x00\x00\x00\x00\x00\x00\xf8\xff'
p18
tp19
Rp20
sS'n_estimators'
p21
g11
(g15
S'\x00\x00\x00\x00\x00`i@'
p22
tp23
Rp24
sS'data_name'
p25
S'brain'
p26
sS'n_neighbors'
p27
g11
(g12
(S'i8'
p28
I0
I1
tp29
Rp30
(I3
S'<'
p31
NNNI-1
I-1
I0
tp32
bS'\x04\x00\x00\x00\x00\x00\x00\x00'
p33
tp34
Rp35
sS'kwargs'
p36
(dp37
g21
g24
sg27
g35
sS'n_components'
p38
g11
(g30
S'\x03\x00\x00\x00\x00\x00\x00\x00'
p39
tp40
Rp41
sS'max_features'
p42
g11
(g15
S'\xfe2`\xeb\x8b\x81\xd3?'
p43
tp44
Rp45
ssS'dimensionality_reduction'
p46
g11
(g12
(S'S6'
p47
I0
I1
tp48
Rp49
(I3
S'|'
p50
NNNI6
I1
I0
tp51
bS'ISOMAP'
p52
tp53
Rp54
sS'test_size'
p55
F0.2
sg38
g41
sS'feature_extraction'
p56
g11
(g12
(S'S3'
p57
I0
I1
tp58
Rp59
(I3
S'|'
p60
NNNI3
I1
I0
tp61
bS'VGG'
p62
tp63
Rp64
sS'result'
p65
g11
(g15
S'\x84\\b}\xd7S\xe7?'
p66
tp67
Rp68
sS'learning_algorithm'
p69
g11
(g12
(S'S2'
p70
I0
I1
tp71
Rp72
(I3
S'|'
p73
NNNI2
I1
I0
tp74
bS'RF'
p75
tp76
Rp77
sS'val_splits'
p78
I3
sg42
g45
sS'ml_type'
p79
S'validation'
p80
sS'accuracy'
p81
g11
(g15
S'a\x1a\xf6\x8b=\xc2\xe9?'
p82
tp83
Rp84
sS'type1'
p85
S'random1'
p86
sS'data_location'
p87
S'/gpfs/u/home/CGHI/CGHIarch/barn/EP_project/data/'
p88
sbag4
(g5
g6
Ntp89
Rp90
(dp91
g10
g11
(g15
S'\x00\x00\x00\x00\x00\x00\xf8\xff'
p92
tp93
Rp94
sS'pca_whiten'
p95
g11
(g12
(S'b1'
p96
I0
I1
tp97
Rp98
(I3
S'|'
p99
NNNI-1
I-1
I0
tp100
bS'\x00'
p101
tp102
Rp103
sg25
g26
sg36
(dp104
g95
g103
sS'svm_C'
p105
g11
(g15
S'x\x00\xdd\xc8\x9d\x195@'
p106
tp107
Rp108
sS'haralick_distance'
p109
g11
(g30
S'\x02\x00\x00\x00\x00\x00\x00\x00'
p110
tp111
Rp112
sS'svm_gamma'
p113
g11
(g15
S'\xf0w\xeaD3\xe4\x12@'
p114
tp115
Rp116
ssg46
g11
(g12
(S'S3'
p117
I0
I1
tp118
Rp119
(I3
S'|'
p120
NNNI3
I1
I0
tp121
bS'PCA'
p122
tp123
Rp124
sg55
F0.2
sg113
g116
sg56
g11
(g12
(S'S8'
p125
I0
I1
tp126
Rp127
(I3
S'|'
p128
NNNI8
I1
I0
tp129
bS'haralick'
p130
tp131
Rp132
sg105
g108
sg109
g112
sg65
g11
(g15
S'\x19::\x1e@j\xe0?'
p133
tp134
Rp135
sg69
g11
(g12
(S'S3'
p136
I0
I1
tp137
Rp138
(I3
S'|'
p139
NNNI3
I1
I0
tp140
bS'SVM'
p141
tp142
Rp143
sg78
I3
sg79
g80
sg81
g11
(g15
S'\xac\xb1\xe6Or\xc0\xe4?'
p144
tp145
Rp146
sg85
g86
sg87
g88
sbag4
(g5
g6
Ntp147
Rp148
(dp149
g10
g11
(g15
S'\x00\x00\x00\x00\x00\x00\xf8\xff'
p150
tp151
Rp152
sg21
g11
(g15
S'\x00\x00\x00\x00\x00\xc0p@'
p153
tp154
Rp155
sg95
g103
sg25
g26
sg36
(dp156
g21
g155
sg42
g11
(g15
S'\xf7\x16\x93iv\x05\xdd?'
p157
tp158
Rp159
sg95
g103
ssg46
g11
(g12
(S'S3'
p160
I0
I1
tp161
Rp162
(I3
S'|'
p163
NNNI3
I1
I0
tp164
bS'PCA'
p165
tp166
Rp167
sg55
F0.2
sg56
g11
(g12
(S'S3'
p168
I0
I1
tp169
Rp170
(I3
S'|'
p171
NNNI3
I1
I0
tp172
bS'VGG'
p173
tp174
Rp175
sg65
g11
(g15
S'\xe9\xeao\x19\x14\x05\xda?'
p176
tp177
Rp178
sg69
g11
(g12
(S'S2'
p179
I0
I1
tp180
Rp181
(I3
S'|'
p182
NNNI2
I1
I0
tp183
bS'RF'
p184
tp185
Rp186
sg78
I3
sg42
g159
sg79
g80
sg81
g11
(g15
S'\xa3\xa4~\x85\xfa\xbe\xea?'
p187
tp188
Rp189
sg85
g86
sg87
g88
sbag4
(g5
g6
Ntp190
Rp191
(dp192
g10
g11
(g15
S'\x00\x00\x00\x00\x00\x00\xf8\xff'
p193
tp194
Rp195
sg21
g11
(g15
S'\x00\x00\x00\x00\x00@Z@'
p196
tp197
Rp198
sg95
g11
(g98
S'\x01'
p199
tp200
Rp201
sg25
g26
sg36
(dp202
g21
g198
sg42
g11
(g15
S'nrz\x9d\xd4K\xeb?'
p203
tp204
Rp205
sg95
g201
ssg46
g11
(g12
(S'S3'
p206
I0
I1
tp207
Rp208
(I3
S'|'
p209
NNNI3
I1
I0
tp210
bS'PCA'
p211
tp212
Rp213
sg55
F0.2
sg56
g11
(g12
(S'S3'
p214
I0
I1
tp215
Rp216
(I3
S'|'
p217
NNNI3
I1
I0
tp218
bS'VGG'
p219
tp220
Rp221
sg65
g11
(g15
S'\xbb\x02\xdd4t\xe6\xd9?'
p222
tp223
Rp224
sg69
g11
(g12
(S'S2'
p225
I0
I1
tp226
Rp227
(I3
S'|'
p228
NNNI2
I1
I0
tp229
bS'RF'
p230
tp231
Rp232
sg78
I3
sg42
g205
sg79
g80
sg81
g11
(g15
S'\xb1\xc2\x05\xb6\x9bp\xea?'
p233
tp234
Rp235
sg85
g86
sg87
g88
sbasS'paths'
p236
(lp237
(lp238
S'VGG'
p239
aS'PCA'
p240
aS'SVM'
p241
aa(lp242
g239
ag240
aS'RF'
p243
aa(lp244
g239
aS'ISOMAP'
p245
ag241
aa(lp246
g239
ag245
ag243
aa(lp247
S'haralick'
p248
ag240
ag241
aa(lp249
g248
ag240
ag243
aa(lp250
g248
ag245
ag241
aa(lp251
g248
ag245
ag243
aa(lp252
S'inception'
p253
ag240
ag241
aa(lp254
g253
ag240
ag243
aa(lp255
g253
ag245
ag241
aa(lp256
g253
ag245
ag243
aasS'pipeline'
p257
(dp258
g27
(lp259
I3
aI4
aI5
aI6
aI7
asg95
(lp260
I01
aI00
asg21
cnumpy.core.multiarray
_reconstruct
p261
(cnumpy
ndarray
p262
(I0
tp263
S'b'
p264
tp265
Rp266
(I1
(I10
tp267
g15
I00
S'\x00\x00\x00\x00\x00\x00 @\x00\x00\x00\x00\x00\x00D@\x00\x00\x00\x00\x00@R@\x00\x00\x00\x00\x00@Z@\x00\x00\x00\x00\x00@a@\x00\x00\x00\x00\x00@e@\x00\x00\x00\x00\x00`i@\x00\x00\x00\x00\x00`m@\x00\x00\x00\x00\x00\xc0p@\x00\x00\x00\x00\x00\xc0r@'
p268
tp269
bsg46
(lp270
g240
ag245
asg113
g261
(g262
(I0
tp271
g264
tp272
Rp273
(I1
(I10
tp274
g15
I00
S"{\x14\xaeG\xe1z\x84?\x102Tv\x98\xba\xec?\xe7\xd5\xc4\xb3\xa2\x91\xfc?b\xc9/\x96\xfcb\x05@\xd2'}\xd2'}\x0c@!Ce\x87\xa9\xcb\x11@X\xf2\x8b%\xbfX\x15@\x90\xa1\xb2\xc3\xd4\xe5\x18@\xc8P\xd9a\xear\x1c@\x00\x00\x00\x00\x00\x00 @"
p275
tp276
bsg56
(lp277
g239
ag248
ag253
asg109
(lp278
I1
aI2
aI3
asg38
(lp279
I2
aI3
aI4
asg69
(lp280
g241
ag243
asg42
g261
(g262
(I0
tp281
g264
tp282
Rp283
(I1
(I5
tp284
g15
I00
S'333333\xd3?\x9a\x99\x99\x99\x99\x99\xd9?\x00\x00\x00\x00\x00\x00\xe0?433333\xe3?hfffff\xe6?'
p285
tp286
bsg105
g261
(g262
(I0
tp287
g264
tp288
Rp289
(I1
(I10
tp290
g15
I00
S'\x9a\x99\x99\x99\x99\x99\xb9?gfffff&@\xce\xcc\xcc\xcc\xccL6@43333\xb3@@\x01\x00\x00\x00\x00@F@\xce\xcc\xcc\xcc\xcc\xccK@\xcd\xcc\xcc\xcc\xcc\xacP@43333sS@\x9a\x99\x99\x99\x999V@\x00\x00\x00\x00\x00\x00Y@'
p291
tp292
bssS'pipelines'
p293
(lp294
g8
ag4
(g5
g6
Ntp295
Rp296
(dp297
g10
g11
(g15
S'\x00\x00\x00\x00\x00\x00\xf8\xff'
p298
tp299
Rp300
sg21
g11
(g15
S'\x00\x00\x00\x00\x00@a@'
p301
tp302
Rp303
sg25
g26
sg27
g11
(g30
S'\x05\x00\x00\x00\x00\x00\x00\x00'
p304
tp305
Rp306
sg36
(dp307
g21
g303
sg27
g306
sg109
g11
(g30
S'\x02\x00\x00\x00\x00\x00\x00\x00'
p308
tp309
Rp310
sg38
g11
(g30
S'\x02\x00\x00\x00\x00\x00\x00\x00'
p311
tp312
Rp313
sg42
g11
(g15
S'\xa2:\x87\x0b\xdeT\xe2?'
p314
tp315
Rp316
ssg46
g11
(g12
(S'S6'
p317
I0
I1
tp318
Rp319
(I3
S'|'
p320
NNNI6
I1
I0
tp321
bS'ISOMAP'
p322
tp323
Rp324
sg55
F0.2
sg38
g313
sg56
g11
(g12
(S'S8'
p325
I0
I1
tp326
Rp327
(I3
S'|'
p328
NNNI8
I1
I0
tp329
bS'haralick'
p330
tp331
Rp332
sg109
g310
sg65
g11
(g15
S'\t\xf8\x0fS\xc3#\xf3?'
p333
tp334
Rp335
sg69
g11
(g12
(S'S2'
p336
I0
I1
tp337
Rp338
(I3
S'|'
p339
NNNI2
I1
I0
tp340
bS'RF'
p341
tp342
Rp343
sg78
I3
sg42
g316
sg79
g80
sg81
g11
(g15
S'\x911\x187\xc6x\xe8?'
p344
tp345
Rp346
sg85
g86
sg87
g88
sbag90
ag4
(g5
g6
Ntp347
Rp348
(dp349
g10
g11
(g15
S'\x00\x00\x00\x00\x00\x00\xf8\xff'
p350
tp351
Rp352
sg27
g11
(g30
S'\x07\x00\x00\x00\x00\x00\x00\x00'
p353
tp354
Rp355
sg25
g26
sg36
(dp356
g27
g355
sg105
g11
(g15
S'\xe5\xb3Z\x87\xa7\xc8A@'
p357
tp358
Rp359
sg38
g11
(g30
S'\x03\x00\x00\x00\x00\x00\x00\x00'
p360
tp361
Rp362
sg113
g11
(g15
S'R`1\xf6.\xbf\x13@'
p363
tp364
Rp365
ssg113
g365
sg46
g11
(g12
(S'S6'
p366
I0
I1
tp367
Rp368
(I3
S'|'
p369
NNNI6
I1
I0
tp370
bS'ISOMAP'
p371
tp372
Rp373
sg55
F0.2
sg38
g362
sg56
g11
(g12
(S'S9'
p374
I0
I1
tp375
Rp376
(I3
S'|'
p377
NNNI9
I1
I0
tp378
bS'inception'
p379
tp380
Rp381
sg105
g359
sg65
g11
(g15
S'\r\x05(T4M\xe6?'
p382
tp383
Rp384
sg69
g11
(g12
(S'S3'
p385
I0
I1
tp386
Rp387
(I3
S'|'
p388
NNNI3
I1
I0
tp389
bS'SVM'
p390
tp391
Rp392
sg78
I3
sg79
g80
sg81
g11
(g15
S'}\xdbT.\x8a`\xe4?'
p393
tp394
Rp395
sg85
g86
sg87
g88
sbag148
ag4
(g5
g6
Ntp396
Rp397
(dp398
g10
g11
(g15
S'\x00\x00\x00\x00\x00\x00\xf8\xff'
p399
tp400
Rp401
sg21
g11
(g15
S'\x00\x00\x00\x00\x00\xc0r@'
p402
tp403
Rp404
sg95
g103
sg25
g26
sg36
(dp405
g21
g404
sg42
g11
(g15
S'g\x1e\xc9\xc6\x1a\xd5\xd8?'
p406
tp407
Rp408
sg95
g103
ssg46
g11
(g12
(S'S3'
p409
I0
I1
tp410
Rp411
(I3
S'|'
p412
NNNI3
I1
I0
tp413
bS'PCA'
p414
tp415
Rp416
sg55
F0.2
sg56
g11
(g12
(S'S3'
p417
I0
I1
tp418
Rp419
(I3
S'|'
p420
NNNI3
I1
I0
tp421
bS'VGG'
p422
tp423
Rp424
sg65
g11
(g15
S'a\x8bcl4\x1c\xda?'
p425
tp426
Rp427
sg69
g11
(g12
(S'S2'
p428
I0
I1
tp429
Rp430
(I3
S'|'
p431
NNNI2
I1
I0
tp432
bS'RF'
p433
tp434
Rp435
sg78
I3
sg42
g408
sg79
g80
sg81
g11
(g15
S'\xb034\xc7\x84\xbe\xea?'
p436
tp437
Rp438
sg85
g86
sg87
g88
sbag4
(g5
g6
Ntp439
Rp440
(dp441
g10
g11
(g15
S'\x00\x00\x00\x00\x00\x00\xf8\xff'
p442
tp443
Rp444
sg95
g201
sg25
g26
sg36
(dp445
g95
g201
sg105
g11
(g15
S'X0?!2\x0fC@'
p446
tp447
Rp448
sg113
g11
(g15
S'\xb0\xec\xe6\xc4,\xac\x11@'
p449
tp450
Rp451
ssg46
g11
(g12
(S'S3'
p452
I0
I1
tp453
Rp454
(I3
S'|'
p455
NNNI3
I1
I0
tp456
bS'PCA'
p457
tp458
Rp459
sg55
F0.2
sg113
g451
sg56
g11
(g12
(S'S3'
p460
I0
I1
tp461
Rp462
(I3
S'|'
p463
NNNI3
I1
I0
tp464
bS'VGG'
p465
tp466
Rp467
sg105
g448
sg65
g11
(g15
S'\xa7\x12<G\xb2\xb8\xe5?'
p468
tp469
Rp470
sg69
g11
(g12
(S'S3'
p471
I0
I1
tp472
Rp473
(I3
S'|'
p474
NNNI3
I1
I0
tp475
bS'SVM'
p476
tp477
Rp478
sg78
I3
sg79
g80
sg81
g11
(g15
S'X\xcf\x8d<\xc7\xfc\xe5?'
p479
tp480
Rp481
sg85
g86
sg87
g88
sbag4
(g5
g6
Ntp482
Rp483
(dp484
g10
g11
(g15
S'\x00\x00\x00\x00\x00\x00\xf8\xff'
p485
tp486
Rp487
sg21
g11
(g15
S'\x00\x00\x00\x00\x00@e@'
p488
tp489
Rp490
sg25
g26
sg27
g11
(g30
S'\x07\x00\x00\x00\x00\x00\x00\x00'
p491
tp492
Rp493
sg36
(dp494
g21
g490
sg27
g493
sg109
g11
(g30
S'\x02\x00\x00\x00\x00\x00\x00\x00'
p495
tp496
Rp497
sg38
g11
(g30
S'\x02\x00\x00\x00\x00\x00\x00\x00'
p498
tp499
Rp500
sg42
g11
(g15
S'P\xd5\xcd\xca\x8d\xd6\xe5?'
p501
tp502
Rp503
ssg46
g11
(g12
(S'S6'
p504
I0
I1
tp505
Rp506
(I3
S'|'
p507
NNNI6
I1
I0
tp508
bS'ISOMAP'
p509
tp510
Rp511
sg55
F0.2
sg38
g500
sg56
g11
(g12
(S'S8'
p512
I0
I1
tp513
Rp514
(I3
S'|'
p515
NNNI8
I1
I0
tp516
bS'haralick'
p517
tp518
Rp519
sg109
g497
sg65
g11
(g15
S'\xcd\x0b\xe8\x96\xcc\x98\xe7?'
p520
tp521
Rp522
sg69
g11
(g12
(S'S2'
p523
I0
I1
tp524
Rp525
(I3
S'|'
p526
NNNI2
I1
I0
tp527
bS'RF'
p528
tp529
Rp530
sg78
I3
sg42
g503
sg79
g80
sg81
g11
(g15
S'\xad\xb5;/\x90S\xe9?'
p531
tp532
Rp533
sg85
g86
sg87
g88
sbag4
(g5
g6
Ntp534
Rp535
(dp536
g10
g11
(g15
S'\x00\x00\x00\x00\x00\x00\xf8\xff'
p537
tp538
Rp539
sg21
g11
(g15
S'\x00\x00\x00\x00\x00`i@'
p540
tp541
Rp542
sg25
g26
sg27
g11
(g30
S'\x05\x00\x00\x00\x00\x00\x00\x00'
p543
tp544
Rp545
sg36
(dp546
g21
g542
sg27
g545
sg109
g11
(g30
S'\x03\x00\x00\x00\x00\x00\x00\x00'
p547
tp548
Rp549
sg38
g11
(g30
S'\x04\x00\x00\x00\x00\x00\x00\x00'
p550
tp551
Rp552
sg42
g11
(g15
S'\xc9\x1c1\n\xc0\x85\xdc?'
p553
tp554
Rp555
ssg46
g11
(g12
(S'S6'
p556
I0
I1
tp557
Rp558
(I3
S'|'
p559
NNNI6
I1
I0
tp560
bS'ISOMAP'
p561
tp562
Rp563
sg55
F0.2
sg38
g552
sg56
g11
(g12
(S'S8'
p564
I0
I1
tp565
Rp566
(I3
S'|'
p567
NNNI8
I1
I0
tp568
bS'haralick'
p569
tp570
Rp571
sg109
g549
sg65
g11
(g15
S'\x93\xf3J7\xf4\xb5\xe8?'
p572
tp573
Rp574
sg69
g11
(g12
(S'S2'
p575
I0
I1
tp576
Rp577
(I3
S'|'
p578
NNNI2
I1
I0
tp579
bS'RF'
p580
tp581
Rp582
sg78
I3
sg42
g555
sg79
g80
sg81
g11
(g15
S'\xc8\xe6dQ\x80\xcf\xea?'
p583
tp584
Rp585
sg85
g86
sg87
g88
sbag4
(g5
g6
Ntp586
Rp587
(dp588
g10
g11
(g15
S'\x00\x00\x00\x00\x00\x00\xf8\xff'
p589
tp590
Rp591
sg95
g201
sg25
g26
sg36
(dp592
g95
g201
sg105
g11
(g15
S'fU\x0c L\x8b/@'
p593
tp594
Rp595
sg113
g11
(g15
S'\xc74\x96&e\x1b\xb4?'
p596
tp597
Rp598
ssg46
g11
(g12
(S'S3'
p599
I0
I1
tp600
Rp601
(I3
S'|'
p602
NNNI3
I1
I0
tp603
bS'PCA'
p604
tp605
Rp606
sg55
F0.2
sg113
g598
sg56
g11
(g12
(S'S9'
p607
I0
I1
tp608
Rp609
(I3
S'|'
p610
NNNI9
I1
I0
tp611
bS'inception'
p612
tp613
Rp614
sg105
g595
sg65
g11
(g15
S'i\xd7F7\xd8\xef\xe3?'
p615
tp616
Rp617
sg69
g11
(g12
(S'S3'
p618
I0
I1
tp619
Rp620
(I3
S'|'
p621
NNNI3
I1
I0
tp622
bS'SVM'
p623
tp624
Rp625
sg78
I3
sg79
g80
sg81
g11
(g15
S'\xa93\xee\xb7}U\xe3?'
p626
tp627
Rp628
sg85
g86
sg87
g88
sbag4
(g5
g6
Ntp629
Rp630
(dp631
g10
g11
(g15
S'\x00\x00\x00\x00\x00\x00\xf8\xff'
p632
tp633
Rp634
sg21
g11
(g15
S'\x00\x00\x00\x00\x00@Z@'
p635
tp636
Rp637
sg25
g26
sg27
g11
(g30
S'\x06\x00\x00\x00\x00\x00\x00\x00'
p638
tp639
Rp640
sg36
(dp641
g21
g637
sg27
g640
sg38
g11
(g30
S'\x02\x00\x00\x00\x00\x00\x00\x00'
p642
tp643
Rp644
sg42
g11
(g15
S'j\xfd\xba\xb2\x87s\xe2?'
p645
tp646
Rp647
ssg46
g11
(g12
(S'S6'
p648
I0
I1
tp649
Rp650
(I3
S'|'
p651
NNNI6
I1
I0
tp652
bS'ISOMAP'
p653
tp654
Rp655
sg55
F0.2
sg38
g644
sg56
g11
(g12
(S'S9'
p656
I0
I1
tp657
Rp658
(I3
S'|'
p659
NNNI9
I1
I0
tp660
bS'inception'
p661
tp662
Rp663
sg65
g11
(g15
S'\x1c\xdc\x82\xdch\xa6\xf5?'
p664
tp665
Rp666
sg69
g11
(g12
(S'S2'
p667
I0
I1
tp668
Rp669
(I3
S'|'
p670
NNNI2
I1
I0
tp671
bS'RF'
p672
tp673
Rp674
sg78
I3
sg42
g647
sg79
g80
sg81
g11
(g15
S'\x05\xf2\x99\xdf\x12\xfe\xe5?'
p675
tp676
Rp677
sg85
g86
sg87
g88
sbag4
(g5
g6
Ntp678
Rp679
(dp680
g10
g11
(g15
S'\x00\x00\x00\x00\x00\x00\xf8\xff'
p681
tp682
Rp683
sg21
g11
(g15
S'\x00\x00\x00\x00\x00\x00D@'
p684
tp685
Rp686
sg25
g26
sg27
g11
(g30
S'\x06\x00\x00\x00\x00\x00\x00\x00'
p687
tp688
Rp689
sg36
(dp690
g21
g686
sg27
g689
sg38
g11
(g30
S'\x02\x00\x00\x00\x00\x00\x00\x00'
p691
tp692
Rp693
sg42
g11
(g15
S'\xb2D\xdf\x8b\xfes\xe3?'
p694
tp695
Rp696
ssg46
g11
(g12
(S'S6'
p697
I0
I1
tp698
Rp699
(I3
S'|'
p700
NNNI6
I1
I0
tp701
bS'ISOMAP'
p702
tp703
Rp704
sg55
F0.2
sg38
g693
sg56
g11
(g12
(S'S9'
p705
I0
I1
tp706
Rp707
(I3
S'|'
p708
NNNI9
I1
I0
tp709
bS'inception'
p710
tp711
Rp712
sg65
g11
(g15
S'#\x96~}.\x81\xfb?'
p713
tp714
Rp715
sg69
g11
(g12
(S'S2'
p716
I0
I1
tp717
Rp718
(I3
S'|'
p719
NNNI2
I1
I0
tp720
bS'RF'
p721
tp722
Rp723
sg78
I3
sg42
g696
sg79
g80
sg81
g11
(g15
S'(R\xeb\xd2\xa7\xee\xe5?'
p724
tp725
Rp726
sg85
g86
sg87
g88
sbag4
(g5
g6
Ntp727
Rp728
(dp729
g10
g11
(g15
S'\x00\x00\x00\x00\x00\x00\xf8\xff'
p730
tp731
Rp732
sg21
g11
(g15
S'\x00\x00\x00\x00\x00`i@'
p733
tp734
Rp735
sg95
g103
sg25
g26
sg36
(dp736
g21
g735
sg42
g11
(g15
S'\x98%\xf3\xc2\xb2f\xd4?'
p737
tp738
Rp739
sg95
g103
ssg46
g11
(g12
(S'S3'
p740
I0
I1
tp741
Rp742
(I3
S'|'
p743
NNNI3
I1
I0
tp744
bS'PCA'
p745
tp746
Rp747
sg55
F0.2
sg56
g11
(g12
(S'S3'
p748
I0
I1
tp749
Rp750
(I3
S'|'
p751
NNNI3
I1
I0
tp752
bS'VGG'
p753
tp754
Rp755
sg65
g11
(g15
S'\x13\x13\x94\xa7\xf4\xd5\xda?'
p756
tp757
Rp758
sg69
g11
(g12
(S'S2'
p759
I0
I1
tp760
Rp761
(I3
S'|'
p762
NNNI2
I1
I0
tp763
bS'RF'
p764
tp765
Rp766
sg78
I3
sg42
g739
sg79
g80
sg81
g11
(g15
S' /\xcb]l@\xea?'
p767
tp768
Rp769
sg85
g86
sg87
g88
sbag4
(g5
g6
Ntp770
Rp771
(dp772
g10
g11
(g15
S'\x00\x00\x00\x00\x00\x00\xf8\xff'
p773
tp774
Rp775
sg95
g103
sg25
g26
sg36
(dp776
g95
g103
sg105
g11
(g15
S'.X2.\xc8\x83N@'
p777
tp778
Rp779
sg113
g11
(g15
S'q\xea\x06\x17\x1fM\xf2?'
p780
tp781
Rp782
ssg46
g11
(g12
(S'S3'
p783
I0
I1
tp784
Rp785
(I3
S'|'
p786
NNNI3
I1
I0
tp787
bS'PCA'
p788
tp789
Rp790
sg55
F0.2
sg113
g782
sg56
g11
(g12
(S'S3'
p791
I0
I1
tp792
Rp793
(I3
S'|'
p794
NNNI3
I1
I0
tp795
bS'VGG'
p796
tp797
Rp798
sg105
g779
sg65
g11
(g15
S'U\x13=\xa2oe\xe0?'
p799
tp800
Rp801
sg69
g11
(g12
(S'S3'
p802
I0
I1
tp803
Rp804
(I3
S'|'
p805
NNNI3
I1
I0
tp806
bS'SVM'
p807
tp808
Rp809
sg78
I3
sg79
g80
sg81
g11
(g15
S'\x00\x93/\x8cDR\xe9?'
p810
tp811
Rp812
sg85
g86
sg87
g88
sbag4
(g5
g6
Ntp813
Rp814
(dp815
g10
g11
(g15
S'\x00\x00\x00\x00\x00\x00\xf8\xff'
p816
tp817
Rp818
sg21
g11
(g15
S'\x00\x00\x00\x00\x00@e@'
p819
tp820
Rp821
sg95
g103
sg25
g26
sg36
(dp822
g21
g821
sg42
g11
(g15
S'\x10G\x8a\xc8\xab\x1f\xed?'
p823
tp824
Rp825
sg95
g103
ssg46
g11
(g12
(S'S3'
p826
I0
I1
tp827
Rp828
(I3
S'|'
p829
NNNI3
I1
I0
tp830
bS'PCA'
p831
tp832
Rp833
sg55
F0.2
sg56
g11
(g12
(S'S3'
p834
I0
I1
tp835
Rp836
(I3
S'|'
p837
NNNI3
I1
I0
tp838
bS'VGG'
p839
tp840
Rp841
sg65
g11
(g15
S'p1\xe8\x95\x8dQ\xde?'
p842
tp843
Rp844
sg69
g11
(g12
(S'S2'
p845
I0
I1
tp846
Rp847
(I3
S'|'
p848
NNNI2
I1
I0
tp849
bS'RF'
p850
tp851
Rp852
sg78
I3
sg42
g825
sg79
g80
sg81
g11
(g15
S'\xfb\xd0ur\xc7o\xea?'
p853
tp854
Rp855
sg85
g86
sg87
g88
sbag4
(g5
g6
Ntp856
Rp857
(dp858
g10
g11
(g15
S'\x00\x00\x00\x00\x00\x00\xf8\xff'
p859
tp860
Rp861
sg21
g11
(g15
S'\x00\x00\x00\x00\x00\x00D@'
p862
tp863
Rp864
sg25
g26
sg27
g11
(g30
S'\x04\x00\x00\x00\x00\x00\x00\x00'
p865
tp866
Rp867
sg36
(dp868
g21
g864
sg27
g867
sg38
g11
(g30
S'\x03\x00\x00\x00\x00\x00\x00\x00'
p869
tp870
Rp871
sg42
g11
(g15
S'3\x82\xfd\xf4\xf9r\xe7?'
p872
tp873
Rp874
ssg46
g11
(g12
(S'S6'
p875
I0
I1
tp876
Rp877
(I3
S'|'
p878
NNNI6
I1
I0
tp879
bS'ISOMAP'
p880
tp881
Rp882
sg55
F0.2
sg38
g871
sg56
g11
(g12
(S'S3'
p883
I0
I1
tp884
Rp885
(I3
S'|'
p886
NNNI3
I1
I0
tp887
bS'VGG'
p888
tp889
Rp890
sg65
g11
(g15
S'e\xd8gV\xa6L\xf2?'
p891
tp892
Rp893
sg69
g11
(g12
(S'S2'
p894
I0
I1
tp895
Rp896
(I3
S'|'
p897
NNNI2
I1
I0
tp898
bS'RF'
p899
tp900
Rp901
sg78
I3
sg42
g874
sg79
g80
sg81
g11
(g15
S'<\xbc\xa0\xa0\x98\xf1\xe9?'
p902
tp903
Rp904
sg85
g86
sg87
g88
sbag4
(g5
g6
Ntp905
Rp906
(dp907
g10
g11
(g15
S'\x00\x00\x00\x00\x00\x00\xf8\xff'
p908
tp909
Rp910
sg21
g11
(g15
S'\x00\x00\x00\x00\x00@Z@'
p911
tp912
Rp913
sg95
g201
sg25
g26
sg36
(dp914
g21
g913
sg42
g11
(g15
S'={b8\x18\xef\xe1?'
p915
tp916
Rp917
sg95
g201
sg109
g11
(g30
S'\x01\x00\x00\x00\x00\x00\x00\x00'
p918
tp919
Rp920
ssg46
g11
(g12
(S'S3'
p921
I0
I1
tp922
Rp923
(I3
S'|'
p924
NNNI3
I1
I0
tp925
bS'PCA'
p926
tp927
Rp928
sg55
F0.2
sg56
g11
(g12
(S'S8'
p929
I0
I1
tp930
Rp931
(I3
S'|'
p932
NNNI8
I1
I0
tp933
bS'haralick'
p934
tp935
Rp936
sg109
g920
sg65
g11
(g15
S'MC*\x1c\xd0\xd9\x04@'
p937
tp938
Rp939
sg69
g11
(g12
(S'S2'
p940
I0
I1
tp941
Rp942
(I3
S'|'
p943
NNNI2
I1
I0
tp944
bS'RF'
p945
tp946
Rp947
sg78
I3
sg42
g917
sg79
g80
sg81
g11
(g15
S'\xbd\x80\x8b\xe6\xe2Y\xe7?'
p948
tp949
Rp950
sg85
g86
sg87
g88
sbag4
(g5
g6
Ntp951
Rp952
(dp953
g10
g11
(g15
S'\x00\x00\x00\x00\x00\x00\xf8\xff'
p954
tp955
Rp956
sg27
g11
(g30
S'\x05\x00\x00\x00\x00\x00\x00\x00'
p957
tp958
Rp959
sg25
g26
sg36
(dp960
g27
g959
sg105
g11
(g15
S'\xa6\x03\xf50\xc5\xf0<@'
p961
tp962
Rp963
sg38
g11
(g30
S'\x02\x00\x00\x00\x00\x00\x00\x00'
p964
tp965
Rp966
sg113
g11
(g15
S'\xf4q\x92n~\xc9\x1f@'
p967
tp968
Rp969
ssg113
g969
sg46
g11
(g12
(S'S6'
p970
I0
I1
tp971
Rp972
(I3
S'|'
p973
NNNI6
I1
I0
tp974
bS'ISOMAP'
p975
tp976
Rp977
sg55
F0.2
sg38
g966
sg56
g11
(g12
(S'S9'
p978
I0
I1
tp979
Rp980
(I3
S'|'
p981
NNNI9
I1
I0
tp982
bS'inception'
p983
tp984
Rp985
sg105
g963
sg65
g11
(g15
S'5\x9fD\xb7\xe3n\xe7?'
p986
tp987
Rp988
sg69
g11
(g12
(S'S3'
p989
I0
I1
tp990
Rp991
(I3
S'|'
p992
NNNI3
I1
I0
tp993
bS'SVM'
p994
tp995
Rp996
sg78
I3
sg79
g80
sg81
g11
(g15
S'/\xc2\x16\xf3Bd\xe3?'
p997
tp998
Rp999
sg85
g86
sg87
g88
sbag4
(g5
g6
Ntp1000
Rp1001
(dp1002
g10
g11
(g15
S'\x00\x00\x00\x00\x00\x00\xf8\xff'
p1003
tp1004
Rp1005
sg95
g201
sg25
g26
sg36
(dp1006
g95
g201
sg105
g11
(g15
S"\xba\xffE'=P>@"
p1007
tp1008
Rp1009
sg113
g11
(g15
S'\xa1\x12\xd89\x90i\x1d@'
p1010
tp1011
Rp1012
ssg46
g11
(g12
(S'S3'
p1013
I0
I1
tp1014
Rp1015
(I3
S'|'
p1016
NNNI3
I1
I0
tp1017
bS'PCA'
p1018
tp1019
Rp1020
sg55
F0.2
sg113
g1012
sg56
g11
(g12
(S'S3'
p1021
I0
I1
tp1022
Rp1023
(I3
S'|'
p1024
NNNI3
I1
I0
tp1025
bS'VGG'
p1026
tp1027
Rp1028
sg105
g1009
sg65
g11
(g15
S'U\xe4\x93?\x00\x9c\xe8?'
p1029
tp1030
Rp1031
sg69
g11
(g12
(S'S3'
p1032
I0
I1
tp1033
Rp1034
(I3
S'|'
p1035
NNNI3
I1
I0
tp1036
bS'SVM'
p1037
tp1038
Rp1039
sg78
I3
sg79
g80
sg81
g11
(g15
S'w\xb2\xe4\x9b_\x92\xe4?'
p1040
tp1041
Rp1042
sg85
g86
sg87
g88
sbag4
(g5
g6
Ntp1043
Rp1044
(dp1045
g10
g11
(g15
S'\x00\x00\x00\x00\x00\x00\xf8\xff'
p1046
tp1047
Rp1048
sg21
g11
(g15
S'\x00\x00\x00\x00\x00@e@'
p1049
tp1050
Rp1051
sg95
g103
sg25
g26
sg36
(dp1052
g21
g1051
sg42
g11
(g15
S'\xbf\xa97\x9er\xf5\xe2?'
p1053
tp1054
Rp1055
sg95
g103
ssg46
g11
(g12
(S'S3'
p1056
I0
I1
tp1057
Rp1058
(I3
S'|'
p1059
NNNI3
I1
I0
tp1060
bS'PCA'
p1061
tp1062
Rp1063
sg55
F0.2
sg56
g11
(g12
(S'S9'
p1064
I0
I1
tp1065
Rp1066
(I3
S'|'
p1067
NNNI9
I1
I0
tp1068
bS'inception'
p1069
tp1070
Rp1071
sg65
g11
(g15
S'\xeb:\xa3\x99\x1bi\xe1?'
p1072
tp1073
Rp1074
sg69
g11
(g12
(S'S2'
p1075
I0
I1
tp1076
Rp1077
(I3
S'|'
p1078
NNNI2
I1
I0
tp1079
bS'RF'
p1080
tp1081
Rp1082
sg78
I3
sg42
g1055
sg79
g80
sg81
g11
(g15
S'\x1f\xc9I\xd5\xb6U\xe8?'
p1083
tp1084
Rp1085
sg85
g86
sg87
g88
sbag4
(g5
g6
Ntp1086
Rp1087
(dp1088
g10
g11
(g15
S'\x00\x00\x00\x00\x00\x00\xf8\xff'
p1089
tp1090
Rp1091
sg21
g11
(g15
S'\x00\x00\x00\x00\x00@R@'
p1092
tp1093
Rp1094
sg25
g26
sg27
g11
(g30
S'\x05\x00\x00\x00\x00\x00\x00\x00'
p1095
tp1096
Rp1097
sg36
(dp1098
g21
g1094
sg27
g1097
sg38
g11
(g30
S'\x03\x00\x00\x00\x00\x00\x00\x00'
p1099
tp1100
Rp1101
sg42
g11
(g15
S'F\x9a\xd2\xfd\xc6\xf4\xe1?'
p1102
tp1103
Rp1104
ssg46
g11
(g12
(S'S6'
p1105
I0
I1
tp1106
Rp1107
(I3
S'|'
p1108
NNNI6
I1
I0
tp1109
bS'ISOMAP'
p1110
tp1111
Rp1112
sg55
F0.2
sg38
g1101
sg56
g11
(g12
(S'S3'
p1113
I0
I1
tp1114
Rp1115
(I3
S'|'
p1116
NNNI3
I1
I0
tp1117
bS'VGG'
p1118
tp1119
Rp1120
sg65
g11
(g15
S'\xd3\xba\x9b\x96\n\x11\xe9?'
p1121
tp1122
Rp1123
sg69
g11
(g12
(S'S2'
p1124
I0
I1
tp1125
Rp1126
(I3
S'|'
p1127
NNNI2
I1
I0
tp1128
bS'RF'
p1129
tp1130
Rp1131
sg78
I3
sg42
g1104
sg79
g80
sg81
g11
(g15
S'\xb7fT\xa8\ts\xe9?'
p1132
tp1133
Rp1134
sg85
g86
sg87
g88
sbag4
(g5
g6
Ntp1135
Rp1136
(dp1137
g10
g11
(g15
S'\x00\x00\x00\x00\x00\x00\xf8\xff'
p1138
tp1139
Rp1140
sg21
g11
(g15
S'\x00\x00\x00\x00\x00@Z@'
p1141
tp1142
Rp1143
sg95
g201
sg25
g26
sg36
(dp1144
g21
g1143
sg42
g11
(g15
S'\x8f\xf5\x15A\x16d\xd8?'
p1145
tp1146
Rp1147
sg95
g201
sg109
g11
(g30
S'\x01\x00\x00\x00\x00\x00\x00\x00'
p1148
tp1149
Rp1150
ssg46
g11
(g12
(S'S3'
p1151
I0
I1
tp1152
Rp1153
(I3
S'|'
p1154
NNNI3
I1
I0
tp1155
bS'PCA'
p1156
tp1157
Rp1158
sg55
F0.2
sg56
g11
(g12
(S'S8'
p1159
I0
I1
tp1160
Rp1161
(I3
S'|'
p1162
NNNI8
I1
I0
tp1163
bS'haralick'
p1164
tp1165
Rp1166
sg109
g1150
sg65
g11
(g15
S'3\xec\xdf\x83\xe9\xcc\x04@'
p1167
tp1168
Rp1169
sg69
g11
(g12
(S'S2'
p1170
I0
I1
tp1171
Rp1172
(I3
S'|'
p1173
NNNI2
I1
I0
tp1174
bS'RF'
p1175
tp1176
Rp1177
sg78
I3
sg42
g1147
sg79
g80
sg81
g11
(g15
S'\xbd\x81\x89\xea\xdai\xe7?'
p1178
tp1179
Rp1180
sg85
g86
sg87
g88
sbag4
(g5
g6
Ntp1181
Rp1182
(dp1183
g10
g11
(g15
S'\x00\x00\x00\x00\x00\x00\xf8\xff'
p1184
tp1185
Rp1186
sg21
g11
(g15
S'\x00\x00\x00\x00\x00@e@'
p1187
tp1188
Rp1189
sg25
g26
sg27
g11
(g30
S'\x06\x00\x00\x00\x00\x00\x00\x00'
p1190
tp1191
Rp1192
sg36
(dp1193
g21
g1189
sg27
g1192
sg109
g11
(g30
S'\x01\x00\x00\x00\x00\x00\x00\x00'
p1194
tp1195
Rp1196
sg38
g11
(g30
S'\x02\x00\x00\x00\x00\x00\x00\x00'
p1197
tp1198
Rp1199
sg42
g11
(g15
S'#v\xd4\xed\xbe/\xe6?'
p1200
tp1201
Rp1202
ssg46
g11
(g12
(S'S6'
p1203
I0
I1
tp1204
Rp1205
(I3
S'|'
p1206
NNNI6
I1
I0
tp1207
bS'ISOMAP'
p1208
tp1209
Rp1210
sg55
F0.2
sg38
g1199
sg56
g11
(g12
(S'S8'
p1211
I0
I1
tp1212
Rp1213
(I3
S'|'
p1214
NNNI8
I1
I0
tp1215
bS'haralick'
p1216
tp1217
Rp1218
sg109
g1196
sg65
g11
(g15
S'\x83\xd4pU\xdc\x06\x02@'
p1219
tp1220
Rp1221
sg69
g11
(g12
(S'S2'
p1222
I0
I1
tp1223
Rp1224
(I3
S'|'
p1225
NNNI2
I1
I0
tp1226
bS'RF'
p1227
tp1228
Rp1229
sg78
I3
sg42
g1202
sg79
g80
sg81
g11
(g15
S's\x90\x86Q\xc6:\xe7?'
p1230
tp1231
Rp1232
sg85
g86
sg87
g88
sbag4
(g5
g6
Ntp1233
Rp1234
(dp1235
g10
g11
(g15
S'\x00\x00\x00\x00\x00\x00\xf8\xff'
p1236
tp1237
Rp1238
sg95
g201
sg25
g26
sg36
(dp1239
g95
g201
sg105
g11
(g15
S'\xd1\xc9]\xc4\xf2\x9e-@'
p1240
tp1241
Rp1242
sg113
g11
(g15
S'i\xa5\xf0\x7f\xb3\xa3\xdd?'
p1243
tp1244
Rp1245
ssg46
g11
(g12
(S'S3'
p1246
I0
I1
tp1247
Rp1248
(I3
S'|'
p1249
NNNI3
I1
I0
tp1250
bS'PCA'
p1251
tp1252
Rp1253
sg55
F0.2
sg113
g1245
sg56
g11
(g12
(S'S9'
p1254
I0
I1
tp1255
Rp1256
(I3
S'|'
p1257
NNNI9
I1
I0
tp1258
bS'inception'
p1259
tp1260
Rp1261
sg105
g1242
sg65
g11
(g15
S'\xf7\x12\x86[+\xd2\xe3?'
p1262
tp1263
Rp1264
sg69
g11
(g12
(S'S3'
p1265
I0
I1
tp1266
Rp1267
(I3
S'|'
p1268
NNNI3
I1
I0
tp1269
bS'SVM'
p1270
tp1271
Rp1272
sg78
I3
sg79
g80
sg81
g11
(g15
S'\x97\xc1\xe1r`\xdf\xe4?'
p1273
tp1274
Rp1275
sg85
g86
sg87
g88
sbag4
(g5
g6
Ntp1276
Rp1277
(dp1278
g10
g11
(g15
S'\x00\x00\x00\x00\x00\x00\xf8\xff'
p1279
tp1280
Rp1281
sg27
g11
(g30
S'\x07\x00\x00\x00\x00\x00\x00\x00'
p1282
tp1283
Rp1284
sg25
g26
sg36
(dp1285
g27
g1284
sg105
g11
(g15
S'\x9cd=6\xba\xfeX@'
p1286
tp1287
Rp1288
sg38
g11
(g30
S'\x04\x00\x00\x00\x00\x00\x00\x00'
p1289
tp1290
Rp1291
sg113
g11
(g15
S'_\xa8\x93hS\xe0\xfb?'
p1292
tp1293
Rp1294
ssg113
g1294
sg46
g11
(g12
(S'S6'
p1295
I0
I1
tp1296
Rp1297
(I3
S'|'
p1298
NNNI6
I1
I0
tp1299
bS'ISOMAP'
p1300
tp1301
Rp1302
sg55
F0.2
sg38
g1291
sg56
g11
(g12
(S'S3'
p1303
I0
I1
tp1304
Rp1305
(I3
S'|'
p1306
NNNI3
I1
I0
tp1307
bS'VGG'
p1308
tp1309
Rp1310
sg105
g1288
sg65
g11
(g15
S'\xdc\xbc\xc9e0\x1e\xe1?'
p1311
tp1312
Rp1313
sg69
g11
(g12
(S'S3'
p1314
I0
I1
tp1315
Rp1316
(I3
S'|'
p1317
NNNI3
I1
I0
tp1318
bS'SVM'
p1319
tp1320
Rp1321
sg78
I3
sg79
g80
sg81
g11
(g15
S'\x1b\xed\xa8\x14\x96\x95\xe8?'
p1322
tp1323
Rp1324
sg85
g86
sg87
g88
sbag4
(g5
g6
Ntp1325
Rp1326
(dp1327
g10
g11
(g15
S'\x00\x00\x00\x00\x00\x00\xf8\xff'
p1328
tp1329
Rp1330
sg27
g11
(g30
S'\x06\x00\x00\x00\x00\x00\x00\x00'
p1331
tp1332
Rp1333
sg25
g26
sg36
(dp1334
g27
g1333
sg105
g11
(g15
S'\x07hX\xbf\xe5\xcb@@'
p1335
tp1336
Rp1337
sg109
g11
(g30
S'\x01\x00\x00\x00\x00\x00\x00\x00'
p1338
tp1339
Rp1340
sg38
g11
(g30
S'\x02\x00\x00\x00\x00\x00\x00\x00'
p1341
tp1342
Rp1343
sg113
g11
(g15
S'\xc6\xcdqY\xbc=\x1b@'
p1344
tp1345
Rp1346
ssg113
g1346
sg46
g11
(g12
(S'S6'
p1347
I0
I1
tp1348
Rp1349
(I3
S'|'
p1350
NNNI6
I1
I0
tp1351
bS'ISOMAP'
p1352
tp1353
Rp1354
sg55
F0.2
sg38
g1343
sg56
g11
(g12
(S'S8'
p1355
I0
I1
tp1356
Rp1357
(I3
S'|'
p1358
NNNI8
I1
I0
tp1359
bS'haralick'
p1360
tp1361
Rp1362
sg105
g1337
sg109
g1340
sg65
g11
(g15
S'ox\xcc\xbe\x8c`\xe1?'
p1363
tp1364
Rp1365
sg69
g11
(g12
(S'S3'
p1366
I0
I1
tp1367
Rp1368
(I3
S'|'
p1369
NNNI3
I1
I0
tp1370
bS'SVM'
p1371
tp1372
Rp1373
sg78
I3
sg79
g80
sg81
g11
(g15
S'X\x11\xc7E\xd4\x91\xe4?'
p1374
tp1375
Rp1376
sg85
g86
sg87
g88
sbag4
(g5
g6
Ntp1377
Rp1378
(dp1379
g10
g11
(g15
S'\x00\x00\x00\x00\x00\x00\xf8\xff'
p1380
tp1381
Rp1382
sg21
g11
(g15
S'\x00\x00\x00\x00\x00@a@'
p1383
tp1384
Rp1385
sg25
g26
sg27
g11
(g30
S'\x06\x00\x00\x00\x00\x00\x00\x00'
p1386
tp1387
Rp1388
sg36
(dp1389
g21
g1385
sg27
g1388
sg109
g11
(g30
S'\x01\x00\x00\x00\x00\x00\x00\x00'
p1390
tp1391
Rp1392
sg38
g11
(g30
S'\x02\x00\x00\x00\x00\x00\x00\x00'
p1393
tp1394
Rp1395
sg42
g11
(g15
S't\xd50\xf6\xf9Y\xee?'
p1396
tp1397
Rp1398
ssg46
g11
(g12
(S'S6'
p1399
I0
I1
tp1400
Rp1401
(I3
S'|'
p1402
NNNI6
I1
I0
tp1403
bS'ISOMAP'
p1404
tp1405
Rp1406
sg55
F0.2
sg38
g1395
sg56
g11
(g12
(S'S8'
p1407
I0
I1
tp1408
Rp1409
(I3
S'|'
p1410
NNNI8
I1
I0
tp1411
bS'haralick'
p1412
tp1413
Rp1414
sg109
g1392
sg65
g11
(g15
S'\xd9a\xf5#K\x99\x01@'
p1415
tp1416
Rp1417
sg69
g11
(g12
(S'S2'
p1418
I0
I1
tp1419
Rp1420
(I3
S'|'
p1421
NNNI2
I1
I0
tp1422
bS'RF'
p1423
tp1424
Rp1425
sg78
I3
sg42
g1398
sg79
g80
sg81
g11
(g15
S'\x13\xb0|\xdf\x97:\xe7?'
p1426
tp1427
Rp1428
sg85
g86
sg87
g88
sbag4
(g5
g6
Ntp1429
Rp1430
(dp1431
g10
g11
(g15
S'\x00\x00\x00\x00\x00\x00\xf8\xff'
p1432
tp1433
Rp1434
sg95
g201
sg25
g26
sg36
(dp1435
g95
g201
sg105
g11
(g15
S'F\x02\xd2\xf0NB\xfb?'
p1436
tp1437
Rp1438
sg109
g11
(g30
S'\x02\x00\x00\x00\x00\x00\x00\x00'
p1439
tp1440
Rp1441
sg113
g11
(g15
S'j\xe1\xa9g\xe5\xc2\x1f@'
p1442
tp1443
Rp1444
ssg46
g11
(g12
(S'S3'
p1445
I0
I1
tp1446
Rp1447
(I3
S'|'
p1448
NNNI3
I1
I0
tp1449
bS'PCA'
p1450
tp1451
Rp1452
sg55
F0.2
sg113
g1444
sg56
g11
(g12
(S'S8'
p1453
I0
I1
tp1454
Rp1455
(I3
S'|'
p1456
NNNI8
I1
I0
tp1457
bS'haralick'
p1458
tp1459
Rp1460
sg105
g1438
sg109
g1441
sg65
g11
(g15
S'V\xe1\x88m;\x19\xe0?'
p1461
tp1462
Rp1463
sg69
g11
(g12
(S'S3'
p1464
I0
I1
tp1465
Rp1466
(I3
S'|'
p1467
NNNI3
I1
I0
tp1468
bS'SVM'
p1469
tp1470
Rp1471
sg78
I3
sg79
g80
sg81
g11
(g15
S'\xb8B\x98\x99\xec\xdf\xe4?'
p1472
tp1473
Rp1474
sg85
g86
sg87
g88
sbag4
(g5
g6
Ntp1475
Rp1476
(dp1477
g10
g11
(g15
S'\x00\x00\x00\x00\x00\x00\xf8\xff'
p1478
tp1479
Rp1480
sg27
g11
(g30
S'\x07\x00\x00\x00\x00\x00\x00\x00'
p1481
tp1482
Rp1483
sg25
g26
sg36
(dp1484
g27
g1483
sg105
g11
(g15
S'\xd4\x10\x89\x0f\xc7/D@'
p1485
tp1486
Rp1487
sg109
g11
(g30
S'\x01\x00\x00\x00\x00\x00\x00\x00'
p1488
tp1489
Rp1490
sg38
g11
(g30
S'\x03\x00\x00\x00\x00\x00\x00\x00'
p1491
tp1492
Rp1493
sg113
g11
(g15
S'\xa2\xe5\x1f\xb9\x1fU\xe8?'
p1494
tp1495
Rp1496
ssg113
g1496
sg46
g11
(g12
(S'S6'
p1497
I0
I1
tp1498
Rp1499
(I3
S'|'
p1500
NNNI6
I1
I0
tp1501
bS'ISOMAP'
p1502
tp1503
Rp1504
sg55
F0.2
sg38
g1493
sg56
g11
(g12
(S'S8'
p1505
I0
I1
tp1506
Rp1507
(I3
S'|'
p1508
NNNI8
I1
I0
tp1509
bS'haralick'
p1510
tp1511
Rp1512
sg105
g1487
sg109
g1490
sg65
g11
(g15
S'\x85y\x9e\x80a\xf9\xe0?'
p1513
tp1514
Rp1515
sg69
g11
(g12
(S'S3'
p1516
I0
I1
tp1517
Rp1518
(I3
S'|'
p1519
NNNI3
I1
I0
tp1520
bS'SVM'
p1521
tp1522
Rp1523
sg78
I3
sg79
g80
sg81
g11
(g15
S'\xc8?\x83\xaa\x96\x90\xe5?'
p1524
tp1525
Rp1526
sg85
g86
sg87
g88
sbag4
(g5
g6
Ntp1527
Rp1528
(dp1529
g10
g11
(g15
S'\x00\x00\x00\x00\x00\x00\xf8\xff'
p1530
tp1531
Rp1532
sg21
g11
(g15
S'\x00\x00\x00\x00\x00\xc0p@'
p1533
tp1534
Rp1535
sg25
g26
sg27
g11
(g30
S'\x05\x00\x00\x00\x00\x00\x00\x00'
p1536
tp1537
Rp1538
sg36
(dp1539
g21
g1535
sg27
g1538
sg38
g11
(g30
S'\x03\x00\x00\x00\x00\x00\x00\x00'
p1540
tp1541
Rp1542
sg42
g11
(g15
S'\xc2\xddP=\xd5S\xed?'
p1543
tp1544
Rp1545
ssg46
g11
(g12
(S'S6'
p1546
I0
I1
tp1547
Rp1548
(I3
S'|'
p1549
NNNI6
I1
I0
tp1550
bS'ISOMAP'
p1551
tp1552
Rp1553
sg55
F0.2
sg38
g1542
sg56
g11
(g12
(S'S3'
p1554
I0
I1
tp1555
Rp1556
(I3
S'|'
p1557
NNNI3
I1
I0
tp1558
bS'VGG'
p1559
tp1560
Rp1561
sg65
g11
(g15
S'\xbda\xec\xe1\x00\xc1\xe7?'
p1562
tp1563
Rp1564
sg69
g11
(g12
(S'S2'
p1565
I0
I1
tp1566
Rp1567
(I3
S'|'
p1568
NNNI2
I1
I0
tp1569
bS'RF'
p1570
tp1571
Rp1572
sg78
I3
sg42
g1545
sg79
g80
sg81
g11
(g15
S'=\x84N\xd2\xe53\xe9?'
p1573
tp1574
Rp1575
sg85
g86
sg87
g88
sbag4
(g5
g6
Ntp1576
Rp1577
(dp1578
g10
g11
(g15
S'\x00\x00\x00\x00\x00\x00\xf8\xff'
p1579
tp1580
Rp1581
sg21
g11
(g15
S'\x00\x00\x00\x00\x00\x00D@'
p1582
tp1583
Rp1584
sg95
g201
sg25
g26
sg36
(dp1585
g21
g1584
sg42
g11
(g15
S' \xd4l\x80]\\\xef?'
p1586
tp1587
Rp1588
sg95
g201
ssg46
g11
(g12
(S'S3'
p1589
I0
I1
tp1590
Rp1591
(I3
S'|'
p1592
NNNI3
I1
I0
tp1593
bS'PCA'
p1594
tp1595
Rp1596
sg55
F0.2
sg56
g11
(g12
(S'S3'
p1597
I0
I1
tp1598
Rp1599
(I3
S'|'
p1600
NNNI3
I1
I0
tp1601
bS'VGG'
p1602
tp1603
Rp1604
sg65
g11
(g15
S'\x81\x18\xf1\xed\xed\xa3\xda?'
p1605
tp1606
Rp1607
sg69
g11
(g12
(S'S2'
p1608
I0
I1
tp1609
Rp1610
(I3
S'|'
p1611
NNNI2
I1
I0
tp1612
bS'RF'
p1613
tp1614
Rp1615
sg78
I3
sg42
g1588
sg79
g80
sg81
g11
(g15
S'\xfb\xd1sv\xbf\x7f\xea?'
p1616
tp1617
Rp1618
sg85
g86
sg87
g88
sbag4
(g5
g6
Ntp1619
Rp1620
(dp1621
g10
g11
(g15
S'\x00\x00\x00\x00\x00\x00\xf8\xff'
p1622
tp1623
Rp1624
sg95
g201
sg25
g26
sg36
(dp1625
g95
g201
sg105
g11
(g15
S'\xf0\xbd\x03\xcf\xecKE@'
p1626
tp1627
Rp1628
sg109
g11
(g30
S'\x03\x00\x00\x00\x00\x00\x00\x00'
p1629
tp1630
Rp1631
sg113
g11
(g15
S'\x90\xfc\x99\x99\xc0+\x00@'
p1632
tp1633
Rp1634
ssg46
g11
(g12
(S'S3'
p1635
I0
I1
tp1636
Rp1637
(I3
S'|'
p1638
NNNI3
I1
I0
tp1639
bS'PCA'
p1640
tp1641
Rp1642
sg55
F0.2
sg113
g1634
sg56
g11
(g12
(S'S8'
p1643
I0
I1
tp1644
Rp1645
(I3
S'|'
p1646
NNNI8
I1
I0
tp1647
bS'haralick'
p1648
tp1649
Rp1650
sg105
g1628
sg109
g1631
sg65
g11
(g15
S'\rN&M\xc3\xeb\xdf?'
p1651
tp1652
Rp1653
sg69
g11
(g12
(S'S3'
p1654
I0
I1
tp1655
Rp1656
(I3
S'|'
p1657
NNNI3
I1
I0
tp1658
bS'SVM'
p1659
tp1660
Rp1661
sg78
I3
sg79
g80
sg81
g11
(g15
S'49\xe6\x82on\xe5?'
p1662
tp1663
Rp1664
sg85
g86
sg87
g88
sbag4
(g5
g6
Ntp1665
Rp1666
(dp1667
g10
g11
(g15
S'\x00\x00\x00\x00\x00\x00\xf8\xff'
p1668
tp1669
Rp1670
sg21
g11
(g15
S'\x00\x00\x00\x00\x00\x00D@'
p1671
tp1672
Rp1673
sg95
g103
sg25
g26
sg36
(dp1674
g21
g1673
sg42
g11
(g15
S'r\x88&\xe3b;\xef?'
p1675
tp1676
Rp1677
sg95
g103
ssg46
g11
(g12
(S'S3'
p1678
I0
I1
tp1679
Rp1680
(I3
S'|'
p1681
NNNI3
I1
I0
tp1682
bS'PCA'
p1683
tp1684
Rp1685
sg55
F0.2
sg56
g11
(g12
(S'S3'
p1686
I0
I1
tp1687
Rp1688
(I3
S'|'
p1689
NNNI3
I1
I0
tp1690
bS'VGG'
p1691
tp1692
Rp1693
sg65
g11
(g15
S"\xac\xff \x07'E\xe1?"
p1694
tp1695
Rp1696
sg69
g11
(g12
(S'S2'
p1697
I0
I1
tp1698
Rp1699
(I3
S'|'
p1700
NNNI2
I1
I0
tp1701
bS'RF'
p1702
tp1703
Rp1704
sg78
I3
sg42
g1677
sg79
g80
sg81
g11
(g15
S'\xcb\xe1n=\xa8\x7f\xea?'
p1705
tp1706
Rp1707
sg85
g86
sg87
g88
sbag4
(g5
g6
Ntp1708
Rp1709
(dp1710
g10
g11
(g15
S'\x00\x00\x00\x00\x00\x00\xf8\xff'
p1711
tp1712
Rp1713
sg27
g11
(g30
S'\x07\x00\x00\x00\x00\x00\x00\x00'
p1714
tp1715
Rp1716
sg25
g26
sg36
(dp1717
g27
g1716
sg105
g11
(g15
S'Sve\xdat\x8d4@'
p1718
tp1719
Rp1720
sg38
g11
(g30
S'\x02\x00\x00\x00\x00\x00\x00\x00'
p1721
tp1722
Rp1723
sg113
g11
(g15
S'\xd4\xff\xc6<\xf8\x12\xed?'
p1724
tp1725
Rp1726
ssg113
g1726
sg46
g11
(g12
(S'S6'
p1727
I0
I1
tp1728
Rp1729
(I3
S'|'
p1730
NNNI6
I1
I0
tp1731
bS'ISOMAP'
p1732
tp1733
Rp1734
sg55
F0.2
sg38
g1723
sg56
g11
(g12
(S'S3'
p1735
I0
I1
tp1736
Rp1737
(I3
S'|'
p1738
NNNI3
I1
I0
tp1739
bS'VGG'
p1740
tp1741
Rp1742
sg105
g1720
sg65
g11
(g15
S'9\x99\xe3\xbf\xeaM\xe1?'
p1743
tp1744
Rp1745
sg69
g11
(g12
(S'S3'
p1746
I0
I1
tp1747
Rp1748
(I3
S'|'
p1749
NNNI3
I1
I0
tp1750
bS'SVM'
p1751
tp1752
Rp1753
sg78
I3
sg79
g80
sg81
g11
(g15
S'\xb0\xf3\xd1\xacHz\xe7?'
p1754
tp1755
Rp1756
sg85
g86
sg87
g88
sbag4
(g5
g6
Ntp1757
Rp1758
(dp1759
g10
g11
(g15
S'\x00\x00\x00\x00\x00\x00\xf8\xff'
p1760
tp1761
Rp1762
sg27
g11
(g30
S'\x05\x00\x00\x00\x00\x00\x00\x00'
p1763
tp1764
Rp1765
sg25
g26
sg36
(dp1766
g27
g1765
sg105
g11
(g15
S'?~\x05^\xce\x0fV@'
p1767
tp1768
Rp1769
sg38
g11
(g30
S'\x02\x00\x00\x00\x00\x00\x00\x00'
p1770
tp1771
Rp1772
sg113
g11
(g15
S'\xdfd\xd7,wq\xf7?'
p1773
tp1774
Rp1775
ssg113
g1775
sg46
g11
(g12
(S'S6'
p1776
I0
I1
tp1777
Rp1778
(I3
S'|'
p1779
NNNI6
I1
I0
tp1780
bS'ISOMAP'
p1781
tp1782
Rp1783
sg55
F0.2
sg38
g1772
sg56
g11
(g12
(S'S3'
p1784
I0
I1
tp1785
Rp1786
(I3
S'|'
p1787
NNNI3
I1
I0
tp1788
bS'VGG'
p1789
tp1790
Rp1791
sg105
g1769
sg65
g11
(g15
S'\xf7\xc0b\x94\x7f\x10\xe2?'
p1792
tp1793
Rp1794
sg69
g11
(g12
(S'S3'
p1795
I0
I1
tp1796
Rp1797
(I3
S'|'
p1798
NNNI3
I1
I0
tp1799
bS'SVM'
p1800
tp1801
Rp1802
sg78
I3
sg79
g80
sg81
g11
(g15
S'y\x7f\x1c\x9d\xc2h\xe7?'
p1803
tp1804
Rp1805
sg85
g86
sg87
g88
sbag4
(g5
g6
Ntp1806
Rp1807
(dp1808
g10
g11
(g15
S'\x00\x00\x00\x00\x00\x00\xf8\xff'
p1809
tp1810
Rp1811
sg21
g11
(g15
S'\x00\x00\x00\x00\x00\xc0r@'
p1812
tp1813
Rp1814
sg25
g26
sg27
g11
(g30
S'\x06\x00\x00\x00\x00\x00\x00\x00'
p1815
tp1816
Rp1817
sg36
(dp1818
g21
g1814
sg27
g1817
sg109
g11
(g30
S'\x03\x00\x00\x00\x00\x00\x00\x00'
p1819
tp1820
Rp1821
sg38
g11
(g30
S'\x03\x00\x00\x00\x00\x00\x00\x00'
p1822
tp1823
Rp1824
sg42
g11
(g15
S'\xb6\xe4\x9eq6(\xd8?'
p1825
tp1826
Rp1827
ssg46
g11
(g12
(S'S6'
p1828
I0
I1
tp1829
Rp1830
(I3
S'|'
p1831
NNNI6
I1
I0
tp1832
bS'ISOMAP'
p1833
tp1834
Rp1835
sg55
F0.2
sg38
g1824
sg56
g11
(g12
(S'S8'
p1836
I0
I1
tp1837
Rp1838
(I3
S'|'
p1839
NNNI8
I1
I0
tp1840
bS'haralick'
p1841
tp1842
Rp1843
sg109
g1821
sg65
g11
(g15
S'\x00\xcc\x112\xc1,\xe9?'
p1844
tp1845
Rp1846
sg69
g11
(g12
(S'S2'
p1847
I0
I1
tp1848
Rp1849
(I3
S'|'
p1850
NNNI2
I1
I0
tp1851
bS'RF'
p1852
tp1853
Rp1854
sg78
I3
sg42
g1827
sg79
g80
sg81
g11
(g15
S'\xeb\x13Z\x8a:R\xea?'
p1855
tp1856
Rp1857
sg85
g86
sg87
g88
sbag4
(g5
g6
Ntp1858
Rp1859
(dp1860
g10
g11
(g15
S'\x00\x00\x00\x00\x00\x00\xf8\xff'
p1861
tp1862
Rp1863
sg21
g11
(g15
S'\x00\x00\x00\x00\x00\x00 @'
p1864
tp1865
Rp1866
sg25
g26
sg27
g11
(g30
S'\x04\x00\x00\x00\x00\x00\x00\x00'
p1867
tp1868
Rp1869
sg36
(dp1870
g21
g1866
sg27
g1869
sg109
g11
(g30
S'\x01\x00\x00\x00\x00\x00\x00\x00'
p1871
tp1872
Rp1873
sg38
g11
(g30
S'\x04\x00\x00\x00\x00\x00\x00\x00'
p1874
tp1875
Rp1876
sg42
g11
(g15
S'\xaa1bj`\n\xe2?'
p1877
tp1878
Rp1879
ssg46
g11
(g12
(S'S6'
p1880
I0
I1
tp1881
Rp1882
(I3
S'|'
p1883
NNNI6
I1
I0
tp1884
bS'ISOMAP'
p1885
tp1886
Rp1887
sg55
F0.2
sg38
g1876
sg56
g11
(g12
(S'S8'
p1888
I0
I1
tp1889
Rp1890
(I3
S'|'
p1891
NNNI8
I1
I0
tp1892
bS'haralick'
p1893
tp1894
Rp1895
sg109
g1873
sg65
g11
(g15
S'\xdbh<T\xcb\xc5\x0e@'
p1896
tp1897
Rp1898
sg69
g11
(g12
(S'S2'
p1899
I0
I1
tp1900
Rp1901
(I3
S'|'
p1902
NNNI2
I1
I0
tp1903
bS'RF'
p1904
tp1905
Rp1906
sg78
I3
sg42
g1879
sg79
g80
sg81
g11
(g15
S'\xe3\xde\xe0\xd1\x87*\xe7?'
p1907
tp1908
Rp1909
sg85
g86
sg87
g88
sbag4
(g5
g6
Ntp1910
Rp1911
(dp1912
g10
g11
(g15
S'\x00\x00\x00\x00\x00\x00\xf8\xff'
p1913
tp1914
Rp1915
sg27
g11
(g30
S'\x07\x00\x00\x00\x00\x00\x00\x00'
p1916
tp1917
Rp1918
sg25
g26
sg36
(dp1919
g27
g1918
sg105
g11
(g15
S'\x08\n./Be8@'
p1920
tp1921
Rp1922
sg109
g11
(g30
S'\x03\x00\x00\x00\x00\x00\x00\x00'
p1923
tp1924
Rp1925
sg38
g11
(g30
S'\x04\x00\x00\x00\x00\x00\x00\x00'
p1926
tp1927
Rp1928
sg113
g11
(g15
S'\xf7q~\x98&O\xd4?'
p1929
tp1930
Rp1931
ssg113
g1931
sg46
g11
(g12
(S'S6'
p1932
I0
I1
tp1933
Rp1934
(I3
S'|'
p1935
NNNI6
I1
I0
tp1936
bS'ISOMAP'
p1937
tp1938
Rp1939
sg55
F0.2
sg38
g1928
sg56
g11
(g12
(S'S8'
p1940
I0
I1
tp1941
Rp1942
(I3
S'|'
p1943
NNNI8
I1
I0
tp1944
bS'haralick'
p1945
tp1946
Rp1947
sg105
g1922
sg109
g1925
sg65
g11
(g15
S'\x8by\xad\x90\xaf\xaa\xdb?'
p1948
tp1949
Rp1950
sg69
g11
(g12
(S'S3'
p1951
I0
I1
tp1952
Rp1953
(I3
S'|'
p1954
NNNI3
I1
I0
tp1955
bS'SVM'
p1956
tp1957
Rp1958
sg78
I3
sg79
g80
sg81
g11
(g15
S'\xa4\xe8\x08\x1b\x83E\xe9?'
p1959
tp1960
Rp1961
sg85
g86
sg87
g88
sbag4
(g5
g6
Ntp1962
Rp1963
(dp1964
g10
g11
(g15
S'\x00\x00\x00\x00\x00\x00\xf8\xff'
p1965
tp1966
Rp1967
sg21
g11
(g15
S'\x00\x00\x00\x00\x00@R@'
p1968
tp1969
Rp1970
sg95
g103
sg25
g26
sg36
(dp1971
g21
g1970
sg42
g11
(g15
S'\xfag}G\xbd\xd9\xd6?'
p1972
tp1973
Rp1974
sg95
g103
sg109
g11
(g30
S'\x03\x00\x00\x00\x00\x00\x00\x00'
p1975
tp1976
Rp1977
ssg46
g11
(g12
(S'S3'
p1978
I0
I1
tp1979
Rp1980
(I3
S'|'
p1981
NNNI3
I1
I0
tp1982
bS'PCA'
p1983
tp1984
Rp1985
sg55
F0.2
sg56
g11
(g12
(S'S8'
p1986
I0
I1
tp1987
Rp1988
(I3
S'|'
p1989
NNNI8
I1
I0
tp1990
bS'haralick'
p1991
tp1992
Rp1993
sg109
g1977
sg65
g11
(g15
S'\x02\xc7\xbaD\x93\x13\x03@'
p1994
tp1995
Rp1996
sg69
g11
(g12
(S'S2'
p1997
I0
I1
tp1998
Rp1999
(I3
S'|'
p2000
NNNI2
I1
I0
tp2001
bS'RF'
p2002
tp2003
Rp2004
sg78
I3
sg42
g1974
sg79
g80
sg81
g11
(g15
S'\x94\x8a\xcaK\x1a~\xe6?'
p2005
tp2006
Rp2007
sg85
g86
sg87
g88
sbag4
(g5
g6
Ntp2008
Rp2009
(dp2010
g10
g11
(g15
S'\x00\x00\x00\x00\x00\x00\xf8\xff'
p2011
tp2012
Rp2013
sg95
g201
sg25
g26
sg36
(dp2014
g95
g201
sg105
g11
(g15
S'\xef8Vj\x03\xf0?@'
p2015
tp2016
Rp2017
sg113
g11
(g15
S'\x14\xca\x8d\x1f\xcb-\x12@'
p2018
tp2019
Rp2020
ssg46
g11
(g12
(S'S3'
p2021
I0
I1
tp2022
Rp2023
(I3
S'|'
p2024
NNNI3
I1
I0
tp2025
bS'PCA'
p2026
tp2027
Rp2028
sg55
F0.2
sg113
g2020
sg56
g11
(g12
(S'S3'
p2029
I0
I1
tp2030
Rp2031
(I3
S'|'
p2032
NNNI3
I1
I0
tp2033
bS'VGG'
p2034
tp2035
Rp2036
sg105
g2017
sg65
g11
(g15
S'p!9\x81Q\xe2\xe5?'
p2037
tp2038
Rp2039
sg69
g11
(g12
(S'S3'
p2040
I0
I1
tp2041
Rp2042
(I3
S'|'
p2043
NNNI3
I1
I0
tp2044
bS'SVM'
p2045
tp2046
Rp2047
sg78
I3
sg79
g80
sg81
g11
(g15
S'|.\xe1+d\xdd\xe5?'
p2048
tp2049
Rp2050
sg85
g86
sg87
g88
sbag4
(g5
g6
Ntp2051
Rp2052
(dp2053
g10
g11
(g15
S'\x00\x00\x00\x00\x00\x00\xf8\xff'
p2054
tp2055
Rp2056
sg27
g11
(g30
S'\x05\x00\x00\x00\x00\x00\x00\x00'
p2057
tp2058
Rp2059
sg25
g26
sg36
(dp2060
g27
g2059
sg105
g11
(g15
S'\xadI\x8b\x9a$gD@'
p2061
tp2062
Rp2063
sg38
g11
(g30
S'\x04\x00\x00\x00\x00\x00\x00\x00'
p2064
tp2065
Rp2066
sg113
g11
(g15
S"w'\xccq\xef\x85\x08@"
p2067
tp2068
Rp2069
ssg113
g2069
sg46
g11
(g12
(S'S6'
p2070
I0
I1
tp2071
Rp2072
(I3
S'|'
p2073
NNNI6
I1
I0
tp2074
bS'ISOMAP'
p2075
tp2076
Rp2077
sg55
F0.2
sg38
g2066
sg56
g11
(g12
(S'S9'
p2078
I0
I1
tp2079
Rp2080
(I3
S'|'
p2081
NNNI9
I1
I0
tp2082
bS'inception'
p2083
tp2084
Rp2085
sg105
g2063
sg65
g11
(g15
S'\x8c\xd5@J\xd0\xb2\xe5?'
p2086
tp2087
Rp2088
sg69
g11
(g12
(S'S3'
p2089
I0
I1
tp2090
Rp2091
(I3
S'|'
p2092
NNNI3
I1
I0
tp2093
bS'SVM'
p2094
tp2095
Rp2096
sg78
I3
sg79
g80
sg81
g11
(g15
S'\xa3\xfe\xd1\xce\x08\x81\xe4?'
p2097
tp2098
Rp2099
sg85
g86
sg87
g88
sbag4
(g5
g6
Ntp2100
Rp2101
(dp2102
g10
g11
(g15
S'\x00\x00\x00\x00\x00\x00\xf8\xff'
p2103
tp2104
Rp2105
sg95
g201
sg25
g26
sg36
(dp2106
g95
g201
sg105
g11
(g15
S'\x9c\xba\xc7\xc1\x1b\xa1S@'
p2107
tp2108
Rp2109
sg109
g11
(g30
S'\x02\x00\x00\x00\x00\x00\x00\x00'
p2110
tp2111
Rp2112
sg113
g11
(g15
S'\x9c\xf7\xe3U\x13\xc9\x0e@'
p2113
tp2114
Rp2115
ssg46
g11
(g12
(S'S3'
p2116
I0
I1
tp2117
Rp2118
(I3
S'|'
p2119
NNNI3
I1
I0
tp2120
bS'PCA'
p2121
tp2122
Rp2123
sg55
F0.2
sg113
g2115
sg56
g11
(g12
(S'S8'
p2124
I0
I1
tp2125
Rp2126
(I3
S'|'
p2127
NNNI8
I1
I0
tp2128
bS'haralick'
p2129
tp2130
Rp2131
sg105
g2109
sg109
g2112
sg65
g11
(g15
S'\x96PQ\xf5\x8br\xe0?'
p2132
tp2133
Rp2134
sg69
g11
(g12
(S'S3'
p2135
I0
I1
tp2136
Rp2137
(I3
S'|'
p2138
NNNI3
I1
I0
tp2139
bS'SVM'
p2140
tp2141
Rp2142
sg78
I3
sg79
g80
sg81
g11
(g15
S'\x97n\x1e\x89\x86q\xe4?'
p2143
tp2144
Rp2145
sg85
g86
sg87
g88
sbag4
(g5
g6
Ntp2146
Rp2147
(dp2148
g10
g11
(g15
S'\x00\x00\x00\x00\x00\x00\xf8\xff'
p2149
tp2150
Rp2151
sg27
g11
(g30
S'\x05\x00\x00\x00\x00\x00\x00\x00'
p2152
tp2153
Rp2154
sg25
g26
sg36
(dp2155
g27
g2154
sg105
g11
(g15
S'\x87[\xa5\x9c\t\x18\x0b@'
p2156
tp2157
Rp2158
sg109
g11
(g30
S'\x03\x00\x00\x00\x00\x00\x00\x00'
p2159
tp2160
Rp2161
sg38
g11
(g30
S'\x04\x00\x00\x00\x00\x00\x00\x00'
p2162
tp2163
Rp2164
sg113
g11
(g15
S'\xc7T\xf2\xf8o\xb5\x14@'
p2165
tp2166
Rp2167
ssg113
g2167
sg46
g11
(g12
(S'S6'
p2168
I0
I1
tp2169
Rp2170
(I3
S'|'
p2171
NNNI6
I1
I0
tp2172
bS'ISOMAP'
p2173
tp2174
Rp2175
sg55
F0.2
sg38
g2164
sg56
g11
(g12
(S'S8'
p2176
I0
I1
tp2177
Rp2178
(I3
S'|'
p2179
NNNI8
I1
I0
tp2180
bS'haralick'
p2181
tp2182
Rp2183
sg105
g2158
sg109
g2161
sg65
g11
(g15
S'\x18a5\xdd-\xf6\xdd?'
p2184
tp2185
Rp2186
sg69
g11
(g12
(S'S3'
p2187
I0
I1
tp2188
Rp2189
(I3
S'|'
p2190
NNNI3
I1
I0
tp2191
bS'SVM'
p2192
tp2193
Rp2194
sg78
I3
sg79
g80
sg81
g11
(g15
S'\xb4\x02\x98;D\xb7\xe8?'
p2195
tp2196
Rp2197
sg85
g86
sg87
g88
sbag4
(g5
g6
Ntp2198
Rp2199
(dp2200
g10
g11
(g15
S'\x00\x00\x00\x00\x00\x00\xf8\xff'
p2201
tp2202
Rp2203
sg95
g201
sg25
g26
sg36
(dp2204
g95
g201
sg105
g11
(g15
S'\xeb\x16Q\xca\x0b. @'
p2205
tp2206
Rp2207
sg113
g11
(g15
S'&\xf4~1$2\x1f@'
p2208
tp2209
Rp2210
ssg46
g11
(g12
(S'S3'
p2211
I0
I1
tp2212
Rp2213
(I3
S'|'
p2214
NNNI3
I1
I0
tp2215
bS'PCA'
p2216
tp2217
Rp2218
sg55
F0.2
sg113
g2210
sg56
g11
(g12
(S'S3'
p2219
I0
I1
tp2220
Rp2221
(I3
S'|'
p2222
NNNI3
I1
I0
tp2223
bS'VGG'
p2224
tp2225
Rp2226
sg105
g2207
sg65
g11
(g15
S'\x0c\xc9\x19\x0c\x15\x89\xe9?'
p2227
tp2228
Rp2229
sg69
g11
(g12
(S'S3'
p2230
I0
I1
tp2231
Rp2232
(I3
S'|'
p2233
NNNI3
I1
I0
tp2234
bS'SVM'
p2235
tp2236
Rp2237
sg78
I3
sg79
g80
sg81
g11
(g15
S'\xc0p\x8bz\x99S\xe4?'
p2238
tp2239
Rp2240
sg85
g86
sg87
g88
sbag191
ag4
(g5
g6
Ntp2241
Rp2242
(dp2243
g10
g11
(g15
S'\x00\x00\x00\x00\x00\x00\xf8\xff'
p2244
tp2245
Rp2246
sg21
g11
(g15
S'\x00\x00\x00\x00\x00\x00D@'
p2247
tp2248
Rp2249
sg25
g26
sg27
g11
(g30
S'\x04\x00\x00\x00\x00\x00\x00\x00'
p2250
tp2251
Rp2252
sg36
(dp2253
g21
g2249
sg27
g2252
sg38
g11
(g30
S'\x03\x00\x00\x00\x00\x00\x00\x00'
p2254
tp2255
Rp2256
sg42
g11
(g15
S'\xea\xf0\x01\xd7\x90^\xeb?'
p2257
tp2258
Rp2259
ssg46
g11
(g12
(S'S6'
p2260
I0
I1
tp2261
Rp2262
(I3
S'|'
p2263
NNNI6
I1
I0
tp2264
bS'ISOMAP'
p2265
tp2266
Rp2267
sg55
F0.2
sg38
g2256
sg56
g11
(g12
(S'S9'
p2268
I0
I1
tp2269
Rp2270
(I3
S'|'
p2271
NNNI9
I1
I0
tp2272
bS'inception'
p2273
tp2274
Rp2275
sg65
g11
(g15
S'\xecM\xdf\xf2\x8a\xcf\xf9?'
p2276
tp2277
Rp2278
sg69
g11
(g12
(S'S2'
p2279
I0
I1
tp2280
Rp2281
(I3
S'|'
p2282
NNNI2
I1
I0
tp2283
bS'RF'
p2284
tp2285
Rp2286
sg78
I3
sg42
g2259
sg79
g80
sg81
g11
(g15
S'\x8bcU\xf7\xc0<\xe6?'
p2287
tp2288
Rp2289
sg85
g86
sg87
g88
sbag4
(g5
g6
Ntp2290
Rp2291
(dp2292
g10
g11
(g15
S'\x00\x00\x00\x00\x00\x00\xf8\xff'
p2293
tp2294
Rp2295
sg21
g11
(g15
S'\x00\x00\x00\x00\x00`m@'
p2296
tp2297
Rp2298
sg95
g103
sg25
g26
sg36
(dp2299
g21
g2298
sg42
g11
(g15
S'\\\x1dz\x10H\x8a\xee?'
p2300
tp2301
Rp2302
sg95
g103
sg109
g11
(g30
S'\x01\x00\x00\x00\x00\x00\x00\x00'
p2303
tp2304
Rp2305
ssg46
g11
(g12
(S'S3'
p2306
I0
I1
tp2307
Rp2308
(I3
S'|'
p2309
NNNI3
I1
I0
tp2310
bS'PCA'
p2311
tp2312
Rp2313
sg55
F0.2
sg56
g11
(g12
(S'S8'
p2314
I0
I1
tp2315
Rp2316
(I3
S'|'
p2317
NNNI8
I1
I0
tp2318
bS'haralick'
p2319
tp2320
Rp2321
sg109
g2305
sg65
g11
(g15
S'i\xfb\xdb\xf9q\x9d\x01@'
p2322
tp2323
Rp2324
sg69
g11
(g12
(S'S2'
p2325
I0
I1
tp2326
Rp2327
(I3
S'|'
p2328
NNNI2
I1
I0
tp2329
bS'RF'
p2330
tp2331
Rp2332
sg78
I3
sg42
g2302
sg79
g80
sg81
g11
(g15
S',\xd1\xe1n\x94i\xe7?'
p2333
tp2334
Rp2335
sg85
g86
sg87
g88
sbag4
(g5
g6
Ntp2336
Rp2337
(dp2338
g10
g11
(g15
S'\x00\x00\x00\x00\x00\x00\xf8\xff'
p2339
tp2340
Rp2341
sg95
g201
sg25
g26
sg36
(dp2342
g95
g201
sg105
g11
(g15
S'Yf\xaf\xd28\xc8C@'
p2343
tp2344
Rp2345
sg109
g11
(g30
S'\x01\x00\x00\x00\x00\x00\x00\x00'
p2346
tp2347
Rp2348
sg113
g11
(g15
S'\xfd\x89\xc5\x85w\x05\xe3?'
p2349
tp2350
Rp2351
ssg46
g11
(g12
(S'S3'
p2352
I0
I1
tp2353
Rp2354
(I3
S'|'
p2355
NNNI3
I1
I0
tp2356
bS'PCA'
p2357
tp2358
Rp2359
sg55
F0.2
sg113
g2351
sg56
g11
(g12
(S'S8'
p2360
I0
I1
tp2361
Rp2362
(I3
S'|'
p2363
NNNI8
I1
I0
tp2364
bS'haralick'
p2365
tp2366
Rp2367
sg105
g2345
sg109
g2348
sg65
g11
(g15
S'\x00\x12\x82\xfb\xfc\x85\xdf?'
p2368
tp2369
Rp2370
sg69
g11
(g12
(S'S3'
p2371
I0
I1
tp2372
Rp2373
(I3
S'|'
p2374
NNNI3
I1
I0
tp2375
bS'SVM'
p2376
tp2377
Rp2378
sg78
I3
sg79
g80
sg81
g11
(g15
S'`h/\xa6\x01\x9c\xe6?'
p2379
tp2380
Rp2381
sg85
g86
sg87
g88
sbag4
(g5
g6
Ntp2382
Rp2383
(dp2384
g10
g11
(g15
S'\x00\x00\x00\x00\x00\x00\xf8\xff'
p2385
tp2386
Rp2387
sg95
g103
sg25
g26
sg36
(dp2388
g95
g103
sg105
g11
(g15
S'\xe5\xc9\xc5t\x00hR@'
p2389
tp2390
Rp2391
sg113
g11
(g15
S'\x12\xdah\xf0B\xea\x1e@'
p2392
tp2393
Rp2394
ssg46
g11
(g12
(S'S3'
p2395
I0
I1
tp2396
Rp2397
(I3
S'|'
p2398
NNNI3
I1
I0
tp2399
bS'PCA'
p2400
tp2401
Rp2402
sg55
F0.2
sg113
g2394
sg56
g11
(g12
(S'S3'
p2403
I0
I1
tp2404
Rp2405
(I3
S'|'
p2406
NNNI3
I1
I0
tp2407
bS'VGG'
p2408
tp2409
Rp2410
sg105
g2391
sg65
g11
(g15
S'\x81)\xbd\xfaF1\xe8?'
p2411
tp2412
Rp2413
sg69
g11
(g12
(S'S3'
p2414
I0
I1
tp2415
Rp2416
(I3
S'|'
p2417
NNNI3
I1
I0
tp2418
bS'SVM'
p2419
tp2420
Rp2421
sg78
I3
sg79
g80
sg81
g11
(g15
S'\xc0p\x8bz\x99S\xe4?'
p2422
tp2423
Rp2424
sg85
g86
sg87
g88
sbag4
(g5
g6
Ntp2425
Rp2426
(dp2427
g10
g11
(g15
S'\x00\x00\x00\x00\x00\x00\xf8\xff'
p2428
tp2429
Rp2430
sg21
g11
(g15
S'\x00\x00\x00\x00\x00`i@'
p2431
tp2432
Rp2433
sg25
g26
sg27
g11
(g30
S'\x03\x00\x00\x00\x00\x00\x00\x00'
p2434
tp2435
Rp2436
sg36
(dp2437
g21
g2433
sg27
g2436
sg109
g11
(g30
S'\x03\x00\x00\x00\x00\x00\x00\x00'
p2438
tp2439
Rp2440
sg38
g11
(g30
S'\x02\x00\x00\x00\x00\x00\x00\x00'
p2441
tp2442
Rp2443
sg42
g11
(g15
S'\x8c\x0b\xe7\xa5*1\xec?'
p2444
tp2445
Rp2446
ssg46
g11
(g12
(S'S6'
p2447
I0
I1
tp2448
Rp2449
(I3
S'|'
p2450
NNNI6
I1
I0
tp2451
bS'ISOMAP'
p2452
tp2453
Rp2454
sg55
F0.2
sg38
g2443
sg56
g11
(g12
(S'S8'
p2455
I0
I1
tp2456
Rp2457
(I3
S'|'
p2458
NNNI8
I1
I0
tp2459
bS'haralick'
p2460
tp2461
Rp2462
sg109
g2440
sg65
g11
(g15
S'\xbb\xfc>[ti\x00@'
p2463
tp2464
Rp2465
sg69
g11
(g12
(S'S2'
p2466
I0
I1
tp2467
Rp2468
(I3
S'|'
p2469
NNNI2
I1
I0
tp2470
bS'RF'
p2471
tp2472
Rp2473
sg78
I3
sg42
g2446
sg79
g80
sg81
g11
(g15
S'\xe7\xd09=l\x97\xe8?'
p2474
tp2475
Rp2476
sg85
g86
sg87
g88
sbag4
(g5
g6
Ntp2477
Rp2478
(dp2479
g10
g11
(g15
S'\x00\x00\x00\x00\x00\x00\xf8\xff'
p2480
tp2481
Rp2482
sg21
g11
(g15
S'\x00\x00\x00\x00\x00\x00 @'
p2483
tp2484
Rp2485
sg95
g103
sg25
g26
sg36
(dp2486
g21
g2485
sg42
g11
(g15
S'\xd3\xfc\xfa&\xcf\x9d\xe4?'
p2487
tp2488
Rp2489
sg95
g103
sg109
g11
(g30
S'\x01\x00\x00\x00\x00\x00\x00\x00'
p2490
tp2491
Rp2492
ssg46
g11
(g12
(S'S3'
p2493
I0
I1
tp2494
Rp2495
(I3
S'|'
p2496
NNNI3
I1
I0
tp2497
bS'PCA'
p2498
tp2499
Rp2500
sg55
F0.2
sg56
g11
(g12
(S'S8'
p2501
I0
I1
tp2502
Rp2503
(I3
S'|'
p2504
NNNI8
I1
I0
tp2505
bS'haralick'
p2506
tp2507
Rp2508
sg109
g2492
sg65
g11
(g15
S'\xcc\x8d\xa9;\xf6\x14\x11@'
p2509
tp2510
Rp2511
sg69
g11
(g12
(S'S2'
p2512
I0
I1
tp2513
Rp2514
(I3
S'|'
p2515
NNNI2
I1
I0
tp2516
bS'RF'
p2517
tp2518
Rp2519
sg78
I3
sg42
g2489
sg79
g80
sg81
g11
(g15
S'\x98#4\xff5\x99\xe7?'
p2520
tp2521
Rp2522
sg85
g86
sg87
g88
sbag4
(g5
g6
Ntp2523
Rp2524
(dp2525
g10
g11
(g15
S'\x00\x00\x00\x00\x00\x00\xf8\xff'
p2526
tp2527
Rp2528
sg21
g11
(g15
S'\x00\x00\x00\x00\x00@Z@'
p2529
tp2530
Rp2531
sg95
g201
sg25
g26
sg36
(dp2532
g21
g2531
sg42
g11
(g15
S'\xa0\xba\xd8)\x8b\xdb\xe0?'
p2533
tp2534
Rp2535
sg95
g201
ssg46
g11
(g12
(S'S3'
p2536
I0
I1
tp2537
Rp2538
(I3
S'|'
p2539
NNNI3
I1
I0
tp2540
bS'PCA'
p2541
tp2542
Rp2543
sg55
F0.2
sg56
g11
(g12
(S'S9'
p2544
I0
I1
tp2545
Rp2546
(I3
S'|'
p2547
NNNI9
I1
I0
tp2548
bS'inception'
p2549
tp2550
Rp2551
sg65
g11
(g15
S'_\xb4=\xd3\x1bR\xe3?'
p2552
tp2553
Rp2554
sg69
g11
(g12
(S'S2'
p2555
I0
I1
tp2556
Rp2557
(I3
S'|'
p2558
NNNI2
I1
I0
tp2559
bS'RF'
p2560
tp2561
Rp2562
sg78
I3
sg42
g2535
sg79
g80
sg81
g11
(g15
S'h\xbaLn\xcb\x84\xe8?'
p2563
tp2564
Rp2565
sg85
g86
sg87
g88
sbag4
(g5
g6
Ntp2566
Rp2567
(dp2568
g10
g11
(g15
S'\x00\x00\x00\x00\x00\x00\xf8\xff'
p2569
tp2570
Rp2571
sg27
g11
(g30
S'\x05\x00\x00\x00\x00\x00\x00\x00'
p2572
tp2573
Rp2574
sg25
g26
sg36
(dp2575
g27
g2574
sg105
g11
(g15
S'~\xce\x06 \xed\x90\x04@'
p2576
tp2577
Rp2578
sg109
g11
(g30
S'\x02\x00\x00\x00\x00\x00\x00\x00'
p2579
tp2580
Rp2581
sg38
g11
(g30
S'\x04\x00\x00\x00\x00\x00\x00\x00'
p2582
tp2583
Rp2584
sg113
g11
(g15
S'\x1e2TB=\x0e\x1d@'
p2585
tp2586
Rp2587
ssg113
g2587
sg46
g11
(g12
(S'S6'
p2588
I0
I1
tp2589
Rp2590
(I3
S'|'
p2591
NNNI6
I1
I0
tp2592
bS'ISOMAP'
p2593
tp2594
Rp2595
sg55
F0.2
sg38
g2584
sg56
g11
(g12
(S'S8'
p2596
I0
I1
tp2597
Rp2598
(I3
S'|'
p2599
NNNI8
I1
I0
tp2600
bS'haralick'
p2601
tp2602
Rp2603
sg105
g2578
sg109
g2581
sg65
g11
(g15
S'\xc0;\x9d\xbf\x7f\xd1\xdf?'
p2604
tp2605
Rp2606
sg69
g11
(g12
(S'S3'
p2607
I0
I1
tp2608
Rp2609
(I3
S'|'
p2610
NNNI3
I1
I0
tp2611
bS'SVM'
p2612
tp2613
Rp2614
sg78
I3
sg79
g80
sg81
g11
(g15
S'\x1d|z\x03\xadG\xe8?'
p2615
tp2616
Rp2617
sg85
g86
sg87
g88
sbag4
(g5
g6
Ntp2618
Rp2619
(dp2620
g10
g11
(g15
S'\x00\x00\x00\x00\x00\x00\xf8\xff'
p2621
tp2622
Rp2623
sg95
g201
sg25
g26
sg36
(dp2624
g95
g201
sg105
g11
(g15
S'3\xcf\xd3&\x8d\xc4"@'
p2625
tp2626
Rp2627
sg113
g11
(g15
S'\xd0oZ\xe5\x17\x0b\x1c@'
p2628
tp2629
Rp2630
ssg46
g11
(g12
(S'S3'
p2631
I0
I1
tp2632
Rp2633
(I3
S'|'
p2634
NNNI3
I1
I0
tp2635
bS'PCA'
p2636
tp2637
Rp2638
sg55
F0.2
sg113
g2630
sg56
g11
(g12
(S'S3'
p2639
I0
I1
tp2640
Rp2641
(I3
S'|'
p2642
NNNI3
I1
I0
tp2643
bS'VGG'
p2644
tp2645
Rp2646
sg105
g2627
sg65
g11
(g15
S'w\xe8Z4\x80G\xe8?'
p2647
tp2648
Rp2649
sg69
g11
(g12
(S'S3'
p2650
I0
I1
tp2651
Rp2652
(I3
S'|'
p2653
NNNI3
I1
I0
tp2654
bS'SVM'
p2655
tp2656
Rp2657
sg78
I3
sg79
g80
sg81
g11
(g15
S'\x15\xf5;e\x18\xc2\xe4?'
p2658
tp2659
Rp2660
sg85
g86
sg87
g88
sbag4
(g5
g6
Ntp2661
Rp2662
(dp2663
g10
g11
(g15
S'\x00\x00\x00\x00\x00\x00\xf8\xff'
p2664
tp2665
Rp2666
sg95
g201
sg25
g26
sg36
(dp2667
g95
g201
sg105
g11
(g15
S'\x95\x9e\xeb\x82\x0f\xcc1@'
p2668
tp2669
Rp2670
sg113
g11
(g15
S'_=\x03\xc1M\xea\xf4?'
p2671
tp2672
Rp2673
ssg46
g11
(g12
(S'S3'
p2674
I0
I1
tp2675
Rp2676
(I3
S'|'
p2677
NNNI3
I1
I0
tp2678
bS'PCA'
p2679
tp2680
Rp2681
sg55
F0.2
sg113
g2673
sg56
g11
(g12
(S'S3'
p2682
I0
I1
tp2683
Rp2684
(I3
S'|'
p2685
NNNI3
I1
I0
tp2686
bS'VGG'
p2687
tp2688
Rp2689
sg105
g2670
sg65
g11
(g15
S'\xf7\xfe+\x02\xc4\xa4\xe0?'
p2690
tp2691
Rp2692
sg69
g11
(g12
(S'S3'
p2693
I0
I1
tp2694
Rp2695
(I3
S'|'
p2696
NNNI3
I1
I0
tp2697
bS'SVM'
p2698
tp2699
Rp2700
sg78
I3
sg79
g80
sg81
g11
(g15
S'\xab\x10{\xa9\xb5\x03\xe9?'
p2701
tp2702
Rp2703
sg85
g86
sg87
g88
sbag4
(g5
g6
Ntp2704
Rp2705
(dp2706
g10
g11
(g15
S'\x00\x00\x00\x00\x00\x00\xf8\xff'
p2707
tp2708
Rp2709
sg27
g11
(g30
S'\x06\x00\x00\x00\x00\x00\x00\x00'
p2710
tp2711
Rp2712
sg25
g26
sg36
(dp2713
g27
g2712
sg105
g11
(g15
S'\xbdQM\xeb\x00\xf5P@'
p2714
tp2715
Rp2716
sg109
g11
(g30
S'\x03\x00\x00\x00\x00\x00\x00\x00'
p2717
tp2718
Rp2719
sg38
g11
(g30
S'\x02\x00\x00\x00\x00\x00\x00\x00'
p2720
tp2721
Rp2722
sg113
g11
(g15
S'e\x12\x94\xe7\xbf\x91\xfa?'
p2723
tp2724
Rp2725
ssg113
g2725
sg46
g11
(g12
(S'S6'
p2726
I0
I1
tp2727
Rp2728
(I3
S'|'
p2729
NNNI6
I1
I0
tp2730
bS'ISOMAP'
p2731
tp2732
Rp2733
sg55
F0.2
sg38
g2722
sg56
g11
(g12
(S'S8'
p2734
I0
I1
tp2735
Rp2736
(I3
S'|'
p2737
NNNI8
I1
I0
tp2738
bS'haralick'
p2739
tp2740
Rp2741
sg105
g2716
sg109
g2719
sg65
g11
(g15
S'\xa3\x84\xbd\xd5d\xe8\xdd?'
p2742
tp2743
Rp2744
sg69
g11
(g12
(S'S3'
p2745
I0
I1
tp2746
Rp2747
(I3
S'|'
p2748
NNNI3
I1
I0
tp2749
bS'SVM'
p2750
tp2751
Rp2752
sg78
I3
sg79
g80
sg81
g11
(g15
S'\xa5Uv\x08\x8cD\xe8?'
p2753
tp2754
Rp2755
sg85
g86
sg87
g88
sbag4
(g5
g6
Ntp2756
Rp2757
(dp2758
g10
g11
(g15
S'\x00\x00\x00\x00\x00\x00\xf8\xff'
p2759
tp2760
Rp2761
sg21
g11
(g15
S'\x00\x00\x00\x00\x00@Z@'
p2762
tp2763
Rp2764
sg95
g103
sg25
g26
sg36
(dp2765
g21
g2764
sg42
g11
(g15
S'\x1b\x90\xad\xcb\x9dU\xd3?'
p2766
tp2767
Rp2768
sg95
g103
ssg46
g11
(g12
(S'S3'
p2769
I0
I1
tp2770
Rp2771
(I3
S'|'
p2772
NNNI3
I1
I0
tp2773
bS'PCA'
p2774
tp2775
Rp2776
sg55
F0.2
sg56
g11
(g12
(S'S9'
p2777
I0
I1
tp2778
Rp2779
(I3
S'|'
p2780
NNNI9
I1
I0
tp2781
bS'inception'
p2782
tp2783
Rp2784
sg65
g11
(g15
S'Y\x08\xb5\x91\xa7\x11\xe3?'
p2785
tp2786
Rp2787
sg69
g11
(g12
(S'S2'
p2788
I0
I1
tp2789
Rp2790
(I3
S'|'
p2791
NNNI2
I1
I0
tp2792
bS'RF'
p2793
tp2794
Rp2795
sg78
I3
sg42
g2768
sg79
g80
sg81
g11
(g15
S'E\x086\x95T6\xe8?'
p2796
tp2797
Rp2798
sg85
g86
sg87
g88
sbag4
(g5
g6
Ntp2799
Rp2800
(dp2801
g10
g11
(g15
S'\x00\x00\x00\x00\x00\x00\xf8\xff'
p2802
tp2803
Rp2804
sg27
g11
(g30
S'\x04\x00\x00\x00\x00\x00\x00\x00'
p2805
tp2806
Rp2807
sg25
g26
sg36
(dp2808
g27
g2807
sg105
g11
(g15
S'~\x87+?O,(@'
p2809
tp2810
Rp2811
sg38
g11
(g30
S'\x02\x00\x00\x00\x00\x00\x00\x00'
p2812
tp2813
Rp2814
sg113
g11
(g15
S'\x19Ak\xc9F/\xf5?'
p2815
tp2816
Rp2817
ssg113
g2817
sg46
g11
(g12
(S'S6'
p2818
I0
I1
tp2819
Rp2820
(I3
S'|'
p2821
NNNI6
I1
I0
tp2822
bS'ISOMAP'
p2823
tp2824
Rp2825
sg55
F0.2
sg38
g2814
sg56
g11
(g12
(S'S3'
p2826
I0
I1
tp2827
Rp2828
(I3
S'|'
p2829
NNNI3
I1
I0
tp2830
bS'VGG'
p2831
tp2832
Rp2833
sg105
g2811
sg65
g11
(g15
S'\x1b\xff\xf3\xfa\xd0\x15\xe1?'
p2834
tp2835
Rp2836
sg69
g11
(g12
(S'S3'
p2837
I0
I1
tp2838
Rp2839
(I3
S'|'
p2840
NNNI3
I1
I0
tp2841
bS'SVM'
p2842
tp2843
Rp2844
sg78
I3
sg79
g80
sg81
g11
(g15
S'\xdb^(\x0b\xf9X\xe7?'
p2845
tp2846
Rp2847
sg85
g86
sg87
g88
sbag4
(g5
g6
Ntp2848
Rp2849
(dp2850
g10
g11
(g15
S'\x00\x00\x00\x00\x00\x00\xf8\xff'
p2851
tp2852
Rp2853
sg95
g103
sg25
g26
sg36
(dp2854
g95
g103
sg105
g11
(g15
S'\xc7\xb0?EK\xf1I@'
p2855
tp2856
Rp2857
sg113
g11
(g15
S'\xc2\x90{\xe8\x83\r\x18@'
p2858
tp2859
Rp2860
ssg46
g11
(g12
(S'S3'
p2861
I0
I1
tp2862
Rp2863
(I3
S'|'
p2864
NNNI3
I1
I0
tp2865
bS'PCA'
p2866
tp2867
Rp2868
sg55
F0.2
sg113
g2860
sg56
g11
(g12
(S'S9'
p2869
I0
I1
tp2870
Rp2871
(I3
S'|'
p2872
NNNI9
I1
I0
tp2873
bS'inception'
p2874
tp2875
Rp2876
sg105
g2857
sg65
g11
(g15
S'*"\xa6\t\x16\xc4\xe3?'
p2877
tp2878
Rp2879
sg69
g11
(g12
(S'S3'
p2880
I0
I1
tp2881
Rp2882
(I3
S'|'
p2883
NNNI3
I1
I0
tp2884
bS'SVM'
p2885
tp2886
Rp2887
sg78
I3
sg79
g80
sg81
g11
(g15
S'\xad\xc6\xd7\xe2=N\xe5?'
p2888
tp2889
Rp2890
sg85
g86
sg87
g88
sbag4
(g5
g6
Ntp2891
Rp2892
(dp2893
g10
g11
(g15
S'\x00\x00\x00\x00\x00\x00\xf8\xff'
p2894
tp2895
Rp2896
sg21
g11
(g15
S'\x00\x00\x00\x00\x00@a@'
p2897
tp2898
Rp2899
sg25
g26
sg27
g11
(g30
S'\x06\x00\x00\x00\x00\x00\x00\x00'
p2900
tp2901
Rp2902
sg36
(dp2903
g21
g2899
sg27
g2902
sg109
g11
(g30
S'\x01\x00\x00\x00\x00\x00\x00\x00'
p2904
tp2905
Rp2906
sg38
g11
(g30
S'\x03\x00\x00\x00\x00\x00\x00\x00'
p2907
tp2908
Rp2909
sg42
g11
(g15
S'\xce\xe7C\x02\xc0\x8d\xd5?'
p2910
tp2911
Rp2912
ssg46
g11
(g12
(S'S6'
p2913
I0
I1
tp2914
Rp2915
(I3
S'|'
p2916
NNNI6
I1
I0
tp2917
bS'ISOMAP'
p2918
tp2919
Rp2920
sg55
F0.2
sg38
g2909
sg56
g11
(g12
(S'S8'
p2921
I0
I1
tp2922
Rp2923
(I3
S'|'
p2924
NNNI8
I1
I0
tp2925
bS'haralick'
p2926
tp2927
Rp2928
sg109
g2906
sg65
g11
(g15
S'\xf9]\xf5\xd1\r\x0f\xf8?'
p2929
tp2930
Rp2931
sg69
g11
(g12
(S'S2'
p2932
I0
I1
tp2933
Rp2934
(I3
S'|'
p2935
NNNI2
I1
I0
tp2936
bS'RF'
p2937
tp2938
Rp2939
sg78
I3
sg42
g2912
sg79
g80
sg81
g11
(g15
S'i13\xbe.y\xe7?'
p2940
tp2941
Rp2942
sg85
g86
sg87
g88
sbag4
(g5
g6
Ntp2943
Rp2944
(dp2945
g10
g11
(g15
S'\x00\x00\x00\x00\x00\x00\xf8\xff'
p2946
tp2947
Rp2948
sg21
g11
(g15
S'\x00\x00\x00\x00\x00\x00D@'
p2949
tp2950
Rp2951
sg95
g103
sg25
g26
sg36
(dp2952
g21
g2951
sg42
g11
(g15
S'h\x84\x9a"\xbc\xe3\xde?'
p2953
tp2954
Rp2955
sg95
g103
ssg46
g11
(g12
(S'S3'
p2956
I0
I1
tp2957
Rp2958
(I3
S'|'
p2959
NNNI3
I1
I0
tp2960
bS'PCA'
p2961
tp2962
Rp2963
sg55
F0.2
sg56
g11
(g12
(S'S9'
p2964
I0
I1
tp2965
Rp2966
(I3
S'|'
p2967
NNNI9
I1
I0
tp2968
bS'inception'
p2969
tp2970
Rp2971
sg65
g11
(g15
S'\x84TC\xb5dK\xe9?'
p2972
tp2973
Rp2974
sg69
g11
(g12
(S'S2'
p2975
I0
I1
tp2976
Rp2977
(I3
S'|'
p2978
NNNI2
I1
I0
tp2979
bS'RF'
p2980
tp2981
Rp2982
sg78
I3
sg42
g2955
sg79
g80
sg81
g11
(g15
S'E\x086\x95T6\xe8?'
p2983
tp2984
Rp2985
sg85
g86
sg87
g88
sbag4
(g5
g6
Ntp2986
Rp2987
(dp2988
g10
g11
(g15
S'\x00\x00\x00\x00\x00\x00\xf8\xff'
p2989
tp2990
Rp2991
sg21
g11
(g15
S'\x00\x00\x00\x00\x00@a@'
p2992
tp2993
Rp2994
sg95
g201
sg25
g26
sg36
(dp2995
g21
g2994
sg42
g11
(g15
S'\xf0\x81+\xd1\xa2\xf8\xe1?'
p2996
tp2997
Rp2998
sg95
g201
ssg46
g11
(g12
(S'S3'
p2999
I0
I1
tp3000
Rp3001
(I3
S'|'
p3002
NNNI3
I1
I0
tp3003
bS'PCA'
p3004
tp3005
Rp3006
sg55
F0.2
sg56
g11
(g12
(S'S3'
p3007
I0
I1
tp3008
Rp3009
(I3
S'|'
p3010
NNNI3
I1
I0
tp3011
bS'VGG'
p3012
tp3013
Rp3014
sg65
g11
(g15
S'\x94\xc3\x87\xa2\xae\x82\xda?'
p3015
tp3016
Rp3017
sg69
g11
(g12
(S'S2'
p3018
I0
I1
tp3019
Rp3020
(I3
S'|'
p3021
NNNI2
I1
I0
tp3022
bS'RF'
p3023
tp3024
Rp3025
sg78
I3
sg42
g2998
sg79
g80
sg81
g11
(g15
S'\xbdr +\x1d\x80\xea?'
p3026
tp3027
Rp3028
sg85
g86
sg87
g88
sbag4
(g5
g6
Ntp3029
Rp3030
(dp3031
g10
g11
(g15
S'\x00\x00\x00\x00\x00\x00\xf8\xff'
p3032
tp3033
Rp3034
sg27
g11
(g30
S'\x07\x00\x00\x00\x00\x00\x00\x00'
p3035
tp3036
Rp3037
sg25
g26
sg36
(dp3038
g27
g3037
sg105
g11
(g15
S'\xac\xf4\xec\x9d\xc7\x0b"@'
p3039
tp3040
Rp3041
sg109
g11
(g30
S'\x03\x00\x00\x00\x00\x00\x00\x00'
p3042
tp3043
Rp3044
sg38
g11
(g30
S'\x03\x00\x00\x00\x00\x00\x00\x00'
p3045
tp3046
Rp3047
sg113
g11
(g15
S'\xac\xc8\xfb\x8d\xa8=\x0e@'
p3048
tp3049
Rp3050
ssg113
g3050
sg46
g11
(g12
(S'S6'
p3051
I0
I1
tp3052
Rp3053
(I3
S'|'
p3054
NNNI6
I1
I0
tp3055
bS'ISOMAP'
p3056
tp3057
Rp3058
sg55
F0.2
sg38
g3047
sg56
g11
(g12
(S'S8'
p3059
I0
I1
tp3060
Rp3061
(I3
S'|'
p3062
NNNI8
I1
I0
tp3063
bS'haralick'
p3064
tp3065
Rp3066
sg105
g3041
sg109
g3044
sg65
g11
(g15
S'\x97\xc2P\x80\x88\xdd\xdd?'
p3067
tp3068
Rp3069
sg69
g11
(g12
(S'S3'
p3070
I0
I1
tp3071
Rp3072
(I3
S'|'
p3073
NNNI3
I1
I0
tp3074
bS'SVM'
p3075
tp3076
Rp3077
sg78
I3
sg79
g80
sg81
g11
(g15
S'\x9b\xa4&\xa3\x124\xe9?'
p3078
tp3079
Rp3080
sg85
g86
sg87
g88
sbag4
(g5
g6
Ntp3081
Rp3082
(dp3083
g10
g11
(g15
S'\x00\x00\x00\x00\x00\x00\xf8\xff'
p3084
tp3085
Rp3086
sg21
g11
(g15
S'\x00\x00\x00\x00\x00\x00D@'
p3087
tp3088
Rp3089
sg25
g26
sg27
g11
(g30
S'\x06\x00\x00\x00\x00\x00\x00\x00'
p3090
tp3091
Rp3092
sg36
(dp3093
g21
g3089
sg27
g3092
sg38
g11
(g30
S'\x02\x00\x00\x00\x00\x00\x00\x00'
p3094
tp3095
Rp3096
sg42
g11
(g15
S'^M\xd5\xcaQ\xef\xe0?'
p3097
tp3098
Rp3099
ssg46
g11
(g12
(S'S6'
p3100
I0
I1
tp3101
Rp3102
(I3
S'|'
p3103
NNNI6
I1
I0
tp3104
bS'ISOMAP'
p3105
tp3106
Rp3107
sg55
F0.2
sg38
g3096
sg56
g11
(g12
(S'S9'
p3108
I0
I1
tp3109
Rp3110
(I3
S'|'
p3111
NNNI9
I1
I0
tp3112
bS'inception'
p3113
tp3114
Rp3115
sg65
g11
(g15
S'\x87\xed\xe2h\xb8\xa7\xf8?'
p3116
tp3117
Rp3118
sg69
g11
(g12
(S'S2'
p3119
I0
I1
tp3120
Rp3121
(I3
S'|'
p3122
NNNI2
I1
I0
tp3123
bS'RF'
p3124
tp3125
Rp3126
sg78
I3
sg42
g3099
sg79
g80
sg81
g11
(g15
S'5\xe1\xa0\x142\xee\xe5?'
p3127
tp3128
Rp3129
sg85
g86
sg87
g88
sbag4
(g5
g6
Ntp3130
Rp3131
(dp3132
g10
g11
(g15
S'\x00\x00\x00\x00\x00\x00\xf8\xff'
p3133
tp3134
Rp3135
sg21
g11
(g15
S'\x00\x00\x00\x00\x00\x00D@'
p3136
tp3137
Rp3138
sg95
g201
sg25
g26
sg36
(dp3139
g21
g3138
sg42
g11
(g15
S'\x96\x96E$\xb5x\xe3?'
p3140
tp3141
Rp3142
sg95
g201
ssg46
g11
(g12
(S'S3'
p3143
I0
I1
tp3144
Rp3145
(I3
S'|'
p3146
NNNI3
I1
I0
tp3147
bS'PCA'
p3148
tp3149
Rp3150
sg55
F0.2
sg56
g11
(g12
(S'S9'
p3151
I0
I1
tp3152
Rp3153
(I3
S'|'
p3154
NNNI9
I1
I0
tp3155
bS'inception'
p3156
tp3157
Rp3158
sg65
g11
(g15
S'\xb1\xff\x01~\xcaK\xec?'
p3159
tp3160
Rp3161
sg69
g11
(g12
(S'S2'
p3162
I0
I1
tp3163
Rp3164
(I3
S'|'
p3165
NNNI2
I1
I0
tp3166
bS'RF'
p3167
tp3168
Rp3169
sg78
I3
sg42
g3142
sg79
g80
sg81
g11
(g15
S'\xd5\x0b\xa1\xfat\xa4\xe8?'
p3170
tp3171
Rp3172
sg85
g86
sg87
g88
sbag4
(g5
g6
Ntp3173
Rp3174
(dp3175
g10
g11
(g15
S'\x00\x00\x00\x00\x00\x00\xf8\xff'
p3176
tp3177
Rp3178
sg21
g11
(g15
S'\x00\x00\x00\x00\x00`m@'
p3179
tp3180
Rp3181
sg25
g26
sg27
g11
(g30
S'\x07\x00\x00\x00\x00\x00\x00\x00'
p3182
tp3183
Rp3184
sg36
(dp3185
g21
g3181
sg27
g3184
sg38
g11
(g30
S'\x04\x00\x00\x00\x00\x00\x00\x00'
p3186
tp3187
Rp3188
sg42
g11
(g15
S'rX 9\xebj\xe9?'
p3189
tp3190
Rp3191
ssg46
g11
(g12
(S'S6'
p3192
I0
I1
tp3193
Rp3194
(I3
S'|'
p3195
NNNI6
I1
I0
tp3196
bS'ISOMAP'
p3197
tp3198
Rp3199
sg55
F0.2
sg38
g3188
sg56
g11
(g12
(S'S3'
p3200
I0
I1
tp3201
Rp3202
(I3
S'|'
p3203
NNNI3
I1
I0
tp3204
bS'VGG'
p3205
tp3206
Rp3207
sg65
g11
(g15
S'I\x9aC\x87\xd7\x94\xe4?'
p3208
tp3209
Rp3210
sg69
g11
(g12
(S'S2'
p3211
I0
I1
tp3212
Rp3213
(I3
S'|'
p3214
NNNI2
I1
I0
tp3215
bS'RF'
p3216
tp3217
Rp3218
sg78
I3
sg42
g3191
sg79
g80
sg81
g11
(g15
S'\x00ZSI\x0e\xc2\xe9?'
p3219
tp3220
Rp3221
sg85
g86
sg87
g88
sbag4
(g5
g6
Ntp3222
Rp3223
(dp3224
g10
g11
(g15
S'\x00\x00\x00\x00\x00\x00\xf8\xff'
p3225
tp3226
Rp3227
sg21
g11
(g15
S'\x00\x00\x00\x00\x00\x00D@'
p3228
tp3229
Rp3230
sg95
g201
sg25
g26
sg36
(dp3231
g21
g3230
sg42
g11
(g15
S'\x98\x12\x81\xf5#6\xe8?'
p3232
tp3233
Rp3234
sg95
g201
ssg46
g11
(g12
(S'S3'
p3235
I0
I1
tp3236
Rp3237
(I3
S'|'
p3238
NNNI3
I1
I0
tp3239
bS'PCA'
p3240
tp3241
Rp3242
sg55
F0.2
sg56
g11
(g12
(S'S3'
p3243
I0
I1
tp3244
Rp3245
(I3
S'|'
p3246
NNNI3
I1
I0
tp3247
bS'VGG'
p3248
tp3249
Rp3250
sg65
g11
(g15
S'\xbc\xfd\x90\x1d\xe3/\xe3?'
p3251
tp3252
Rp3253
sg69
g11
(g12
(S'S2'
p3254
I0
I1
tp3255
Rp3256
(I3
S'|'
p3257
NNNI2
I1
I0
tp3258
bS'RF'
p3259
tp3260
Rp3261
sg78
I3
sg42
g3234
sg79
g80
sg81
g11
(g15
S'5V$\x059\xcf\xea?'
p3262
tp3263
Rp3264
sg85
g86
sg87
g88
sbag4
(g5
g6
Ntp3265
Rp3266
(dp3267
g10
g11
(g15
S'\x00\x00\x00\x00\x00\x00\xf8\xff'
p3268
tp3269
Rp3270
sg21
g11
(g15
S'\x00\x00\x00\x00\x00\xc0r@'
p3271
tp3272
Rp3273
sg25
g26
sg27
g11
(g30
S'\x05\x00\x00\x00\x00\x00\x00\x00'
p3274
tp3275
Rp3276
sg36
(dp3277
g21
g3273
sg27
g3276
sg38
g11
(g30
S'\x02\x00\x00\x00\x00\x00\x00\x00'
p3278
tp3279
Rp3280
sg42
g11
(g15
S'\x96_9+\xf3\x16\xe4?'
p3281
tp3282
Rp3283
ssg46
g11
(g12
(S'S6'
p3284
I0
I1
tp3285
Rp3286
(I3
S'|'
p3287
NNNI6
I1
I0
tp3288
bS'ISOMAP'
p3289
tp3290
Rp3291
sg55
F0.2
sg38
g3280
sg56
g11
(g12
(S'S3'
p3292
I0
I1
tp3293
Rp3294
(I3
S'|'
p3295
NNNI3
I1
I0
tp3296
bS'VGG'
p3297
tp3298
Rp3299
sg65
g11
(g15
S'a`\xb167\xfc\xeb?'
p3300
tp3301
Rp3302
sg69
g11
(g12
(S'S2'
p3303
I0
I1
tp3304
Rp3305
(I3
S'|'
p3306
NNNI2
I1
I0
tp3307
bS'RF'
p3308
tp3309
Rp3310
sg78
I3
sg42
g3283
sg79
g80
sg81
g11
(g15
S'\xc0\x18k%{\xa2\xe9?'
p3311
tp3312
Rp3313
sg85
g86
sg87
g88
sbag4
(g5
g6
Ntp3314
Rp3315
(dp3316
g10
g11
(g15
S'\x00\x00\x00\x00\x00\x00\xf8\xff'
p3317
tp3318
Rp3319
sg95
g201
sg25
g26
sg36
(dp3320
g95
g201
sg105
g11
(g15
S'\x85m\xec\xca\x83\x15E@'
p3321
tp3322
Rp3323
sg109
g11
(g30
S'\x03\x00\x00\x00\x00\x00\x00\x00'
p3324
tp3325
Rp3326
sg113
g11
(g15
S'\xf4\x14\x81F\xec\x83\x08@'
p3327
tp3328
Rp3329
ssg46
g11
(g12
(S'S3'
p3330
I0
I1
tp3331
Rp3332
(I3
S'|'
p3333
NNNI3
I1
I0
tp3334
bS'PCA'
p3335
tp3336
Rp3337
sg55
F0.2
sg113
g3329
sg56
g11
(g12
(S'S8'
p3338
I0
I1
tp3339
Rp3340
(I3
S'|'
p3341
NNNI8
I1
I0
tp3342
bS'haralick'
p3343
tp3344
Rp3345
sg105
g3323
sg109
g3326
sg65
g11
(g15
S'\xd3\xe5u8\xb2t\xe0?'
p3346
tp3347
Rp3348
sg69
g11
(g12
(S'S3'
p3349
I0
I1
tp3350
Rp3351
(I3
S'|'
p3352
NNNI3
I1
I0
tp3353
bS'SVM'
p3354
tp3355
Rp3356
sg78
I3
sg79
g80
sg81
g11
(g15
S'\xef\x99\x17r[\x12\xe4?'
p3357
tp3358
Rp3359
sg85
g86
sg87
g88
sbag4
(g5
g6
Ntp3360
Rp3361
(dp3362
g10
g11
(g15
S'\x00\x00\x00\x00\x00\x00\xf8\xff'
p3363
tp3364
Rp3365
sg21
g11
(g15
S'\x00\x00\x00\x00\x00`i@'
p3366
tp3367
Rp3368
sg95
g201
sg25
g26
sg36
(dp3369
g21
g3368
sg42
g11
(g15
S'|\x8c\x1bRZN\xea?'
p3370
tp3371
Rp3372
sg95
g201
ssg46
g11
(g12
(S'S3'
p3373
I0
I1
tp3374
Rp3375
(I3
S'|'
p3376
NNNI3
I1
I0
tp3377
bS'PCA'
p3378
tp3379
Rp3380
sg55
F0.2
sg56
g11
(g12
(S'S3'
p3381
I0
I1
tp3382
Rp3383
(I3
S'|'
p3384
NNNI3
I1
I0
tp3385
bS'VGG'
p3386
tp3387
Rp3388
sg65
g11
(g15
S"\xeb\xd4'\x11OH\xda?"
p3389
tp3390
Rp3391
sg69
g11
(g12
(S'S2'
p3392
I0
I1
tp3393
Rp3394
(I3
S'|'
p3395
NNNI2
I1
I0
tp3396
bS'RF'
p3397
tp3398
Rp3399
sg78
I3
sg42
g3372
sg79
g80
sg81
g11
(g15
S'M"\xca\xa2kp\xea?'
p3400
tp3401
Rp3402
sg85
g86
sg87
g88
sbag4
(g5
g6
Ntp3403
Rp3404
(dp3405
g10
g11
(g15
S'\x00\x00\x00\x00\x00\x00\xf8\xff'
p3406
tp3407
Rp3408
sg27
g11
(g30
S'\x06\x00\x00\x00\x00\x00\x00\x00'
p3409
tp3410
Rp3411
sg25
g26
sg36
(dp3412
g27
g3411
sg105
g11
(g15
S'*>b\x84\x02\xbdT@'
p3413
tp3414
Rp3415
sg109
g11
(g30
S'\x02\x00\x00\x00\x00\x00\x00\x00'
p3416
tp3417
Rp3418
sg38
g11
(g30
S'\x02\x00\x00\x00\x00\x00\x00\x00'
p3419
tp3420
Rp3421
sg113
g11
(g15
S'b\xe2O\xc4\x0b\x88\xd9?'
p3422
tp3423
Rp3424
ssg113
g3424
sg46
g11
(g12
(S'S6'
p3425
I0
I1
tp3426
Rp3427
(I3
S'|'
p3428
NNNI6
I1
I0
tp3429
bS'ISOMAP'
p3430
tp3431
Rp3432
sg55
F0.2
sg38
g3421
sg56
g11
(g12
(S'S8'
p3433
I0
I1
tp3434
Rp3435
(I3
S'|'
p3436
NNNI8
I1
I0
tp3437
bS'haralick'
p3438
tp3439
Rp3440
sg105
g3415
sg109
g3418
sg65
g11
(g15
S'\xf4\xaf\xf7q\xb8\x1c\xde?'
p3441
tp3442
Rp3443
sg69
g11
(g12
(S'S3'
p3444
I0
I1
tp3445
Rp3446
(I3
S'|'
p3447
NNNI3
I1
I0
tp3448
bS'SVM'
p3449
tp3450
Rp3451
sg78
I3
sg79
g80
sg81
g11
(g15
S'\xe0\xfc\xbf\x88\x0bH\xe8?'
p3452
tp3453
Rp3454
sg85
g86
sg87
g88
sbag4
(g5
g6
Ntp3455
Rp3456
(dp3457
g10
g11
(g15
S'\x00\x00\x00\x00\x00\x00\xf8\xff'
p3458
tp3459
Rp3460
sg21
g11
(g15
S'\x00\x00\x00\x00\x00\x00D@'
p3461
tp3462
Rp3463
sg95
g201
sg25
g26
sg36
(dp3464
g21
g3463
sg42
g11
(g15
S'\xa8\xd9\x005*\x7f\xdb?'
p3465
tp3466
Rp3467
sg95
g201
sg109
g11
(g30
S'\x01\x00\x00\x00\x00\x00\x00\x00'
p3468
tp3469
Rp3470
ssg46
g11
(g12
(S'S3'
p3471
I0
I1
tp3472
Rp3473
(I3
S'|'
p3474
NNNI3
I1
I0
tp3475
bS'PCA'
p3476
tp3477
Rp3478
sg55
F0.2
sg56
g11
(g12
(S'S8'
p3479
I0
I1
tp3480
Rp3481
(I3
S'|'
p3482
NNNI8
I1
I0
tp3483
bS'haralick'
p3484
tp3485
Rp3486
sg109
g3470
sg65
g11
(g15
S'}3\x91\x94\x0c\xb8\x06@'
p3487
tp3488
Rp3489
sg69
g11
(g12
(S'S2'
p3490
I0
I1
tp3491
Rp3492
(I3
S'|'
p3493
NNNI2
I1
I0
tp3494
bS'RF'
p3495
tp3496
Rp3497
sg78
I3
sg42
g3467
sg79
g80
sg81
g11
(g15
S'\xbd\x81\x89\xea\xdai\xe7?'
p3498
tp3499
Rp3500
sg85
g86
sg87
g88
sbag4
(g5
g6
Ntp3501
Rp3502
(dp3503
g10
g11
(g15
S'\x00\x00\x00\x00\x00\x00\xf8\xff'
p3504
tp3505
Rp3506
sg21
g11
(g15
S'\x00\x00\x00\x00\x00@a@'
p3507
tp3508
Rp3509
sg25
g26
sg27
g11
(g30
S'\x03\x00\x00\x00\x00\x00\x00\x00'
p3510
tp3511
Rp3512
sg36
(dp3513
g21
g3509
sg27
g3512
sg109
g11
(g30
S'\x02\x00\x00\x00\x00\x00\x00\x00'
p3514
tp3515
Rp3516
sg38
g11
(g30
S'\x02\x00\x00\x00\x00\x00\x00\x00'
p3517
tp3518
Rp3519
sg42
g11
(g15
S'yxY\xab\xaf\xd4\xe6?'
p3520
tp3521
Rp3522
ssg46
g11
(g12
(S'S6'
p3523
I0
I1
tp3524
Rp3525
(I3
S'|'
p3526
NNNI6
I1
I0
tp3527
bS'ISOMAP'
p3528
tp3529
Rp3530
sg55
F0.2
sg38
g3519
sg56
g11
(g12
(S'S8'
p3531
I0
I1
tp3532
Rp3533
(I3
S'|'
p3534
NNNI8
I1
I0
tp3535
bS'haralick'
p3536
tp3537
Rp3538
sg109
g3516
sg65
g11
(g15
S'\xdb7\xe7wA\xfc\x05@'
p3539
tp3540
Rp3541
sg69
g11
(g12
(S'S2'
p3542
I0
I1
tp3543
Rp3544
(I3
S'|'
p3545
NNNI2
I1
I0
tp3546
bS'RF'
p3547
tp3548
Rp3549
sg78
I3
sg42
g3522
sg79
g80
sg81
g11
(g15
S'\x1fC*1\x02z\xe7?'
p3550
tp3551
Rp3552
sg85
g86
sg87
g88
sbag4
(g5
g6
Ntp3553
Rp3554
(dp3555
g10
g11
(g15
S'\x00\x00\x00\x00\x00\x00\xf8\xff'
p3556
tp3557
Rp3558
sg27
g11
(g30
S'\x06\x00\x00\x00\x00\x00\x00\x00'
p3559
tp3560
Rp3561
sg25
g26
sg36
(dp3562
g27
g3561
sg105
g11
(g15
S'\xf2\x98}\x97RnV@'
p3563
tp3564
Rp3565
sg38
g11
(g30
S'\x02\x00\x00\x00\x00\x00\x00\x00'
p3566
tp3567
Rp3568
sg113
g11
(g15
S'\xea\x98?t\x89:\x1c@'
p3569
tp3570
Rp3571
ssg113
g3571
sg46
g11
(g12
(S'S6'
p3572
I0
I1
tp3573
Rp3574
(I3
S'|'
p3575
NNNI6
I1
I0
tp3576
bS'ISOMAP'
p3577
tp3578
Rp3579
sg55
F0.2
sg38
g3568
sg56
g11
(g12
(S'S3'
p3580
I0
I1
tp3581
Rp3582
(I3
S'|'
p3583
NNNI3
I1
I0
tp3584
bS'VGG'
p3585
tp3586
Rp3587
sg105
g3565
sg65
g11
(g15
S'a\xed\xf4[\x86\xbf\xe3?'
p3588
tp3589
Rp3590
sg69
g11
(g12
(S'S3'
p3591
I0
I1
tp3592
Rp3593
(I3
S'|'
p3594
NNNI3
I1
I0
tp3595
bS'SVM'
p3596
tp3597
Rp3598
sg78
I3
sg79
g80
sg81
g11
(g15
S'\x95J\xc46\xfd\xf9\xe6?'
p3599
tp3600
Rp3601
sg85
g86
sg87
g88
sbag4
(g5
g6
Ntp3602
Rp3603
(dp3604
g10
g11
(g15
S'\x00\x00\x00\x00\x00\x00\xf8\xff'
p3605
tp3606
Rp3607
sg95
g201
sg25
g26
sg36
(dp3608
g95
g201
sg105
g11
(g15
S'S\xbc\x83\xca\x7f{I@'
p3609
tp3610
Rp3611
sg109
g11
(g30
S'\x01\x00\x00\x00\x00\x00\x00\x00'
p3612
tp3613
Rp3614
sg113
g11
(g15
S'\xae\xc5F\xa6]w\x19@'
p3615
tp3616
Rp3617
ssg46
g11
(g12
(S'S3'
p3618
I0
I1
tp3619
Rp3620
(I3
S'|'
p3621
NNNI3
I1
I0
tp3622
bS'PCA'
p3623
tp3624
Rp3625
sg55
F0.2
sg113
g3617
sg56
g11
(g12
(S'S8'
p3626
I0
I1
tp3627
Rp3628
(I3
S'|'
p3629
NNNI8
I1
I0
tp3630
bS'haralick'
p3631
tp3632
Rp3633
sg105
g3611
sg109
g3614
sg65
g11
(g15
S'c\x85U\x1b\xac<\xe0?'
p3634
tp3635
Rp3636
sg69
g11
(g12
(S'S3'
p3637
I0
I1
tp3638
Rp3639
(I3
S'|'
p3640
NNNI3
I1
I0
tp3641
bS'SVM'
p3642
tp3643
Rp3644
sg78
I3
sg79
g80
sg81
g11
(g15
S'\x17\x081\xf0\xf3/\xe5?'
p3645
tp3646
Rp3647
sg85
g86
sg87
g88
sbag4
(g5
g6
Ntp3648
Rp3649
(dp3650
g10
g11
(g15
S'\x00\x00\x00\x00\x00\x00\xf8\xff'
p3651
tp3652
Rp3653
sg27
g11
(g30
S'\x04\x00\x00\x00\x00\x00\x00\x00'
p3654
tp3655
Rp3656
sg25
g26
sg36
(dp3657
g27
g3656
sg105
g11
(g15
S'\xba@\xf6\xfe\xfbNO@'
p3658
tp3659
Rp3660
sg38
g11
(g30
S'\x04\x00\x00\x00\x00\x00\x00\x00'
p3661
tp3662
Rp3663
sg113
g11
(g15
S'\x1f\xfa\xb3\xe0\xb8~\x03@'
p3664
tp3665
Rp3666
ssg113
g3666
sg46
g11
(g12
(S'S6'
p3667
I0
I1
tp3668
Rp3669
(I3
S'|'
p3670
NNNI6
I1
I0
tp3671
bS'ISOMAP'
p3672
tp3673
Rp3674
sg55
F0.2
sg38
g3663
sg56
g11
(g12
(S'S9'
p3675
I0
I1
tp3676
Rp3677
(I3
S'|'
p3678
NNNI9
I1
I0
tp3679
bS'inception'
p3680
tp3681
Rp3682
sg105
g3660
sg65
g11
(g15
S'|\x16\xc9;~5\xe6?'
p3683
tp3684
Rp3685
sg69
g11
(g12
(S'S3'
p3686
I0
I1
tp3687
Rp3688
(I3
S'|'
p3689
NNNI3
I1
I0
tp3690
bS'SVM'
p3691
tp3692
Rp3693
sg78
I3
sg79
g80
sg81
g11
(g15
S'Y\r\xcf5\xf4Q\xe4?'
p3694
tp3695
Rp3696
sg85
g86
sg87
g88
sbag4
(g5
g6
Ntp3697
Rp3698
(dp3699
g10
g11
(g15
S'\x00\x00\x00\x00\x00\x00\xf8\xff'
p3700
tp3701
Rp3702
sg27
g11
(g30
S'\x07\x00\x00\x00\x00\x00\x00\x00'
p3703
tp3704
Rp3705
sg25
g26
sg36
(dp3706
g27
g3705
sg105
g11
(g15
S'\xc9\xbf\x1d\x92\xce\xa5X@'
p3707
tp3708
Rp3709
sg109
g11
(g30
S'\x03\x00\x00\x00\x00\x00\x00\x00'
p3710
tp3711
Rp3712
sg38
g11
(g30
S'\x02\x00\x00\x00\x00\x00\x00\x00'
p3713
tp3714
Rp3715
sg113
g11
(g15
S'\\E\xce\xdbY\x1d\x1f@'
p3716
tp3717
Rp3718
ssg113
g3718
sg46
g11
(g12
(S'S6'
p3719
I0
I1
tp3720
Rp3721
(I3
S'|'
p3722
NNNI6
I1
I0
tp3723
bS'ISOMAP'
p3724
tp3725
Rp3726
sg55
F0.2
sg38
g3715
sg56
g11
(g12
(S'S8'
p3727
I0
I1
tp3728
Rp3729
(I3
S'|'
p3730
NNNI8
I1
I0
tp3731
bS'haralick'
p3732
tp3733
Rp3734
sg105
g3709
sg109
g3712
sg65
g11
(g15
S'\xb8\x02P\x87*\xe5\xde?'
p3735
tp3736
Rp3737
sg69
g11
(g12
(S'S3'
p3738
I0
I1
tp3739
Rp3740
(I3
S'|'
p3741
NNNI3
I1
I0
tp3742
bS'SVM'
p3743
tp3744
Rp3745
sg78
I3
sg79
g80
sg81
g11
(g15
S'\xa4\x99t-\x89\x08\xe8?'
p3746
tp3747
Rp3748
sg85
g86
sg87
g88
sbag4
(g5
g6
Ntp3749
Rp3750
(dp3751
g10
g11
(g15
S'\x00\x00\x00\x00\x00\x00\xf8\xff'
p3752
tp3753
Rp3754
sg21
g11
(g15
S'\x00\x00\x00\x00\x00\x00D@'
p3755
tp3756
Rp3757
sg25
g26
sg27
g11
(g30
S'\x04\x00\x00\x00\x00\x00\x00\x00'
p3758
tp3759
Rp3760
sg36
(dp3761
g21
g3757
sg27
g3760
sg109
g11
(g30
S'\x01\x00\x00\x00\x00\x00\x00\x00'
p3762
tp3763
Rp3764
sg38
g11
(g30
S'\x03\x00\x00\x00\x00\x00\x00\x00'
p3765
tp3766
Rp3767
sg42
g11
(g15
S'\xea\xb8_[+\xd5\xee?'
p3768
tp3769
Rp3770
ssg46
g11
(g12
(S'S6'
p3771
I0
I1
tp3772
Rp3773
(I3
S'|'
p3774
NNNI6
I1
I0
tp3775
bS'ISOMAP'
p3776
tp3777
Rp3778
sg55
F0.2
sg38
g3767
sg56
g11
(g12
(S'S8'
p3779
I0
I1
tp3780
Rp3781
(I3
S'|'
p3782
NNNI8
I1
I0
tp3783
bS'haralick'
p3784
tp3785
Rp3786
sg109
g3764
sg65
g11
(g15
S'\xea\xfd$\xb1\x13Q\x03@'
p3787
tp3788
Rp3789
sg69
g11
(g12
(S'S2'
p3790
I0
I1
tp3791
Rp3792
(I3
S'|'
p3793
NNNI2
I1
I0
tp3794
bS'RF'
p3795
tp3796
Rp3797
sg78
I3
sg42
g3770
sg79
g80
sg81
g11
(g15
S'\xaf\x139\xdcGz\xe7?'
p3798
tp3799
Rp3800
sg85
g86
sg87
g88
sbag4
(g5
g6
Ntp3801
Rp3802
(dp3803
g10
g11
(g15
S'\x00\x00\x00\x00\x00\x00\xf8\xff'
p3804
tp3805
Rp3806
sg27
g11
(g30
S'\x04\x00\x00\x00\x00\x00\x00\x00'
p3807
tp3808
Rp3809
sg25
g26
sg36
(dp3810
g27
g3809
sg105
g11
(g15
S'\xe9k;\xf1\xb5\xb3\x1a@'
p3811
tp3812
Rp3813
sg38
g11
(g30
S'\x03\x00\x00\x00\x00\x00\x00\x00'
p3814
tp3815
Rp3816
sg113
g11
(g15
S'\xebM\xa2\x04\xc4\x9e\x13@'
p3817
tp3818
Rp3819
ssg113
g3819
sg46
g11
(g12
(S'S6'
p3820
I0
I1
tp3821
Rp3822
(I3
S'|'
p3823
NNNI6
I1
I0
tp3824
bS'ISOMAP'
p3825
tp3826
Rp3827
sg55
F0.2
sg38
g3816
sg56
g11
(g12
(S'S3'
p3828
I0
I1
tp3829
Rp3830
(I3
S'|'
p3831
NNNI3
I1
I0
tp3832
bS'VGG'
p3833
tp3834
Rp3835
sg105
g3813
sg65
g11
(g15
S'\xeb8\x86v\xc9N\xe0?'
p3836
tp3837
Rp3838
sg69
g11
(g12
(S'S3'
p3839
I0
I1
tp3840
Rp3841
(I3
S'|'
p3842
NNNI3
I1
I0
tp3843
bS'SVM'
p3844
tp3845
Rp3846
sg78
I3
sg79
g80
sg81
g11
(g15
S'\xa77\x0b\xe1|d\xe8?'
p3847
tp3848
Rp3849
sg85
g86
sg87
g88
sbag4
(g5
g6
Ntp3850
Rp3851
(dp3852
g10
g11
(g15
S'\x00\x00\x00\x00\x00\x00\xf8\xff'
p3853
tp3854
Rp3855
sg27
g11
(g30
S'\x07\x00\x00\x00\x00\x00\x00\x00'
p3856
tp3857
Rp3858
sg25
g26
sg36
(dp3859
g27
g3858
sg105
g11
(g15
S'+\xfeg\xc2\x85\x93R@'
p3860
tp3861
Rp3862
sg38
g11
(g30
S'\x03\x00\x00\x00\x00\x00\x00\x00'
p3863
tp3864
Rp3865
sg113
g11
(g15
S'\xae\x92j\x9a\xd0z\xd6?'
p3866
tp3867
Rp3868
ssg113
g3868
sg46
g11
(g12
(S'S6'
p3869
I0
I1
tp3870
Rp3871
(I3
S'|'
p3872
NNNI6
I1
I0
tp3873
bS'ISOMAP'
p3874
tp3875
Rp3876
sg55
F0.2
sg38
g3865
sg56
g11
(g12
(S'S3'
p3877
I0
I1
tp3878
Rp3879
(I3
S'|'
p3880
NNNI3
I1
I0
tp3881
bS'VGG'
p3882
tp3883
Rp3884
sg105
g3862
sg65
g11
(g15
S'%C\xbc\xb3\x92\x97\xe0?'
p3885
tp3886
Rp3887
sg69
g11
(g12
(S'S3'
p3888
I0
I1
tp3889
Rp3890
(I3
S'|'
p3891
NNNI3
I1
I0
tp3892
bS'SVM'
p3893
tp3894
Rp3895
sg78
I3
sg79
g80
sg81
g11
(g15
S'\xbb\xbf\x06\xbd]x\xe7?'
p3896
tp3897
Rp3898
sg85
g86
sg87
g88
sbag4
(g5
g6
Ntp3899
Rp3900
(dp3901
g10
g11
(g15
S'\x00\x00\x00\x00\x00\x00\xf8\xff'
p3902
tp3903
Rp3904
sg27
g11
(g30
S'\x04\x00\x00\x00\x00\x00\x00\x00'
p3905
tp3906
Rp3907
sg25
g26
sg36
(dp3908
g27
g3907
sg105
g11
(g15
S'N\x10\xce\x90`?<@'
p3909
tp3910
Rp3911
sg38
g11
(g30
S'\x03\x00\x00\x00\x00\x00\x00\x00'
p3912
tp3913
Rp3914
sg113
g11
(g15
S'\xc9\x95:\xc7\x9b)\x1c@'
p3915
tp3916
Rp3917
ssg113
g3917
sg46
g11
(g12
(S'S6'
p3918
I0
I1
tp3919
Rp3920
(I3
S'|'
p3921
NNNI6
I1
I0
tp3922
bS'ISOMAP'
p3923
tp3924
Rp3925
sg55
F0.2
sg38
g3914
sg56
g11
(g12
(S'S3'
p3926
I0
I1
tp3927
Rp3928
(I3
S'|'
p3929
NNNI3
I1
I0
tp3930
bS'VGG'
p3931
tp3932
Rp3933
sg105
g3911
sg65
g11
(g15
S'P\x88\xf35p}\xe1?'
p3934
tp3935
Rp3936
sg69
g11
(g12
(S'S3'
p3937
I0
I1
tp3938
Rp3939
(I3
S'|'
p3940
NNNI3
I1
I0
tp3941
bS'SVM'
p3942
tp3943
Rp3944
sg78
I3
sg79
g80
sg81
g11
(g15
S'+<\x90\xf7!\x95\xe8?'
p3945
tp3946
Rp3947
sg85
g86
sg87
g88
sbag4
(g5
g6
Ntp3948
Rp3949
(dp3950
g10
g11
(g15
S'\x00\x00\x00\x00\x00\x00\xf8\xff'
p3951
tp3952
Rp3953
sg21
g11
(g15
S'\x00\x00\x00\x00\x00\x00D@'
p3954
tp3955
Rp3956
sg25
g26
sg27
g11
(g30
S'\x03\x00\x00\x00\x00\x00\x00\x00'
p3957
tp3958
Rp3959
sg36
(dp3960
g21
g3956
sg27
g3959
sg38
g11
(g30
S'\x03\x00\x00\x00\x00\x00\x00\x00'
p3961
tp3962
Rp3963
sg42
g11
(g15
S'\xf8\xaa\x9d\xa8\xaaK\xe9?'
p3964
tp3965
Rp3966
ssg46
g11
(g12
(S'S6'
p3967
I0
I1
tp3968
Rp3969
(I3
S'|'
p3970
NNNI6
I1
I0
tp3971
bS'ISOMAP'
p3972
tp3973
Rp3974
sg55
F0.2
sg38
g3963
sg56
g11
(g12
(S'S3'
p3975
I0
I1
tp3976
Rp3977
(I3
S'|'
p3978
NNNI3
I1
I0
tp3979
bS'VGG'
p3980
tp3981
Rp3982
sg65
g11
(g15
S'e\xb5 C\xae\\\xf8?'
p3983
tp3984
Rp3985
sg69
g11
(g12
(S'S2'
p3986
I0
I1
tp3987
Rp3988
(I3
S'|'
p3989
NNNI2
I1
I0
tp3990
bS'RF'
p3991
tp3992
Rp3993
sg78
I3
sg42
g3966
sg79
g80
sg81
g11
(g15
S"\xf3\xe6\x0c'\xa3\x82\xe9?"
p3994
tp3995
Rp3996
sg85
g86
sg87
g88
sbag4
(g5
g6
Ntp3997
Rp3998
(dp3999
g10
g11
(g15
S'\x00\x00\x00\x00\x00\x00\xf8\xff'
p4000
tp4001
Rp4002
sg27
g11
(g30
S'\x06\x00\x00\x00\x00\x00\x00\x00'
p4003
tp4004
Rp4005
sg25
g26
sg36
(dp4006
g27
g4005
sg105
g11
(g15
S'`,\x9b\xe0\x02G<@'
p4007
tp4008
Rp4009
sg109
g11
(g30
S'\x01\x00\x00\x00\x00\x00\x00\x00'
p4010
tp4011
Rp4012
sg38
g11
(g30
S'\x03\x00\x00\x00\x00\x00\x00\x00'
p4013
tp4014
Rp4015
sg113
g11
(g15
S'\xed\xbf;y1\x83\x18@'
p4016
tp4017
Rp4018
ssg113
g4018
sg46
g11
(g12
(S'S6'
p4019
I0
I1
tp4020
Rp4021
(I3
S'|'
p4022
NNNI6
I1
I0
tp4023
bS'ISOMAP'
p4024
tp4025
Rp4026
sg55
F0.2
sg38
g4015
sg56
g11
(g12
(S'S8'
p4027
I0
I1
tp4028
Rp4029
(I3
S'|'
p4030
NNNI8
I1
I0
tp4031
bS'haralick'
p4032
tp4033
Rp4034
sg105
g4009
sg109
g4012
sg65
g11
(g15
S'\x81\x15\xb5VJ\xc6\xe1?'
p4035
tp4036
Rp4037
sg69
g11
(g12
(S'S3'
p4038
I0
I1
tp4039
Rp4040
(I3
S'|'
p4041
NNNI3
I1
I0
tp4042
bS'SVM'
p4043
tp4044
Rp4045
sg78
I3
sg79
g80
sg81
g11
(g15
S'%x}\x06w?\xe5?'
p4046
tp4047
Rp4048
sg85
g86
sg87
g88
sbag4
(g5
g6
Ntp4049
Rp4050
(dp4051
g10
g11
(g15
S'\x00\x00\x00\x00\x00\x00\xf8\xff'
p4052
tp4053
Rp4054
sg27
g11
(g30
S'\x05\x00\x00\x00\x00\x00\x00\x00'
p4055
tp4056
Rp4057
sg25
g26
sg36
(dp4058
g27
g4057
sg105
g11
(g15
S'\xfc\xb2\xf1\xc3\xf7<B@'
p4059
tp4060
Rp4061
sg38
g11
(g30
S'\x03\x00\x00\x00\x00\x00\x00\x00'
p4062
tp4063
Rp4064
sg113
g11
(g15
S'\x98zV\rd\xd2\xa6?'
p4065
tp4066
Rp4067
ssg113
g4067
sg46
g11
(g12
(S'S6'
p4068
I0
I1
tp4069
Rp4070
(I3
S'|'
p4071
NNNI6
I1
I0
tp4072
bS'ISOMAP'
p4073
tp4074
Rp4075
sg55
F0.2
sg38
g4064
sg56
g11
(g12
(S'S9'
p4076
I0
I1
tp4077
Rp4078
(I3
S'|'
p4079
NNNI9
I1
I0
tp4080
bS'inception'
p4081
tp4082
Rp4083
sg105
g4061
sg65
g11
(g15
S'\x0c]\x08\xb3\x8dA\xe5?'
p4084
tp4085
Rp4086
sg69
g11
(g12
(S'S3'
p4087
I0
I1
tp4088
Rp4089
(I3
S'|'
p4090
NNNI3
I1
I0
tp4091
bS'SVM'
p4092
tp4093
Rp4094
sg78
I3
sg79
g80
sg81
g11
(g15
S'i\xf4\x01\x9c\xdaU\xe3?'
p4095
tp4096
Rp4097
sg85
g86
sg87
g88
sbag4
(g5
g6
Ntp4098
Rp4099
(dp4100
g10
g11
(g15
S'\x00\x00\x00\x00\x00\x00\xf8\xff'
p4101
tp4102
Rp4103
sg27
g11
(g30
S'\x07\x00\x00\x00\x00\x00\x00\x00'
p4104
tp4105
Rp4106
sg25
g26
sg36
(dp4107
g27
g4106
sg105
g11
(g15
S'\xa2\xf7w\x91\x8a\x81T@'
p4108
tp4109
Rp4110
sg109
g11
(g30
S'\x03\x00\x00\x00\x00\x00\x00\x00'
p4111
tp4112
Rp4113
sg38
g11
(g30
S'\x04\x00\x00\x00\x00\x00\x00\x00'
p4114
tp4115
Rp4116
sg113
g11
(g15
S'z\xbb\xa8|6\x17\x01@'
p4117
tp4118
Rp4119
ssg113
g4119
sg46
g11
(g12
(S'S6'
p4120
I0
I1
tp4121
Rp4122
(I3
S'|'
p4123
NNNI6
I1
I0
tp4124
bS'ISOMAP'
p4125
tp4126
Rp4127
sg55
F0.2
sg38
g4116
sg56
g11
(g12
(S'S8'
p4128
I0
I1
tp4129
Rp4130
(I3
S'|'
p4131
NNNI8
I1
I0
tp4132
bS'haralick'
p4133
tp4134
Rp4135
sg105
g4110
sg109
g4113
sg65
g11
(g15
S'P4\x82Het\xdf?'
p4136
tp4137
Rp4138
sg69
g11
(g12
(S'S3'
p4139
I0
I1
tp4140
Rp4141
(I3
S'|'
p4142
NNNI3
I1
I0
tp4143
bS'SVM'
p4144
tp4145
Rp4146
sg78
I3
sg79
g80
sg81
g11
(g15
S'|\xafG_\xb5\xb5\xe8?'
p4147
tp4148
Rp4149
sg85
g86
sg87
g88
sbag4
(g5
g6
Ntp4150
Rp4151
(dp4152
g10
g11
(g15
S'\x00\x00\x00\x00\x00\x00\xf8\xff'
p4153
tp4154
Rp4155
sg27
g11
(g30
S'\x03\x00\x00\x00\x00\x00\x00\x00'
p4156
tp4157
Rp4158
sg25
g26
sg36
(dp4159
g27
g4158
sg105
g11
(g15
S"\xbc\x1e\xe0\xe3)\x8d'@"
p4160
tp4161
Rp4162
sg38
g11
(g30
S'\x03\x00\x00\x00\x00\x00\x00\x00'
p4163
tp4164
Rp4165
sg113
g11
(g15
S'\x0f\x9a\xc3\xed\xe6\xb8\x0e@'
p4166
tp4167
Rp4168
ssg113
g4168
sg46
g11
(g12
(S'S6'
p4169
I0
I1
tp4170
Rp4171
(I3
S'|'
p4172
NNNI6
I1
I0
tp4173
bS'ISOMAP'
p4174
tp4175
Rp4176
sg55
F0.2
sg38
g4165
sg56
g11
(g12
(S'S9'
p4177
I0
I1
tp4178
Rp4179
(I3
S'|'
p4180
NNNI9
I1
I0
tp4181
bS'inception'
p4182
tp4183
Rp4184
sg105
g4162
sg65
g11
(g15
S'\xf0\xe9"\x1e\x00\xa4\xe7?'
p4185
tp4186
Rp4187
sg69
g11
(g12
(S'S3'
p4188
I0
I1
tp4189
Rp4190
(I3
S'|'
p4191
NNNI3
I1
I0
tp4192
bS'SVM'
p4193
tp4194
Rp4195
sg78
I3
sg79
g80
sg81
g11
(g15
S'=K\xd8\x1c\xfd\x03\xe3?'
p4196
tp4197
Rp4198
sg85
g86
sg87
g88
sbag4
(g5
g6
Ntp4199
Rp4200
(dp4201
g10
g11
(g15
S'\x00\x00\x00\x00\x00\x00\xf8\xff'
p4202
tp4203
Rp4204
sg21
g11
(g15
S'\x00\x00\x00\x00\x00\x00 @'
p4205
tp4206
Rp4207
sg25
g26
sg27
g11
(g30
S'\x05\x00\x00\x00\x00\x00\x00\x00'
p4208
tp4209
Rp4210
sg36
(dp4211
g21
g4207
sg27
g4210
sg38
g11
(g30
S'\x02\x00\x00\x00\x00\x00\x00\x00'
p4212
tp4213
Rp4214
sg42
g11
(g15
S'X\xb2#b\x92\xe0\xdd?'
p4215
tp4216
Rp4217
ssg46
g11
(g12
(S'S6'
p4218
I0
I1
tp4219
Rp4220
(I3
S'|'
p4221
NNNI6
I1
I0
tp4222
bS'ISOMAP'
p4223
tp4224
Rp4225
sg55
F0.2
sg38
g4214
sg56
g11
(g12
(S'S9'
p4226
I0
I1
tp4227
Rp4228
(I3
S'|'
p4229
NNNI9
I1
I0
tp4230
bS'inception'
p4231
tp4232
Rp4233
sg65
g11
(g15
S'\xe5\x95\xbf"\x0bu\x07@'
p4234
tp4235
Rp4236
sg69
g11
(g12
(S'S2'
p4237
I0
I1
tp4238
Rp4239
(I3
S'|'
p4240
NNNI2
I1
I0
tp4241
bS'RF'
p4242
tp4243
Rp4244
sg78
I3
sg42
g4217
sg79
g80
sg81
g11
(g15
S')\x86E\x91zl\xe6?'
p4245
tp4246
Rp4247
sg85
g86
sg87
g88
sbag4
(g5
g6
Ntp4248
Rp4249
(dp4250
g10
g11
(g15
S'\x00\x00\x00\x00\x00\x00\xf8\xff'
p4251
tp4252
Rp4253
sg21
g11
(g15
S'\x00\x00\x00\x00\x00\xc0r@'
p4254
tp4255
Rp4256
sg25
g26
sg27
g11
(g30
S'\x06\x00\x00\x00\x00\x00\x00\x00'
p4257
tp4258
Rp4259
sg36
(dp4260
g21
g4256
sg27
g4259
sg38
g11
(g30
S'\x02\x00\x00\x00\x00\x00\x00\x00'
p4261
tp4262
Rp4263
sg42
g11
(g15
S'\x93\x85\xdd\xdaC\xb7\xe6?'
p4264
tp4265
Rp4266
ssg46
g11
(g12
(S'S6'
p4267
I0
I1
tp4268
Rp4269
(I3
S'|'
p4270
NNNI6
I1
I0
tp4271
bS'ISOMAP'
p4272
tp4273
Rp4274
sg55
F0.2
sg38
g4263
sg56
g11
(g12
(S'S9'
p4275
I0
I1
tp4276
Rp4277
(I3
S'|'
p4278
NNNI9
I1
I0
tp4279
bS'inception'
p4280
tp4281
Rp4282
sg65
g11
(g15
S'q\xd3\x12\x81\xe0\x11\xf1?'
p4283
tp4284
Rp4285
sg69
g11
(g12
(S'S2'
p4286
I0
I1
tp4287
Rp4288
(I3
S'|'
p4289
NNNI2
I1
I0
tp4290
bS'RF'
p4291
tp4292
Rp4293
sg78
I3
sg42
g4266
sg79
g80
sg81
g11
(g15
S'\xa15\xef\xac\xc3=\xe6?'
p4294
tp4295
Rp4296
sg85
g86
sg87
g88
sbag4
(g5
g6
Ntp4297
Rp4298
(dp4299
g10
g11
(g15
S'\x00\x00\x00\x00\x00\x00\xf8\xff'
p4300
tp4301
Rp4302
sg27
g11
(g30
S'\x04\x00\x00\x00\x00\x00\x00\x00'
p4303
tp4304
Rp4305
sg25
g26
sg36
(dp4306
g27
g4305
sg105
g11
(g15
S'\xc2\x98\xc8CT\xccD@'
p4307
tp4308
Rp4309
sg38
g11
(g30
S'\x02\x00\x00\x00\x00\x00\x00\x00'
p4310
tp4311
Rp4312
sg113
g11
(g15
S'K`\xefE\xf1\xd2\x1b@'
p4313
tp4314
Rp4315
ssg113
g4315
sg46
g11
(g12
(S'S6'
p4316
I0
I1
tp4317
Rp4318
(I3
S'|'
p4319
NNNI6
I1
I0
tp4320
bS'ISOMAP'
p4321
tp4322
Rp4323
sg55
F0.2
sg38
g4312
sg56
g11
(g12
(S'S9'
p4324
I0
I1
tp4325
Rp4326
(I3
S'|'
p4327
NNNI9
I1
I0
tp4328
bS'inception'
p4329
tp4330
Rp4331
sg105
g4309
sg65
g11
(g15
S'\xb0\xc3\x0e(\xd4P\xe7?'
p4332
tp4333
Rp4334
sg69
g11
(g12
(S'S3'
p4335
I0
I1
tp4336
Rp4337
(I3
S'|'
p4338
NNNI3
I1
I0
tp4339
bS'SVM'
p4340
tp4341
Rp4342
sg78
I3
sg79
g80
sg81
g11
(g15
S'\xd5\x97\x1b\x0ef\xd3\xe3?'
p4343
tp4344
Rp4345
sg85
g86
sg87
g88
sbag4
(g5
g6
Ntp4346
Rp4347
(dp4348
g10
g11
(g15
S'\x00\x00\x00\x00\x00\x00\xf8\xff'
p4349
tp4350
Rp4351
sg21
g11
(g15
S'\x00\x00\x00\x00\x00@R@'
p4352
tp4353
Rp4354
sg25
g26
sg27
g11
(g30
S'\x06\x00\x00\x00\x00\x00\x00\x00'
p4355
tp4356
Rp4357
sg36
(dp4358
g21
g4354
sg27
g4357
sg38
g11
(g30
S'\x02\x00\x00\x00\x00\x00\x00\x00'
p4359
tp4360
Rp4361
sg42
g11
(g15
S'xK\xd8\xcdu\xe5\xe9?'
p4362
tp4363
Rp4364
ssg46
g11
(g12
(S'S6'
p4365
I0
I1
tp4366
Rp4367
(I3
S'|'
p4368
NNNI6
I1
I0
tp4369
bS'ISOMAP'
p4370
tp4371
Rp4372
sg55
F0.2
sg38
g4361
sg56
g11
(g12
(S'S9'
p4373
I0
I1
tp4374
Rp4375
(I3
S'|'
p4376
NNNI9
I1
I0
tp4377
bS'inception'
p4378
tp4379
Rp4380
sg65
g11
(g15
S'\xdcp\xd7R;\x89\xf4?'
p4381
tp4382
Rp4383
sg69
g11
(g12
(S'S2'
p4384
I0
I1
tp4385
Rp4386
(I3
S'|'
p4387
NNNI2
I1
I0
tp4388
bS'RF'
p4389
tp4390
Rp4391
sg78
I3
sg42
g4364
sg79
g80
sg81
g11
(g15
S'@uLj\x94=\xe6?'
p4392
tp4393
Rp4394
sg85
g86
sg87
g88
sbag4
(g5
g6
Ntp4395
Rp4396
(dp4397
g10
g11
(g15
S'\x00\x00\x00\x00\x00\x00\xf8\xff'
p4398
tp4399
Rp4400
sg95
g201
sg25
g26
sg36
(dp4401
g95
g201
sg105
g11
(g15
S'\xfd\x18\xa2>\xb7PR@'
p4402
tp4403
Rp4404
sg113
g11
(g15
S'\xb0+LF\x80\x99\xe3?'
p4405
tp4406
Rp4407
ssg46
g11
(g12
(S'S3'
p4408
I0
I1
tp4409
Rp4410
(I3
S'|'
p4411
NNNI3
I1
I0
tp4412
bS'PCA'
p4413
tp4414
Rp4415
sg55
F0.2
sg113
g4407
sg56
g11
(g12
(S'S3'
p4416
I0
I1
tp4417
Rp4418
(I3
S'|'
p4419
NNNI3
I1
I0
tp4420
bS'VGG'
p4421
tp4422
Rp4423
sg105
g4404
sg65
g11
(g15
S'\xf5\xc8\xe2\x9fH\x9c\xdf?'
p4424
tp4425
Rp4426
sg69
g11
(g12
(S'S3'
p4427
I0
I1
tp4428
Rp4429
(I3
S'|'
p4430
NNNI3
I1
I0
tp4431
bS'SVM'
p4432
tp4433
Rp4434
sg78
I3
sg79
g80
sg81
g11
(g15
S'\x15\nR\x11\x03\x1f\xea?'
p4435
tp4436
Rp4437
sg85
g86
sg87
g88
sbag4
(g5
g6
Ntp4438
Rp4439
(dp4440
g10
g11
(g15
S'\x00\x00\x00\x00\x00\x00\xf8\xff'
p4441
tp4442
Rp4443
sg21
g11
(g15
S'\x00\x00\x00\x00\x00\x00 @'
p4444
tp4445
Rp4446
sg25
g26
sg27
g11
(g30
S'\x05\x00\x00\x00\x00\x00\x00\x00'
p4447
tp4448
Rp4449
sg36
(dp4450
g21
g4446
sg27
g4449
sg109
g11
(g30
S'\x02\x00\x00\x00\x00\x00\x00\x00'
p4451
tp4452
Rp4453
sg38
g11
(g30
S'\x03\x00\x00\x00\x00\x00\x00\x00'
p4454
tp4455
Rp4456
sg42
g11
(g15
S',!\x04\x06\x99\xac\xeb?'
p4457
tp4458
Rp4459
ssg46
g11
(g12
(S'S6'
p4460
I0
I1
tp4461
Rp4462
(I3
S'|'
p4463
NNNI6
I1
I0
tp4464
bS'ISOMAP'
p4465
tp4466
Rp4467
sg55
F0.2
sg38
g4456
sg56
g11
(g12
(S'S8'
p4468
I0
I1
tp4469
Rp4470
(I3
S'|'
p4471
NNNI8
I1
I0
tp4472
bS'haralick'
p4473
tp4474
Rp4475
sg109
g4453
sg65
g11
(g15
S'\x13\xd8\x86\x06\xa5\x9b\x04@'
p4476
tp4477
Rp4478
sg69
g11
(g12
(S'S2'
p4479
I0
I1
tp4480
Rp4481
(I3
S'|'
p4482
NNNI2
I1
I0
tp4483
bS'RF'
p4484
tp4485
Rp4486
sg78
I3
sg42
g4459
sg79
g80
sg81
g11
(g15
S'\x10\xd0W\x9e\x0bx\xe8?'
p4487
tp4488
Rp4489
sg85
g86
sg87
g88
sbag4
(g5
g6
Ntp4490
Rp4491
(dp4492
g10
g11
(g15
S'\x00\x00\x00\x00\x00\x00\xf8\xff'
p4493
tp4494
Rp4495
sg95
g201
sg25
g26
sg36
(dp4496
g95
g201
sg105
g11
(g15
S'\xb8N{\x03\x99\x87E@'
p4497
tp4498
Rp4499
sg113
g11
(g15
S'\\\x1e\xf3\xc8\x8e\x9f\x05@'
p4500
tp4501
Rp4502
ssg46
g11
(g12
(S'S3'
p4503
I0
I1
tp4504
Rp4505
(I3
S'|'
p4506
NNNI3
I1
I0
tp4507
bS'PCA'
p4508
tp4509
Rp4510
sg55
F0.2
sg113
g4502
sg56
g11
(g12
(S'S3'
p4511
I0
I1
tp4512
Rp4513
(I3
S'|'
p4514
NNNI3
I1
I0
tp4515
bS'VGG'
p4516
tp4517
Rp4518
sg105
g4499
sg65
g11
(g15
S'L\\\xb1\xdc\xca-\xe3?'
p4519
tp4520
Rp4521
sg69
g11
(g12
(S'S3'
p4522
I0
I1
tp4523
Rp4524
(I3
S'|'
p4525
NNNI3
I1
I0
tp4526
bS'SVM'
p4527
tp4528
Rp4529
sg78
I3
sg79
g80
sg81
g11
(g15
S'\x13=\x1a\x10\xa0H\xe7?'
p4530
tp4531
Rp4532
sg85
g86
sg87
g88
sbag4
(g5
g6
Ntp4533
Rp4534
(dp4535
g10
g11
(g15
S'\x00\x00\x00\x00\x00\x00\xf8\xff'
p4536
tp4537
Rp4538
sg21
g11
(g15
S'\x00\x00\x00\x00\x00@e@'
p4539
tp4540
Rp4541
sg95
g103
sg25
g26
sg36
(dp4542
g21
g4541
sg42
g11
(g15
S'$\xf0<G\x02\x0b\xe6?'
p4543
tp4544
Rp4545
sg95
g103
ssg46
g11
(g12
(S'S3'
p4546
I0
I1
tp4547
Rp4548
(I3
S'|'
p4549
NNNI3
I1
I0
tp4550
bS'PCA'
p4551
tp4552
Rp4553
sg55
F0.2
sg56
g11
(g12
(S'S3'
p4554
I0
I1
tp4555
Rp4556
(I3
S'|'
p4557
NNNI3
I1
I0
tp4558
bS'VGG'
p4559
tp4560
Rp4561
sg65
g11
(g15
S'\xed\xc4\xab\xff\xd57\xda?'
p4562
tp4563
Rp4564
sg69
g11
(g12
(S'S2'
p4565
I0
I1
tp4566
Rp4567
(I3
S'|'
p4568
NNNI2
I1
I0
tp4569
bS'RF'
p4570
tp4571
Rp4572
sg78
I3
sg42
g4545
sg79
g80
sg81
g11
(g15
S'+\xc1z\xab\xdeo\xea?'
p4573
tp4574
Rp4575
sg85
g86
sg87
g88
sbag4
(g5
g6
Ntp4576
Rp4577
(dp4578
g10
g11
(g15
S'\x00\x00\x00\x00\x00\x00\xf8\xff'
p4579
tp4580
Rp4581
sg27
g11
(g30
S'\x03\x00\x00\x00\x00\x00\x00\x00'
p4582
tp4583
Rp4584
sg25
g26
sg36
(dp4585
g27
g4584
sg105
g11
(g15
S'\xf3\x01*\x8e7\xc28@'
p4586
tp4587
Rp4588
sg38
g11
(g30
S'\x02\x00\x00\x00\x00\x00\x00\x00'
p4589
tp4590
Rp4591
sg113
g11
(g15
S'vT\x11\xb5\xd3\xaf\x18@'
p4592
tp4593
Rp4594
ssg113
g4594
sg46
g11
(g12
(S'S6'
p4595
I0
I1
tp4596
Rp4597
(I3
S'|'
p4598
NNNI6
I1
I0
tp4599
bS'ISOMAP'
p4600
tp4601
Rp4602
sg55
F0.2
sg38
g4591
sg56
g11
(g12
(S'S3'
p4603
I0
I1
tp4604
Rp4605
(I3
S'|'
p4606
NNNI3
I1
I0
tp4607
bS'VGG'
p4608
tp4609
Rp4610
sg105
g4588
sg65
g11
(g15
S'\x06~\x0b\x9e\xbd\xb4\xe1?'
p4611
tp4612
Rp4613
sg69
g11
(g12
(S'S3'
p4614
I0
I1
tp4615
Rp4616
(I3
S'|'
p4617
NNNI3
I1
I0
tp4618
bS'SVM'
p4619
tp4620
Rp4621
sg78
I3
sg79
g80
sg81
g11
(g15
S'# \xc9\xf5\x1aJ\xe7?'
p4622
tp4623
Rp4624
sg85
g86
sg87
g88
sbag4
(g5
g6
Ntp4625
Rp4626
(dp4627
g10
g11
(g15
S'\x00\x00\x00\x00\x00\x00\xf8\xff'
p4628
tp4629
Rp4630
sg21
g11
(g15
S'\x00\x00\x00\x00\x00\xc0p@'
p4631
tp4632
Rp4633
sg95
g201
sg25
g26
sg36
(dp4634
g21
g4633
sg42
g11
(g15
S'k\x8c\x1b\x81$\xce\xd5?'
p4635
tp4636
Rp4637
sg95
g201
ssg46
g11
(g12
(S'S3'
p4638
I0
I1
tp4639
Rp4640
(I3
S'|'
p4641
NNNI3
I1
I0
tp4642
bS'PCA'
p4643
tp4644
Rp4645
sg55
F0.2
sg56
g11
(g12
(S'S3'
p4646
I0
I1
tp4647
Rp4648
(I3
S'|'
p4649
NNNI3
I1
I0
tp4650
bS'VGG'
p4651
tp4652
Rp4653
sg65
g11
(g15
S'\xcc\xd6\x9a]R\xa8\xda?'
p4654
tp4655
Rp4656
sg69
g11
(g12
(S'S2'
p4657
I0
I1
tp4658
Rp4659
(I3
S'|'
p4660
NNNI2
I1
I0
tp4661
bS'RF'
p4662
tp4663
Rp4664
sg78
I3
sg42
g4637
sg79
g80
sg81
g11
(g15
S'\xd5s\x1e\x8b\x1a\xaf\xea?'
p4665
tp4666
Rp4667
sg85
g86
sg87
g88
sbag4
(g5
g6
Ntp4668
Rp4669
(dp4670
g10
g11
(g15
S'\x00\x00\x00\x00\x00\x00\xf8\xff'
p4671
tp4672
Rp4673
sg95
g103
sg25
g26
sg36
(dp4674
g95
g103
sg105
g11
(g15
S'\x88\xa3i\x8c\x91\xc7U@'
p4675
tp4676
Rp4677
sg113
g11
(g15
S'\xa6 \xdb,N\x8e\x18@'
p4678
tp4679
Rp4680
ssg46
g11
(g12
(S'S3'
p4681
I0
I1
tp4682
Rp4683
(I3
S'|'
p4684
NNNI3
I1
I0
tp4685
bS'PCA'
p4686
tp4687
Rp4688
sg55
F0.2
sg113
g4680
sg56
g11
(g12
(S'S9'
p4689
I0
I1
tp4690
Rp4691
(I3
S'|'
p4692
NNNI9
I1
I0
tp4693
bS'inception'
p4694
tp4695
Rp4696
sg105
g4677
sg65
g11
(g15
S'\x7f\x07J\xbc\xd9\xc0\xe3?'
p4697
tp4698
Rp4699
sg69
g11
(g12
(S'S3'
p4700
I0
I1
tp4701
Rp4702
(I3
S'|'
p4703
NNNI3
I1
I0
tp4704
bS'SVM'
p4705
tp4706
Rp4707
sg78
I3
sg79
g80
sg81
g11
(g15
S'\x1c\x17.k\xef]\xe5?'
p4708
tp4709
Rp4710
sg85
g86
sg87
g88
sbasS'error_curve'
p4711
(lp4712
g68
ag68
ag135
ag135
ag178
ag178
ag178
ag178
ag178
ag178
ag178
ag178
ag178
ag178
ag178
ag178
ag178
ag178
ag178
ag178
ag178
ag178
ag178
ag178
ag178
ag178
ag178
ag178
ag178
ag178
ag178
ag178
ag178
ag178
ag178
ag178
ag178
ag178
ag178
ag178
ag178
ag178
ag178
ag178
ag224
ag224
ag224
ag224
ag224
ag224
ag224
ag224
ag224
ag224
ag224
ag224
ag224
ag224
ag224
ag224
ag224
ag224
ag224
ag224
ag224
ag224
ag224
ag224
ag224
ag224
ag224
ag224
ag224
ag224
ag224
ag224
ag224
ag224
ag224
ag224
ag224
ag224
ag224
ag224
ag224
ag224
ag224
ag224
ag224
ag224
ag224
ag224
ag224
ag224
ag224
ag224
ag224
asS'iters'
p4713
I51
sg25
g26
sS'results_loc'
p4714
S'/gpfs/u/home/CGHI/CGHIarch/barn/EP_project/results/'
p4715
sS'times'
p4716
(lp4717
F2.670719861984253
aF16.305055856704712
aF28.830464839935303
aF29.77682399749756
aF32.172812938690186
aF34.83181595802307
aF35.16901993751526
aF49.05043697357178
aF63.32116484642029
aF63.550442934036255
aF65.21572279930115
aF66.37913990020752
aF68.1734619140625
aF68.47257685661316
aF70.219477891922
aF71.62784099578857
aF84.8000648021698
aF85.7088189125061
aF86.06150579452515
aF88.44100284576416
aF90.13418793678284
aF103.3717999458313
aF117.28592777252197
aF117.52949500083923
aF118.79201889038086
aF131.46268892288208
aF145.24409580230713
aF158.1717050075531
aF170.92419981956482
aF174.1942229270935
aF174.7258038520813
aF191.01437282562256
aF191.54615187644958
aF192.78403878211975
aF193.99917483329773
aF212.21511888504028
aF225.17194485664368
aF238.72546577453613
aF252.0099778175354
aF252.35517477989197
aF253.27873492240906
aF265.9675748348236
aF278.94936084747314
aF279.30684900283813
aF280.4244689941406
aF281.5554897785187
aF295.8838348388672
aF309.0813958644867
aF309.4261918067932
aF323.7553699016571
aF336.591588973999
aF337.67932891845703
aF350.48543095588684
aF350.83592987060547
aF351.1358959674835
aF364.14873790740967
aF365.1782729625702
aF366.33046984672546
aF366.6295177936554
aF381.9687969684601
aF382.474102973938
aF383.81456899642944
aF397.70342898368835
aF398.86927485466003
aF399.3864469528198
aF402.4992640018463
aF403.0163869857788
aF406.46331882476807
aF419.60369300842285
aF421.66667199134827
aF434.46408200263977
aF447.24126291275024
aF460.98640489578247
aF462.24678087234497
aF474.77055382728577
aF475.65753698349
aF488.6334698200226
aF501.4553768634796
aF502.6436879634857
aF503.8993318080902
aF505.1243178844452
aF506.49802589416504
aF519.1335849761963
aF520.0404679775238
aF532.9251887798309
aF533.7758569717407
aF534.6754758358002
aF537.8572428226471
aF538.738912820816
aF540.161878824234
aF540.4283998012543
aF553.1337578296661
aF553.4431250095367
aF555.0930287837982
aF556.2221179008484
aF558.536673784256
aF558.8377628326416
asS'data_loc'
p4718
g88
sS'run'
p4719
I3
sg85
S'random_MCMC'
p4720
sb.