(iprototypes.random_based_mcmc1
random_MCMC
p0
(dp1
S'best_pipelines'
p2
(lp3
ccopy_reg
_reconstructor
p4
(cprototypes.data_analytic_pipeline
image_classification_pipeline
p5
c__builtin__
object
p6
Ntp7
Rp8
(dp9
S'f1_score'
p10
cnumpy.core.multiarray
scalar
p11
(cnumpy
dtype
p12
(S'f8'
p13
I0
I1
tp14
Rp15
(I3
S'<'
p16
NNNI-1
I-1
I0
tp17
bS'\x00\x00\x00\x00\x00\x00\xf8\xff'
p18
tp19
Rp20
sS'n_estimators'
p21
g11
(g15
S'\x00\x00\x00\x00\x00@a@'
p22
tp23
Rp24
sS'data_name'
p25
S'matsc_dataset1'
p26
sS'n_neighbors'
p27
g11
(g12
(S'i8'
p28
I0
I1
tp29
Rp30
(I3
S'<'
p31
NNNI-1
I-1
I0
tp32
bS'\x04\x00\x00\x00\x00\x00\x00\x00'
p33
tp34
Rp35
sS'kwargs'
p36
(dp37
g21
g24
sg27
g35
sS'n_components'
p38
g11
(g30
S'\x03\x00\x00\x00\x00\x00\x00\x00'
p39
tp40
Rp41
sS'max_features'
p42
g11
(g15
S'Y\x01\x10\x12\xc0\x1a\xe9?'
p43
tp44
Rp45
ssS'dimensionality_reduction'
p46
g11
(g12
(S'S6'
p47
I0
I1
tp48
Rp49
(I3
S'|'
p50
NNNI6
I1
I0
tp51
bS'ISOMAP'
p52
tp53
Rp54
sS'test_size'
p55
F0.2
sg38
g41
sS'feature_extraction'
p56
g11
(g12
(S'S9'
p57
I0
I1
tp58
Rp59
(I3
S'|'
p60
NNNI9
I1
I0
tp61
bS'inception'
p62
tp63
Rp64
sS'result'
p65
g11
(g15
S"'\xa3\x83H[ \xf1?"
p66
tp67
Rp68
sS'learning_algorithm'
p69
g11
(g12
(S'S2'
p70
I0
I1
tp71
Rp72
(I3
S'|'
p73
NNNI2
I1
I0
tp74
bS'RF'
p75
tp76
Rp77
sS'val_splits'
p78
I3
sg42
g45
sS'ml_type'
p79
S'validation'
p80
sS'accuracy'
p81
g11
(g15
S'\x97i\xc3\x0fw\xa8\xe5?'
p82
tp83
Rp84
sS'type1'
p85
S'random1'
p86
sS'data_location'
p87
S'/gpfs/u/home/CGHI/CGHIarch/barn/EP_project/data/'
p88
sbag4
(g5
g6
Ntp89
Rp90
(dp91
g10
g11
(g15
S'\x00\x00\x00\x00\x00\x00\xf8\xff'
p92
tp93
Rp94
sS'pca_whiten'
p95
g11
(g12
(S'b1'
p96
I0
I1
tp97
Rp98
(I3
S'|'
p99
NNNI-1
I-1
I0
tp100
bS'\x00'
p101
tp102
Rp103
sg25
g26
sg36
(dp104
g95
g103
sS'svm_C'
p105
g11
(g15
S'\xce\xf6\x1d\x85uDT@'
p106
tp107
Rp108
sS'svm_gamma'
p109
g11
(g15
S'\xf6\xa3\x15\x1e\xc9(\x18@'
p110
tp111
Rp112
ssg46
g11
(g12
(S'S3'
p113
I0
I1
tp114
Rp115
(I3
S'|'
p116
NNNI3
I1
I0
tp117
bS'PCA'
p118
tp119
Rp120
sg55
F0.2
sg109
g112
sg56
g11
(g12
(S'S3'
p121
I0
I1
tp122
Rp123
(I3
S'|'
p124
NNNI3
I1
I0
tp125
bS'VGG'
p126
tp127
Rp128
sg105
g108
sg65
g11
(g15
S'\x0c\x96\xa8\xe4\x1b\x03\xd9?'
p129
tp130
Rp131
sg69
g11
(g12
(S'S3'
p132
I0
I1
tp133
Rp134
(I3
S'|'
p135
NNNI3
I1
I0
tp136
bS'SVM'
p137
tp138
Rp139
sg78
I3
sg79
g80
sg81
g11
(g15
S'\xcd\x84\x14\xf53\xb6\xe9?'
p140
tp141
Rp142
sg85
g86
sg87
g88
sbag4
(g5
g6
Ntp143
Rp144
(dp145
g10
g11
(g15
S'\x00\x00\x00\x00\x00\x00\xf8\xff'
p146
tp147
Rp148
sg27
g11
(g30
S'\x05\x00\x00\x00\x00\x00\x00\x00'
p149
tp150
Rp151
sg25
g26
sg36
(dp152
g27
g151
sg105
g11
(g15
S'j\x877A\xc5qP@'
p153
tp154
Rp155
sg38
g11
(g30
S'\x04\x00\x00\x00\x00\x00\x00\x00'
p156
tp157
Rp158
sg109
g11
(g15
S'\x9c\x91d(\x81\t\x13@'
p159
tp160
Rp161
ssg109
g161
sg46
g11
(g12
(S'S6'
p162
I0
I1
tp163
Rp164
(I3
S'|'
p165
NNNI6
I1
I0
tp166
bS'ISOMAP'
p167
tp168
Rp169
sg55
F0.2
sg38
g158
sg56
g11
(g12
(S'S3'
p170
I0
I1
tp171
Rp172
(I3
S'|'
p173
NNNI3
I1
I0
tp174
bS'VGG'
p175
tp176
Rp177
sg105
g155
sg65
g11
(g15
S'\x80\t\x86\xa8\x16\xf4\xd8?'
p178
tp179
Rp180
sg69
g11
(g12
(S'S3'
p181
I0
I1
tp182
Rp183
(I3
S'|'
p184
NNNI3
I1
I0
tp185
bS'SVM'
p186
tp187
Rp188
sg78
I3
sg79
g80
sg81
g11
(g15
S'x\xd1 \x82\xbfD\xea?'
p189
tp190
Rp191
sg85
g86
sg87
g88
sbag4
(g5
g6
Ntp192
Rp193
(dp194
g10
g11
(g15
S'\x00\x00\x00\x00\x00\x00\xf8\xff'
p195
tp196
Rp197
sg21
g11
(g15
S'\x00\x00\x00\x00\x00`m@'
p198
tp199
Rp200
sg95
g11
(g98
S'\x01'
p201
tp202
Rp203
sg25
g26
sg36
(dp204
g21
g200
sg42
g11
(g15
S'\xcc\x85\xf0U\xc1\xcf\xea?'
p205
tp206
Rp207
sg95
g203
ssg46
g11
(g12
(S'S3'
p208
I0
I1
tp209
Rp210
(I3
S'|'
p211
NNNI3
I1
I0
tp212
bS'PCA'
p213
tp214
Rp215
sg55
F0.2
sg56
g11
(g12
(S'S3'
p216
I0
I1
tp217
Rp218
(I3
S'|'
p219
NNNI3
I1
I0
tp220
bS'VGG'
p221
tp222
Rp223
sg65
g11
(g15
S'hw\xfa\x82\xd1Z\xd3?'
p224
tp225
Rp226
sg69
g11
(g12
(S'S2'
p227
I0
I1
tp228
Rp229
(I3
S'|'
p230
NNNI2
I1
I0
tp231
bS'RF'
p232
tp233
Rp234
sg78
I3
sg42
g207
sg79
g80
sg81
g11
(g15
S'<\xf1\x86[\xb2\x04\xec?'
p235
tp236
Rp237
sg85
g86
sg87
g88
sbag4
(g5
g6
Ntp238
Rp239
(dp240
g10
g11
(g15
S'\x00\x00\x00\x00\x00\x00\xf8\xff'
p241
tp242
Rp243
sg21
g11
(g15
S'\x00\x00\x00\x00\x00`m@'
p244
tp245
Rp246
sg95
g203
sg25
g26
sg36
(dp247
g21
g246
sg42
g11
(g15
S'4_B\xabp\xa4\xd8?'
p248
tp249
Rp250
sg95
g203
ssg46
g11
(g12
(S'S3'
p251
I0
I1
tp252
Rp253
(I3
S'|'
p254
NNNI3
I1
I0
tp255
bS'PCA'
p256
tp257
Rp258
sg55
F0.2
sg56
g11
(g12
(S'S3'
p259
I0
I1
tp260
Rp261
(I3
S'|'
p262
NNNI3
I1
I0
tp263
bS'VGG'
p264
tp265
Rp266
sg65
g11
(g15
S'A\xf0=\xf7kK\xd2?'
p267
tp268
Rp269
sg69
g11
(g12
(S'S2'
p270
I0
I1
tp271
Rp272
(I3
S'|'
p273
NNNI2
I1
I0
tp274
bS'RF'
p275
tp276
Rp277
sg78
I3
sg42
g250
sg79
g80
sg81
g11
(g15
S'\xf0Z\x86/\xdd\x81\xec?'
p278
tp279
Rp280
sg85
g86
sg87
g88
sbasS'paths'
p281
(lp282
(lp283
S'VGG'
p284
aS'PCA'
p285
aS'SVM'
p286
aa(lp287
g284
ag285
aS'RF'
p288
aa(lp289
g284
aS'ISOMAP'
p290
ag286
aa(lp291
g284
ag290
ag288
aa(lp292
S'haralick'
p293
ag285
ag286
aa(lp294
g293
ag285
ag288
aa(lp295
g293
ag290
ag286
aa(lp296
g293
ag290
ag288
aa(lp297
S'inception'
p298
ag285
ag286
aa(lp299
g298
ag285
ag288
aa(lp300
g298
ag290
ag286
aa(lp301
g298
ag290
ag288
aasS'pipeline'
p302
(dp303
g27
(lp304
I3
aI4
aI5
aI6
aI7
asg95
(lp305
I01
aI00
asg21
cnumpy.core.multiarray
_reconstruct
p306
(cnumpy
ndarray
p307
(I0
tp308
S'b'
p309
tp310
Rp311
(I1
(I10
tp312
g15
I00
S'\x00\x00\x00\x00\x00\x00 @\x00\x00\x00\x00\x00\x00D@\x00\x00\x00\x00\x00@R@\x00\x00\x00\x00\x00@Z@\x00\x00\x00\x00\x00@a@\x00\x00\x00\x00\x00@e@\x00\x00\x00\x00\x00`i@\x00\x00\x00\x00\x00`m@\x00\x00\x00\x00\x00\xc0p@\x00\x00\x00\x00\x00\xc0r@'
p313
tp314
bsg46
(lp315
g285
ag290
asg109
g306
(g307
(I0
tp316
g309
tp317
Rp318
(I1
(I10
tp319
g15
I00
S"{\x14\xaeG\xe1z\x84?\x102Tv\x98\xba\xec?\xe7\xd5\xc4\xb3\xa2\x91\xfc?b\xc9/\x96\xfcb\x05@\xd2'}\xd2'}\x0c@!Ce\x87\xa9\xcb\x11@X\xf2\x8b%\xbfX\x15@\x90\xa1\xb2\xc3\xd4\xe5\x18@\xc8P\xd9a\xear\x1c@\x00\x00\x00\x00\x00\x00 @"
p320
tp321
bsg56
(lp322
g284
ag293
ag298
asS'haralick_distance'
p323
(lp324
I1
aI2
aI3
asg38
(lp325
I2
aI3
aI4
asg69
(lp326
g286
ag288
asg42
g306
(g307
(I0
tp327
g309
tp328
Rp329
(I1
(I5
tp330
g15
I00
S'333333\xd3?\x9a\x99\x99\x99\x99\x99\xd9?\x00\x00\x00\x00\x00\x00\xe0?433333\xe3?hfffff\xe6?'
p331
tp332
bsg105
g306
(g307
(I0
tp333
g309
tp334
Rp335
(I1
(I10
tp336
g15
I00
S'\x9a\x99\x99\x99\x99\x99\xb9?gfffff&@\xce\xcc\xcc\xcc\xccL6@43333\xb3@@\x01\x00\x00\x00\x00@F@\xce\xcc\xcc\xcc\xcc\xccK@\xcd\xcc\xcc\xcc\xcc\xacP@43333sS@\x9a\x99\x99\x99\x999V@\x00\x00\x00\x00\x00\x00Y@'
p337
tp338
bssS'pipelines'
p339
(lp340
g8
ag90
ag144
ag4
(g5
g6
Ntp341
Rp342
(dp343
g10
g11
(g15
S'\x00\x00\x00\x00\x00\x00\xf8\xff'
p344
tp345
Rp346
sg21
g11
(g15
S'\x00\x00\x00\x00\x00`i@'
p347
tp348
Rp349
sg25
g26
sg27
g11
(g30
S'\x05\x00\x00\x00\x00\x00\x00\x00'
p350
tp351
Rp352
sg36
(dp353
g21
g349
sg27
g352
sg323
g11
(g30
S'\x02\x00\x00\x00\x00\x00\x00\x00'
p354
tp355
Rp356
sg38
g11
(g30
S'\x03\x00\x00\x00\x00\x00\x00\x00'
p357
tp358
Rp359
sg42
g11
(g15
S'\xeeL\xd7\x12y\x03\xe3?'
p360
tp361
Rp362
ssg46
g11
(g12
(S'S6'
p363
I0
I1
tp364
Rp365
(I3
S'|'
p366
NNNI6
I1
I0
tp367
bS'ISOMAP'
p368
tp369
Rp370
sg55
F0.2
sg38
g359
sg56
g11
(g12
(S'S8'
p371
I0
I1
tp372
Rp373
(I3
S'|'
p374
NNNI8
I1
I0
tp375
bS'haralick'
p376
tp377
Rp378
sg323
g356
sg65
g11
(g15
S'\xe3\xd5;\xf3`h\xec?'
p379
tp380
Rp381
sg69
g11
(g12
(S'S2'
p382
I0
I1
tp383
Rp384
(I3
S'|'
p385
NNNI2
I1
I0
tp386
bS'RF'
p387
tp388
Rp389
sg78
I3
sg42
g362
sg79
g80
sg81
g11
(g15
S'\x08\x10\xfe!\xdai\xea?'
p390
tp391
Rp392
sg85
g86
sg87
g88
sbag4
(g5
g6
Ntp393
Rp394
(dp395
g10
g11
(g15
S'\x00\x00\x00\x00\x00\x00\xf8\xff'
p396
tp397
Rp398
sg27
g11
(g30
S'\x03\x00\x00\x00\x00\x00\x00\x00'
p399
tp400
Rp401
sg25
g26
sg36
(dp402
g27
g401
sg105
g11
(g15
S'_\xa9\x90\xb8\xbe\xf7H@'
p403
tp404
Rp405
sg323
g11
(g30
S'\x02\x00\x00\x00\x00\x00\x00\x00'
p406
tp407
Rp408
sg38
g11
(g30
S'\x03\x00\x00\x00\x00\x00\x00\x00'
p409
tp410
Rp411
sg109
g11
(g15
S'\xca\xa6 \x96\xdct\x01@'
p412
tp413
Rp414
ssg109
g414
sg46
g11
(g12
(S'S6'
p415
I0
I1
tp416
Rp417
(I3
S'|'
p418
NNNI6
I1
I0
tp419
bS'ISOMAP'
p420
tp421
Rp422
sg55
F0.2
sg38
g411
sg56
g11
(g12
(S'S8'
p423
I0
I1
tp424
Rp425
(I3
S'|'
p426
NNNI8
I1
I0
tp427
bS'haralick'
p428
tp429
Rp430
sg105
g405
sg323
g408
sg65
g11
(g15
S'\x01\xa6\xc0\xb3\xe6\x11\xe2?'
p431
tp432
Rp433
sg69
g11
(g12
(S'S3'
p434
I0
I1
tp435
Rp436
(I3
S'|'
p437
NNNI3
I1
I0
tp438
bS'SVM'
p439
tp440
Rp441
sg78
I3
sg79
g80
sg81
g11
(g15
S'|C\xb5\xd1\x98\n\xeb?'
p442
tp443
Rp444
sg85
g86
sg87
g88
sbag4
(g5
g6
Ntp445
Rp446
(dp447
g10
g11
(g15
S'\x00\x00\x00\x00\x00\x00\xf8\xff'
p448
tp449
Rp450
sg21
g11
(g15
S'\x00\x00\x00\x00\x00`m@'
p451
tp452
Rp453
sg95
g203
sg25
g26
sg36
(dp454
g21
g453
sg42
g11
(g15
S'\x1fEX\xe7]\x10\xd6?'
p455
tp456
Rp457
sg95
g203
ssg46
g11
(g12
(S'S3'
p458
I0
I1
tp459
Rp460
(I3
S'|'
p461
NNNI3
I1
I0
tp462
bS'PCA'
p463
tp464
Rp465
sg55
F0.2
sg56
g11
(g12
(S'S9'
p466
I0
I1
tp467
Rp468
(I3
S'|'
p469
NNNI9
I1
I0
tp470
bS'inception'
p471
tp472
Rp473
sg65
g11
(g15
S'g\xe3G\xf8\x9a\xe0\xe2?'
p474
tp475
Rp476
sg69
g11
(g12
(S'S2'
p477
I0
I1
tp478
Rp479
(I3
S'|'
p480
NNNI2
I1
I0
tp481
bS'RF'
p482
tp483
Rp484
sg78
I3
sg42
g457
sg79
g80
sg81
g11
(g15
S'\x9b~\xb7E)b\xe8?'
p485
tp486
Rp487
sg85
g86
sg87
g88
sbag4
(g5
g6
Ntp488
Rp489
(dp490
g10
g11
(g15
S'\x00\x00\x00\x00\x00\x00\xf8\xff'
p491
tp492
Rp493
sg27
g11
(g30
S'\x03\x00\x00\x00\x00\x00\x00\x00'
p494
tp495
Rp496
sg25
g26
sg36
(dp497
g27
g496
sg105
g11
(g15
S'w\x10\x936+qP@'
p498
tp499
Rp500
sg38
g11
(g30
S'\x02\x00\x00\x00\x00\x00\x00\x00'
p501
tp502
Rp503
sg109
g11
(g15
S'\xbf\xc07|\xba\xf3\x00@'
p504
tp505
Rp506
ssg109
g506
sg46
g11
(g12
(S'S6'
p507
I0
I1
tp508
Rp509
(I3
S'|'
p510
NNNI6
I1
I0
tp511
bS'ISOMAP'
p512
tp513
Rp514
sg55
F0.2
sg38
g503
sg56
g11
(g12
(S'S9'
p515
I0
I1
tp516
Rp517
(I3
S'|'
p518
NNNI9
I1
I0
tp519
bS'inception'
p520
tp521
Rp522
sg105
g500
sg65
g11
(g15
S'/2\x10\x02\xe4\xac\xe0?'
p523
tp524
Rp525
sg69
g11
(g12
(S'S3'
p526
I0
I1
tp527
Rp528
(I3
S'|'
p529
NNNI3
I1
I0
tp530
bS'SVM'
p531
tp532
Rp533
sg78
I3
sg79
g80
sg81
g11
(g15
S'}\x9c]\xdb\xdf\xd6\xe0?'
p534
tp535
Rp536
sg85
g86
sg87
g88
sbag4
(g5
g6
Ntp537
Rp538
(dp539
g10
g11
(g15
S'\x00\x00\x00\x00\x00\x00\xf8\xff'
p540
tp541
Rp542
sg21
g11
(g15
S'\x00\x00\x00\x00\x00@e@'
p543
tp544
Rp545
sg25
g26
sg27
g11
(g30
S'\x07\x00\x00\x00\x00\x00\x00\x00'
p546
tp547
Rp548
sg36
(dp549
g21
g545
sg27
g548
sg323
g11
(g30
S'\x01\x00\x00\x00\x00\x00\x00\x00'
p550
tp551
Rp552
sg38
g11
(g30
S'\x03\x00\x00\x00\x00\x00\x00\x00'
p553
tp554
Rp555
sg42
g11
(g15
S'J\xd8~\x1dX0\xd5?'
p556
tp557
Rp558
ssg46
g11
(g12
(S'S6'
p559
I0
I1
tp560
Rp561
(I3
S'|'
p562
NNNI6
I1
I0
tp563
bS'ISOMAP'
p564
tp565
Rp566
sg55
F0.2
sg38
g555
sg56
g11
(g12
(S'S8'
p567
I0
I1
tp568
Rp569
(I3
S'|'
p570
NNNI8
I1
I0
tp571
bS'haralick'
p572
tp573
Rp574
sg323
g552
sg65
g11
(g15
S'\xcf\x16\x0f}\xc4%\xe9?'
p575
tp576
Rp577
sg69
g11
(g12
(S'S2'
p578
I0
I1
tp579
Rp580
(I3
S'|'
p581
NNNI2
I1
I0
tp582
bS'RF'
p583
tp584
Rp585
sg78
I3
sg42
g558
sg79
g80
sg81
g11
(g15
S'3}\xe7\x12\xbci\xea?'
p586
tp587
Rp588
sg85
g86
sg87
g88
sbag4
(g5
g6
Ntp589
Rp590
(dp591
g10
g11
(g15
S'\x00\x00\x00\x00\x00\x00\xf8\xff'
p592
tp593
Rp594
sg95
g203
sg25
g26
sg36
(dp595
g95
g203
sg105
g11
(g15
S' \xf3\x0b1\x90D;@'
p596
tp597
Rp598
sg323
g11
(g30
S'\x01\x00\x00\x00\x00\x00\x00\x00'
p599
tp600
Rp601
sg109
g11
(g15
S'?y\xc9\xf3\xff\xfe\x12@'
p602
tp603
Rp604
ssg46
g11
(g12
(S'S3'
p605
I0
I1
tp606
Rp607
(I3
S'|'
p608
NNNI3
I1
I0
tp609
bS'PCA'
p610
tp611
Rp612
sg55
F0.2
sg109
g604
sg56
g11
(g12
(S'S8'
p613
I0
I1
tp614
Rp615
(I3
S'|'
p616
NNNI8
I1
I0
tp617
bS'haralick'
p618
tp619
Rp620
sg105
g598
sg323
g601
sg65
g11
(g15
S'\xe1\xb3j\x19\n\xde\xdb?'
p621
tp622
Rp623
sg69
g11
(g12
(S'S3'
p624
I0
I1
tp625
Rp626
(I3
S'|'
p627
NNNI3
I1
I0
tp628
bS'SVM'
p629
tp630
Rp631
sg78
I3
sg79
g80
sg81
g11
(g15
S'\xf0\x02\xdc)\x8e\xc5\xe6?'
p632
tp633
Rp634
sg85
g86
sg87
g88
sbag4
(g5
g6
Ntp635
Rp636
(dp637
g10
g11
(g15
S'\x00\x00\x00\x00\x00\x00\xf8\xff'
p638
tp639
Rp640
sg21
g11
(g15
S'\x00\x00\x00\x00\x00@Z@'
p641
tp642
Rp643
sg95
g103
sg25
g26
sg36
(dp644
g21
g643
sg42
g11
(g15
S'p5"\xe0"\xda\xe3?'
p645
tp646
Rp647
sg95
g103
sg323
g11
(g30
S'\x03\x00\x00\x00\x00\x00\x00\x00'
p648
tp649
Rp650
ssg46
g11
(g12
(S'S3'
p651
I0
I1
tp652
Rp653
(I3
S'|'
p654
NNNI3
I1
I0
tp655
bS'PCA'
p656
tp657
Rp658
sg55
F0.2
sg56
g11
(g12
(S'S8'
p659
I0
I1
tp660
Rp661
(I3
S'|'
p662
NNNI8
I1
I0
tp663
bS'haralick'
p664
tp665
Rp666
sg323
g650
sg65
g11
(g15
S'[B\xbf\r\x9e\xac\xe6?'
p667
tp668
Rp669
sg69
g11
(g12
(S'S2'
p670
I0
I1
tp671
Rp672
(I3
S'|'
p673
NNNI2
I1
I0
tp674
bS'RF'
p675
tp676
Rp677
sg78
I3
sg42
g647
sg79
g80
sg81
g11
(g15
S'\xf3*\xb9\x9c\xd5c\xeb?'
p678
tp679
Rp680
sg85
g86
sg87
g88
sbag4
(g5
g6
Ntp681
Rp682
(dp683
g10
g11
(g15
S'\x00\x00\x00\x00\x00\x00\xf8\xff'
p684
tp685
Rp686
sg21
g11
(g15
S'\x00\x00\x00\x00\x00`i@'
p687
tp688
Rp689
sg95
g103
sg25
g26
sg36
(dp690
g21
g689
sg42
g11
(g15
S'\nvD~\x00\xf1\xda?'
p691
tp692
Rp693
sg95
g103
ssg46
g11
(g12
(S'S3'
p694
I0
I1
tp695
Rp696
(I3
S'|'
p697
NNNI3
I1
I0
tp698
bS'PCA'
p699
tp700
Rp701
sg55
F0.2
sg56
g11
(g12
(S'S9'
p702
I0
I1
tp703
Rp704
(I3
S'|'
p705
NNNI9
I1
I0
tp706
bS'inception'
p707
tp708
Rp709
sg65
g11
(g15
S'%\xe3\xd7\xfaL\xcd\xe0?'
p710
tp711
Rp712
sg69
g11
(g12
(S'S2'
p713
I0
I1
tp714
Rp715
(I3
S'|'
p716
NNNI2
I1
I0
tp717
bS'RF'
p718
tp719
Rp720
sg78
I3
sg42
g693
sg79
g80
sg81
g11
(g15
S'\xaf\x93\xc9]5\x86\xe8?'
p721
tp722
Rp723
sg85
g86
sg87
g88
sbag4
(g5
g6
Ntp724
Rp725
(dp726
g10
g11
(g15
S'\x00\x00\x00\x00\x00\x00\xf8\xff'
p727
tp728
Rp729
sg21
g11
(g15
S'\x00\x00\x00\x00\x00@Z@'
p730
tp731
Rp732
sg95
g103
sg25
g26
sg36
(dp733
g21
g732
sg42
g11
(g15
S'6IX\x04\xc7G\xd9?'
p734
tp735
Rp736
sg95
g103
sg323
g11
(g30
S'\x03\x00\x00\x00\x00\x00\x00\x00'
p737
tp738
Rp739
ssg46
g11
(g12
(S'S3'
p740
I0
I1
tp741
Rp742
(I3
S'|'
p743
NNNI3
I1
I0
tp744
bS'PCA'
p745
tp746
Rp747
sg55
F0.2
sg56
g11
(g12
(S'S8'
p748
I0
I1
tp749
Rp750
(I3
S'|'
p751
NNNI8
I1
I0
tp752
bS'haralick'
p753
tp754
Rp755
sg323
g739
sg65
g11
(g15
S'_\x16\x11L\xc1\t\xeb?'
p756
tp757
Rp758
sg69
g11
(g12
(S'S2'
p759
I0
I1
tp760
Rp761
(I3
S'|'
p762
NNNI2
I1
I0
tp763
bS'RF'
p764
tp765
Rp766
sg78
I3
sg42
g736
sg79
g80
sg81
g11
(g15
S'\xe7~M\xb0\xeau\xeb?'
p767
tp768
Rp769
sg85
g86
sg87
g88
sbag4
(g5
g6
Ntp770
Rp771
(dp772
g10
g11
(g15
S'\x00\x00\x00\x00\x00\x00\xf8\xff'
p773
tp774
Rp775
sg27
g11
(g30
S'\x04\x00\x00\x00\x00\x00\x00\x00'
p776
tp777
Rp778
sg25
g26
sg36
(dp779
g27
g778
sg105
g11
(g15
S'\x85v\x80\x12\x1a\xb2M@'
p780
tp781
Rp782
sg38
g11
(g30
S'\x03\x00\x00\x00\x00\x00\x00\x00'
p783
tp784
Rp785
sg109
g11
(g15
S'\xe2en\x82u\t\x13@'
p786
tp787
Rp788
ssg109
g788
sg46
g11
(g12
(S'S6'
p789
I0
I1
tp790
Rp791
(I3
S'|'
p792
NNNI6
I1
I0
tp793
bS'ISOMAP'
p794
tp795
Rp796
sg55
F0.2
sg38
g785
sg56
g11
(g12
(S'S3'
p797
I0
I1
tp798
Rp799
(I3
S'|'
p800
NNNI3
I1
I0
tp801
bS'VGG'
p802
tp803
Rp804
sg105
g782
sg65
g11
(g15
S'\x10\xady(\xee3\xdc?'
p805
tp806
Rp807
sg69
g11
(g12
(S'S3'
p808
I0
I1
tp809
Rp810
(I3
S'|'
p811
NNNI3
I1
I0
tp812
bS'SVM'
p813
tp814
Rp815
sg78
I3
sg79
g80
sg81
g11
(g15
S'\xcd\x84\x14\xf53\xb6\xe9?'
p816
tp817
Rp818
sg85
g86
sg87
g88
sbag4
(g5
g6
Ntp819
Rp820
(dp821
g10
g11
(g15
S'\x00\x00\x00\x00\x00\x00\xf8\xff'
p822
tp823
Rp824
sg21
g11
(g15
S'\x00\x00\x00\x00\x00`i@'
p825
tp826
Rp827
sg95
g103
sg25
g26
sg36
(dp828
g21
g827
sg42
g11
(g15
S'By\x83S\x91\xd4\xe2?'
p829
tp830
Rp831
sg95
g103
sg323
g11
(g30
S'\x03\x00\x00\x00\x00\x00\x00\x00'
p832
tp833
Rp834
ssg46
g11
(g12
(S'S3'
p835
I0
I1
tp836
Rp837
(I3
S'|'
p838
NNNI3
I1
I0
tp839
bS'PCA'
p840
tp841
Rp842
sg55
F0.2
sg56
g11
(g12
(S'S8'
p843
I0
I1
tp844
Rp845
(I3
S'|'
p846
NNNI8
I1
I0
tp847
bS'haralick'
p848
tp849
Rp850
sg323
g834
sg65
g11
(g15
S'\x838\xc1\xa3\xc9\xfa\xe8?'
p851
tp852
Rp853
sg69
g11
(g12
(S'S2'
p854
I0
I1
tp855
Rp856
(I3
S'|'
p857
NNNI2
I1
I0
tp858
bS'RF'
p859
tp860
Rp861
sg78
I3
sg42
g831
sg79
g80
sg81
g11
(g15
S'\xe7~M\xb0\xeau\xeb?'
p862
tp863
Rp864
sg85
g86
sg87
g88
sbag4
(g5
g6
Ntp865
Rp866
(dp867
g10
g11
(g15
S'\x00\x00\x00\x00\x00\x00\xf8\xff'
p868
tp869
Rp870
sg27
g11
(g30
S'\x05\x00\x00\x00\x00\x00\x00\x00'
p871
tp872
Rp873
sg25
g26
sg36
(dp874
g27
g873
sg105
g11
(g15
S'9\x07\x15\x18Q\x80D@'
p875
tp876
Rp877
sg323
g11
(g30
S'\x03\x00\x00\x00\x00\x00\x00\x00'
p878
tp879
Rp880
sg38
g11
(g30
S'\x03\x00\x00\x00\x00\x00\x00\x00'
p881
tp882
Rp883
sg109
g11
(g15
S'x\x98\xd3\x8b\xc3q\n@'
p884
tp885
Rp886
ssg109
g886
sg46
g11
(g12
(S'S6'
p887
I0
I1
tp888
Rp889
(I3
S'|'
p890
NNNI6
I1
I0
tp891
bS'ISOMAP'
p892
tp893
Rp894
sg55
F0.2
sg38
g883
sg56
g11
(g12
(S'S8'
p895
I0
I1
tp896
Rp897
(I3
S'|'
p898
NNNI8
I1
I0
tp899
bS'haralick'
p900
tp901
Rp902
sg105
g877
sg323
g880
sg65
g11
(g15
S'3\xc07d\xee\xa5\xdd?'
p903
tp904
Rp905
sg69
g11
(g12
(S'S3'
p906
I0
I1
tp907
Rp908
(I3
S'|'
p909
NNNI3
I1
I0
tp910
bS'SVM'
p911
tp912
Rp913
sg78
I3
sg79
g80
sg81
g11
(g15
S'\x89\x0b\x07\x10\xfe!\xea?'
p914
tp915
Rp916
sg85
g86
sg87
g88
sbag4
(g5
g6
Ntp917
Rp918
(dp919
g10
g11
(g15
S'\x00\x00\x00\x00\x00\x00\xf8\xff'
p920
tp921
Rp922
sg95
g103
sg25
g26
sg36
(dp923
g95
g103
sg105
g11
(g15
S'\xa7}0\xc4\x90\x8bV@'
p924
tp925
Rp926
sg109
g11
(g15
S'g\x1d\xe4F\x83\xb1\xd6?'
p927
tp928
Rp929
ssg46
g11
(g12
(S'S3'
p930
I0
I1
tp931
Rp932
(I3
S'|'
p933
NNNI3
I1
I0
tp934
bS'PCA'
p935
tp936
Rp937
sg55
F0.2
sg109
g929
sg56
g11
(g12
(S'S9'
p938
I0
I1
tp939
Rp940
(I3
S'|'
p941
NNNI9
I1
I0
tp942
bS'inception'
p943
tp944
Rp945
sg105
g926
sg65
g11
(g15
S'\x03\xe8\n\x87z\xaf\xe0?'
p946
tp947
Rp948
sg69
g11
(g12
(S'S3'
p949
I0
I1
tp950
Rp951
(I3
S'|'
p952
NNNI3
I1
I0
tp953
bS'SVM'
p954
tp955
Rp956
sg78
I3
sg79
g80
sg81
g11
(g15
S'\xb1\xad\xb3\xa7\xbf\x8f\xe3?'
p957
tp958
Rp959
sg85
g86
sg87
g88
sbag4
(g5
g6
Ntp960
Rp961
(dp962
g10
g11
(g15
S'\x00\x00\x00\x00\x00\x00\xf8\xff'
p963
tp964
Rp965
sg95
g103
sg25
g26
sg36
(dp966
g95
g103
sg105
g11
(g15
S'\xeb\x0f\xa7\xa8\xed\xf9P@'
p967
tp968
Rp969
sg109
g11
(g15
S'8\xb9\x16\xaa\xd0h\x16@'
p970
tp971
Rp972
ssg46
g11
(g12
(S'S3'
p973
I0
I1
tp974
Rp975
(I3
S'|'
p976
NNNI3
I1
I0
tp977
bS'PCA'
p978
tp979
Rp980
sg55
F0.2
sg109
g972
sg56
g11
(g12
(S'S3'
p981
I0
I1
tp982
Rp983
(I3
S'|'
p984
NNNI3
I1
I0
tp985
bS'VGG'
p986
tp987
Rp988
sg105
g969
sg65
g11
(g15
S'MC\xf0\x8a\t&\xd9?'
p989
tp990
Rp991
sg69
g11
(g12
(S'S3'
p992
I0
I1
tp993
Rp994
(I3
S'|'
p995
NNNI3
I1
I0
tp996
bS'SVM'
p997
tp998
Rp999
sg78
I3
sg79
g80
sg81
g11
(g15
S'\xcd\x84\x14\xf53\xb6\xe9?'
p1000
tp1001
Rp1002
sg85
g86
sg87
g88
sbag4
(g5
g6
Ntp1003
Rp1004
(dp1005
g10
g11
(g15
S'\x00\x00\x00\x00\x00\x00\xf8\xff'
p1006
tp1007
Rp1008
sg27
g11
(g30
S'\x05\x00\x00\x00\x00\x00\x00\x00'
p1009
tp1010
Rp1011
sg25
g26
sg36
(dp1012
g27
g1011
sg105
g11
(g15
S'\xe9\xce(\xd6\x95\xedP@'
p1013
tp1014
Rp1015
sg38
g11
(g30
S'\x02\x00\x00\x00\x00\x00\x00\x00'
p1016
tp1017
Rp1018
sg109
g11
(g15
S'(\x81MI\x97}\n@'
p1019
tp1020
Rp1021
ssg109
g1021
sg46
g11
(g12
(S'S6'
p1022
I0
I1
tp1023
Rp1024
(I3
S'|'
p1025
NNNI6
I1
I0
tp1026
bS'ISOMAP'
p1027
tp1028
Rp1029
sg55
F0.2
sg38
g1018
sg56
g11
(g12
(S'S9'
p1030
I0
I1
tp1031
Rp1032
(I3
S'|'
p1033
NNNI9
I1
I0
tp1034
bS'inception'
p1035
tp1036
Rp1037
sg105
g1015
sg65
g11
(g15
S'q\xa96\xd3`\x08\xe0?'
p1038
tp1039
Rp1040
sg69
g11
(g12
(S'S3'
p1041
I0
I1
tp1042
Rp1043
(I3
S'|'
p1044
NNNI3
I1
I0
tp1045
bS'SVM'
p1046
tp1047
Rp1048
sg78
I3
sg79
g80
sg81
g11
(g15
S'\xfd\x13\xe7@\x8d\xf4\xe1?'
p1049
tp1050
Rp1051
sg85
g86
sg87
g88
sbag4
(g5
g6
Ntp1052
Rp1053
(dp1054
g10
g11
(g15
S'\x00\x00\x00\x00\x00\x00\xf8\xff'
p1055
tp1056
Rp1057
sg21
g11
(g15
S'\x00\x00\x00\x00\x00`m@'
p1058
tp1059
Rp1060
sg25
g26
sg27
g11
(g30
S'\x07\x00\x00\x00\x00\x00\x00\x00'
p1061
tp1062
Rp1063
sg36
(dp1064
g21
g1060
sg27
g1063
sg323
g11
(g30
S'\x02\x00\x00\x00\x00\x00\x00\x00'
p1065
tp1066
Rp1067
sg38
g11
(g30
S'\x02\x00\x00\x00\x00\x00\x00\x00'
p1068
tp1069
Rp1070
sg42
g11
(g15
S'\xd8\x05\xaaV\xe3\xbb\xe5?'
p1071
tp1072
Rp1073
ssg46
g11
(g12
(S'S6'
p1074
I0
I1
tp1075
Rp1076
(I3
S'|'
p1077
NNNI6
I1
I0
tp1078
bS'ISOMAP'
p1079
tp1080
Rp1081
sg55
F0.2
sg38
g1070
sg56
g11
(g12
(S'S8'
p1082
I0
I1
tp1083
Rp1084
(I3
S'|'
p1085
NNNI8
I1
I0
tp1086
bS'haralick'
p1087
tp1088
Rp1089
sg323
g1067
sg65
g11
(g15
S'S\xc0\xc3\xb7\x91v\xe9?'
p1090
tp1091
Rp1092
sg69
g11
(g12
(S'S2'
p1093
I0
I1
tp1094
Rp1095
(I3
S'|'
p1096
NNNI2
I1
I0
tp1097
bS'RF'
p1098
tp1099
Rp1100
sg78
I3
sg42
g1073
sg79
g80
sg81
g11
(g15
S'\xa8d\xeb\xdd\xf8\xc2\xea?'
p1101
tp1102
Rp1103
sg85
g86
sg87
g88
sbag4
(g5
g6
Ntp1104
Rp1105
(dp1106
g10
g11
(g15
S'\x00\x00\x00\x00\x00\x00\xf8\xff'
p1107
tp1108
Rp1109
sg95
g103
sg25
g26
sg36
(dp1110
g95
g103
sg105
g11
(g15
S'Z\x15\xa8\x01S\xc5,@'
p1111
tp1112
Rp1113
sg323
g11
(g30
S'\x03\x00\x00\x00\x00\x00\x00\x00'
p1114
tp1115
Rp1116
sg109
g11
(g15
S'1\xac\xa5.\x90v\x01@'
p1117
tp1118
Rp1119
ssg46
g11
(g12
(S'S3'
p1120
I0
I1
tp1121
Rp1122
(I3
S'|'
p1123
NNNI3
I1
I0
tp1124
bS'PCA'
p1125
tp1126
Rp1127
sg55
F0.2
sg109
g1119
sg56
g11
(g12
(S'S8'
p1128
I0
I1
tp1129
Rp1130
(I3
S'|'
p1131
NNNI8
I1
I0
tp1132
bS'haralick'
p1133
tp1134
Rp1135
sg105
g1113
sg323
g1116
sg65
g11
(g15
S'\xdb;\xfc\xf2\xbf\x99\xdc?'
p1136
tp1137
Rp1138
sg69
g11
(g12
(S'S3'
p1139
I0
I1
tp1140
Rp1141
(I3
S'|'
p1142
NNNI3
I1
I0
tp1143
bS'SVM'
p1144
tp1145
Rp1146
sg78
I3
sg79
g80
sg81
g11
(g15
S'\x08\x10\xfe!\xdai\xea?'
p1147
tp1148
Rp1149
sg85
g86
sg87
g88
sbag4
(g5
g6
Ntp1150
Rp1151
(dp1152
g10
g11
(g15
S'\x00\x00\x00\x00\x00\x00\xf8\xff'
p1153
tp1154
Rp1155
sg21
g11
(g15
S'\x00\x00\x00\x00\x00\x00 @'
p1156
tp1157
Rp1158
sg25
g26
sg27
g11
(g30
S'\x07\x00\x00\x00\x00\x00\x00\x00'
p1159
tp1160
Rp1161
sg36
(dp1162
g21
g1158
sg27
g1161
sg323
g11
(g30
S'\x02\x00\x00\x00\x00\x00\x00\x00'
p1163
tp1164
Rp1165
sg38
g11
(g30
S'\x03\x00\x00\x00\x00\x00\x00\x00'
p1166
tp1167
Rp1168
sg42
g11
(g15
S'4%\xacPTD\xda?'
p1169
tp1170
Rp1171
ssg46
g11
(g12
(S'S6'
p1172
I0
I1
tp1173
Rp1174
(I3
S'|'
p1175
NNNI6
I1
I0
tp1176
bS'ISOMAP'
p1177
tp1178
Rp1179
sg55
F0.2
sg38
g1168
sg56
g11
(g12
(S'S8'
p1180
I0
I1
tp1181
Rp1182
(I3
S'|'
p1183
NNNI8
I1
I0
tp1184
bS'haralick'
p1185
tp1186
Rp1187
sg323
g1165
sg65
g11
(g15
S'\xf70\x7f\x15\x9bP\xf7?'
p1188
tp1189
Rp1190
sg69
g11
(g12
(S'S2'
p1191
I0
I1
tp1192
Rp1193
(I3
S'|'
p1194
NNNI2
I1
I0
tp1195
bS'RF'
p1196
tp1197
Rp1198
sg78
I3
sg42
g1171
sg79
g80
sg81
g11
(g15
S'}\xf7\x01\xed\x16\xc3\xea?'
p1199
tp1200
Rp1201
sg85
g86
sg87
g88
sbag4
(g5
g6
Ntp1202
Rp1203
(dp1204
g10
g11
(g15
S'\x00\x00\x00\x00\x00\x00\xf8\xff'
p1205
tp1206
Rp1207
sg95
g103
sg25
g26
sg36
(dp1208
g95
g103
sg105
g11
(g15
S'&\x7f\xf5\x92\xa6\x872@'
p1209
tp1210
Rp1211
sg109
g11
(g15
S'Y\xb5\x1c\xbf\x1bK\x1b@'
p1212
tp1213
Rp1214
ssg46
g11
(g12
(S'S3'
p1215
I0
I1
tp1216
Rp1217
(I3
S'|'
p1218
NNNI3
I1
I0
tp1219
bS'PCA'
p1220
tp1221
Rp1222
sg55
F0.2
sg109
g1214
sg56
g11
(g12
(S'S3'
p1223
I0
I1
tp1224
Rp1225
(I3
S'|'
p1226
NNNI3
I1
I0
tp1227
bS'VGG'
p1228
tp1229
Rp1230
sg105
g1211
sg65
g11
(g15
S'\x14\x05\x11\xfc\xb4m\xd9?'
p1231
tp1232
Rp1233
sg69
g11
(g12
(S'S3'
p1234
I0
I1
tp1235
Rp1236
(I3
S'|'
p1237
NNNI3
I1
I0
tp1238
bS'SVM'
p1239
tp1240
Rp1241
sg78
I3
sg79
g80
sg81
g11
(g15
S'\xad\xc3\x96\xf0<\xa4\xe9?'
p1242
tp1243
Rp1244
sg85
g86
sg87
g88
sbag4
(g5
g6
Ntp1245
Rp1246
(dp1247
g10
g11
(g15
S'\x00\x00\x00\x00\x00\x00\xf8\xff'
p1248
tp1249
Rp1250
sg95
g103
sg25
g26
sg36
(dp1251
g95
g103
sg105
g11
(g15
S'\xf2=n\x08\xd3\xd4M@'
p1252
tp1253
Rp1254
sg323
g11
(g30
S'\x01\x00\x00\x00\x00\x00\x00\x00'
p1255
tp1256
Rp1257
sg109
g11
(g15
S'\x9d\xe5(SM\x1e\x1a@'
p1258
tp1259
Rp1260
ssg46
g11
(g12
(S'S3'
p1261
I0
I1
tp1262
Rp1263
(I3
S'|'
p1264
NNNI3
I1
I0
tp1265
bS'PCA'
p1266
tp1267
Rp1268
sg55
F0.2
sg109
g1260
sg56
g11
(g12
(S'S8'
p1269
I0
I1
tp1270
Rp1271
(I3
S'|'
p1272
NNNI8
I1
I0
tp1273
bS'haralick'
p1274
tp1275
Rp1276
sg105
g1254
sg323
g1257
sg65
g11
(g15
S'\xf8|O\xdd\xb8\x10\xdd?'
p1277
tp1278
Rp1279
sg69
g11
(g12
(S'S3'
p1280
I0
I1
tp1281
Rp1282
(I3
S'|'
p1283
NNNI3
I1
I0
tp1284
bS'SVM'
p1285
tp1286
Rp1287
sg78
I3
sg79
g80
sg81
g11
(g15
S'\xd7q:\xa9\xcb\x86\xe8?'
p1288
tp1289
Rp1290
sg85
g86
sg87
g88
sbag4
(g5
g6
Ntp1291
Rp1292
(dp1293
g10
g11
(g15
S'\x00\x00\x00\x00\x00\x00\xf8\xff'
p1294
tp1295
Rp1296
sg21
g11
(g15
S'\x00\x00\x00\x00\x00@a@'
p1297
tp1298
Rp1299
sg25
g26
sg27
g11
(g30
S'\x03\x00\x00\x00\x00\x00\x00\x00'
p1300
tp1301
Rp1302
sg36
(dp1303
g21
g1299
sg27
g1302
sg38
g11
(g30
S'\x04\x00\x00\x00\x00\x00\x00\x00'
p1304
tp1305
Rp1306
sg42
g11
(g15
S'\xbc\xc9ym\x85}\xe1?'
p1307
tp1308
Rp1309
ssg46
g11
(g12
(S'S6'
p1310
I0
I1
tp1311
Rp1312
(I3
S'|'
p1313
NNNI6
I1
I0
tp1314
bS'ISOMAP'
p1315
tp1316
Rp1317
sg55
F0.2
sg38
g1306
sg56
g11
(g12
(S'S3'
p1318
I0
I1
tp1319
Rp1320
(I3
S'|'
p1321
NNNI3
I1
I0
tp1322
bS'VGG'
p1323
tp1324
Rp1325
sg65
g11
(g15
S'\x81\x1f\x8c\x95M\xf0\xe8?'
p1326
tp1327
Rp1328
sg69
g11
(g12
(S'S2'
p1329
I0
I1
tp1330
Rp1331
(I3
S'|'
p1332
NNNI2
I1
I0
tp1333
bS'RF'
p1334
tp1335
Rp1336
sg78
I3
sg42
g1309
sg79
g80
sg81
g11
(g15
S'\xd7\xac\x00Y\xa8\t\xeb?'
p1337
tp1338
Rp1339
sg85
g86
sg87
g88
sbag4
(g5
g6
Ntp1340
Rp1341
(dp1342
g10
g11
(g15
S'\x00\x00\x00\x00\x00\x00\xf8\xff'
p1343
tp1344
Rp1345
sg21
g11
(g15
S'\x00\x00\x00\x00\x00`m@'
p1346
tp1347
Rp1348
sg25
g26
sg27
g11
(g30
S'\x07\x00\x00\x00\x00\x00\x00\x00'
p1349
tp1350
Rp1351
sg36
(dp1352
g21
g1348
sg27
g1351
sg38
g11
(g30
S'\x03\x00\x00\x00\x00\x00\x00\x00'
p1353
tp1354
Rp1355
sg42
g11
(g15
S'\x84\xd0;-\xf3L\xdd?'
p1356
tp1357
Rp1358
ssg46
g11
(g12
(S'S6'
p1359
I0
I1
tp1360
Rp1361
(I3
S'|'
p1362
NNNI6
I1
I0
tp1363
bS'ISOMAP'
p1364
tp1365
Rp1366
sg55
F0.2
sg38
g1355
sg56
g11
(g12
(S'S9'
p1367
I0
I1
tp1368
Rp1369
(I3
S'|'
p1370
NNNI9
I1
I0
tp1371
bS'inception'
p1372
tp1373
Rp1374
sg65
g11
(g15
S'm\xc8R\xb8\x9eo\xee?'
p1375
tp1376
Rp1377
sg69
g11
(g12
(S'S2'
p1378
I0
I1
tp1379
Rp1380
(I3
S'|'
p1381
NNNI2
I1
I0
tp1382
bS'RF'
p1383
tp1384
Rp1385
sg78
I3
sg42
g1358
sg79
g80
sg81
g11
(g15
S'\xcd\xce\xcb\xd1\xc5\xdd\xe5?'
p1386
tp1387
Rp1388
sg85
g86
sg87
g88
sbag193
ag4
(g5
g6
Ntp1389
Rp1390
(dp1391
g10
g11
(g15
S'\x00\x00\x00\x00\x00\x00\xf8\xff'
p1392
tp1393
Rp1394
sg27
g11
(g30
S'\x05\x00\x00\x00\x00\x00\x00\x00'
p1395
tp1396
Rp1397
sg25
g26
sg36
(dp1398
g27
g1397
sg105
g11
(g15
S'u\x08\x98\xb8~@R@'
p1399
tp1400
Rp1401
sg38
g11
(g30
S'\x03\x00\x00\x00\x00\x00\x00\x00'
p1402
tp1403
Rp1404
sg109
g11
(g15
S'\x8c\xca\xa0\xcb\xc2\xc1\x10@'
p1405
tp1406
Rp1407
ssg109
g1407
sg46
g11
(g12
(S'S6'
p1408
I0
I1
tp1409
Rp1410
(I3
S'|'
p1411
NNNI6
I1
I0
tp1412
bS'ISOMAP'
p1413
tp1414
Rp1415
sg55
F0.2
sg38
g1404
sg56
g11
(g12
(S'S3'
p1416
I0
I1
tp1417
Rp1418
(I3
S'|'
p1419
NNNI3
I1
I0
tp1420
bS'VGG'
p1421
tp1422
Rp1423
sg105
g1401
sg65
g11
(g15
S'\xb4\xc4By\xae\xdd\xdb?'
p1424
tp1425
Rp1426
sg69
g11
(g12
(S'S3'
p1427
I0
I1
tp1428
Rp1429
(I3
S'|'
p1430
NNNI3
I1
I0
tp1431
bS'SVM'
p1432
tp1433
Rp1434
sg78
I3
sg79
g80
sg81
g11
(g15
S'\xcbh.\xa3\xb9\x8c\xea?'
p1435
tp1436
Rp1437
sg85
g86
sg87
g88
sbag4
(g5
g6
Ntp1438
Rp1439
(dp1440
g10
g11
(g15
S'\x00\x00\x00\x00\x00\x00\xf8\xff'
p1441
tp1442
Rp1443
sg27
g11
(g30
S'\x06\x00\x00\x00\x00\x00\x00\x00'
p1444
tp1445
Rp1446
sg25
g26
sg36
(dp1447
g27
g1446
sg105
g11
(g15
S'\xd4\x9d\xdb\x1dY\x19\x02@'
p1448
tp1449
Rp1450
sg38
g11
(g30
S'\x04\x00\x00\x00\x00\x00\x00\x00'
p1451
tp1452
Rp1453
sg109
g11
(g15
S'\xc8\xef\xf0\x1f\xed\xc6\xda?'
p1454
tp1455
Rp1456
ssg109
g1456
sg46
g11
(g12
(S'S6'
p1457
I0
I1
tp1458
Rp1459
(I3
S'|'
p1460
NNNI6
I1
I0
tp1461
bS'ISOMAP'
p1462
tp1463
Rp1464
sg55
F0.2
sg38
g1453
sg56
g11
(g12
(S'S9'
p1465
I0
I1
tp1466
Rp1467
(I3
S'|'
p1468
NNNI9
I1
I0
tp1469
bS'inception'
p1470
tp1471
Rp1472
sg105
g1450
sg65
g11
(g15
S'\xcf\x8a\x9b\x00?T\xe0?'
p1473
tp1474
Rp1475
sg69
g11
(g12
(S'S3'
p1476
I0
I1
tp1477
Rp1478
(I3
S'|'
p1479
NNNI3
I1
I0
tp1480
bS'SVM'
p1481
tp1482
Rp1483
sg78
I3
sg79
g80
sg81
g11
(g15
S'\xdeRi<\x96\xe2\xe1?'
p1484
tp1485
Rp1486
sg85
g86
sg87
g88
sbag4
(g5
g6
Ntp1487
Rp1488
(dp1489
g10
g11
(g15
S'\x00\x00\x00\x00\x00\x00\xf8\xff'
p1490
tp1491
Rp1492
sg27
g11
(g30
S'\x07\x00\x00\x00\x00\x00\x00\x00'
p1493
tp1494
Rp1495
sg25
g26
sg36
(dp1496
g27
g1495
sg105
g11
(g15
S'{\x0fr\xb6\xeaWR@'
p1497
tp1498
Rp1499
sg323
g11
(g30
S'\x02\x00\x00\x00\x00\x00\x00\x00'
p1500
tp1501
Rp1502
sg38
g11
(g30
S'\x03\x00\x00\x00\x00\x00\x00\x00'
p1503
tp1504
Rp1505
sg109
g11
(g15
S'\xd9\x15f\xc03\xaf\x1f@'
p1506
tp1507
Rp1508
ssg109
g1508
sg46
g11
(g12
(S'S6'
p1509
I0
I1
tp1510
Rp1511
(I3
S'|'
p1512
NNNI6
I1
I0
tp1513
bS'ISOMAP'
p1514
tp1515
Rp1516
sg55
F0.2
sg38
g1505
sg56
g11
(g12
(S'S8'
p1517
I0
I1
tp1518
Rp1519
(I3
S'|'
p1520
NNNI8
I1
I0
tp1521
bS'haralick'
p1522
tp1523
Rp1524
sg105
g1499
sg323
g1502
sg65
g11
(g15
S'\xcc\r\xc5kJ\xa8\xde?'
p1525
tp1526
Rp1527
sg69
g11
(g12
(S'S3'
p1528
I0
I1
tp1529
Rp1530
(I3
S'|'
p1531
NNNI3
I1
I0
tp1532
bS'SVM'
p1533
tp1534
Rp1535
sg78
I3
sg79
g80
sg81
g11
(g15
S'\xb5H#n\xd8\x03\xe9?'
p1536
tp1537
Rp1538
sg85
g86
sg87
g88
sbag4
(g5
g6
Ntp1539
Rp1540
(dp1541
g10
g11
(g15
S'\x00\x00\x00\x00\x00\x00\xf8\xff'
p1542
tp1543
Rp1544
sg21
g11
(g15
S'\x00\x00\x00\x00\x00`m@'
p1545
tp1546
Rp1547
sg25
g26
sg27
g11
(g30
S'\x03\x00\x00\x00\x00\x00\x00\x00'
p1548
tp1549
Rp1550
sg36
(dp1551
g21
g1547
sg27
g1550
sg38
g11
(g30
S'\x04\x00\x00\x00\x00\x00\x00\x00'
p1552
tp1553
Rp1554
sg42
g11
(g15
S'c\xa2\xaa&\xe9\xcc\xe7?'
p1555
tp1556
Rp1557
ssg46
g11
(g12
(S'S6'
p1558
I0
I1
tp1559
Rp1560
(I3
S'|'
p1561
NNNI6
I1
I0
tp1562
bS'ISOMAP'
p1563
tp1564
Rp1565
sg55
F0.2
sg38
g1554
sg56
g11
(g12
(S'S3'
p1566
I0
I1
tp1567
Rp1568
(I3
S'|'
p1569
NNNI3
I1
I0
tp1570
bS'VGG'
p1571
tp1572
Rp1573
sg65
g11
(g15
S'\x819\x92b\x9f\x95\xe2?'
p1574
tp1575
Rp1576
sg69
g11
(g12
(S'S2'
p1577
I0
I1
tp1578
Rp1579
(I3
S'|'
p1580
NNNI2
I1
I0
tp1581
bS'RF'
p1582
tp1583
Rp1584
sg78
I3
sg42
g1557
sg79
g80
sg81
g11
(g15
S'\xac?\x17h\xc6\t\xeb?'
p1585
tp1586
Rp1587
sg85
g86
sg87
g88
sbag4
(g5
g6
Ntp1588
Rp1589
(dp1590
g10
g11
(g15
S'\x00\x00\x00\x00\x00\x00\xf8\xff'
p1591
tp1592
Rp1593
sg95
g103
sg25
g26
sg36
(dp1594
g95
g103
sg105
g11
(g15
S'\xc9\xac\xcd\x1b\xd7\xd5W@'
p1595
tp1596
Rp1597
sg323
g11
(g30
S'\x03\x00\x00\x00\x00\x00\x00\x00'
p1598
tp1599
Rp1600
sg109
g11
(g15
S'\xf9\x1b\x06X\x1e_\xf8?'
p1601
tp1602
Rp1603
ssg46
g11
(g12
(S'S3'
p1604
I0
I1
tp1605
Rp1606
(I3
S'|'
p1607
NNNI3
I1
I0
tp1608
bS'PCA'
p1609
tp1610
Rp1611
sg55
F0.2
sg109
g1603
sg56
g11
(g12
(S'S8'
p1612
I0
I1
tp1613
Rp1614
(I3
S'|'
p1615
NNNI8
I1
I0
tp1616
bS'haralick'
p1617
tp1618
Rp1619
sg105
g1597
sg323
g1600
sg65
g11
(g15
S'\xc08\x16\xa8\xc9\xf7\xdd?'
p1620
tp1621
Rp1622
sg69
g11
(g12
(S'S3'
p1623
I0
I1
tp1624
Rp1625
(I3
S'|'
p1626
NNNI3
I1
I0
tp1627
bS'SVM'
p1628
tp1629
Rp1630
sg78
I3
sg79
g80
sg81
g11
(g15
S'\x9dl\xcc\x0c\x8c\x8d\xea?'
p1631
tp1632
Rp1633
sg85
g86
sg87
g88
sbag4
(g5
g6
Ntp1634
Rp1635
(dp1636
g10
g11
(g15
S'\x00\x00\x00\x00\x00\x00\xf8\xff'
p1637
tp1638
Rp1639
sg95
g103
sg25
g26
sg36
(dp1640
g95
g103
sg105
g11
(g15
S"\x1d'^[\xab\xd0;@"
p1641
tp1642
Rp1643
sg323
g11
(g30
S'\x02\x00\x00\x00\x00\x00\x00\x00'
p1644
tp1645
Rp1646
sg109
g11
(g15
S'M=\x14\xf51\xb6\xf3?'
p1647
tp1648
Rp1649
ssg46
g11
(g12
(S'S3'
p1650
I0
I1
tp1651
Rp1652
(I3
S'|'
p1653
NNNI3
I1
I0
tp1654
bS'PCA'
p1655
tp1656
Rp1657
sg55
F0.2
sg109
g1649
sg56
g11
(g12
(S'S8'
p1658
I0
I1
tp1659
Rp1660
(I3
S'|'
p1661
NNNI8
I1
I0
tp1662
bS'haralick'
p1663
tp1664
Rp1665
sg105
g1643
sg323
g1646
sg65
g11
(g15
S'Sc\x0e`\x81V\xdb?'
p1666
tp1667
Rp1668
sg69
g11
(g12
(S'S3'
p1669
I0
I1
tp1670
Rp1671
(I3
S'|'
p1672
NNNI3
I1
I0
tp1673
bS'SVM'
p1674
tp1675
Rp1676
sg78
I3
sg79
g80
sg81
g11
(g15
S'\x9d\xd4eC\x88\xfe\xe9?'
p1677
tp1678
Rp1679
sg85
g86
sg87
g88
sbag4
(g5
g6
Ntp1680
Rp1681
(dp1682
g10
g11
(g15
S'\x00\x00\x00\x00\x00\x00\xf8\xff'
p1683
tp1684
Rp1685
sg27
g11
(g30
S'\x03\x00\x00\x00\x00\x00\x00\x00'
p1686
tp1687
Rp1688
sg25
g26
sg36
(dp1689
g27
g1688
sg105
g11
(g15
S'\x0c)f\xaes\xe4K@'
p1690
tp1691
Rp1692
sg38
g11
(g30
S'\x03\x00\x00\x00\x00\x00\x00\x00'
p1693
tp1694
Rp1695
sg109
g11
(g15
S'\x118\x7ft\x87\xbf\x19@'
p1696
tp1697
Rp1698
ssg109
g1698
sg46
g11
(g12
(S'S6'
p1699
I0
I1
tp1700
Rp1701
(I3
S'|'
p1702
NNNI6
I1
I0
tp1703
bS'ISOMAP'
p1704
tp1705
Rp1706
sg55
F0.2
sg38
g1695
sg56
g11
(g12
(S'S9'
p1707
I0
I1
tp1708
Rp1709
(I3
S'|'
p1710
NNNI9
I1
I0
tp1711
bS'inception'
p1712
tp1713
Rp1714
sg105
g1692
sg65
g11
(g15
S'u\xa4z\x93\xdd\xae\xe0?'
p1715
tp1716
Rp1717
sg69
g11
(g12
(S'S3'
p1718
I0
I1
tp1719
Rp1720
(I3
S'|'
p1721
NNNI3
I1
I0
tp1722
bS'SVM'
p1723
tp1724
Rp1725
sg78
I3
sg79
g80
sg81
g11
(g15
S'\x88,\xe3uP\x9b\xe1?'
p1726
tp1727
Rp1728
sg85
g86
sg87
g88
sbag4
(g5
g6
Ntp1729
Rp1730
(dp1731
g10
g11
(g15
S'\x00\x00\x00\x00\x00\x00\xf8\xff'
p1732
tp1733
Rp1734
sg27
g11
(g30
S'\x05\x00\x00\x00\x00\x00\x00\x00'
p1735
tp1736
Rp1737
sg25
g26
sg36
(dp1738
g27
g1737
sg105
g11
(g15
S'\x1a\x9e\xaf\xcb\xc4\xd6Q@'
p1739
tp1740
Rp1741
sg323
g11
(g30
S'\x01\x00\x00\x00\x00\x00\x00\x00'
p1742
tp1743
Rp1744
sg38
g11
(g30
S'\x03\x00\x00\x00\x00\x00\x00\x00'
p1745
tp1746
Rp1747
sg109
g11
(g15
S'\xfdK\xc6\xfflM\r@'
p1748
tp1749
Rp1750
ssg109
g1750
sg46
g11
(g12
(S'S6'
p1751
I0
I1
tp1752
Rp1753
(I3
S'|'
p1754
NNNI6
I1
I0
tp1755
bS'ISOMAP'
p1756
tp1757
Rp1758
sg55
F0.2
sg38
g1747
sg56
g11
(g12
(S'S8'
p1759
I0
I1
tp1760
Rp1761
(I3
S'|'
p1762
NNNI8
I1
I0
tp1763
bS'haralick'
p1764
tp1765
Rp1766
sg105
g1741
sg323
g1744
sg65
g11
(g15
S'@\xb3\xd1@\x14\xea\xda?'
p1767
tp1768
Rp1769
sg69
g11
(g12
(S'S3'
p1770
I0
I1
tp1771
Rp1772
(I3
S'|'
p1773
NNNI3
I1
I0
tp1774
bS'SVM'
p1775
tp1776
Rp1777
sg78
I3
sg79
g80
sg81
g11
(g15
S'\x95\xb7r\xfc\xe8\x0f\xea?'
p1778
tp1779
Rp1780
sg85
g86
sg87
g88
sbag4
(g5
g6
Ntp1781
Rp1782
(dp1783
g10
g11
(g15
S'\x00\x00\x00\x00\x00\x00\xf8\xff'
p1784
tp1785
Rp1786
sg27
g11
(g30
S'\x05\x00\x00\x00\x00\x00\x00\x00'
p1787
tp1788
Rp1789
sg25
g26
sg36
(dp1790
g27
g1789
sg105
g11
(g15
S'-\xceh\x90W\xceT@'
p1791
tp1792
Rp1793
sg323
g11
(g30
S'\x02\x00\x00\x00\x00\x00\x00\x00'
p1794
tp1795
Rp1796
sg38
g11
(g30
S'\x04\x00\x00\x00\x00\x00\x00\x00'
p1797
tp1798
Rp1799
sg109
g11
(g15
S'\x81x\x12\x98\xe0n\x17@'
p1800
tp1801
Rp1802
ssg109
g1802
sg46
g11
(g12
(S'S6'
p1803
I0
I1
tp1804
Rp1805
(I3
S'|'
p1806
NNNI6
I1
I0
tp1807
bS'ISOMAP'
p1808
tp1809
Rp1810
sg55
F0.2
sg38
g1799
sg56
g11
(g12
(S'S8'
p1811
I0
I1
tp1812
Rp1813
(I3
S'|'
p1814
NNNI8
I1
I0
tp1815
bS'haralick'
p1816
tp1817
Rp1818
sg105
g1793
sg323
g1796
sg65
g11
(g15
S'c\xf7\xaa\xb7i\x95\xdc?'
p1819
tp1820
Rp1821
sg69
g11
(g12
(S'S3'
p1822
I0
I1
tp1823
Rp1824
(I3
S'|'
p1825
NNNI3
I1
I0
tp1826
bS'SVM'
p1827
tp1828
Rp1829
sg78
I3
sg79
g80
sg81
g11
(g15
S'\x14p\xb6)C\x10\xea?'
p1830
tp1831
Rp1832
sg85
g86
sg87
g88
sbag4
(g5
g6
Ntp1833
Rp1834
(dp1835
g10
g11
(g15
S'\x00\x00\x00\x00\x00\x00\xf8\xff'
p1836
tp1837
Rp1838
sg95
g203
sg25
g26
sg36
(dp1839
g95
g203
sg105
g11
(g15
S'1,n \xeeeL@'
p1840
tp1841
Rp1842
sg109
g11
(g15
S'\xdcu\xeb\x17\x14\x18\x19@'
p1843
tp1844
Rp1845
ssg46
g11
(g12
(S'S3'
p1846
I0
I1
tp1847
Rp1848
(I3
S'|'
p1849
NNNI3
I1
I0
tp1850
bS'PCA'
p1851
tp1852
Rp1853
sg55
F0.2
sg109
g1845
sg56
g11
(g12
(S'S3'
p1854
I0
I1
tp1855
Rp1856
(I3
S'|'
p1857
NNNI3
I1
I0
tp1858
bS'VGG'
p1859
tp1860
Rp1861
sg105
g1842
sg65
g11
(g15
S'C\x8cf\xb9r2\xd9?'
p1862
tp1863
Rp1864
sg69
g11
(g12
(S'S3'
p1865
I0
I1
tp1866
Rp1867
(I3
S'|'
p1868
NNNI3
I1
I0
tp1869
bS'SVM'
p1870
tp1871
Rp1872
sg78
I3
sg79
g80
sg81
g11
(g15
S'\xad\xc3\x96\xf0<\xa4\xe9?'
p1873
tp1874
Rp1875
sg85
g86
sg87
g88
sbag4
(g5
g6
Ntp1876
Rp1877
(dp1878
g10
g11
(g15
S'\x00\x00\x00\x00\x00\x00\xf8\xff'
p1879
tp1880
Rp1881
sg95
g103
sg25
g26
sg36
(dp1882
g95
g103
sg105
g11
(g15
S')\xf8L\xf7\x9f\xaf @'
p1883
tp1884
Rp1885
sg109
g11
(g15
S'\xbe@\xf9\x14\xac\xf4\x13@'
p1886
tp1887
Rp1888
ssg46
g11
(g12
(S'S3'
p1889
I0
I1
tp1890
Rp1891
(I3
S'|'
p1892
NNNI3
I1
I0
tp1893
bS'PCA'
p1894
tp1895
Rp1896
sg55
F0.2
sg109
g1888
sg56
g11
(g12
(S'S9'
p1897
I0
I1
tp1898
Rp1899
(I3
S'|'
p1900
NNNI9
I1
I0
tp1901
bS'inception'
p1902
tp1903
Rp1904
sg105
g1885
sg65
g11
(g15
S'ck\x02\xa2\xbeq\xe0?'
p1905
tp1906
Rp1907
sg69
g11
(g12
(S'S3'
p1908
I0
I1
tp1909
Rp1910
(I3
S'|'
p1911
NNNI3
I1
I0
tp1912
bS'SVM'
p1913
tp1914
Rp1915
sg78
I3
sg79
g80
sg81
g11
(g15
S'm4\xa6\xc2\x89\xfb\xe3?'
p1916
tp1917
Rp1918
sg85
g86
sg87
g88
sbag4
(g5
g6
Ntp1919
Rp1920
(dp1921
g10
g11
(g15
S'\x00\x00\x00\x00\x00\x00\xf8\xff'
p1922
tp1923
Rp1924
sg27
g11
(g30
S'\x03\x00\x00\x00\x00\x00\x00\x00'
p1925
tp1926
Rp1927
sg25
g26
sg36
(dp1928
g27
g1927
sg105
g11
(g15
S'\xcc\xd9\xc3\xf2m"P@'
p1929
tp1930
Rp1931
sg38
g11
(g30
S'\x03\x00\x00\x00\x00\x00\x00\x00'
p1932
tp1933
Rp1934
sg109
g11
(g15
S'T\xe6\xc8\x9c\x0e\xd5\xe4?'
p1935
tp1936
Rp1937
ssg109
g1937
sg46
g11
(g12
(S'S6'
p1938
I0
I1
tp1939
Rp1940
(I3
S'|'
p1941
NNNI6
I1
I0
tp1942
bS'ISOMAP'
p1943
tp1944
Rp1945
sg55
F0.2
sg38
g1934
sg56
g11
(g12
(S'S3'
p1946
I0
I1
tp1947
Rp1948
(I3
S'|'
p1949
NNNI3
I1
I0
tp1950
bS'VGG'
p1951
tp1952
Rp1953
sg105
g1931
sg65
g11
(g15
S'\xf0\xb9SMw\x13\xd9?'
p1954
tp1955
Rp1956
sg69
g11
(g12
(S'S3'
p1957
I0
I1
tp1958
Rp1959
(I3
S'|'
p1960
NNNI3
I1
I0
tp1961
bS'SVM'
p1962
tp1963
Rp1964
sg78
I3
sg79
g80
sg81
g11
(g15
S'a\xc5\xfc\x8dk\xb0\xea?'
p1965
tp1966
Rp1967
sg85
g86
sg87
g88
sbag4
(g5
g6
Ntp1968
Rp1969
(dp1970
g10
g11
(g15
S'\x00\x00\x00\x00\x00\x00\xf8\xff'
p1971
tp1972
Rp1973
sg27
g11
(g30
S'\x04\x00\x00\x00\x00\x00\x00\x00'
p1974
tp1975
Rp1976
sg25
g26
sg36
(dp1977
g27
g1976
sg105
g11
(g15
S'Gb\x1ac\xfd\x11P@'
p1978
tp1979
Rp1980
sg38
g11
(g30
S'\x04\x00\x00\x00\x00\x00\x00\x00'
p1981
tp1982
Rp1983
sg109
g11
(g15
S'\x1aB\xea\xbf\xde\x7f\x0e@'
p1984
tp1985
Rp1986
ssg109
g1986
sg46
g11
(g12
(S'S6'
p1987
I0
I1
tp1988
Rp1989
(I3
S'|'
p1990
NNNI6
I1
I0
tp1991
bS'ISOMAP'
p1992
tp1993
Rp1994
sg55
F0.2
sg38
g1983
sg56
g11
(g12
(S'S9'
p1995
I0
I1
tp1996
Rp1997
(I3
S'|'
p1998
NNNI9
I1
I0
tp1999
bS'inception'
p2000
tp2001
Rp2002
sg105
g1980
sg65
g11
(g15
S'5\xe0\xe0O\x8bM\xe0?'
p2003
tp2004
Rp2005
sg69
g11
(g12
(S'S3'
p2006
I0
I1
tp2007
Rp2008
(I3
S'|'
p2009
NNNI3
I1
I0
tp2010
bS'SVM'
p2011
tp2012
Rp2013
sg78
I3
sg79
g80
sg81
g11
(g15
S'4-<\x1eZ\xe2\xe1?'
p2014
tp2015
Rp2016
sg85
g86
sg87
g88
sbag4
(g5
g6
Ntp2017
Rp2018
(dp2019
g10
g11
(g15
S'\x00\x00\x00\x00\x00\x00\xf8\xff'
p2020
tp2021
Rp2022
sg21
g11
(g15
S'\x00\x00\x00\x00\x00\x00D@'
p2023
tp2024
Rp2025
sg25
g26
sg27
g11
(g30
S'\x06\x00\x00\x00\x00\x00\x00\x00'
p2026
tp2027
Rp2028
sg36
(dp2029
g21
g2025
sg27
g2028
sg38
g11
(g30
S'\x04\x00\x00\x00\x00\x00\x00\x00'
p2030
tp2031
Rp2032
sg42
g11
(g15
S'\n3A\xfa\x07C\xee?'
p2033
tp2034
Rp2035
ssg46
g11
(g12
(S'S6'
p2036
I0
I1
tp2037
Rp2038
(I3
S'|'
p2039
NNNI6
I1
I0
tp2040
bS'ISOMAP'
p2041
tp2042
Rp2043
sg55
F0.2
sg38
g2032
sg56
g11
(g12
(S'S3'
p2044
I0
I1
tp2045
Rp2046
(I3
S'|'
p2047
NNNI3
I1
I0
tp2048
bS'VGG'
p2049
tp2050
Rp2051
sg65
g11
(g15
S'\xcd\x8b{\x94\xe1\x02\xec?'
p2052
tp2053
Rp2054
sg69
g11
(g12
(S'S2'
p2055
I0
I1
tp2056
Rp2057
(I3
S'|'
p2058
NNNI2
I1
I0
tp2059
bS'RF'
p2060
tp2061
Rp2062
sg78
I3
sg42
g2035
sg79
g80
sg81
g11
(g15
S'h\xc6\t\x83\x90u\xeb?'
p2063
tp2064
Rp2065
sg85
g86
sg87
g88
sbag4
(g5
g6
Ntp2066
Rp2067
(dp2068
g10
g11
(g15
S'\x00\x00\x00\x00\x00\x00\xf8\xff'
p2069
tp2070
Rp2071
sg27
g11
(g30
S'\x07\x00\x00\x00\x00\x00\x00\x00'
p2072
tp2073
Rp2074
sg25
g26
sg36
(dp2075
g27
g2074
sg105
g11
(g15
S'?\xab\x94\xb2\x83i\xcc?'
p2076
tp2077
Rp2078
sg38
g11
(g30
S'\x02\x00\x00\x00\x00\x00\x00\x00'
p2079
tp2080
Rp2081
sg109
g11
(g15
S'\x811\r\xea\x19\x05\x1d@'
p2082
tp2083
Rp2084
ssg109
g2084
sg46
g11
(g12
(S'S6'
p2085
I0
I1
tp2086
Rp2087
(I3
S'|'
p2088
NNNI6
I1
I0
tp2089
bS'ISOMAP'
p2090
tp2091
Rp2092
sg55
F0.2
sg38
g2081
sg56
g11
(g12
(S'S9'
p2093
I0
I1
tp2094
Rp2095
(I3
S'|'
p2096
NNNI9
I1
I0
tp2097
bS'inception'
p2098
tp2099
Rp2100
sg105
g2078
sg65
g11
(g15
S"\x05\r'a\xbf\x8b\xe0?"
p2101
tp2102
Rp2103
sg69
g11
(g12
(S'S3'
p2104
I0
I1
tp2105
Rp2106
(I3
S'|'
p2107
NNNI3
I1
I0
tp2108
bS'SVM'
p2109
tp2110
Rp2111
sg78
I3
sg79
g80
sg81
g11
(g15
S'\xd3\xa6\xfdO\xab\xf4\xe1?'
p2112
tp2113
Rp2114
sg85
g86
sg87
g88
sbag4
(g5
g6
Ntp2115
Rp2116
(dp2117
g10
g11
(g15
S'\x00\x00\x00\x00\x00\x00\xf8\xff'
p2118
tp2119
Rp2120
sg21
g11
(g15
S'\x00\x00\x00\x00\x00\x00 @'
p2121
tp2122
Rp2123
sg25
g26
sg27
g11
(g30
S'\x07\x00\x00\x00\x00\x00\x00\x00'
p2124
tp2125
Rp2126
sg36
(dp2127
g21
g2123
sg27
g2126
sg38
g11
(g30
S'\x02\x00\x00\x00\x00\x00\x00\x00'
p2128
tp2129
Rp2130
sg42
g11
(g15
S'\x82$8m\x93\xe7\xee?'
p2131
tp2132
Rp2133
ssg46
g11
(g12
(S'S6'
p2134
I0
I1
tp2135
Rp2136
(I3
S'|'
p2137
NNNI6
I1
I0
tp2138
bS'ISOMAP'
p2139
tp2140
Rp2141
sg55
F0.2
sg38
g2130
sg56
g11
(g12
(S'S3'
p2142
I0
I1
tp2143
Rp2144
(I3
S'|'
p2145
NNNI3
I1
I0
tp2146
bS'VGG'
p2147
tp2148
Rp2149
sg65
g11
(g15
S'\x0b"T\x05\xdev\x02@'
p2150
tp2151
Rp2152
sg69
g11
(g12
(S'S2'
p2153
I0
I1
tp2154
Rp2155
(I3
S'|'
p2156
NNNI2
I1
I0
tp2157
bS'RF'
p2158
tp2159
Rp2160
sg78
I3
sg42
g2133
sg79
g80
sg81
g11
(g15
S'oA\x9b\xe7N\x80\xe9?'
p2161
tp2162
Rp2163
sg85
g86
sg87
g88
sbag4
(g5
g6
Ntp2164
Rp2165
(dp2166
g10
g11
(g15
S'\x00\x00\x00\x00\x00\x00\xf8\xff'
p2167
tp2168
Rp2169
sg21
g11
(g15
S'\x00\x00\x00\x00\x00`i@'
p2170
tp2171
Rp2172
sg95
g103
sg25
g26
sg36
(dp2173
g21
g2172
sg42
g11
(g15
S'\xee\xb8Op 7\xe6?'
p2174
tp2175
Rp2176
sg95
g103
sg323
g11
(g30
S'\x01\x00\x00\x00\x00\x00\x00\x00'
p2177
tp2178
Rp2179
ssg46
g11
(g12
(S'S3'
p2180
I0
I1
tp2181
Rp2182
(I3
S'|'
p2183
NNNI3
I1
I0
tp2184
bS'PCA'
p2185
tp2186
Rp2187
sg55
F0.2
sg56
g11
(g12
(S'S8'
p2188
I0
I1
tp2189
Rp2190
(I3
S'|'
p2191
NNNI8
I1
I0
tp2192
bS'haralick'
p2193
tp2194
Rp2195
sg323
g2179
sg65
g11
(g15
S'4_?\xf7\x8b\xd5\xf9?'
p2196
tp2197
Rp2198
sg69
g11
(g12
(S'S2'
p2199
I0
I1
tp2200
Rp2201
(I3
S'|'
p2202
NNNI2
I1
I0
tp2203
bS'RF'
p2204
tp2205
Rp2206
sg78
I3
sg42
g2176
sg79
g80
sg81
g11
(g15
S'\t\x19\xfb6\xbf\xae\xe7?'
p2207
tp2208
Rp2209
sg85
g86
sg87
g88
sbag4
(g5
g6
Ntp2210
Rp2211
(dp2212
g10
g11
(g15
S'\x00\x00\x00\x00\x00\x00\xf8\xff'
p2213
tp2214
Rp2215
sg21
g11
(g15
S'\x00\x00\x00\x00\x00@a@'
p2216
tp2217
Rp2218
sg25
g26
sg27
g11
(g30
S'\x05\x00\x00\x00\x00\x00\x00\x00'
p2219
tp2220
Rp2221
sg36
(dp2222
g21
g2218
sg27
g2221
sg323
g11
(g30
S'\x03\x00\x00\x00\x00\x00\x00\x00'
p2223
tp2224
Rp2225
sg38
g11
(g30
S'\x02\x00\x00\x00\x00\x00\x00\x00'
p2226
tp2227
Rp2228
sg42
g11
(g15
S'\xee\x88\xb3\x80\xe2\n\xea?'
p2229
tp2230
Rp2231
ssg46
g11
(g12
(S'S6'
p2232
I0
I1
tp2233
Rp2234
(I3
S'|'
p2235
NNNI6
I1
I0
tp2236
bS'ISOMAP'
p2237
tp2238
Rp2239
sg55
F0.2
sg38
g2228
sg56
g11
(g12
(S'S8'
p2240
I0
I1
tp2241
Rp2242
(I3
S'|'
p2243
NNNI8
I1
I0
tp2244
bS'haralick'
p2245
tp2246
Rp2247
sg323
g2225
sg65
g11
(g15
S'wP.<\xe0<\xf2?'
p2248
tp2249
Rp2250
sg69
g11
(g12
(S'S2'
p2251
I0
I1
tp2252
Rp2253
(I3
S'|'
p2254
NNNI2
I1
I0
tp2255
bS'RF'
p2256
tp2257
Rp2258
sg78
I3
sg42
g2231
sg79
g80
sg81
g11
(g15
S'\xd8\x14\x9a\x8f\xa4z\xea?'
p2259
tp2260
Rp2261
sg85
g86
sg87
g88
sbag4
(g5
g6
Ntp2262
Rp2263
(dp2264
g10
g11
(g15
S'\x00\x00\x00\x00\x00\x00\xf8\xff'
p2265
tp2266
Rp2267
sg21
g11
(g15
S'\x00\x00\x00\x00\x00\x00D@'
p2268
tp2269
Rp2270
sg25
g26
sg27
g11
(g30
S'\x03\x00\x00\x00\x00\x00\x00\x00'
p2271
tp2272
Rp2273
sg36
(dp2274
g21
g2270
sg27
g2273
sg323
g11
(g30
S'\x02\x00\x00\x00\x00\x00\x00\x00'
p2275
tp2276
Rp2277
sg38
g11
(g30
S'\x03\x00\x00\x00\x00\x00\x00\x00'
p2278
tp2279
Rp2280
sg42
g11
(g15
S'.\xe2\xe7\xd4N\xb1\xdb?'
p2281
tp2282
Rp2283
ssg46
g11
(g12
(S'S6'
p2284
I0
I1
tp2285
Rp2286
(I3
S'|'
p2287
NNNI6
I1
I0
tp2288
bS'ISOMAP'
p2289
tp2290
Rp2291
sg55
F0.2
sg38
g2280
sg56
g11
(g12
(S'S8'
p2292
I0
I1
tp2293
Rp2294
(I3
S'|'
p2295
NNNI8
I1
I0
tp2296
bS'haralick'
p2297
tp2298
Rp2299
sg323
g2277
sg65
g11
(g15
S'\xf46\xb1\x89\xda\xad\xf9?'
p2300
tp2301
Rp2302
sg69
g11
(g12
(S'S2'
p2303
I0
I1
tp2304
Rp2305
(I3
S'|'
p2306
NNNI2
I1
I0
tp2307
bS'RF'
p2308
tp2309
Rp2310
sg78
I3
sg42
g2283
sg79
g80
sg81
g11
(g15
S'\xc1@B?E9\xe9?'
p2311
tp2312
Rp2313
sg85
g86
sg87
g88
sbag4
(g5
g6
Ntp2314
Rp2315
(dp2316
g10
g11
(g15
S'\x00\x00\x00\x00\x00\x00\xf8\xff'
p2317
tp2318
Rp2319
sg21
g11
(g15
S'\x00\x00\x00\x00\x00@e@'
p2320
tp2321
Rp2322
sg25
g26
sg27
g11
(g30
S'\x03\x00\x00\x00\x00\x00\x00\x00'
p2323
tp2324
Rp2325
sg36
(dp2326
g21
g2322
sg27
g2325
sg38
g11
(g30
S'\x03\x00\x00\x00\x00\x00\x00\x00'
p2327
tp2328
Rp2329
sg42
g11
(g15
S'O \xb2H\xec{\xe9?'
p2330
tp2331
Rp2332
ssg46
g11
(g12
(S'S6'
p2333
I0
I1
tp2334
Rp2335
(I3
S'|'
p2336
NNNI6
I1
I0
tp2337
bS'ISOMAP'
p2338
tp2339
Rp2340
sg55
F0.2
sg38
g2329
sg56
g11
(g12
(S'S3'
p2341
I0
I1
tp2342
Rp2343
(I3
S'|'
p2344
NNNI3
I1
I0
tp2345
bS'VGG'
p2346
tp2347
Rp2348
sg65
g11
(g15
S'<\x81\x19t\xd2\xee\xe6?'
p2349
tp2350
Rp2351
sg69
g11
(g12
(S'S2'
p2352
I0
I1
tp2353
Rp2354
(I3
S'|'
p2355
NNNI2
I1
I0
tp2356
bS'RF'
p2357
tp2358
Rp2359
sg78
I3
sg42
g2332
sg79
g80
sg81
g11
(g15
S'\x01f\x9d.\x0cQ\xeb?'
p2360
tp2361
Rp2362
sg85
g86
sg87
g88
sbag239
ag4
(g5
g6
Ntp2363
Rp2364
(dp2365
g10
g11
(g15
S'\x00\x00\x00\x00\x00\x00\xf8\xff'
p2366
tp2367
Rp2368
sg27
g11
(g30
S'\x07\x00\x00\x00\x00\x00\x00\x00'
p2369
tp2370
Rp2371
sg25
g26
sg36
(dp2372
g27
g2371
sg105
g11
(g15
S'\x85\xc9l\xc1\xa3\xa3M@'
p2373
tp2374
Rp2375
sg38
g11
(g30
S'\x04\x00\x00\x00\x00\x00\x00\x00'
p2376
tp2377
Rp2378
sg109
g11
(g15
S'-_yb\xfc\x84\x0f@'
p2379
tp2380
Rp2381
ssg109
g2381
sg46
g11
(g12
(S'S6'
p2382
I0
I1
tp2383
Rp2384
(I3
S'|'
p2385
NNNI6
I1
I0
tp2386
bS'ISOMAP'
p2387
tp2388
Rp2389
sg55
F0.2
sg38
g2378
sg56
g11
(g12
(S'S3'
p2390
I0
I1
tp2391
Rp2392
(I3
S'|'
p2393
NNNI3
I1
I0
tp2394
bS'VGG'
p2395
tp2396
Rp2397
sg105
g2375
sg65
g11
(g15
S'\xed\x18\xb4lG\x18\xda?'
p2398
tp2399
Rp2400
sg69
g11
(g12
(S'S3'
p2401
I0
I1
tp2402
Rp2403
(I3
S'|'
p2404
NNNI3
I1
I0
tp2405
bS'SVM'
p2406
tp2407
Rp2408
sg78
I3
sg79
g80
sg81
g11
(g15
S'\x15\xe3H}\x14\xe6\xea?'
p2409
tp2410
Rp2411
sg85
g86
sg87
g88
sbag4
(g5
g6
Ntp2412
Rp2413
(dp2414
g10
g11
(g15
S'\x00\x00\x00\x00\x00\x00\xf8\xff'
p2415
tp2416
Rp2417
sg21
g11
(g15
S'\x00\x00\x00\x00\x00\xc0p@'
p2418
tp2419
Rp2420
sg95
g203
sg25
g26
sg36
(dp2421
g21
g2420
sg42
g11
(g15
S'${\xb3K1\xe1\xe9?'
p2422
tp2423
Rp2424
sg95
g203
sg323
g11
(g30
S'\x03\x00\x00\x00\x00\x00\x00\x00'
p2425
tp2426
Rp2427
ssg46
g11
(g12
(S'S3'
p2428
I0
I1
tp2429
Rp2430
(I3
S'|'
p2431
NNNI3
I1
I0
tp2432
bS'PCA'
p2433
tp2434
Rp2435
sg55
F0.2
sg56
g11
(g12
(S'S8'
p2436
I0
I1
tp2437
Rp2438
(I3
S'|'
p2439
NNNI8
I1
I0
tp2440
bS'haralick'
p2441
tp2442
Rp2443
sg323
g2427
sg65
g11
(g15
S'\xbb\xdf\x9e\x93C\x08\xe3?'
p2444
tp2445
Rp2446
sg69
g11
(g12
(S'S2'
p2447
I0
I1
tp2448
Rp2449
(I3
S'|'
p2450
NNNI2
I1
I0
tp2451
bS'RF'
p2452
tp2453
Rp2454
sg78
I3
sg42
g2424
sg79
g80
sg81
g11
(g15
S'\xa8\xfcQ\xa7\xfcQ\xeb?'
p2455
tp2456
Rp2457
sg85
g86
sg87
g88
sbag4
(g5
g6
Ntp2458
Rp2459
(dp2460
g10
g11
(g15
S'\x00\x00\x00\x00\x00\x00\xf8\xff'
p2461
tp2462
Rp2463
sg27
g11
(g30
S'\x03\x00\x00\x00\x00\x00\x00\x00'
p2464
tp2465
Rp2466
sg25
g26
sg36
(dp2467
g27
g2466
sg105
g11
(g15
S'\x16\xa3\x0e\x1f*\x14W@'
p2468
tp2469
Rp2470
sg323
g11
(g30
S'\x02\x00\x00\x00\x00\x00\x00\x00'
p2471
tp2472
Rp2473
sg38
g11
(g30
S'\x04\x00\x00\x00\x00\x00\x00\x00'
p2474
tp2475
Rp2476
sg109
g11
(g15
S'\xd5\x053s\xd6f\n@'
p2477
tp2478
Rp2479
ssg109
g2479
sg46
g11
(g12
(S'S6'
p2480
I0
I1
tp2481
Rp2482
(I3
S'|'
p2483
NNNI6
I1
I0
tp2484
bS'ISOMAP'
p2485
tp2486
Rp2487
sg55
F0.2
sg38
g2476
sg56
g11
(g12
(S'S8'
p2488
I0
I1
tp2489
Rp2490
(I3
S'|'
p2491
NNNI8
I1
I0
tp2492
bS'haralick'
p2493
tp2494
Rp2495
sg105
g2470
sg323
g2473
sg65
g11
(g15
S'%\x81{W\xcb\x14\xdd?'
p2496
tp2497
Rp2498
sg69
g11
(g12
(S'S3'
p2499
I0
I1
tp2500
Rp2501
(I3
S'|'
p2502
NNNI3
I1
I0
tp2503
bS'SVM'
p2504
tp2505
Rp2506
sg78
I3
sg79
g80
sg81
g11
(g15
S'a\xc5\xfc\x8dk\xb0\xea?'
p2507
tp2508
Rp2509
sg85
g86
sg87
g88
sbag4
(g5
g6
Ntp2510
Rp2511
(dp2512
g10
g11
(g15
S'\x00\x00\x00\x00\x00\x00\xf8\xff'
p2513
tp2514
Rp2515
sg27
g11
(g30
S'\x07\x00\x00\x00\x00\x00\x00\x00'
p2516
tp2517
Rp2518
sg25
g26
sg36
(dp2519
g27
g2518
sg105
g11
(g15
S'(\xf5;\x94#+T@'
p2520
tp2521
Rp2522
sg323
g11
(g30
S'\x02\x00\x00\x00\x00\x00\x00\x00'
p2523
tp2524
Rp2525
sg38
g11
(g30
S'\x02\x00\x00\x00\x00\x00\x00\x00'
p2526
tp2527
Rp2528
sg109
g11
(g15
S'\x92+e2\xeb\x88\x11@'
p2529
tp2530
Rp2531
ssg109
g2531
sg46
g11
(g12
(S'S6'
p2532
I0
I1
tp2533
Rp2534
(I3
S'|'
p2535
NNNI6
I1
I0
tp2536
bS'ISOMAP'
p2537
tp2538
Rp2539
sg55
F0.2
sg38
g2528
sg56
g11
(g12
(S'S8'
p2540
I0
I1
tp2541
Rp2542
(I3
S'|'
p2543
NNNI8
I1
I0
tp2544
bS'haralick'
p2545
tp2546
Rp2547
sg105
g2522
sg323
g2525
sg65
g11
(g15
S'\x91H\xfa\xef\xc9r\xdc?'
p2548
tp2549
Rp2550
sg69
g11
(g12
(S'S3'
p2551
I0
I1
tp2552
Rp2553
(I3
S'|'
p2554
NNNI3
I1
I0
tp2555
bS'SVM'
p2556
tp2557
Rp2558
sg78
I3
sg79
g80
sg81
g11
(g15
S'\x9dl\xcc\x0c\x8c\x8d\xea?'
p2559
tp2560
Rp2561
sg85
g86
sg87
g88
sbag4
(g5
g6
Ntp2562
Rp2563
(dp2564
g10
g11
(g15
S'\x00\x00\x00\x00\x00\x00\xf8\xff'
p2565
tp2566
Rp2567
sg27
g11
(g30
S'\x04\x00\x00\x00\x00\x00\x00\x00'
p2568
tp2569
Rp2570
sg25
g26
sg36
(dp2571
g27
g2570
sg105
g11
(g15
S'#<\x17\x92\xbb\x9dC@'
p2572
tp2573
Rp2574
sg323
g11
(g30
S'\x03\x00\x00\x00\x00\x00\x00\x00'
p2575
tp2576
Rp2577
sg38
g11
(g30
S'\x03\x00\x00\x00\x00\x00\x00\x00'
p2578
tp2579
Rp2580
sg109
g11
(g15
S'y\x94\xd2\x7f\xd7_\x14@'
p2581
tp2582
Rp2583
ssg109
g2583
sg46
g11
(g12
(S'S6'
p2584
I0
I1
tp2585
Rp2586
(I3
S'|'
p2587
NNNI6
I1
I0
tp2588
bS'ISOMAP'
p2589
tp2590
Rp2591
sg55
F0.2
sg38
g2580
sg56
g11
(g12
(S'S8'
p2592
I0
I1
tp2593
Rp2594
(I3
S'|'
p2595
NNNI8
I1
I0
tp2596
bS'haralick'
p2597
tp2598
Rp2599
sg105
g2574
sg323
g2577
sg65
g11
(g15
S'\xfc\x15L\xed\xe3\x18\xdf?'
p2600
tp2601
Rp2602
sg69
g11
(g12
(S'S3'
p2603
I0
I1
tp2604
Rp2605
(I3
S'|'
p2606
NNNI3
I1
I0
tp2607
bS'SVM'
p2608
tp2609
Rp2610
sg78
I3
sg79
g80
sg81
g11
(g15
S'\xb5,=\x1c^\xda\xe9?'
p2611
tp2612
Rp2613
sg85
g86
sg87
g88
sbag4
(g5
g6
Ntp2614
Rp2615
(dp2616
g10
g11
(g15
S'\x00\x00\x00\x00\x00\x00\xf8\xff'
p2617
tp2618
Rp2619
sg27
g11
(g30
S'\x04\x00\x00\x00\x00\x00\x00\x00'
p2620
tp2621
Rp2622
sg25
g26
sg36
(dp2623
g27
g2622
sg105
g11
(g15
S'\x90i)\xaf_\xc6D@'
p2624
tp2625
Rp2626
sg323
g11
(g30
S'\x02\x00\x00\x00\x00\x00\x00\x00'
p2627
tp2628
Rp2629
sg38
g11
(g30
S'\x02\x00\x00\x00\x00\x00\x00\x00'
p2630
tp2631
Rp2632
sg109
g11
(g15
S'\xc8\xff\x7f\x818$\x16@'
p2633
tp2634
Rp2635
ssg109
g2635
sg46
g11
(g12
(S'S6'
p2636
I0
I1
tp2637
Rp2638
(I3
S'|'
p2639
NNNI6
I1
I0
tp2640
bS'ISOMAP'
p2641
tp2642
Rp2643
sg55
F0.2
sg38
g2632
sg56
g11
(g12
(S'S8'
p2644
I0
I1
tp2645
Rp2646
(I3
S'|'
p2647
NNNI8
I1
I0
tp2648
bS'haralick'
p2649
tp2650
Rp2651
sg105
g2626
sg323
g2629
sg65
g11
(g15
S'7Ij)Q7\xe2?'
p2652
tp2653
Rp2654
sg69
g11
(g12
(S'S3'
p2655
I0
I1
tp2656
Rp2657
(I3
S'|'
p2658
NNNI3
I1
I0
tp2659
bS'SVM'
p2660
tp2661
Rp2662
sg78
I3
sg79
g80
sg81
g11
(g15
S' \x84\xbbL*o\xe9?'
p2663
tp2664
Rp2665
sg85
g86
sg87
g88
sbag4
(g5
g6
Ntp2666
Rp2667
(dp2668
g10
g11
(g15
S'\x00\x00\x00\x00\x00\x00\xf8\xff'
p2669
tp2670
Rp2671
sg27
g11
(g30
S'\x04\x00\x00\x00\x00\x00\x00\x00'
p2672
tp2673
Rp2674
sg25
g26
sg36
(dp2675
g27
g2674
sg105
g11
(g15
S'\x86\xce\xd4\xf0z\x9b=@'
p2676
tp2677
Rp2678
sg38
g11
(g30
S'\x04\x00\x00\x00\x00\x00\x00\x00'
p2679
tp2680
Rp2681
sg109
g11
(g15
S'\xb1\xf9\xcbJ\xf2\xed\xd9?'
p2682
tp2683
Rp2684
ssg109
g2684
sg46
g11
(g12
(S'S6'
p2685
I0
I1
tp2686
Rp2687
(I3
S'|'
p2688
NNNI6
I1
I0
tp2689
bS'ISOMAP'
p2690
tp2691
Rp2692
sg55
F0.2
sg38
g2681
sg56
g11
(g12
(S'S3'
p2693
I0
I1
tp2694
Rp2695
(I3
S'|'
p2696
NNNI3
I1
I0
tp2697
bS'VGG'
p2698
tp2699
Rp2700
sg105
g2678
sg65
g11
(g15
S'\x99k\xfa\x06[\xc0\xd7?'
p2701
tp2702
Rp2703
sg69
g11
(g12
(S'S3'
p2704
I0
I1
tp2705
Rp2706
(I3
S'|'
p2707
NNNI3
I1
I0
tp2708
bS'SVM'
p2709
tp2710
Rp2711
sg78
I3
sg79
g80
sg81
g11
(g15
S'U\xb1\xf7j\x84Q\xeb?'
p2712
tp2713
Rp2714
sg85
g86
sg87
g88
sbag4
(g5
g6
Ntp2715
Rp2716
(dp2717
g10
g11
(g15
S'\x00\x00\x00\x00\x00\x00\xf8\xff'
p2718
tp2719
Rp2720
sg21
g11
(g15
S'\x00\x00\x00\x00\x00`i@'
p2721
tp2722
Rp2723
sg25
g26
sg27
g11
(g30
S'\x06\x00\x00\x00\x00\x00\x00\x00'
p2724
tp2725
Rp2726
sg36
(dp2727
g21
g2723
sg27
g2726
sg38
g11
(g30
S'\x04\x00\x00\x00\x00\x00\x00\x00'
p2728
tp2729
Rp2730
sg42
g11
(g15
S'Hm\xe2\x1dJ\xb2\xd7?'
p2731
tp2732
Rp2733
ssg46
g11
(g12
(S'S6'
p2734
I0
I1
tp2735
Rp2736
(I3
S'|'
p2737
NNNI6
I1
I0
tp2738
bS'ISOMAP'
p2739
tp2740
Rp2741
sg55
F0.2
sg38
g2730
sg56
g11
(g12
(S'S9'
p2742
I0
I1
tp2743
Rp2744
(I3
S'|'
p2745
NNNI9
I1
I0
tp2746
bS'inception'
p2747
tp2748
Rp2749
sg65
g11
(g15
S'Q\x10&\xc8\x8d\xd2\xea?'
p2750
tp2751
Rp2752
sg69
g11
(g12
(S'S2'
p2753
I0
I1
tp2754
Rp2755
(I3
S'|'
p2756
NNNI2
I1
I0
tp2757
bS'RF'
p2758
tp2759
Rp2760
sg78
I3
sg42
g2733
sg79
g80
sg81
g11
(g15
S' \x1a&\x0e>\xde\xe5?'
p2761
tp2762
Rp2763
sg85
g86
sg87
g88
sbag4
(g5
g6
Ntp2764
Rp2765
(dp2766
g10
g11
(g15
S'\x00\x00\x00\x00\x00\x00\xf8\xff'
p2767
tp2768
Rp2769
sg27
g11
(g30
S'\x07\x00\x00\x00\x00\x00\x00\x00'
p2770
tp2771
Rp2772
sg25
g26
sg36
(dp2773
g27
g2772
sg105
g11
(g15
S'{\xb6\xc0\xc2\x96\xf23@'
p2774
tp2775
Rp2776
sg38
g11
(g30
S'\x04\x00\x00\x00\x00\x00\x00\x00'
p2777
tp2778
Rp2779
sg109
g11
(g15
S'\xa7?b\xd1!N\x1d@'
p2780
tp2781
Rp2782
ssg109
g2782
sg46
g11
(g12
(S'S6'
p2783
I0
I1
tp2784
Rp2785
(I3
S'|'
p2786
NNNI6
I1
I0
tp2787
bS'ISOMAP'
p2788
tp2789
Rp2790
sg55
F0.2
sg38
g2779
sg56
g11
(g12
(S'S3'
p2791
I0
I1
tp2792
Rp2793
(I3
S'|'
p2794
NNNI3
I1
I0
tp2795
bS'VGG'
p2796
tp2797
Rp2798
sg105
g2776
sg65
g11
(g15
S'\xb9\xeb\xd5\x8d\xa4\xe9\xd8?'
p2799
tp2800
Rp2801
sg69
g11
(g12
(S'S3'
p2802
I0
I1
tp2803
Rp2804
(I3
S'|'
p2805
NNNI3
I1
I0
tp2806
bS'SVM'
p2807
tp2808
Rp2809
sg78
I3
sg79
g80
sg81
g11
(g15
S'\x17\xe3H}\x14\xe6\xea?'
p2810
tp2811
Rp2812
sg85
g86
sg87
g88
sbag4
(g5
g6
Ntp2813
Rp2814
(dp2815
g10
g11
(g15
S'\x00\x00\x00\x00\x00\x00\xf8\xff'
p2816
tp2817
Rp2818
sg21
g11
(g15
S'\x00\x00\x00\x00\x00@a@'
p2819
tp2820
Rp2821
sg25
g26
sg27
g11
(g30
S'\x07\x00\x00\x00\x00\x00\x00\x00'
p2822
tp2823
Rp2824
sg36
(dp2825
g21
g2821
sg27
g2824
sg323
g11
(g30
S'\x02\x00\x00\x00\x00\x00\x00\x00'
p2826
tp2827
Rp2828
sg38
g11
(g30
S'\x02\x00\x00\x00\x00\x00\x00\x00'
p2829
tp2830
Rp2831
sg42
g11
(g15
S'\xac\xe8.\xb0\x9aJ\xed?'
p2832
tp2833
Rp2834
ssg46
g11
(g12
(S'S6'
p2835
I0
I1
tp2836
Rp2837
(I3
S'|'
p2838
NNNI6
I1
I0
tp2839
bS'ISOMAP'
p2840
tp2841
Rp2842
sg55
F0.2
sg38
g2831
sg56
g11
(g12
(S'S8'
p2843
I0
I1
tp2844
Rp2845
(I3
S'|'
p2846
NNNI8
I1
I0
tp2847
bS'haralick'
p2848
tp2849
Rp2850
sg323
g2828
sg65
g11
(g15
S'\x97\xf2Ft\x98\x94\xeb?'
p2851
tp2852
Rp2853
sg69
g11
(g12
(S'S2'
p2854
I0
I1
tp2855
Rp2856
(I3
S'|'
p2857
NNNI2
I1
I0
tp2858
bS'RF'
p2859
tp2860
Rp2861
sg78
I3
sg42
g2834
sg79
g80
sg81
g11
(g15
S'pK\x96\x00,\xd5\xea?'
p2862
tp2863
Rp2864
sg85
g86
sg87
g88
sbag4
(g5
g6
Ntp2865
Rp2866
(dp2867
g10
g11
(g15
S'\x00\x00\x00\x00\x00\x00\xf8\xff'
p2868
tp2869
Rp2870
sg27
g11
(g30
S'\x06\x00\x00\x00\x00\x00\x00\x00'
p2871
tp2872
Rp2873
sg25
g26
sg36
(dp2874
g27
g2873
sg105
g11
(g15
S'3l\xb1\x9a\xf6\xabK@'
p2875
tp2876
Rp2877
sg323
g11
(g30
S'\x01\x00\x00\x00\x00\x00\x00\x00'
p2878
tp2879
Rp2880
sg38
g11
(g30
S'\x04\x00\x00\x00\x00\x00\x00\x00'
p2881
tp2882
Rp2883
sg109
g11
(g15
S'\xf2\xe7\x95\xe6?\x9d\xf9?'
p2884
tp2885
Rp2886
ssg109
g2886
sg46
g11
(g12
(S'S6'
p2887
I0
I1
tp2888
Rp2889
(I3
S'|'
p2890
NNNI6
I1
I0
tp2891
bS'ISOMAP'
p2892
tp2893
Rp2894
sg55
F0.2
sg38
g2883
sg56
g11
(g12
(S'S8'
p2895
I0
I1
tp2896
Rp2897
(I3
S'|'
p2898
NNNI8
I1
I0
tp2899
bS'haralick'
p2900
tp2901
Rp2902
sg105
g2877
sg323
g2880
sg65
g11
(g15
S'P\x0f\x13OpA\xd9?'
p2903
tp2904
Rp2905
sg69
g11
(g12
(S'S3'
p2906
I0
I1
tp2907
Rp2908
(I3
S'|'
p2909
NNNI3
I1
I0
tp2910
bS'SVM'
p2911
tp2912
Rp2913
sg78
I3
sg79
g80
sg81
g11
(g15
S'e$\xa8\xa0\xaf\x91\xe9?'
p2914
tp2915
Rp2916
sg85
g86
sg87
g88
sbag4
(g5
g6
Ntp2917
Rp2918
(dp2919
g10
g11
(g15
S'\x00\x00\x00\x00\x00\x00\xf8\xff'
p2920
tp2921
Rp2922
sg27
g11
(g30
S'\x04\x00\x00\x00\x00\x00\x00\x00'
p2923
tp2924
Rp2925
sg25
g26
sg36
(dp2926
g27
g2925
sg105
g11
(g15
S't\xeav\xc1\xe4mV@'
p2927
tp2928
Rp2929
sg38
g11
(g30
S'\x03\x00\x00\x00\x00\x00\x00\x00'
p2930
tp2931
Rp2932
sg109
g11
(g15
S'_J\xbe\x91\x80v\xd6?'
p2933
tp2934
Rp2935
ssg109
g2935
sg46
g11
(g12
(S'S6'
p2936
I0
I1
tp2937
Rp2938
(I3
S'|'
p2939
NNNI6
I1
I0
tp2940
bS'ISOMAP'
p2941
tp2942
Rp2943
sg55
F0.2
sg38
g2932
sg56
g11
(g12
(S'S9'
p2944
I0
I1
tp2945
Rp2946
(I3
S'|'
p2947
NNNI9
I1
I0
tp2948
bS'inception'
p2949
tp2950
Rp2951
sg105
g2929
sg65
g11
(g15
S'}q\xffld\xf1\xdf?'
p2952
tp2953
Rp2954
sg69
g11
(g12
(S'S3'
p2955
I0
I1
tp2956
Rp2957
(I3
S'|'
p2958
NNNI3
I1
I0
tp2959
bS'SVM'
p2960
tp2961
Rp2962
sg78
I3
sg79
g80
sg81
g11
(g15
S'\xf3\xcf\x14\x8b\x9ew\xe1?'
p2963
tp2964
Rp2965
sg85
g86
sg87
g88
sbag4
(g5
g6
Ntp2966
Rp2967
(dp2968
g10
g11
(g15
S'\x00\x00\x00\x00\x00\x00\xf8\xff'
p2969
tp2970
Rp2971
sg27
g11
(g30
S'\x05\x00\x00\x00\x00\x00\x00\x00'
p2972
tp2973
Rp2974
sg25
g26
sg36
(dp2975
g27
g2974
sg105
g11
(g15
S'\xa8\xcf\xc4\xa2A\n\x13@'
p2976
tp2977
Rp2978
sg323
g11
(g30
S'\x01\x00\x00\x00\x00\x00\x00\x00'
p2979
tp2980
Rp2981
sg38
g11
(g30
S'\x03\x00\x00\x00\x00\x00\x00\x00'
p2982
tp2983
Rp2984
sg109
g11
(g15
S'\x8d\xb2\x01\x9d~\xa3\x11@'
p2985
tp2986
Rp2987
ssg109
g2987
sg46
g11
(g12
(S'S6'
p2988
I0
I1
tp2989
Rp2990
(I3
S'|'
p2991
NNNI6
I1
I0
tp2992
bS'ISOMAP'
p2993
tp2994
Rp2995
sg55
F0.2
sg38
g2984
sg56
g11
(g12
(S'S8'
p2996
I0
I1
tp2997
Rp2998
(I3
S'|'
p2999
NNNI8
I1
I0
tp3000
bS'haralick'
p3001
tp3002
Rp3003
sg105
g2978
sg323
g2981
sg65
g11
(g15
S'\x9b\x00\xd6\xc1\x95\x08\xd9?'
p3004
tp3005
Rp3006
sg69
g11
(g12
(S'S3'
p3007
I0
I1
tp3008
Rp3009
(I3
S'|'
p3010
NNNI3
I1
I0
tp3011
bS'SVM'
p3012
tp3013
Rp3014
sg78
I3
sg79
g80
sg81
g11
(g15
S'\xb4\xc4\xa3\xe5ai\xea?'
p3015
tp3016
Rp3017
sg85
g86
sg87
g88
sbag4
(g5
g6
Ntp3018
Rp3019
(dp3020
g10
g11
(g15
S'\x00\x00\x00\x00\x00\x00\xf8\xff'
p3021
tp3022
Rp3023
sg27
g11
(g30
S'\x07\x00\x00\x00\x00\x00\x00\x00'
p3024
tp3025
Rp3026
sg25
g26
sg36
(dp3027
g27
g3026
sg105
g11
(g15
S'k\x1eD\xc8iOU@'
p3028
tp3029
Rp3030
sg38
g11
(g30
S'\x04\x00\x00\x00\x00\x00\x00\x00'
p3031
tp3032
Rp3033
sg109
g11
(g15
S'\xf5.e\xffyu\xd2?'
p3034
tp3035
Rp3036
ssg109
g3036
sg46
g11
(g12
(S'S6'
p3037
I0
I1
tp3038
Rp3039
(I3
S'|'
p3040
NNNI6
I1
I0
tp3041
bS'ISOMAP'
p3042
tp3043
Rp3044
sg55
F0.2
sg38
g3033
sg56
g11
(g12
(S'S3'
p3045
I0
I1
tp3046
Rp3047
(I3
S'|'
p3048
NNNI3
I1
I0
tp3049
bS'VGG'
p3050
tp3051
Rp3052
sg105
g3030
sg65
g11
(g15
S'\x18\x9f"\xf3\xf5\xaa\xd7?'
p3053
tp3054
Rp3055
sg69
g11
(g12
(S'S3'
p3056
I0
I1
tp3057
Rp3058
(I3
S'|'
p3059
NNNI3
I1
I0
tp3060
bS'SVM'
p3061
tp3062
Rp3063
sg78
I3
sg79
g80
sg81
g11
(g15
S'\xb8\x07i\xa6+!\xea?'
p3064
tp3065
Rp3066
sg85
g86
sg87
g88
sbag4
(g5
g6
Ntp3067
Rp3068
(dp3069
g10
g11
(g15
S'\x00\x00\x00\x00\x00\x00\xf8\xff'
p3070
tp3071
Rp3072
sg21
g11
(g15
S'\x00\x00\x00\x00\x00@R@'
p3073
tp3074
Rp3075
sg95
g203
sg25
g26
sg36
(dp3076
g21
g3075
sg42
g11
(g15
S')\x14\xf0O\xb6e\xd6?'
p3077
tp3078
Rp3079
sg95
g203
ssg46
g11
(g12
(S'S3'
p3080
I0
I1
tp3081
Rp3082
(I3
S'|'
p3083
NNNI3
I1
I0
tp3084
bS'PCA'
p3085
tp3086
Rp3087
sg55
F0.2
sg56
g11
(g12
(S'S3'
p3088
I0
I1
tp3089
Rp3090
(I3
S'|'
p3091
NNNI3
I1
I0
tp3092
bS'VGG'
p3093
tp3094
Rp3095
sg65
g11
(g15
S'\x1b\x0c\xa2\x8e\xfam\xd2?'
p3096
tp3097
Rp3098
sg69
g11
(g12
(S'S2'
p3099
I0
I1
tp3100
Rp3101
(I3
S'|'
p3102
NNNI2
I1
I0
tp3103
bS'RF'
p3104
tp3105
Rp3106
sg78
I3
sg42
g3079
sg79
g80
sg81
g11
(g15
S'\xc5\xa1\xe9Yy:\xec?'
p3107
tp3108
Rp3109
sg85
g86
sg87
g88
sbag4
(g5
g6
Ntp3110
Rp3111
(dp3112
g10
g11
(g15
S'\x00\x00\x00\x00\x00\x00\xf8\xff'
p3113
tp3114
Rp3115
sg95
g203
sg25
g26
sg36
(dp3116
g95
g203
sg105
g11
(g15
S'y\x0b6\xbaBrQ@'
p3117
tp3118
Rp3119
sg109
g11
(g15
S'\x1f\x9e\xaa\xc1\xfd\x84\x03@'
p3120
tp3121
Rp3122
ssg46
g11
(g12
(S'S3'
p3123
I0
I1
tp3124
Rp3125
(I3
S'|'
p3126
NNNI3
I1
I0
tp3127
bS'PCA'
p3128
tp3129
Rp3130
sg55
F0.2
sg109
g3122
sg56
g11
(g12
(S'S3'
p3131
I0
I1
tp3132
Rp3133
(I3
S'|'
p3134
NNNI3
I1
I0
tp3135
bS'VGG'
p3136
tp3137
Rp3138
sg105
g3119
sg65
g11
(g15
S'\xfcu\x8a\x1b\x8a\x96\xd8?'
p3139
tp3140
Rp3141
sg69
g11
(g12
(S'S3'
p3142
I0
I1
tp3143
Rp3144
(I3
S'|'
p3145
NNNI3
I1
I0
tp3146
bS'SVM'
p3147
tp3148
Rp3149
sg78
I3
sg79
g80
sg81
g11
(g15
S'\x8c\xe62\x9a\xcbh\xea?'
p3150
tp3151
Rp3152
sg85
g86
sg87
g88
sbag4
(g5
g6
Ntp3153
Rp3154
(dp3155
g10
g11
(g15
S'\x00\x00\x00\x00\x00\x00\xf8\xff'
p3156
tp3157
Rp3158
sg21
g11
(g15
S'\x00\x00\x00\x00\x00@e@'
p3159
tp3160
Rp3161
sg95
g103
sg25
g26
sg36
(dp3162
g21
g3161
sg42
g11
(g15
S'\x1e\x95\x89 \x15\xfa\xdd?'
p3163
tp3164
Rp3165
sg95
g103
sg323
g11
(g30
S'\x02\x00\x00\x00\x00\x00\x00\x00'
p3166
tp3167
Rp3168
ssg46
g11
(g12
(S'S3'
p3169
I0
I1
tp3170
Rp3171
(I3
S'|'
p3172
NNNI3
I1
I0
tp3173
bS'PCA'
p3174
tp3175
Rp3176
sg55
F0.2
sg56
g11
(g12
(S'S8'
p3177
I0
I1
tp3178
Rp3179
(I3
S'|'
p3180
NNNI8
I1
I0
tp3181
bS'haralick'
p3182
tp3183
Rp3184
sg323
g3168
sg65
g11
(g15
S'\x9c$\x12\t\x82\x03\xe9?'
p3185
tp3186
Rp3187
sg69
g11
(g12
(S'S2'
p3188
I0
I1
tp3189
Rp3190
(I3
S'|'
p3191
NNNI2
I1
I0
tp3192
bS'RF'
p3193
tp3194
Rp3195
sg78
I3
sg42
g3165
sg79
g80
sg81
g11
(g15
S'\xc7\t\x83\x90u\xab\xeb?'
p3196
tp3197
Rp3198
sg85
g86
sg87
g88
sbag4
(g5
g6
Ntp3199
Rp3200
(dp3201
g10
g11
(g15
S'\x00\x00\x00\x00\x00\x00\xf8\xff'
p3202
tp3203
Rp3204
sg95
g203
sg25
g26
sg36
(dp3205
g95
g203
sg105
g11
(g15
S'\x9cT\xd7\xd1\x0e\xcf\xf2?'
p3206
tp3207
Rp3208
sg323
g11
(g30
S'\x01\x00\x00\x00\x00\x00\x00\x00'
p3209
tp3210
Rp3211
sg109
g11
(g15
S'\xfeY\xc6"\xd3\xb5\x12@'
p3212
tp3213
Rp3214
ssg46
g11
(g12
(S'S3'
p3215
I0
I1
tp3216
Rp3217
(I3
S'|'
p3218
NNNI3
I1
I0
tp3219
bS'PCA'
p3220
tp3221
Rp3222
sg55
F0.2
sg109
g3214
sg56
g11
(g12
(S'S8'
p3223
I0
I1
tp3224
Rp3225
(I3
S'|'
p3226
NNNI8
I1
I0
tp3227
bS'haralick'
p3228
tp3229
Rp3230
sg105
g3208
sg323
g3211
sg65
g11
(g15
S'\x18W\xc4\xfeg\xf8\xdc?'
p3231
tp3232
Rp3233
sg69
g11
(g12
(S'S3'
p3234
I0
I1
tp3235
Rp3236
(I3
S'|'
p3237
NNNI3
I1
I0
tp3238
bS'SVM'
p3239
tp3240
Rp3241
sg78
I3
sg79
g80
sg81
g11
(g15
S'7\xee}^\x9d\x1f\xe7?'
p3242
tp3243
Rp3244
sg85
g86
sg87
g88
sbag4
(g5
g6
Ntp3245
Rp3246
(dp3247
g10
g11
(g15
S'\x00\x00\x00\x00\x00\x00\xf8\xff'
p3248
tp3249
Rp3250
sg21
g11
(g15
S'\x00\x00\x00\x00\x00\x00 @'
p3251
tp3252
Rp3253
sg25
g26
sg27
g11
(g30
S'\x06\x00\x00\x00\x00\x00\x00\x00'
p3254
tp3255
Rp3256
sg36
(dp3257
g21
g3253
sg27
g3256
sg38
g11
(g30
S'\x03\x00\x00\x00\x00\x00\x00\x00'
p3258
tp3259
Rp3260
sg42
g11
(g15
S'\r7\x8f\xc0\xe9\x17\xe0?'
p3261
tp3262
Rp3263
ssg46
g11
(g12
(S'S6'
p3264
I0
I1
tp3265
Rp3266
(I3
S'|'
p3267
NNNI6
I1
I0
tp3268
bS'ISOMAP'
p3269
tp3270
Rp3271
sg55
F0.2
sg38
g3260
sg56
g11
(g12
(S'S9'
p3272
I0
I1
tp3273
Rp3274
(I3
S'|'
p3275
NNNI9
I1
I0
tp3276
bS'inception'
p3277
tp3278
Rp3279
sg65
g11
(g15
S'\xd3\x00\xb2\xc4\xe9\x9b\x00@'
p3280
tp3281
Rp3282
sg69
g11
(g12
(S'S2'
p3283
I0
I1
tp3284
Rp3285
(I3
S'|'
p3286
NNNI2
I1
I0
tp3287
bS'RF'
p3288
tp3289
Rp3290
sg78
I3
sg42
g3263
sg79
g80
sg81
g11
(g15
S' \xcer)\xbc\x96\xe5?'
p3291
tp3292
Rp3293
sg85
g86
sg87
g88
sbag4
(g5
g6
Ntp3294
Rp3295
(dp3296
g10
g11
(g15
S'\x00\x00\x00\x00\x00\x00\xf8\xff'
p3297
tp3298
Rp3299
sg21
g11
(g15
S'\x00\x00\x00\x00\x00\xc0r@'
p3300
tp3301
Rp3302
sg95
g103
sg25
g26
sg36
(dp3303
g21
g3302
sg42
g11
(g15
S'Va\xfe:*o\xe8?'
p3304
tp3305
Rp3306
sg95
g103
ssg46
g11
(g12
(S'S3'
p3307
I0
I1
tp3308
Rp3309
(I3
S'|'
p3310
NNNI3
I1
I0
tp3311
bS'PCA'
p3312
tp3313
Rp3314
sg55
F0.2
sg56
g11
(g12
(S'S9'
p3315
I0
I1
tp3316
Rp3317
(I3
S'|'
p3318
NNNI9
I1
I0
tp3319
bS'inception'
p3320
tp3321
Rp3322
sg65
g11
(g15
S'\x18%\xa0\xee\xd4\xbf\xe0?'
p3323
tp3324
Rp3325
sg69
g11
(g12
(S'S2'
p3326
I0
I1
tp3327
Rp3328
(I3
S'|'
p3329
NNNI2
I1
I0
tp3330
bS'RF'
p3331
tp3332
Rp3333
sg78
I3
sg42
g3306
sg79
g80
sg81
g11
(g15
S'p\xc5\x1ap\xc5\x1a\xe8?'
p3334
tp3335
Rp3336
sg85
g86
sg87
g88
sbag4
(g5
g6
Ntp3337
Rp3338
(dp3339
g10
g11
(g15
S'\x00\x00\x00\x00\x00\x00\xf8\xff'
p3340
tp3341
Rp3342
sg21
g11
(g15
S'\x00\x00\x00\x00\x00\x00D@'
p3343
tp3344
Rp3345
sg25
g26
sg27
g11
(g30
S'\x07\x00\x00\x00\x00\x00\x00\x00'
p3346
tp3347
Rp3348
sg36
(dp3349
g21
g3345
sg27
g3348
sg38
g11
(g30
S'\x02\x00\x00\x00\x00\x00\x00\x00'
p3350
tp3351
Rp3352
sg42
g11
(g15
S'\xbeTo\xba\xfc\x9c\xe8?'
p3353
tp3354
Rp3355
ssg46
g11
(g12
(S'S6'
p3356
I0
I1
tp3357
Rp3358
(I3
S'|'
p3359
NNNI6
I1
I0
tp3360
bS'ISOMAP'
p3361
tp3362
Rp3363
sg55
F0.2
sg38
g3352
sg56
g11
(g12
(S'S9'
p3364
I0
I1
tp3365
Rp3366
(I3
S'|'
p3367
NNNI9
I1
I0
tp3368
bS'inception'
p3369
tp3370
Rp3371
sg65
g11
(g15
S'O8\x93\xb4\xae/\xf1?'
p3372
tp3373
Rp3374
sg69
g11
(g12
(S'S2'
p3375
I0
I1
tp3376
Rp3377
(I3
S'|'
p3378
NNNI2
I1
I0
tp3379
bS'RF'
p3380
tp3381
Rp3382
sg78
I3
sg42
g3355
sg79
g80
sg81
g11
(g15
S'\x83\xec\x17\xc1n\x13\xe6?'
p3383
tp3384
Rp3385
sg85
g86
sg87
g88
sbag4
(g5
g6
Ntp3386
Rp3387
(dp3388
g10
g11
(g15
S'\x00\x00\x00\x00\x00\x00\xf8\xff'
p3389
tp3390
Rp3391
sg21
g11
(g15
S'\x00\x00\x00\x00\x00@R@'
p3392
tp3393
Rp3394
sg95
g103
sg25
g26
sg36
(dp3395
g21
g3394
sg42
g11
(g15
S'\x14\xe5X\xf3>\xc2\xe9?'
p3396
tp3397
Rp3398
sg95
g103
ssg46
g11
(g12
(S'S3'
p3399
I0
I1
tp3400
Rp3401
(I3
S'|'
p3402
NNNI3
I1
I0
tp3403
bS'PCA'
p3404
tp3405
Rp3406
sg55
F0.2
sg56
g11
(g12
(S'S3'
p3407
I0
I1
tp3408
Rp3409
(I3
S'|'
p3410
NNNI3
I1
I0
tp3411
bS'VGG'
p3412
tp3413
Rp3414
sg65
g11
(g15
S'\xf4x\x8f\xeb\xc8\xd7\xdf?'
p3415
tp3416
Rp3417
sg69
g11
(g12
(S'S2'
p3418
I0
I1
tp3419
Rp3420
(I3
S'|'
p3421
NNNI2
I1
I0
tp3422
bS'RF'
p3423
tp3424
Rp3425
sg78
I3
sg42
g3398
sg79
g80
sg81
g11
(g15
S'H\x9d\xf2G\x9d\xf2\xeb?'
p3426
tp3427
Rp3428
sg85
g86
sg87
g88
sbag4
(g5
g6
Ntp3429
Rp3430
(dp3431
g10
g11
(g15
S'\x00\x00\x00\x00\x00\x00\xf8\xff'
p3432
tp3433
Rp3434
sg27
g11
(g30
S'\x07\x00\x00\x00\x00\x00\x00\x00'
p3435
tp3436
Rp3437
sg25
g26
sg36
(dp3438
g27
g3437
sg105
g11
(g15
S'\xb9\xbb\x14\xcd\xf4HI@'
p3439
tp3440
Rp3441
sg38
g11
(g30
S'\x04\x00\x00\x00\x00\x00\x00\x00'
p3442
tp3443
Rp3444
sg109
g11
(g15
S'7\xfcW\xde\x82B\x0f@'
p3445
tp3446
Rp3447
ssg109
g3447
sg46
g11
(g12
(S'S6'
p3448
I0
I1
tp3449
Rp3450
(I3
S'|'
p3451
NNNI6
I1
I0
tp3452
bS'ISOMAP'
p3453
tp3454
Rp3455
sg55
F0.2
sg38
g3444
sg56
g11
(g12
(S'S3'
p3456
I0
I1
tp3457
Rp3458
(I3
S'|'
p3459
NNNI3
I1
I0
tp3460
bS'VGG'
p3461
tp3462
Rp3463
sg105
g3441
sg65
g11
(g15
S'_\x0e#\x1b\x92S\xda?'
p3464
tp3465
Rp3466
sg69
g11
(g12
(S'S3'
p3467
I0
I1
tp3468
Rp3469
(I3
S'|'
p3470
NNNI3
I1
I0
tp3471
bS'SVM'
p3472
tp3473
Rp3474
sg78
I3
sg79
g80
sg81
g11
(g15
S'\xcb\xb4\xe1\x87;\xd4\xea?'
p3475
tp3476
Rp3477
sg85
g86
sg87
g88
sbag4
(g5
g6
Ntp3478
Rp3479
(dp3480
g10
g11
(g15
S'\x00\x00\x00\x00\x00\x00\xf8\xff'
p3481
tp3482
Rp3483
sg95
g203
sg25
g26
sg36
(dp3484
g95
g203
sg105
g11
(g15
S'D\xae\x00i\x15\xbe:@'
p3485
tp3486
Rp3487
sg323
g11
(g30
S'\x02\x00\x00\x00\x00\x00\x00\x00'
p3488
tp3489
Rp3490
sg109
g11
(g15
S'\xfa\xc2\xcf\x01\xceh\x01@'
p3491
tp3492
Rp3493
ssg46
g11
(g12
(S'S3'
p3494
I0
I1
tp3495
Rp3496
(I3
S'|'
p3497
NNNI3
I1
I0
tp3498
bS'PCA'
p3499
tp3500
Rp3501
sg55
F0.2
sg109
g3493
sg56
g11
(g12
(S'S8'
p3502
I0
I1
tp3503
Rp3504
(I3
S'|'
p3505
NNNI8
I1
I0
tp3506
bS'haralick'
p3507
tp3508
Rp3509
sg105
g3487
sg323
g3490
sg65
g11
(g15
S'\t\x8d\x88\x13\x80\xe5\xda?'
p3510
tp3511
Rp3512
sg69
g11
(g12
(S'S3'
p3513
I0
I1
tp3514
Rp3515
(I3
S'|'
p3516
NNNI3
I1
I0
tp3517
bS'SVM'
p3518
tp3519
Rp3520
sg78
I3
sg79
g80
sg81
g11
(g15
S'p\x97I\xe5\xad\x1c\xeb?'
p3521
tp3522
Rp3523
sg85
g86
sg87
g88
sbag4
(g5
g6
Ntp3524
Rp3525
(dp3526
g10
g11
(g15
S'\x00\x00\x00\x00\x00\x00\xf8\xff'
p3527
tp3528
Rp3529
sg21
g11
(g15
S'\x00\x00\x00\x00\x00`i@'
p3530
tp3531
Rp3532
sg95
g103
sg25
g26
sg36
(dp3533
g21
g3532
sg42
g11
(g15
S'4\xfe5B\x8aC\xef?'
p3534
tp3535
Rp3536
sg95
g103
sg323
g11
(g30
S'\x02\x00\x00\x00\x00\x00\x00\x00'
p3537
tp3538
Rp3539
ssg46
g11
(g12
(S'S3'
p3540
I0
I1
tp3541
Rp3542
(I3
S'|'
p3543
NNNI3
I1
I0
tp3544
bS'PCA'
p3545
tp3546
Rp3547
sg55
F0.2
sg56
g11
(g12
(S'S8'
p3548
I0
I1
tp3549
Rp3550
(I3
S'|'
p3551
NNNI8
I1
I0
tp3552
bS'haralick'
p3553
tp3554
Rp3555
sg323
g3539
sg65
g11
(g15
S'\xff\x8b5SQ\x9b\xe4?'
p3556
tp3557
Rp3558
sg69
g11
(g12
(S'S2'
p3559
I0
I1
tp3560
Rp3561
(I3
S'|'
p3562
NNNI2
I1
I0
tp3563
bS'RF'
p3564
tp3565
Rp3566
sg78
I3
sg42
g3536
sg79
g80
sg81
g11
(g15
S'1\xf9g\x8aE\xcf\xeb?'
p3567
tp3568
Rp3569
sg85
g86
sg87
g88
sbag4
(g5
g6
Ntp3570
Rp3571
(dp3572
g10
g11
(g15
S'\x00\x00\x00\x00\x00\x00\xf8\xff'
p3573
tp3574
Rp3575
sg21
g11
(g15
S'\x00\x00\x00\x00\x00@Z@'
p3576
tp3577
Rp3578
sg95
g103
sg25
g26
sg36
(dp3579
g21
g3578
sg42
g11
(g15
S'$\x98\xde\xc7\xc4\xfb\xe8?'
p3580
tp3581
Rp3582
sg95
g103
ssg46
g11
(g12
(S'S3'
p3583
I0
I1
tp3584
Rp3585
(I3
S'|'
p3586
NNNI3
I1
I0
tp3587
bS'PCA'
p3588
tp3589
Rp3590
sg55
F0.2
sg56
g11
(g12
(S'S3'
p3591
I0
I1
tp3592
Rp3593
(I3
S'|'
p3594
NNNI3
I1
I0
tp3595
bS'VGG'
p3596
tp3597
Rp3598
sg65
g11
(g15
S'\xd8\xf2\x83\xa0B=\xd7?'
p3599
tp3600
Rp3601
sg69
g11
(g12
(S'S2'
p3602
I0
I1
tp3603
Rp3604
(I3
S'|'
p3605
NNNI2
I1
I0
tp3606
bS'RF'
p3607
tp3608
Rp3609
sg78
I3
sg42
g3582
sg79
g80
sg81
g11
(g15
S'\x93\xcbY=v\x04\xec?'
p3610
tp3611
Rp3612
sg85
g86
sg87
g88
sbag4
(g5
g6
Ntp3613
Rp3614
(dp3615
g10
g11
(g15
S'\x00\x00\x00\x00\x00\x00\xf8\xff'
p3616
tp3617
Rp3618
sg95
g203
sg25
g26
sg36
(dp3619
g95
g203
sg105
g11
(g15
S'o\xd1/\x18\xbd\xa6S@'
p3620
tp3621
Rp3622
sg109
g11
(g15
S'\x02\xcf\x02#7\x99\xf8?'
p3623
tp3624
Rp3625
ssg46
g11
(g12
(S'S3'
p3626
I0
I1
tp3627
Rp3628
(I3
S'|'
p3629
NNNI3
I1
I0
tp3630
bS'PCA'
p3631
tp3632
Rp3633
sg55
F0.2
sg109
g3625
sg56
g11
(g12
(S'S9'
p3634
I0
I1
tp3635
Rp3636
(I3
S'|'
p3637
NNNI9
I1
I0
tp3638
bS'inception'
p3639
tp3640
Rp3641
sg105
g3622
sg65
g11
(g15
S'\xe0\xf5\xb0\x1a\xcei\xe0?'
p3642
tp3643
Rp3644
sg69
g11
(g12
(S'S3'
p3645
I0
I1
tp3646
Rp3647
(I3
S'|'
p3648
NNNI3
I1
I0
tp3649
bS'SVM'
p3650
tp3651
Rp3652
sg78
I3
sg79
g80
sg81
g11
(g15
S'&\x95\xb7r\xfc\xe8\xe3?'
p3653
tp3654
Rp3655
sg85
g86
sg87
g88
sbag4
(g5
g6
Ntp3656
Rp3657
(dp3658
g10
g11
(g15
S'\x00\x00\x00\x00\x00\x00\xf8\xff'
p3659
tp3660
Rp3661
sg21
g11
(g15
S'\x00\x00\x00\x00\x00@a@'
p3662
tp3663
Rp3664
sg25
g26
sg27
g11
(g30
S'\x05\x00\x00\x00\x00\x00\x00\x00'
p3665
tp3666
Rp3667
sg36
(dp3668
g21
g3664
sg27
g3667
sg38
g11
(g30
S'\x03\x00\x00\x00\x00\x00\x00\x00'
p3669
tp3670
Rp3671
sg42
g11
(g15
S'\x80\x0b\x11@\xef\xfa\xd6?'
p3672
tp3673
Rp3674
ssg46
g11
(g12
(S'S6'
p3675
I0
I1
tp3676
Rp3677
(I3
S'|'
p3678
NNNI6
I1
I0
tp3679
bS'ISOMAP'
p3680
tp3681
Rp3682
sg55
F0.2
sg38
g3671
sg56
g11
(g12
(S'S3'
p3683
I0
I1
tp3684
Rp3685
(I3
S'|'
p3686
NNNI3
I1
I0
tp3687
bS'VGG'
p3688
tp3689
Rp3690
sg65
g11
(g15
S'\xb9|\xe9\xe8\x1dq\xe3?'
p3691
tp3692
Rp3693
sg69
g11
(g12
(S'S2'
p3694
I0
I1
tp3695
Rp3696
(I3
S'|'
p3697
NNNI2
I1
I0
tp3698
bS'RF'
p3699
tp3700
Rp3701
sg78
I3
sg42
g3674
sg79
g80
sg81
g11
(g15
S'\x88\x87\x87\x87\x87\x87\xeb?'
p3702
tp3703
Rp3704
sg85
g86
sg87
g88
sbag4
(g5
g6
Ntp3705
Rp3706
(dp3707
g10
g11
(g15
S'\x00\x00\x00\x00\x00\x00\xf8\xff'
p3708
tp3709
Rp3710
sg21
g11
(g15
S'\x00\x00\x00\x00\x00`i@'
p3711
tp3712
Rp3713
sg25
g26
sg27
g11
(g30
S'\x07\x00\x00\x00\x00\x00\x00\x00'
p3714
tp3715
Rp3716
sg36
(dp3717
g21
g3713
sg27
g3716
sg38
g11
(g30
S'\x02\x00\x00\x00\x00\x00\x00\x00'
p3718
tp3719
Rp3720
sg42
g11
(g15
S'6h\x97\xd6N\xb1\xe8?'
p3721
tp3722
Rp3723
ssg46
g11
(g12
(S'S6'
p3724
I0
I1
tp3725
Rp3726
(I3
S'|'
p3727
NNNI6
I1
I0
tp3728
bS'ISOMAP'
p3729
tp3730
Rp3731
sg55
F0.2
sg38
g3720
sg56
g11
(g12
(S'S3'
p3732
I0
I1
tp3733
Rp3734
(I3
S'|'
p3735
NNNI3
I1
I0
tp3736
bS'VGG'
p3737
tp3738
Rp3739
sg65
g11
(g15
S'?\xb6\xf3\xe5%\x06\xec?'
p3740
tp3741
Rp3742
sg69
g11
(g12
(S'S2'
p3743
I0
I1
tp3744
Rp3745
(I3
S'|'
p3746
NNNI2
I1
I0
tp3747
bS'RF'
p3748
tp3749
Rp3750
sg78
I3
sg42
g3723
sg79
g80
sg81
g11
(g15
S'#_\xe7\xd6\xf7\xb5\xe9?'
p3751
tp3752
Rp3753
sg85
g86
sg87
g88
sbag4
(g5
g6
Ntp3754
Rp3755
(dp3756
g10
g11
(g15
S'\x00\x00\x00\x00\x00\x00\xf8\xff'
p3757
tp3758
Rp3759
sg21
g11
(g15
S'\x00\x00\x00\x00\x00\xc0r@'
p3760
tp3761
Rp3762
sg95
g103
sg25
g26
sg36
(dp3763
g21
g3762
sg42
g11
(g15
S'\x9a\xaeH|\xcfQ\xe6?'
p3764
tp3765
Rp3766
sg95
g103
ssg46
g11
(g12
(S'S3'
p3767
I0
I1
tp3768
Rp3769
(I3
S'|'
p3770
NNNI3
I1
I0
tp3771
bS'PCA'
p3772
tp3773
Rp3774
sg55
F0.2
sg56
g11
(g12
(S'S3'
p3775
I0
I1
tp3776
Rp3777
(I3
S'|'
p3778
NNNI3
I1
I0
tp3779
bS'VGG'
p3780
tp3781
Rp3782
sg65
g11
(g15
S'\x91\x1f\xe18\xe2\x0e\xd3?'
p3783
tp3784
Rp3785
sg69
g11
(g12
(S'S2'
p3786
I0
I1
tp3787
Rp3788
(I3
S'|'
p3789
NNNI2
I1
I0
tp3790
bS'RF'
p3791
tp3792
Rp3793
sg78
I3
sg42
g3766
sg79
g80
sg81
g11
(g15
S'\x1d0\tW\xbb\xf2\xeb?'
p3794
tp3795
Rp3796
sg85
g86
sg87
g88
sbag4
(g5
g6
Ntp3797
Rp3798
(dp3799
g10
g11
(g15
S'\x00\x00\x00\x00\x00\x00\xf8\xff'
p3800
tp3801
Rp3802
sg21
g11
(g15
S'\x00\x00\x00\x00\x00@e@'
p3803
tp3804
Rp3805
sg95
g103
sg25
g26
sg36
(dp3806
g21
g3805
sg42
g11
(g15
S'GgL"\xc5w\xd6?'
p3807
tp3808
Rp3809
sg95
g103
ssg46
g11
(g12
(S'S3'
p3810
I0
I1
tp3811
Rp3812
(I3
S'|'
p3813
NNNI3
I1
I0
tp3814
bS'PCA'
p3815
tp3816
Rp3817
sg55
F0.2
sg56
g11
(g12
(S'S9'
p3818
I0
I1
tp3819
Rp3820
(I3
S'|'
p3821
NNNI9
I1
I0
tp3822
bS'inception'
p3823
tp3824
Rp3825
sg65
g11
(g15
S'\x9d\xc9p\x14s\xed\xe4?'
p3826
tp3827
Rp3828
sg69
g11
(g12
(S'S2'
p3829
I0
I1
tp3830
Rp3831
(I3
S'|'
p3832
NNNI2
I1
I0
tp3833
bS'RF'
p3834
tp3835
Rp3836
sg78
I3
sg42
g3809
sg79
g80
sg81
g11
(g15
S'\xa7\xdeoM\x92\x08\xe8?'
p3837
tp3838
Rp3839
sg85
g86
sg87
g88
sbag4
(g5
g6
Ntp3840
Rp3841
(dp3842
g10
g11
(g15
S'\x00\x00\x00\x00\x00\x00\xf8\xff'
p3843
tp3844
Rp3845
sg21
g11
(g15
S'\x00\x00\x00\x00\x00`m@'
p3846
tp3847
Rp3848
sg95
g203
sg25
g26
sg36
(dp3849
g21
g3848
sg42
g11
(g15
S'\xb6\xaa1#\xa3#\xef?'
p3850
tp3851
Rp3852
sg95
g203
sg323
g11
(g30
S'\x03\x00\x00\x00\x00\x00\x00\x00'
p3853
tp3854
Rp3855
ssg46
g11
(g12
(S'S3'
p3856
I0
I1
tp3857
Rp3858
(I3
S'|'
p3859
NNNI3
I1
I0
tp3860
bS'PCA'
p3861
tp3862
Rp3863
sg55
F0.2
sg56
g11
(g12
(S'S8'
p3864
I0
I1
tp3865
Rp3866
(I3
S'|'
p3867
NNNI8
I1
I0
tp3868
bS'haralick'
p3869
tp3870
Rp3871
sg323
g3855
sg65
g11
(g15
S'\xb7\xb5=}V\x9a\xe0?'
p3872
tp3873
Rp3874
sg69
g11
(g12
(S'S2'
p3875
I0
I1
tp3876
Rp3877
(I3
S'|'
p3878
NNNI2
I1
I0
tp3879
bS'RF'
p3880
tp3881
Rp3882
sg78
I3
sg42
g3852
sg79
g80
sg81
g11
(g15
S'\xbb\x11d\xbf\x08v\xeb?'
p3883
tp3884
Rp3885
sg85
g86
sg87
g88
sbag4
(g5
g6
Ntp3886
Rp3887
(dp3888
g10
g11
(g15
S'\x00\x00\x00\x00\x00\x00\xf8\xff'
p3889
tp3890
Rp3891
sg21
g11
(g15
S'\x00\x00\x00\x00\x00`i@'
p3892
tp3893
Rp3894
sg25
g26
sg27
g11
(g30
S'\x05\x00\x00\x00\x00\x00\x00\x00'
p3895
tp3896
Rp3897
sg36
(dp3898
g21
g3894
sg27
g3897
sg323
g11
(g30
S'\x03\x00\x00\x00\x00\x00\x00\x00'
p3899
tp3900
Rp3901
sg38
g11
(g30
S'\x03\x00\x00\x00\x00\x00\x00\x00'
p3902
tp3903
Rp3904
sg42
g11
(g15
S'\x88\xbb#\x04,\xa4\xe8?'
p3905
tp3906
Rp3907
ssg46
g11
(g12
(S'S6'
p3908
I0
I1
tp3909
Rp3910
(I3
S'|'
p3911
NNNI6
I1
I0
tp3912
bS'ISOMAP'
p3913
tp3914
Rp3915
sg55
F0.2
sg38
g3904
sg56
g11
(g12
(S'S8'
p3916
I0
I1
tp3917
Rp3918
(I3
S'|'
p3919
NNNI8
I1
I0
tp3920
bS'haralick'
p3921
tp3922
Rp3923
sg323
g3901
sg65
g11
(g15
S'\xa95\xba\xe6\xd7\x06\xf3?'
p3924
tp3925
Rp3926
sg69
g11
(g12
(S'S2'
p3927
I0
I1
tp3928
Rp3929
(I3
S'|'
p3930
NNNI2
I1
I0
tp3931
bS'RF'
p3932
tp3933
Rp3934
sg78
I3
sg42
g3907
sg79
g80
sg81
g11
(g15
S'Y\xc4\xef\x98F\xeb\xe9?'
p3935
tp3936
Rp3937
sg85
g86
sg87
g88
sbag4
(g5
g6
Ntp3938
Rp3939
(dp3940
g10
g11
(g15
S'\x00\x00\x00\x00\x00\x00\xf8\xff'
p3941
tp3942
Rp3943
sg21
g11
(g15
S'\x00\x00\x00\x00\x00@a@'
p3944
tp3945
Rp3946
sg25
g26
sg27
g11
(g30
S'\x06\x00\x00\x00\x00\x00\x00\x00'
p3947
tp3948
Rp3949
sg36
(dp3950
g21
g3946
sg27
g3949
sg323
g11
(g30
S'\x02\x00\x00\x00\x00\x00\x00\x00'
p3951
tp3952
Rp3953
sg38
g11
(g30
S'\x04\x00\x00\x00\x00\x00\x00\x00'
p3954
tp3955
Rp3956
sg42
g11
(g15
S'\x98\x80\xb2r\x8f\xbd\xe3?'
p3957
tp3958
Rp3959
ssg46
g11
(g12
(S'S6'
p3960
I0
I1
tp3961
Rp3962
(I3
S'|'
p3963
NNNI6
I1
I0
tp3964
bS'ISOMAP'
p3965
tp3966
Rp3967
sg55
F0.2
sg38
g3956
sg56
g11
(g12
(S'S8'
p3968
I0
I1
tp3969
Rp3970
(I3
S'|'
p3971
NNNI8
I1
I0
tp3972
bS'haralick'
p3973
tp3974
Rp3975
sg323
g3953
sg65
g11
(g15
S'\r\xe3\xc3\xe5\xd2\xdb\xe7?'
p3976
tp3977
Rp3978
sg69
g11
(g12
(S'S2'
p3979
I0
I1
tp3980
Rp3981
(I3
S'|'
p3982
NNNI2
I1
I0
tp3983
bS'RF'
p3984
tp3985
Rp3986
sg78
I3
sg42
g3959
sg79
g80
sg81
g11
(g15
S'h.\xa3\xb9\x8c\xe6\xea?'
p3987
tp3988
Rp3989
sg85
g86
sg87
g88
sbag4
(g5
g6
Ntp3990
Rp3991
(dp3992
g10
g11
(g15
S'\x00\x00\x00\x00\x00\x00\xf8\xff'
p3993
tp3994
Rp3995
sg95
g103
sg25
g26
sg36
(dp3996
g95
g103
sg105
g11
(g15
S'8\xd7\xd5G2+J@'
p3997
tp3998
Rp3999
sg109
g11
(g15
S'alC|\xc7\xf0\x16@'
p4000
tp4001
Rp4002
ssg46
g11
(g12
(S'S3'
p4003
I0
I1
tp4004
Rp4005
(I3
S'|'
p4006
NNNI3
I1
I0
tp4007
bS'PCA'
p4008
tp4009
Rp4010
sg55
F0.2
sg109
g4002
sg56
g11
(g12
(S'S9'
p4011
I0
I1
tp4012
Rp4013
(I3
S'|'
p4014
NNNI9
I1
I0
tp4015
bS'inception'
p4016
tp4017
Rp4018
sg105
g3999
sg65
g11
(g15
S'\xdb\x82"\xe2\xed\x8c\xe0?'
p4019
tp4020
Rp4021
sg69
g11
(g12
(S'S3'
p4022
I0
I1
tp4023
Rp4024
(I3
S'|'
p4025
NNNI3
I1
I0
tp4026
bS'SVM'
p4027
tp4028
Rp4029
sg78
I3
sg79
g80
sg81
g11
(g15
S'\x90\x1c\x036\xd0\x9b\xe4?'
p4030
tp4031
Rp4032
sg85
g86
sg87
g88
sbag4
(g5
g6
Ntp4033
Rp4034
(dp4035
g10
g11
(g15
S'\x00\x00\x00\x00\x00\x00\xf8\xff'
p4036
tp4037
Rp4038
sg27
g11
(g30
S'\x04\x00\x00\x00\x00\x00\x00\x00'
p4039
tp4040
Rp4041
sg25
g26
sg36
(dp4042
g27
g4041
sg105
g11
(g15
S'TFx\xc7\xc8}V@'
p4043
tp4044
Rp4045
sg323
g11
(g30
S'\x03\x00\x00\x00\x00\x00\x00\x00'
p4046
tp4047
Rp4048
sg38
g11
(g30
S'\x04\x00\x00\x00\x00\x00\x00\x00'
p4049
tp4050
Rp4051
sg109
g11
(g15
S'D\xc6\xd0E/\x03\x04@'
p4052
tp4053
Rp4054
ssg109
g4054
sg46
g11
(g12
(S'S6'
p4055
I0
I1
tp4056
Rp4057
(I3
S'|'
p4058
NNNI6
I1
I0
tp4059
bS'ISOMAP'
p4060
tp4061
Rp4062
sg55
F0.2
sg38
g4051
sg56
g11
(g12
(S'S8'
p4063
I0
I1
tp4064
Rp4065
(I3
S'|'
p4066
NNNI8
I1
I0
tp4067
bS'haralick'
p4068
tp4069
Rp4070
sg105
g4045
sg323
g4048
sg65
g11
(g15
S'hC8\xff9\x7f\xde?'
p4071
tp4072
Rp4073
sg69
g11
(g12
(S'S3'
p4074
I0
I1
tp4075
Rp4076
(I3
S'|'
p4077
NNNI3
I1
I0
tp4078
bS'SVM'
p4079
tp4080
Rp4081
sg78
I3
sg79
g80
sg81
g11
(g15
S'\xa1\xcbw\x1f\xd0n\xe9?'
p4082
tp4083
Rp4084
sg85
g86
sg87
g88
sbag4
(g5
g6
Ntp4085
Rp4086
(dp4087
g10
g11
(g15
S'\x00\x00\x00\x00\x00\x00\xf8\xff'
p4088
tp4089
Rp4090
sg21
g11
(g15
S'\x00\x00\x00\x00\x00@R@'
p4091
tp4092
Rp4093
sg25
g26
sg27
g11
(g30
S'\x05\x00\x00\x00\x00\x00\x00\x00'
p4094
tp4095
Rp4096
sg36
(dp4097
g21
g4093
sg27
g4096
sg38
g11
(g30
S'\x03\x00\x00\x00\x00\x00\x00\x00'
p4098
tp4099
Rp4100
sg42
g11
(g15
S'\xc1\xc3\xfcx\xfc\xd0\xde?'
p4101
tp4102
Rp4103
ssg46
g11
(g12
(S'S6'
p4104
I0
I1
tp4105
Rp4106
(I3
S'|'
p4107
NNNI6
I1
I0
tp4108
bS'ISOMAP'
p4109
tp4110
Rp4111
sg55
F0.2
sg38
g4100
sg56
g11
(g12
(S'S3'
p4112
I0
I1
tp4113
Rp4114
(I3
S'|'
p4115
NNNI3
I1
I0
tp4116
bS'VGG'
p4117
tp4118
Rp4119
sg65
g11
(g15
S'\x9b\xde\x82\xda~t\xe3?'
p4120
tp4121
Rp4122
sg69
g11
(g12
(S'S2'
p4123
I0
I1
tp4124
Rp4125
(I3
S'|'
p4126
NNNI2
I1
I0
tp4127
bS'RF'
p4128
tp4129
Rp4130
sg78
I3
sg42
g4103
sg79
g80
sg81
g11
(g15
S'=Y \x92\xaeu\xeb?'
p4131
tp4132
Rp4133
sg85
g86
sg87
g88
sbag4
(g5
g6
Ntp4134
Rp4135
(dp4136
g10
g11
(g15
S'\x00\x00\x00\x00\x00\x00\xf8\xff'
p4137
tp4138
Rp4139
sg95
g103
sg25
g26
sg36
(dp4140
g95
g103
sg105
g11
(g15
S'\xb3\xa6d4\xe2P\xe1?'
p4141
tp4142
Rp4143
sg109
g11
(g15
S'\xf7O\t6\xd0\x93\n@'
p4144
tp4145
Rp4146
ssg46
g11
(g12
(S'S3'
p4147
I0
I1
tp4148
Rp4149
(I3
S'|'
p4150
NNNI3
I1
I0
tp4151
bS'PCA'
p4152
tp4153
Rp4154
sg55
F0.2
sg109
g4146
sg56
g11
(g12
(S'S3'
p4155
I0
I1
tp4156
Rp4157
(I3
S'|'
p4158
NNNI3
I1
I0
tp4159
bS'VGG'
p4160
tp4161
Rp4162
sg105
g4143
sg65
g11
(g15
S's-\xe4\x04r\xa9\xd8?'
p4163
tp4164
Rp4165
sg69
g11
(g12
(S'S3'
p4166
I0
I1
tp4167
Rp4168
(I3
S'|'
p4169
NNNI3
I1
I0
tp4170
bS'SVM'
p4171
tp4172
Rp4173
sg78
I3
sg79
g80
sg81
g11
(g15
S'\xf7\xd5\x17\x94\x9b\x8c\xea?'
p4174
tp4175
Rp4176
sg85
g86
sg87
g88
sbag4
(g5
g6
Ntp4177
Rp4178
(dp4179
g10
g11
(g15
S'\x00\x00\x00\x00\x00\x00\xf8\xff'
p4180
tp4181
Rp4182
sg21
g11
(g15
S'\x00\x00\x00\x00\x00\xc0r@'
p4183
tp4184
Rp4185
sg25
g26
sg27
g11
(g30
S'\x04\x00\x00\x00\x00\x00\x00\x00'
p4186
tp4187
Rp4188
sg36
(dp4189
g21
g4185
sg27
g4188
sg38
g11
(g30
S'\x02\x00\x00\x00\x00\x00\x00\x00'
p4190
tp4191
Rp4192
sg42
g11
(g15
S'\xc3W\xf9\xe1\xccF\xde?'
p4193
tp4194
Rp4195
ssg46
g11
(g12
(S'S6'
p4196
I0
I1
tp4197
Rp4198
(I3
S'|'
p4199
NNNI6
I1
I0
tp4200
bS'ISOMAP'
p4201
tp4202
Rp4203
sg55
F0.2
sg38
g4192
sg56
g11
(g12
(S'S3'
p4204
I0
I1
tp4205
Rp4206
(I3
S'|'
p4207
NNNI3
I1
I0
tp4208
bS'VGG'
p4209
tp4210
Rp4211
sg65
g11
(g15
S'\x0bY\xa7}jT\xe8?'
p4212
tp4213
Rp4214
sg69
g11
(g12
(S'S2'
p4215
I0
I1
tp4216
Rp4217
(I3
S'|'
p4218
NNNI2
I1
I0
tp4219
bS'RF'
p4220
tp4221
Rp4222
sg78
I3
sg42
g4195
sg79
g80
sg81
g11
(g15
S'\xcbh.\xa3\xb9\x8c\xea?'
p4223
tp4224
Rp4225
sg85
g86
sg87
g88
sbag4
(g5
g6
Ntp4226
Rp4227
(dp4228
g10
g11
(g15
S'\x00\x00\x00\x00\x00\x00\xf8\xff'
p4229
tp4230
Rp4231
sg27
g11
(g30
S'\x03\x00\x00\x00\x00\x00\x00\x00'
p4232
tp4233
Rp4234
sg25
g26
sg36
(dp4235
g27
g4234
sg105
g11
(g15
S'}\x14\x88\xcd_mV@'
p4236
tp4237
Rp4238
sg38
g11
(g30
S'\x02\x00\x00\x00\x00\x00\x00\x00'
p4239
tp4240
Rp4241
sg109
g11
(g15
S'\x82\xa8\xbb\x10k6\x13@'
p4242
tp4243
Rp4244
ssg109
g4244
sg46
g11
(g12
(S'S6'
p4245
I0
I1
tp4246
Rp4247
(I3
S'|'
p4248
NNNI6
I1
I0
tp4249
bS'ISOMAP'
p4250
tp4251
Rp4252
sg55
F0.2
sg38
g4241
sg56
g11
(g12
(S'S9'
p4253
I0
I1
tp4254
Rp4255
(I3
S'|'
p4256
NNNI9
I1
I0
tp4257
bS'inception'
p4258
tp4259
Rp4260
sg105
g4238
sg65
g11
(g15
S'\r\xcc6!a\xb8\xe0?'
p4261
tp4262
Rp4263
sg69
g11
(g12
(S'S3'
p4264
I0
I1
tp4265
Rp4266
(I3
S'|'
p4267
NNNI3
I1
I0
tp4268
bS'SVM'
p4269
tp4270
Rp4271
sg78
I3
sg79
g80
sg81
g11
(g15
S'i\xd3\xfe\xa7U\xfa\xe0?'
p4272
tp4273
Rp4274
sg85
g86
sg87
g88
sbag4
(g5
g6
Ntp4275
Rp4276
(dp4277
g10
g11
(g15
S'\x00\x00\x00\x00\x00\x00\xf8\xff'
p4278
tp4279
Rp4280
sg21
g11
(g15
S'\x00\x00\x00\x00\x00@Z@'
p4281
tp4282
Rp4283
sg95
g203
sg25
g26
sg36
(dp4284
g21
g4283
sg42
g11
(g15
S'\x9a\x08\\\xd8\xf3\xfb\xe8?'
p4285
tp4286
Rp4287
sg95
g203
sg323
g11
(g30
S'\x03\x00\x00\x00\x00\x00\x00\x00'
p4288
tp4289
Rp4290
ssg46
g11
(g12
(S'S3'
p4291
I0
I1
tp4292
Rp4293
(I3
S'|'
p4294
NNNI3
I1
I0
tp4295
bS'PCA'
p4296
tp4297
Rp4298
sg55
F0.2
sg56
g11
(g12
(S'S8'
p4299
I0
I1
tp4300
Rp4301
(I3
S'|'
p4302
NNNI8
I1
I0
tp4303
bS'haralick'
p4304
tp4305
Rp4306
sg323
g4290
sg65
g11
(g15
S'\xb1\x19\xa6\xac\x8a\x7f\xe2?'
p4307
tp4308
Rp4309
sg69
g11
(g12
(S'S2'
p4310
I0
I1
tp4311
Rp4312
(I3
S'|'
p4313
NNNI2
I1
I0
tp4314
bS'RF'
p4315
tp4316
Rp4317
sg78
I3
sg42
g4287
sg79
g80
sg81
g11
(g15
S'\x13\xa0\x83\xbcJ.\xeb?'
p4318
tp4319
Rp4320
sg85
g86
sg87
g88
sbag4
(g5
g6
Ntp4321
Rp4322
(dp4323
g10
g11
(g15
S'\x00\x00\x00\x00\x00\x00\xf8\xff'
p4324
tp4325
Rp4326
sg27
g11
(g30
S'\x04\x00\x00\x00\x00\x00\x00\x00'
p4327
tp4328
Rp4329
sg25
g26
sg36
(dp4330
g27
g4329
sg105
g11
(g15
S'\xf4\xb6B\x17[$R@'
p4331
tp4332
Rp4333
sg323
g11
(g30
S'\x03\x00\x00\x00\x00\x00\x00\x00'
p4334
tp4335
Rp4336
sg38
g11
(g30
S'\x03\x00\x00\x00\x00\x00\x00\x00'
p4337
tp4338
Rp4339
sg109
g11
(g15
S':g\xae\xf3m\xbc\x17@'
p4340
tp4341
Rp4342
ssg109
g4342
sg46
g11
(g12
(S'S6'
p4343
I0
I1
tp4344
Rp4345
(I3
S'|'
p4346
NNNI6
I1
I0
tp4347
bS'ISOMAP'
p4348
tp4349
Rp4350
sg55
F0.2
sg38
g4339
sg56
g11
(g12
(S'S8'
p4351
I0
I1
tp4352
Rp4353
(I3
S'|'
p4354
NNNI8
I1
I0
tp4355
bS'haralick'
p4356
tp4357
Rp4358
sg105
g4333
sg323
g4336
sg65
g11
(g15
S"\x01\x91\xce[,'\xde?"
p4359
tp4360
Rp4361
sg69
g11
(g12
(S'S3'
p4362
I0
I1
tp4363
Rp4364
(I3
S'|'
p4365
NNNI3
I1
I0
tp4366
bS'SVM'
p4367
tp4368
Rp4369
sg78
I3
sg79
g80
sg81
g11
(g15
S'\xa1c\xde\xe8\xd3\xfd\xe9?'
p4370
tp4371
Rp4372
sg85
g86
sg87
g88
sbag4
(g5
g6
Ntp4373
Rp4374
(dp4375
g10
g11
(g15
S'\x00\x00\x00\x00\x00\x00\xf8\xff'
p4376
tp4377
Rp4378
sg21
g11
(g15
S'\x00\x00\x00\x00\x00\xc0p@'
p4379
tp4380
Rp4381
sg25
g26
sg27
g11
(g30
S'\x06\x00\x00\x00\x00\x00\x00\x00'
p4382
tp4383
Rp4384
sg36
(dp4385
g21
g4381
sg27
g4384
sg38
g11
(g30
S'\x04\x00\x00\x00\x00\x00\x00\x00'
p4386
tp4387
Rp4388
sg42
g11
(g15
S"\x1c&c\xf6'h\xe7?"
p4389
tp4390
Rp4391
ssg46
g11
(g12
(S'S6'
p4392
I0
I1
tp4393
Rp4394
(I3
S'|'
p4395
NNNI6
I1
I0
tp4396
bS'ISOMAP'
p4397
tp4398
Rp4399
sg55
F0.2
sg38
g4388
sg56
g11
(g12
(S'S3'
p4400
I0
I1
tp4401
Rp4402
(I3
S'|'
p4403
NNNI3
I1
I0
tp4404
bS'VGG'
p4405
tp4406
Rp4407
sg65
g11
(g15
S'(\x0c4\x03\xcdJ\xde?'
p4408
tp4409
Rp4410
sg69
g11
(g12
(S'S2'
p4411
I0
I1
tp4412
Rp4413
(I3
S'|'
p4414
NNNI2
I1
I0
tp4415
bS'RF'
p4416
tp4417
Rp4418
sg78
I3
sg42
g4391
sg79
g80
sg81
g11
(g15
S'h\x12\xbdg\x12\xbd\xeb?'
p4419
tp4420
Rp4421
sg85
g86
sg87
g88
sbag4
(g5
g6
Ntp4422
Rp4423
(dp4424
g10
g11
(g15
S'\x00\x00\x00\x00\x00\x00\xf8\xff'
p4425
tp4426
Rp4427
sg21
g11
(g15
S'\x00\x00\x00\x00\x00@R@'
p4428
tp4429
Rp4430
sg25
g26
sg27
g11
(g30
S'\x03\x00\x00\x00\x00\x00\x00\x00'
p4431
tp4432
Rp4433
sg36
(dp4434
g21
g4430
sg27
g4433
sg38
g11
(g30
S'\x02\x00\x00\x00\x00\x00\x00\x00'
p4435
tp4436
Rp4437
sg42
g11
(g15
S'6n\xd1y*\xc8\xe9?'
p4438
tp4439
Rp4440
ssg46
g11
(g12
(S'S6'
p4441
I0
I1
tp4442
Rp4443
(I3
S'|'
p4444
NNNI6
I1
I0
tp4445
bS'ISOMAP'
p4446
tp4447
Rp4448
sg55
F0.2
sg38
g4437
sg56
g11
(g12
(S'S9'
p4449
I0
I1
tp4450
Rp4451
(I3
S'|'
p4452
NNNI9
I1
I0
tp4453
bS'inception'
p4454
tp4455
Rp4456
sg65
g11
(g15
S'\xf8+\xc8-r\xb7\xf0?'
p4457
tp4458
Rp4459
sg69
g11
(g12
(S'S2'
p4460
I0
I1
tp4461
Rp4462
(I3
S'|'
p4463
NNNI2
I1
I0
tp4464
bS'RF'
p4465
tp4466
Rp4467
sg78
I3
sg42
g4440
sg79
g80
sg81
g11
(g15
S'\x7f-\xd2\x88\x1b\xf6\xe4?'
p4468
tp4469
Rp4470
sg85
g86
sg87
g88
sbag4
(g5
g6
Ntp4471
Rp4472
(dp4473
g10
g11
(g15
S'\x00\x00\x00\x00\x00\x00\xf8\xff'
p4474
tp4475
Rp4476
sg21
g11
(g15
S'\x00\x00\x00\x00\x00\xc0p@'
p4477
tp4478
Rp4479
sg25
g26
sg27
g11
(g30
S'\x06\x00\x00\x00\x00\x00\x00\x00'
p4480
tp4481
Rp4482
sg36
(dp4483
g21
g4479
sg27
g4482
sg323
g11
(g30
S'\x01\x00\x00\x00\x00\x00\x00\x00'
p4484
tp4485
Rp4486
sg38
g11
(g30
S'\x02\x00\x00\x00\x00\x00\x00\x00'
p4487
tp4488
Rp4489
sg42
g11
(g15
S'\xa2\xe1\xfe\xee\xb0T\xe9?'
p4490
tp4491
Rp4492
ssg46
g11
(g12
(S'S6'
p4493
I0
I1
tp4494
Rp4495
(I3
S'|'
p4496
NNNI6
I1
I0
tp4497
bS'ISOMAP'
p4498
tp4499
Rp4500
sg55
F0.2
sg38
g4489
sg56
g11
(g12
(S'S8'
p4501
I0
I1
tp4502
Rp4503
(I3
S'|'
p4504
NNNI8
I1
I0
tp4505
bS'haralick'
p4506
tp4507
Rp4508
sg323
g4486
sg65
g11
(g15
S'\xec\xe1\x12i"\x1e\xed?'
p4509
tp4510
Rp4511
sg69
g11
(g12
(S'S2'
p4512
I0
I1
tp4513
Rp4514
(I3
S'|'
p4515
NNNI2
I1
I0
tp4516
bS'RF'
p4517
tp4518
Rp4519
sg78
I3
sg42
g4492
sg79
g80
sg81
g11
(g15
S'\x00\x0f\xf1,\xb5\xa4\xe9?'
p4520
tp4521
Rp4522
sg85
g86
sg87
g88
sbag4
(g5
g6
Ntp4523
Rp4524
(dp4525
g10
g11
(g15
S'\x00\x00\x00\x00\x00\x00\xf8\xff'
p4526
tp4527
Rp4528
sg21
g11
(g15
S'\x00\x00\x00\x00\x00\x00D@'
p4529
tp4530
Rp4531
sg95
g103
sg25
g26
sg36
(dp4532
g21
g4531
sg42
g11
(g15
S'V\xd7G\xe5\xc9\xba\xee?'
p4533
tp4534
Rp4535
sg95
g103
ssg46
g11
(g12
(S'S3'
p4536
I0
I1
tp4537
Rp4538
(I3
S'|'
p4539
NNNI3
I1
I0
tp4540
bS'PCA'
p4541
tp4542
Rp4543
sg55
F0.2
sg56
g11
(g12
(S'S3'
p4544
I0
I1
tp4545
Rp4546
(I3
S'|'
p4547
NNNI3
I1
I0
tp4548
bS'VGG'
p4549
tp4550
Rp4551
sg65
g11
(g15
S'\xd7]\xfe\xc4\x93%\xe2?'
p4552
tp4553
Rp4554
sg69
g11
(g12
(S'S2'
p4555
I0
I1
tp4556
Rp4557
(I3
S'|'
p4558
NNNI2
I1
I0
tp4559
bS'RF'
p4560
tp4561
Rp4562
sg78
I3
sg42
g4535
sg79
g80
sg81
g11
(g15
S'g\xaa#1\x16L\xec?'
p4563
tp4564
Rp4565
sg85
g86
sg87
g88
sbag4
(g5
g6
Ntp4566
Rp4567
(dp4568
g10
g11
(g15
S'\x00\x00\x00\x00\x00\x00\xf8\xff'
p4569
tp4570
Rp4571
sg95
g203
sg25
g26
sg36
(dp4572
g95
g203
sg105
g11
(g15
S'(\x0bl\xeaw\x16M@'
p4573
tp4574
Rp4575
sg323
g11
(g30
S'\x01\x00\x00\x00\x00\x00\x00\x00'
p4576
tp4577
Rp4578
sg109
g11
(g15
S'\xed\xc0\xb0\x8d\xf3\xac\x0e@'
p4579
tp4580
Rp4581
ssg46
g11
(g12
(S'S3'
p4582
I0
I1
tp4583
Rp4584
(I3
S'|'
p4585
NNNI3
I1
I0
tp4586
bS'PCA'
p4587
tp4588
Rp4589
sg55
F0.2
sg109
g4581
sg56
g11
(g12
(S'S8'
p4590
I0
I1
tp4591
Rp4592
(I3
S'|'
p4593
NNNI8
I1
I0
tp4594
bS'haralick'
p4595
tp4596
Rp4597
sg105
g4575
sg323
g4578
sg65
g11
(g15
S'a\xe8\xe9gNG\xdc?'
p4598
tp4599
Rp4600
sg69
g11
(g12
(S'S3'
p4601
I0
I1
tp4602
Rp4603
(I3
S'|'
p4604
NNNI3
I1
I0
tp4605
bS'SVM'
p4606
tp4607
Rp4608
sg78
I3
sg79
g80
sg81
g11
(g15
S'\x10x\xa6I\x03\x90\xe6?'
p4609
tp4610
Rp4611
sg85
g86
sg87
g88
sbag4
(g5
g6
Ntp4612
Rp4613
(dp4614
g10
g11
(g15
S'\x00\x00\x00\x00\x00\x00\xf8\xff'
p4615
tp4616
Rp4617
sg21
g11
(g15
S'\x00\x00\x00\x00\x00@Z@'
p4618
tp4619
Rp4620
sg25
g26
sg27
g11
(g30
S'\x05\x00\x00\x00\x00\x00\x00\x00'
p4621
tp4622
Rp4623
sg36
(dp4624
g21
g4620
sg27
g4623
sg38
g11
(g30
S'\x02\x00\x00\x00\x00\x00\x00\x00'
p4625
tp4626
Rp4627
sg42
g11
(g15
S'\xb7\xf6.\xfa\xaa\x0b\xdb?'
p4628
tp4629
Rp4630
ssg46
g11
(g12
(S'S6'
p4631
I0
I1
tp4632
Rp4633
(I3
S'|'
p4634
NNNI6
I1
I0
tp4635
bS'ISOMAP'
p4636
tp4637
Rp4638
sg55
F0.2
sg38
g4627
sg56
g11
(g12
(S'S9'
p4639
I0
I1
tp4640
Rp4641
(I3
S'|'
p4642
NNNI9
I1
I0
tp4643
bS'inception'
p4644
tp4645
Rp4646
sg65
g11
(g15
S'y\xb9rR?\xbc\xf0?'
p4647
tp4648
Rp4649
sg69
g11
(g12
(S'S2'
p4650
I0
I1
tp4651
Rp4652
(I3
S'|'
p4653
NNNI2
I1
I0
tp4654
bS'RF'
p4655
tp4656
Rp4657
sg78
I3
sg42
g4630
sg79
g80
sg81
g11
(g15
S'9\xda\x96\x1d\x10+\xe5?'
p4658
tp4659
Rp4660
sg85
g86
sg87
g88
sbag4
(g5
g6
Ntp4661
Rp4662
(dp4663
g10
g11
(g15
S'\x00\x00\x00\x00\x00\x00\xf8\xff'
p4664
tp4665
Rp4666
sg95
g103
sg25
g26
sg36
(dp4667
g95
g103
sg105
g11
(g15
S'\xa6\xf0h\x8a9\x0fG@'
p4668
tp4669
Rp4670
sg109
g11
(g15
S'\x0e\xe6\xa1\xca\x80\xf4\x0b@'
p4671
tp4672
Rp4673
ssg46
g11
(g12
(S'S3'
p4674
I0
I1
tp4675
Rp4676
(I3
S'|'
p4677
NNNI3
I1
I0
tp4678
bS'PCA'
p4679
tp4680
Rp4681
sg55
F0.2
sg109
g4673
sg56
g11
(g12
(S'S3'
p4682
I0
I1
tp4683
Rp4684
(I3
S'|'
p4685
NNNI3
I1
I0
tp4686
bS'VGG'
p4687
tp4688
Rp4689
sg105
g4670
sg65
g11
(g15
S"3\x17\x10'\xe3\x17\xd8?"
p4690
tp4691
Rp4692
sg69
g11
(g12
(S'S3'
p4693
I0
I1
tp4694
Rp4695
(I3
S'|'
p4696
NNNI3
I1
I0
tp4697
bS'SVM'
p4698
tp4699
Rp4700
sg78
I3
sg79
g80
sg81
g11
(g15
S'm\xd9\x01\xb1R\x0f\xea?'
p4701
tp4702
Rp4703
sg85
g86
sg87
g88
sbag4
(g5
g6
Ntp4704
Rp4705
(dp4706
g10
g11
(g15
S'\x00\x00\x00\x00\x00\x00\xf8\xff'
p4707
tp4708
Rp4709
sg21
g11
(g15
S'\x00\x00\x00\x00\x00\x00D@'
p4710
tp4711
Rp4712
sg25
g26
sg27
g11
(g30
S'\x05\x00\x00\x00\x00\x00\x00\x00'
p4713
tp4714
Rp4715
sg36
(dp4716
g21
g4712
sg27
g4715
sg38
g11
(g30
S'\x04\x00\x00\x00\x00\x00\x00\x00'
p4717
tp4718
Rp4719
sg42
g11
(g15
S'"\xe2\xa6\xf3\xbe\x00\xdd?'
p4720
tp4721
Rp4722
ssg46
g11
(g12
(S'S6'
p4723
I0
I1
tp4724
Rp4725
(I3
S'|'
p4726
NNNI6
I1
I0
tp4727
bS'ISOMAP'
p4728
tp4729
Rp4730
sg55
F0.2
sg38
g4719
sg56
g11
(g12
(S'S3'
p4731
I0
I1
tp4732
Rp4733
(I3
S'|'
p4734
NNNI3
I1
I0
tp4735
bS'VGG'
p4736
tp4737
Rp4738
sg65
g11
(g15
S'g+\x03\x11\xb7M\xe3?'
p4739
tp4740
Rp4741
sg69
g11
(g12
(S'S2'
p4742
I0
I1
tp4743
Rp4744
(I3
S'|'
p4745
NNNI2
I1
I0
tp4746
bS'RF'
p4747
tp4748
Rp4749
sg78
I3
sg42
g4722
sg79
g80
sg81
g11
(g15
S'\xd7\xf8\xb3=*Q\xeb?'
p4750
tp4751
Rp4752
sg85
g86
sg87
g88
sbag4
(g5
g6
Ntp4753
Rp4754
(dp4755
g10
g11
(g15
S'\x00\x00\x00\x00\x00\x00\xf8\xff'
p4756
tp4757
Rp4758
sg21
g11
(g15
S'\x00\x00\x00\x00\x00`i@'
p4759
tp4760
Rp4761
sg25
g26
sg27
g11
(g30
S'\x07\x00\x00\x00\x00\x00\x00\x00'
p4762
tp4763
Rp4764
sg36
(dp4765
g21
g4761
sg27
g4764
sg38
g11
(g30
S'\x02\x00\x00\x00\x00\x00\x00\x00'
p4766
tp4767
Rp4768
sg42
g11
(g15
S'\xa2$\xdb\xc5\xe5\x1e\xdd?'
p4769
tp4770
Rp4771
ssg46
g11
(g12
(S'S6'
p4772
I0
I1
tp4773
Rp4774
(I3
S'|'
p4775
NNNI6
I1
I0
tp4776
bS'ISOMAP'
p4777
tp4778
Rp4779
sg55
F0.2
sg38
g4768
sg56
g11
(g12
(S'S3'
p4780
I0
I1
tp4781
Rp4782
(I3
S'|'
p4783
NNNI3
I1
I0
tp4784
bS'VGG'
p4785
tp4786
Rp4787
sg65
g11
(g15
S'\xe0\xb2\xc0{\xe0\xe8\xeb?'
p4788
tp4789
Rp4790
sg69
g11
(g12
(S'S2'
p4791
I0
I1
tp4792
Rp4793
(I3
S'|'
p4794
NNNI2
I1
I0
tp4795
bS'RF'
p4796
tp4797
Rp4798
sg78
I3
sg42
g4771
sg79
g80
sg81
g11
(g15
S'\x99\xae\x84\xd80\x80\xe9?'
p4799
tp4800
Rp4801
sg85
g86
sg87
g88
sbag4
(g5
g6
Ntp4802
Rp4803
(dp4804
g10
g11
(g15
S'\x00\x00\x00\x00\x00\x00\xf8\xff'
p4805
tp4806
Rp4807
sg27
g11
(g30
S'\x07\x00\x00\x00\x00\x00\x00\x00'
p4808
tp4809
Rp4810
sg25
g26
sg36
(dp4811
g27
g4810
sg105
g11
(g15
S']\x94\x15W\xba\xa0A@'
p4812
tp4813
Rp4814
sg38
g11
(g30
S'\x04\x00\x00\x00\x00\x00\x00\x00'
p4815
tp4816
Rp4817
sg109
g11
(g15
S'\r\x18\x82\xfb\x98}\x10@'
p4818
tp4819
Rp4820
ssg109
g4820
sg46
g11
(g12
(S'S6'
p4821
I0
I1
tp4822
Rp4823
(I3
S'|'
p4824
NNNI6
I1
I0
tp4825
bS'ISOMAP'
p4826
tp4827
Rp4828
sg55
F0.2
sg38
g4817
sg56
g11
(g12
(S'S3'
p4829
I0
I1
tp4830
Rp4831
(I3
S'|'
p4832
NNNI3
I1
I0
tp4833
bS'VGG'
p4834
tp4835
Rp4836
sg105
g4814
sg65
g11
(g15
S'\xc82\x88\xf3\x87\xcf\xd9?'
p4837
tp4838
Rp4839
sg69
g11
(g12
(S'S3'
p4840
I0
I1
tp4841
Rp4842
(I3
S'|'
p4843
NNNI3
I1
I0
tp4844
bS'SVM'
p4845
tp4846
Rp4847
sg78
I3
sg79
g80
sg81
g11
(g15
S'\xcb\xb4\xe1\x87;\xd4\xea?'
p4848
tp4849
Rp4850
sg85
g86
sg87
g88
sbasS'error_curve'
p4851
(lp4852
g68
ag131
ag180
ag180
ag180
ag180
ag180
ag180
ag180
ag180
ag180
ag180
ag180
ag180
ag180
ag180
ag180
ag180
ag180
ag180
ag180
ag180
ag180
ag180
ag180
ag226
ag226
ag226
ag226
ag226
ag226
ag226
ag226
ag226
ag226
ag226
ag226
ag226
ag226
ag226
ag226
ag226
ag226
ag226
ag226
ag226
ag269
ag269
ag269
ag269
ag269
ag269
ag269
ag269
ag269
ag269
ag269
ag269
ag269
ag269
ag269
ag269
ag269
ag269
ag269
ag269
ag269
ag269
ag269
ag269
ag269
ag269
ag269
ag269
ag269
ag269
ag269
ag269
ag269
ag269
ag269
ag269
ag269
ag269
ag269
ag269
ag269
ag269
ag269
ag269
ag269
ag269
ag269
ag269
ag269
ag269
ag269
ag269
ag269
asS'iters'
p4853
I51
sg25
g26
sS'results_loc'
p4854
S'/gpfs/u/home/CGHI/CGHIarch/barn/EP_project/results/'
p4855
sS'times'
p4856
(lp4857
F1.961806058883667
aF2.228377103805542
aF3.138650894165039
aF21.27873992919922
aF38.31704497337341
aF40.563138008117676
aF41.46491003036499
aF59.56410598754883
aF76.77582001686096
aF94.01607394218445
aF96.01476001739502
aF113.20634388923645
aF114.069659948349
aF132.0045108795166
aF148.5772430896759
aF148.8055739402771
aF149.07266187667847
aF150.02709889411926
aF168.3437840938568
aF184.82307887077332
aF201.4038429260254
aF201.6696319580078
aF218.33892607688904
aF220.19325304031372
aF222.9191858768463
aF225.57724690437317
aF226.46378993988037
aF227.4319920539856
aF244.2588710784912
aF246.91350603103638
aF263.35892605781555
aF279.97004890441895
aF280.8649859428406
aF297.5472409725189
aF314.09459710121155
aF314.36020708084106
aF314.61345410346985
aF315.4381649494171
aF316.36833691596985
aF317.56049394607544
aF318.54762601852417
aF319.5064899921417
aF337.52718901634216
aF355.2621760368347
aF372.0897490978241
aF374.1912920475006
aF376.43795108795166
aF377.3924140930176
aF395.78746700286865
aF412.26627802848816
aF428.77385997772217
aF445.2689220905304
aF461.7249689102173
aF462.5794630050659
aF465.0570158958435
aF466.0242419242859
aF483.60882806777954
aF500.0283739566803
aF500.95693588256836
aF517.4187650680542
aF518.3784720897675
aF519.1631970405579
aF519.4173219203949
aF537.0721719264984
aF553.3799669742584
aF554.3538289070129
aF557.6172540187836
aF558.849781036377
aF559.7716209888458
aF560.7253420352936
aF577.1316878795624
aF595.0526440143585
aF596.3041670322418
aF596.5566730499268
aF598.4501280784607
aF600.8910620212555
aF604.1397700309753
aF605.796434879303
aF626.147686958313
aF644.4560520648956
aF662.2635769844055
aF662.5159080028534
aF679.2688939571381
aF680.670823097229
aF680.9240820407867
aF684.0310208797455
aF684.935879945755
aF707.2206220626831
aF725.7657968997955
aF728.7344450950623
aF730.1928160190582
aF748.97944688797
aF749.600576877594
aF766.5185449123383
aF768.2170720100403
aF768.4927349090576
aF769.655503988266
aF772.1083319187164
aF773.0768389701843
asS'data_loc'
p4858
g88
sS'run'
p4859
I3
sg85
S'random_MCMC'
p4860
sb.