(iprototypes.random_based_mcmc1
random_MCMC
p0
(dp1
S'best_pipelines'
p2
(lp3
ccopy_reg
_reconstructor
p4
(cprototypes.data_analytic_pipeline
image_classification_pipeline
p5
c__builtin__
object
p6
Ntp7
Rp8
(dp9
S'f1_score'
p10
cnumpy.core.multiarray
scalar
p11
(cnumpy
dtype
p12
(S'f8'
p13
I0
I1
tp14
Rp15
(I3
S'<'
p16
NNNI-1
I-1
I0
tp17
bS'\x00\x00\x00\x00\x00\x00\xf8\xff'
p18
tp19
Rp20
sS'n_estimators'
p21
g11
(g15
S'\x00\x00\x00\x00\x00`m@'
p22
tp23
Rp24
sS'pca_whiten'
p25
g11
(g12
(S'b1'
p26
I0
I1
tp27
Rp28
(I3
S'|'
p29
NNNI-1
I-1
I0
tp30
bS'\x00'
p31
tp32
Rp33
sS'data_name'
p34
S'breast'
p35
sS'kwargs'
p36
(dp37
g21
g24
sS'max_features'
p38
g11
(g15
S'X\x8b3\xfdx\xf2\xe3?'
p39
tp40
Rp41
sg25
g33
ssS'dimensionality_reduction'
p42
g11
(g12
(S'S3'
p43
I0
I1
tp44
Rp45
(I3
S'|'
p46
NNNI3
I1
I0
tp47
bS'PCA'
p48
tp49
Rp50
sS'test_size'
p51
F0.2
sS'feature_extraction'
p52
g11
(g12
(S'S3'
p53
I0
I1
tp54
Rp55
(I3
S'|'
p56
NNNI3
I1
I0
tp57
bS'VGG'
p58
tp59
Rp60
sS'result'
p61
g11
(g15
S'/\xfa\xb4\x94\x0f\xe2\xe6?'
p62
tp63
Rp64
sS'learning_algorithm'
p65
g11
(g12
(S'S2'
p66
I0
I1
tp67
Rp68
(I3
S'|'
p69
NNNI2
I1
I0
tp70
bS'RF'
p71
tp72
Rp73
sS'val_splits'
p74
I3
sg38
g41
sS'ml_type'
p75
S'validation'
p76
sS'accuracy'
p77
g11
(g15
S'\xd0:"\x83Pc\xe6?'
p78
tp79
Rp80
sS'type1'
p81
S'random1'
p82
sS'data_location'
p83
S'/gpfs/u/home/CGHI/CGHIarch/barn/EP_project/data/'
p84
sbasS'paths'
p85
(lp86
(lp87
S'VGG'
p88
aS'PCA'
p89
aS'SVM'
p90
aa(lp91
g88
ag89
aS'RF'
p92
aa(lp93
g88
aS'ISOMAP'
p94
ag90
aa(lp95
g88
ag94
ag92
aa(lp96
S'haralick'
p97
ag89
ag90
aa(lp98
g97
ag89
ag92
aa(lp99
g97
ag94
ag90
aa(lp100
g97
ag94
ag92
aa(lp101
S'inception'
p102
ag89
ag90
aa(lp103
g102
ag89
ag92
aa(lp104
g102
ag94
ag90
aa(lp105
g102
ag94
ag92
aasS'pipeline'
p106
(dp107
S'n_neighbors'
p108
(lp109
I3
aI4
aI5
aI6
aI7
asg25
(lp110
I01
aI00
asg21
cnumpy.core.multiarray
_reconstruct
p111
(cnumpy
ndarray
p112
(I0
tp113
S'b'
p114
tp115
Rp116
(I1
(I10
tp117
g15
I00
S'\x00\x00\x00\x00\x00\x00 @\x00\x00\x00\x00\x00\x00D@\x00\x00\x00\x00\x00@R@\x00\x00\x00\x00\x00@Z@\x00\x00\x00\x00\x00@a@\x00\x00\x00\x00\x00@e@\x00\x00\x00\x00\x00`i@\x00\x00\x00\x00\x00`m@\x00\x00\x00\x00\x00\xc0p@\x00\x00\x00\x00\x00\xc0r@'
p118
tp119
bsg42
(lp120
g89
ag94
asS'svm_gamma'
p121
g111
(g112
(I0
tp122
g114
tp123
Rp124
(I1
(I10
tp125
g15
I00
S"{\x14\xaeG\xe1z\x84?\x102Tv\x98\xba\xec?\xe7\xd5\xc4\xb3\xa2\x91\xfc?b\xc9/\x96\xfcb\x05@\xd2'}\xd2'}\x0c@!Ce\x87\xa9\xcb\x11@X\xf2\x8b%\xbfX\x15@\x90\xa1\xb2\xc3\xd4\xe5\x18@\xc8P\xd9a\xear\x1c@\x00\x00\x00\x00\x00\x00 @"
p126
tp127
bsg52
(lp128
g88
ag97
ag102
asS'haralick_distance'
p129
(lp130
I1
aI2
aI3
asS'n_components'
p131
(lp132
I2
aI3
aI4
asg65
(lp133
g90
ag92
asg38
g111
(g112
(I0
tp134
g114
tp135
Rp136
(I1
(I5
tp137
g15
I00
S'333333\xd3?\x9a\x99\x99\x99\x99\x99\xd9?\x00\x00\x00\x00\x00\x00\xe0?433333\xe3?hfffff\xe6?'
p138
tp139
bsS'svm_C'
p140
g111
(g112
(I0
tp141
g114
tp142
Rp143
(I1
(I10
tp144
g15
I00
S'\x9a\x99\x99\x99\x99\x99\xb9?gfffff&@\xce\xcc\xcc\xcc\xccL6@43333\xb3@@\x01\x00\x00\x00\x00@F@\xce\xcc\xcc\xcc\xcc\xccK@\xcd\xcc\xcc\xcc\xcc\xacP@43333sS@\x9a\x99\x99\x99\x999V@\x00\x00\x00\x00\x00\x00Y@'
p145
tp146
bssS'pipelines'
p147
(lp148
g8
ag4
(g5
g6
Ntp149
Rp150
(dp151
g10
g11
(g15
S'\x00\x00\x00\x00\x00\x00\xf8\xff'
p152
tp153
Rp154
sg108
g11
(g12
(S'i8'
p155
I0
I1
tp156
Rp157
(I3
S'<'
p158
NNNI-1
I-1
I0
tp159
bS'\x06\x00\x00\x00\x00\x00\x00\x00'
p160
tp161
Rp162
sg34
g35
sg36
(dp163
g108
g162
sg140
g11
(g15
S'\xbf\xdaI\xec\x8a\xc7P@'
p164
tp165
Rp166
sg129
g11
(g157
S'\x01\x00\x00\x00\x00\x00\x00\x00'
p167
tp168
Rp169
sg131
g11
(g157
S'\x02\x00\x00\x00\x00\x00\x00\x00'
p170
tp171
Rp172
sg121
g11
(g15
S'OH\xd8/6\xbf\x1b@'
p173
tp174
Rp175
ssg121
g175
sg42
g11
(g12
(S'S6'
p176
I0
I1
tp177
Rp178
(I3
S'|'
p179
NNNI6
I1
I0
tp180
bS'ISOMAP'
p181
tp182
Rp183
sg51
F0.2
sg131
g172
sg52
g11
(g12
(S'S8'
p184
I0
I1
tp185
Rp186
(I3
S'|'
p187
NNNI8
I1
I0
tp188
bS'haralick'
p189
tp190
Rp191
sg140
g166
sg129
g169
sg61
g11
(g15
S'\x0c\xc9R\xbc@\x1e\xee?'
p192
tp193
Rp194
sg65
g11
(g12
(S'S3'
p195
I0
I1
tp196
Rp197
(I3
S'|'
p198
NNNI3
I1
I0
tp199
bS'SVM'
p200
tp201
Rp202
sg74
I3
sg75
g76
sg77
g11
(g15
S'\xc5\xc2d\xf5Q\x12\xe2?'
p203
tp204
Rp205
sg81
g82
sg83
g84
sbag4
(g5
g6
Ntp206
Rp207
(dp208
g10
g11
(g15
S'\x00\x00\x00\x00\x00\x00\xf8\xff'
p209
tp210
Rp211
sg108
g11
(g157
S'\x06\x00\x00\x00\x00\x00\x00\x00'
p212
tp213
Rp214
sg34
g35
sg36
(dp215
g108
g214
sg140
g11
(g15
S'~!\xc9\x8e\xda\x14R@'
p216
tp217
Rp218
sg131
g11
(g157
S'\x03\x00\x00\x00\x00\x00\x00\x00'
p219
tp220
Rp221
sg121
g11
(g15
S']\xa7\xb2\xf4(\x9d\x0b@'
p222
tp223
Rp224
ssg121
g224
sg42
g11
(g12
(S'S6'
p225
I0
I1
tp226
Rp227
(I3
S'|'
p228
NNNI6
I1
I0
tp229
bS'ISOMAP'
p230
tp231
Rp232
sg51
F0.2
sg131
g221
sg52
g11
(g12
(S'S9'
p233
I0
I1
tp234
Rp235
(I3
S'|'
p236
NNNI9
I1
I0
tp237
bS'inception'
p238
tp239
Rp240
sg140
g218
sg61
g11
(g15
S'\xb3t~(\xb9k\xf0?'
p241
tp242
Rp243
sg65
g11
(g12
(S'S3'
p244
I0
I1
tp245
Rp246
(I3
S'|'
p247
NNNI3
I1
I0
tp248
bS'SVM'
p249
tp250
Rp251
sg74
I3
sg75
g76
sg77
g11
(g15
S'8\xdf+gn\xd9\xdf?'
p252
tp253
Rp254
sg81
g82
sg83
g84
sbag4
(g5
g6
Ntp255
Rp256
(dp257
g10
g11
(g15
S'\x00\x00\x00\x00\x00\x00\xf8\xff'
p258
tp259
Rp260
sg21
g11
(g15
S'\x00\x00\x00\x00\x00\x00D@'
p261
tp262
Rp263
sg34
g35
sg108
g11
(g157
S'\x07\x00\x00\x00\x00\x00\x00\x00'
p264
tp265
Rp266
sg36
(dp267
g21
g263
sg108
g266
sg129
g11
(g157
S'\x01\x00\x00\x00\x00\x00\x00\x00'
p268
tp269
Rp270
sg131
g11
(g157
S'\x04\x00\x00\x00\x00\x00\x00\x00'
p271
tp272
Rp273
sg38
g11
(g15
S'VO\x06\x94\x98\x1b\xe3?'
p274
tp275
Rp276
ssg42
g11
(g12
(S'S6'
p277
I0
I1
tp278
Rp279
(I3
S'|'
p280
NNNI6
I1
I0
tp281
bS'ISOMAP'
p282
tp283
Rp284
sg51
F0.2
sg131
g273
sg52
g11
(g12
(S'S8'
p285
I0
I1
tp286
Rp287
(I3
S'|'
p288
NNNI8
I1
I0
tp289
bS'haralick'
p290
tp291
Rp292
sg129
g270
sg61
g11
(g15
S'\xe8\xaa\xf9\x12\xab\x96\xfe?'
p293
tp294
Rp295
sg65
g11
(g12
(S'S2'
p296
I0
I1
tp297
Rp298
(I3
S'|'
p299
NNNI2
I1
I0
tp300
bS'RF'
p301
tp302
Rp303
sg74
I3
sg38
g276
sg75
g76
sg77
g11
(g15
S'\rJ\x00#\x8b\xc3\xe4?'
p304
tp305
Rp306
sg81
g82
sg83
g84
sbag4
(g5
g6
Ntp307
Rp308
(dp309
g10
g11
(g15
S'\x00\x00\x00\x00\x00\x00\xf8\xff'
p310
tp311
Rp312
sg25
g33
sg34
g35
sg36
(dp313
g25
g33
sg140
g11
(g15
S'\x89\xc6]\xc4dV=@'
p314
tp315
Rp316
sg121
g11
(g15
S'\xd9\xbe\xa9C\xf5\xfd\x11@'
p317
tp318
Rp319
ssg42
g11
(g12
(S'S3'
p320
I0
I1
tp321
Rp322
(I3
S'|'
p323
NNNI3
I1
I0
tp324
bS'PCA'
p325
tp326
Rp327
sg51
F0.2
sg121
g319
sg52
g11
(g12
(S'S9'
p328
I0
I1
tp329
Rp330
(I3
S'|'
p331
NNNI9
I1
I0
tp332
bS'inception'
p333
tp334
Rp335
sg140
g316
sg61
g11
(g15
S'\xb2A\x8e\xce\xf3Y\xf0?'
p336
tp337
Rp338
sg65
g11
(g12
(S'S3'
p339
I0
I1
tp340
Rp341
(I3
S'|'
p342
NNNI3
I1
I0
tp343
bS'SVM'
p344
tp345
Rp346
sg74
I3
sg75
g76
sg77
g11
(g15
S'\xf3\x92t\x19\x08\xd4\xdf?'
p347
tp348
Rp349
sg81
g82
sg83
g84
sbag4
(g5
g6
Ntp350
Rp351
(dp352
g10
g11
(g15
S'\x00\x00\x00\x00\x00\x00\xf8\xff'
p353
tp354
Rp355
sg25
g11
(g28
S'\x01'
p356
tp357
Rp358
sg34
g35
sg36
(dp359
g25
g358
sg140
g11
(g15
S'Q\xa8,\x90[&S@'
p360
tp361
Rp362
sg121
g11
(g15
S'\x08O\x95\xefs\xe4\x06@'
p363
tp364
Rp365
ssg42
g11
(g12
(S'S3'
p366
I0
I1
tp367
Rp368
(I3
S'|'
p369
NNNI3
I1
I0
tp370
bS'PCA'
p371
tp372
Rp373
sg51
F0.2
sg121
g365
sg52
g11
(g12
(S'S9'
p374
I0
I1
tp375
Rp376
(I3
S'|'
p377
NNNI9
I1
I0
tp378
bS'inception'
p379
tp380
Rp381
sg140
g362
sg61
g11
(g15
S'Y>\xb3/\x0b;\xf0?'
p382
tp383
Rp384
sg65
g11
(g12
(S'S3'
p385
I0
I1
tp386
Rp387
(I3
S'|'
p388
NNNI3
I1
I0
tp389
bS'SVM'
p390
tp391
Rp392
sg74
I3
sg75
g76
sg77
g11
(g15
S'\xdf\xc2\xc5#\x936\xde?'
p393
tp394
Rp395
sg81
g82
sg83
g84
sbag4
(g5
g6
Ntp396
Rp397
(dp398
g10
g11
(g15
S'\x00\x00\x00\x00\x00\x00\xf8\xff'
p399
tp400
Rp401
sg25
g33
sg34
g35
sg36
(dp402
g25
g33
sg140
g11
(g15
S'\xc0\x01\xafa?\x9b,@'
p403
tp404
Rp405
sg129
g11
(g157
S'\x01\x00\x00\x00\x00\x00\x00\x00'
p406
tp407
Rp408
sg121
g11
(g15
S'*\xda=\x8d\xe9(\x15@'
p409
tp410
Rp411
ssg42
g11
(g12
(S'S3'
p412
I0
I1
tp413
Rp414
(I3
S'|'
p415
NNNI3
I1
I0
tp416
bS'PCA'
p417
tp418
Rp419
sg51
F0.2
sg121
g411
sg52
g11
(g12
(S'S8'
p420
I0
I1
tp421
Rp422
(I3
S'|'
p423
NNNI8
I1
I0
tp424
bS'haralick'
p425
tp426
Rp427
sg140
g405
sg129
g408
sg61
g11
(g15
S'w\x0e\xf8\xb4\x1e_\xee?'
p428
tp429
Rp430
sg65
g11
(g12
(S'S3'
p431
I0
I1
tp432
Rp433
(I3
S'|'
p434
NNNI3
I1
I0
tp435
bS'SVM'
p436
tp437
Rp438
sg74
I3
sg75
g76
sg77
g11
(g15
S'\xed\xa0e^\xf3\\\xe0?'
p439
tp440
Rp441
sg81
g82
sg83
g84
sbag4
(g5
g6
Ntp442
Rp443
(dp444
g10
g11
(g15
S'\x00\x00\x00\x00\x00\x00\xf8\xff'
p445
tp446
Rp447
sg108
g11
(g157
S'\x04\x00\x00\x00\x00\x00\x00\x00'
p448
tp449
Rp450
sg34
g35
sg36
(dp451
g108
g450
sg140
g11
(g15
S'\xa8\xba\xf1)\xbb\xcdP@'
p452
tp453
Rp454
sg129
g11
(g157
S'\x01\x00\x00\x00\x00\x00\x00\x00'
p455
tp456
Rp457
sg131
g11
(g157
S'\x03\x00\x00\x00\x00\x00\x00\x00'
p458
tp459
Rp460
sg121
g11
(g15
S'\x83G\x15\xb4l\xce\xfe?'
p461
tp462
Rp463
ssg121
g463
sg42
g11
(g12
(S'S6'
p464
I0
I1
tp465
Rp466
(I3
S'|'
p467
NNNI6
I1
I0
tp468
bS'ISOMAP'
p469
tp470
Rp471
sg51
F0.2
sg131
g460
sg52
g11
(g12
(S'S8'
p472
I0
I1
tp473
Rp474
(I3
S'|'
p475
NNNI8
I1
I0
tp476
bS'haralick'
p477
tp478
Rp479
sg140
g454
sg129
g457
sg61
g11
(g15
S'0\xd3\x98!\x8b\xac\xec?'
p480
tp481
Rp482
sg65
g11
(g12
(S'S3'
p483
I0
I1
tp484
Rp485
(I3
S'|'
p486
NNNI3
I1
I0
tp487
bS'SVM'
p488
tp489
Rp490
sg74
I3
sg75
g76
sg77
g11
(g15
S'\x98S\x83\x12\xc0\xc8\xe2?'
p491
tp492
Rp493
sg81
g82
sg83
g84
sbag4
(g5
g6
Ntp494
Rp495
(dp496
g10
g11
(g15
S'\x00\x00\x00\x00\x00\x00\xf8\xff'
p497
tp498
Rp499
sg21
g11
(g15
S'\x00\x00\x00\x00\x00`i@'
p500
tp501
Rp502
sg34
g35
sg108
g11
(g157
S'\x03\x00\x00\x00\x00\x00\x00\x00'
p503
tp504
Rp505
sg36
(dp506
g21
g502
sg108
g505
sg131
g11
(g157
S'\x03\x00\x00\x00\x00\x00\x00\x00'
p507
tp508
Rp509
sg38
g11
(g15
S'D\xaf\x07\x07}\xea\xef?'
p510
tp511
Rp512
ssg42
g11
(g12
(S'S6'
p513
I0
I1
tp514
Rp515
(I3
S'|'
p516
NNNI6
I1
I0
tp517
bS'ISOMAP'
p518
tp519
Rp520
sg51
F0.2
sg131
g509
sg52
g11
(g12
(S'S9'
p521
I0
I1
tp522
Rp523
(I3
S'|'
p524
NNNI9
I1
I0
tp525
bS'inception'
p526
tp527
Rp528
sg61
g11
(g15
S'\tV\x9b\xd0\xf1\x1d\x05@'
p529
tp530
Rp531
sg65
g11
(g12
(S'S2'
p532
I0
I1
tp533
Rp534
(I3
S'|'
p535
NNNI2
I1
I0
tp536
bS'RF'
p537
tp538
Rp539
sg74
I3
sg38
g512
sg75
g76
sg77
g11
(g15
S'(ZGd\x10j\xdc?'
p540
tp541
Rp542
sg81
g82
sg83
g84
sbag4
(g5
g6
Ntp543
Rp544
(dp545
g10
g11
(g15
S'\x00\x00\x00\x00\x00\x00\xf8\xff'
p546
tp547
Rp548
sg21
g11
(g15
S'\x00\x00\x00\x00\x00\x00 @'
p549
tp550
Rp551
sg34
g35
sg108
g11
(g157
S'\x03\x00\x00\x00\x00\x00\x00\x00'
p552
tp553
Rp554
sg36
(dp555
g21
g551
sg108
g554
sg131
g11
(g157
S'\x04\x00\x00\x00\x00\x00\x00\x00'
p556
tp557
Rp558
sg38
g11
(g15
S'\xaf$\xac*\xb4.\xe8?'
p559
tp560
Rp561
ssg42
g11
(g12
(S'S6'
p562
I0
I1
tp563
Rp564
(I3
S'|'
p565
NNNI6
I1
I0
tp566
bS'ISOMAP'
p567
tp568
Rp569
sg51
F0.2
sg131
g558
sg52
g11
(g12
(S'S3'
p570
I0
I1
tp571
Rp572
(I3
S'|'
p573
NNNI3
I1
I0
tp574
bS'VGG'
p575
tp576
Rp577
sg61
g11
(g15
S'\x0cQ\x1e\xd6\xee\x81\x0f@'
p578
tp579
Rp580
sg65
g11
(g12
(S'S2'
p581
I0
I1
tp582
Rp583
(I3
S'|'
p584
NNNI2
I1
I0
tp585
bS'RF'
p586
tp587
Rp588
sg74
I3
sg38
g561
sg75
g76
sg77
g11
(g15
S'#\x8b\xc3lh[\xe0?'
p589
tp590
Rp591
sg81
g82
sg83
g84
sbag4
(g5
g6
Ntp592
Rp593
(dp594
g10
g11
(g15
S'\x00\x00\x00\x00\x00\x00\xf8\xff'
p595
tp596
Rp597
sg21
g11
(g15
S'\x00\x00\x00\x00\x00\x00 @'
p598
tp599
Rp600
sg25
g33
sg34
g35
sg36
(dp601
g21
g600
sg38
g11
(g15
S'lj\xbd\xbc\xa6\xb9\xe5?'
p602
tp603
Rp604
sg25
g33
ssg42
g11
(g12
(S'S3'
p605
I0
I1
tp606
Rp607
(I3
S'|'
p608
NNNI3
I1
I0
tp609
bS'PCA'
p610
tp611
Rp612
sg51
F0.2
sg52
g11
(g12
(S'S3'
p613
I0
I1
tp614
Rp615
(I3
S'|'
p616
NNNI3
I1
I0
tp617
bS'VGG'
p618
tp619
Rp620
sg61
g11
(g15
S'\xe8U\xca/\xd0\xac\xfe?'
p621
tp622
Rp623
sg65
g11
(g12
(S'S2'
p624
I0
I1
tp625
Rp626
(I3
S'|'
p627
NNNI2
I1
I0
tp628
bS'RF'
p629
tp630
Rp631
sg74
I3
sg38
g604
sg75
g76
sg77
g11
(g15
S'\x81\xa1\xabtz6\xe5?'
p632
tp633
Rp634
sg81
g82
sg83
g84
sbag4
(g5
g6
Ntp635
Rp636
(dp637
g10
g11
(g15
S'\x00\x00\x00\x00\x00\x00\xf8\xff'
p638
tp639
Rp640
sg21
g11
(g15
S'\x00\x00\x00\x00\x00@a@'
p641
tp642
Rp643
sg25
g33
sg34
g35
sg36
(dp644
g21
g643
sg38
g11
(g15
S'&\xef\xc2:H\xb0\xe4?'
p645
tp646
Rp647
sg25
g33
sg129
g11
(g157
S'\x02\x00\x00\x00\x00\x00\x00\x00'
p648
tp649
Rp650
ssg42
g11
(g12
(S'S3'
p651
I0
I1
tp652
Rp653
(I3
S'|'
p654
NNNI3
I1
I0
tp655
bS'PCA'
p656
tp657
Rp658
sg51
F0.2
sg52
g11
(g12
(S'S8'
p659
I0
I1
tp660
Rp661
(I3
S'|'
p662
NNNI8
I1
I0
tp663
bS'haralick'
p664
tp665
Rp666
sg129
g650
sg61
g11
(g15
S'52R\xd8\xfeR\xf4?'
p667
tp668
Rp669
sg65
g11
(g12
(S'S2'
p670
I0
I1
tp671
Rp672
(I3
S'|'
p673
NNNI2
I1
I0
tp674
bS'RF'
p675
tp676
Rp677
sg74
I3
sg38
g647
sg75
g76
sg77
g11
(g15
S'\x93.\x03\x81\xfaf\xe4?'
p678
tp679
Rp680
sg81
g82
sg83
g84
sbag4
(g5
g6
Ntp681
Rp682
(dp683
g10
g11
(g15
S'\x00\x00\x00\x00\x00\x00\xf8\xff'
p684
tp685
Rp686
sg21
g11
(g15
S'\x00\x00\x00\x00\x00\x00D@'
p687
tp688
Rp689
sg34
g35
sg108
g11
(g157
S'\x04\x00\x00\x00\x00\x00\x00\x00'
p690
tp691
Rp692
sg36
(dp693
g21
g689
sg108
g692
sg129
g11
(g157
S'\x01\x00\x00\x00\x00\x00\x00\x00'
p694
tp695
Rp696
sg131
g11
(g157
S'\x04\x00\x00\x00\x00\x00\x00\x00'
p697
tp698
Rp699
sg38
g11
(g15
S'@V\xe0\xb4\xad\xb8\xea?'
p700
tp701
Rp702
ssg42
g11
(g12
(S'S6'
p703
I0
I1
tp704
Rp705
(I3
S'|'
p706
NNNI6
I1
I0
tp707
bS'ISOMAP'
p708
tp709
Rp710
sg51
F0.2
sg131
g699
sg52
g11
(g12
(S'S8'
p711
I0
I1
tp712
Rp713
(I3
S'|'
p714
NNNI8
I1
I0
tp715
bS'haralick'
p716
tp717
Rp718
sg129
g696
sg61
g11
(g15
S'L\x18b\x00\xed\xc9\xfa?'
p719
tp720
Rp721
sg65
g11
(g12
(S'S2'
p722
I0
I1
tp723
Rp724
(I3
S'|'
p725
NNNI2
I1
I0
tp726
bS'RF'
p727
tp728
Rp729
sg74
I3
sg38
g702
sg75
g76
sg77
g11
(g15
S'\x8f\x8a}V\xe1\x81\xe3?'
p730
tp731
Rp732
sg81
g82
sg83
g84
sbag4
(g5
g6
Ntp733
Rp734
(dp735
g10
g11
(g15
S'\x00\x00\x00\x00\x00\x00\xf8\xff'
p736
tp737
Rp738
sg25
g358
sg34
g35
sg36
(dp739
g25
g358
sg140
g11
(g15
S'\xcb`\x99\xb3TZ\x16@'
p740
tp741
Rp742
sg121
g11
(g15
S'\xde\xc3[\x0fDr\xc4?'
p743
tp744
Rp745
ssg42
g11
(g12
(S'S3'
p746
I0
I1
tp747
Rp748
(I3
S'|'
p749
NNNI3
I1
I0
tp750
bS'PCA'
p751
tp752
Rp753
sg51
F0.2
sg121
g745
sg52
g11
(g12
(S'S3'
p754
I0
I1
tp755
Rp756
(I3
S'|'
p757
NNNI3
I1
I0
tp758
bS'VGG'
p759
tp760
Rp761
sg140
g742
sg61
g11
(g15
S'\x80\x16\x99\xb2\x84\x13\xe7?'
p762
tp763
Rp764
sg65
g11
(g12
(S'S3'
p765
I0
I1
tp766
Rp767
(I3
S'|'
p768
NNNI3
I1
I0
tp769
bS'SVM'
p770
tp771
Rp772
sg74
I3
sg75
g76
sg77
g11
(g15
S']\xe3v1a\xf0\xe5?'
p773
tp774
Rp775
sg81
g82
sg83
g84
sbag4
(g5
g6
Ntp776
Rp777
(dp778
g10
g11
(g15
S'\x00\x00\x00\x00\x00\x00\xf8\xff'
p779
tp780
Rp781
sg25
g358
sg34
g35
sg36
(dp782
g25
g358
sg140
g11
(g15
S'\x1bX\x94\x03\x85\x068@'
p783
tp784
Rp785
sg121
g11
(g15
S'0px%\xd8\xee\x06@'
p786
tp787
Rp788
ssg42
g11
(g12
(S'S3'
p789
I0
I1
tp790
Rp791
(I3
S'|'
p792
NNNI3
I1
I0
tp793
bS'PCA'
p794
tp795
Rp796
sg51
F0.2
sg121
g788
sg52
g11
(g12
(S'S9'
p797
I0
I1
tp798
Rp799
(I3
S'|'
p800
NNNI9
I1
I0
tp801
bS'inception'
p802
tp803
Rp804
sg140
g785
sg61
g11
(g15
S'o\x85\xa3\xf0\xc1T\xf0?'
p805
tp806
Rp807
sg65
g11
(g12
(S'S3'
p808
I0
I1
tp809
Rp810
(I3
S'|'
p811
NNNI3
I1
I0
tp812
bS'SVM'
p813
tp814
Rp815
sg74
I3
sg75
g76
sg77
g11
(g15
S'\xb7E\xf3\xfb\x15d\xde?'
p816
tp817
Rp818
sg81
g82
sg83
g84
sbag4
(g5
g6
Ntp819
Rp820
(dp821
g10
g11
(g15
S'\x00\x00\x00\x00\x00\x00\xf8\xff'
p822
tp823
Rp824
sg108
g11
(g157
S'\x03\x00\x00\x00\x00\x00\x00\x00'
p825
tp826
Rp827
sg34
g35
sg36
(dp828
g108
g827
sg140
g11
(g15
S'8\x96ih\x83\x90J@'
p829
tp830
Rp831
sg131
g11
(g157
S'\x03\x00\x00\x00\x00\x00\x00\x00'
p832
tp833
Rp834
sg121
g11
(g15
S'\xdd\x95\xf9\x0bD\t\x03@'
p835
tp836
Rp837
ssg121
g837
sg42
g11
(g12
(S'S6'
p838
I0
I1
tp839
Rp840
(I3
S'|'
p841
NNNI6
I1
I0
tp842
bS'ISOMAP'
p843
tp844
Rp845
sg51
F0.2
sg131
g834
sg52
g11
(g12
(S'S9'
p846
I0
I1
tp847
Rp848
(I3
S'|'
p849
NNNI9
I1
I0
tp850
bS'inception'
p851
tp852
Rp853
sg140
g831
sg61
g11
(g15
S'\xaen\xba\x86mQ\xf0?'
p854
tp855
Rp856
sg65
g11
(g12
(S'S3'
p857
I0
I1
tp858
Rp859
(I3
S'|'
p860
NNNI3
I1
I0
tp861
bS'SVM'
p862
tp863
Rp864
sg74
I3
sg75
g76
sg77
g11
(g15
S']g06\xf2\xd0\xdf?'
p865
tp866
Rp867
sg81
g82
sg83
g84
sbag4
(g5
g6
Ntp868
Rp869
(dp870
g10
g11
(g15
S'\x00\x00\x00\x00\x00\x00\xf8\xff'
p871
tp872
Rp873
sg108
g11
(g157
S'\x03\x00\x00\x00\x00\x00\x00\x00'
p874
tp875
Rp876
sg34
g35
sg36
(dp877
g108
g876
sg140
g11
(g15
S'\xfc\xf6\xabz\xb9\xdd\x1e@'
p878
tp879
Rp880
sg131
g11
(g157
S'\x04\x00\x00\x00\x00\x00\x00\x00'
p881
tp882
Rp883
sg121
g11
(g15
S'g\x8f(\xcb+\x8d\n@'
p884
tp885
Rp886
ssg121
g886
sg42
g11
(g12
(S'S6'
p887
I0
I1
tp888
Rp889
(I3
S'|'
p890
NNNI6
I1
I0
tp891
bS'ISOMAP'
p892
tp893
Rp894
sg51
F0.2
sg131
g883
sg52
g11
(g12
(S'S3'
p895
I0
I1
tp896
Rp897
(I3
S'|'
p898
NNNI3
I1
I0
tp899
bS'VGG'
p900
tp901
Rp902
sg140
g880
sg61
g11
(g15
S'\x8f\xed#q\xb1\x05\xf0?'
p903
tp904
Rp905
sg65
g11
(g12
(S'S3'
p906
I0
I1
tp907
Rp908
(I3
S'|'
p909
NNNI3
I1
I0
tp910
bS'SVM'
p911
tp912
Rp913
sg74
I3
sg75
g76
sg77
g11
(g15
S'\t\xc9\x05\xbc\xdeF\xdf?'
p914
tp915
Rp916
sg81
g82
sg83
g84
sbag4
(g5
g6
Ntp917
Rp918
(dp919
g10
g11
(g15
S'\x00\x00\x00\x00\x00\x00\xf8\xff'
p920
tp921
Rp922
sg25
g358
sg34
g35
sg36
(dp923
g25
g358
sg140
g11
(g15
S'\x96\x96\xb2\x87q\xc3(@'
p924
tp925
Rp926
sg129
g11
(g157
S'\x03\x00\x00\x00\x00\x00\x00\x00'
p927
tp928
Rp929
sg121
g11
(g15
S'\xd9\xd3\x0f~\x81=\x1b@'
p930
tp931
Rp932
ssg42
g11
(g12
(S'S3'
p933
I0
I1
tp934
Rp935
(I3
S'|'
p936
NNNI3
I1
I0
tp937
bS'PCA'
p938
tp939
Rp940
sg51
F0.2
sg121
g932
sg52
g11
(g12
(S'S8'
p941
I0
I1
tp942
Rp943
(I3
S'|'
p944
NNNI8
I1
I0
tp945
bS'haralick'
p946
tp947
Rp948
sg140
g926
sg129
g929
sg61
g11
(g15
S'q|\x89\x12\\\xa1\xeb?'
p949
tp950
Rp951
sg65
g11
(g12
(S'S3'
p952
I0
I1
tp953
Rp954
(I3
S'|'
p955
NNNI3
I1
I0
tp956
bS'SVM'
p957
tp958
Rp959
sg74
I3
sg75
g76
sg77
g11
(g15
S';\xff\xf7\x8c\xf6\xdd\xe2?'
p960
tp961
Rp962
sg81
g82
sg83
g84
sbag4
(g5
g6
Ntp963
Rp964
(dp965
g10
g11
(g15
S'\x00\x00\x00\x00\x00\x00\xf8\xff'
p966
tp967
Rp968
sg108
g11
(g157
S'\x06\x00\x00\x00\x00\x00\x00\x00'
p969
tp970
Rp971
sg34
g35
sg36
(dp972
g108
g971
sg140
g11
(g15
S'\t\x89\xdf\xb8\xa4*V@'
p973
tp974
Rp975
sg131
g11
(g157
S'\x03\x00\x00\x00\x00\x00\x00\x00'
p976
tp977
Rp978
sg121
g11
(g15
S'\xd3H\x07\x0cS\x8e\x1a@'
p979
tp980
Rp981
ssg121
g981
sg42
g11
(g12
(S'S6'
p982
I0
I1
tp983
Rp984
(I3
S'|'
p985
NNNI6
I1
I0
tp986
bS'ISOMAP'
p987
tp988
Rp989
sg51
F0.2
sg131
g978
sg52
g11
(g12
(S'S9'
p990
I0
I1
tp991
Rp992
(I3
S'|'
p993
NNNI9
I1
I0
tp994
bS'inception'
p995
tp996
Rp997
sg140
g975
sg61
g11
(g15
S'\x7f\xe0\x17B:T\xf0?'
p998
tp999
Rp1000
sg65
g11
(g12
(S'S3'
p1001
I0
I1
tp1002
Rp1003
(I3
S'|'
p1004
NNNI3
I1
I0
tp1005
bS'SVM'
p1006
tp1007
Rp1008
sg74
I3
sg75
g76
sg77
g11
(g15
S'\xe4@\x01\xedZO\xdf?'
p1009
tp1010
Rp1011
sg81
g82
sg83
g84
sbag4
(g5
g6
Ntp1012
Rp1013
(dp1014
g10
g11
(g15
S'\x00\x00\x00\x00\x00\x00\xf8\xff'
p1015
tp1016
Rp1017
sg21
g11
(g15
S'\x00\x00\x00\x00\x00\x00 @'
p1018
tp1019
Rp1020
sg34
g35
sg108
g11
(g157
S'\x05\x00\x00\x00\x00\x00\x00\x00'
p1021
tp1022
Rp1023
sg36
(dp1024
g21
g1020
sg108
g1023
sg131
g11
(g157
S'\x04\x00\x00\x00\x00\x00\x00\x00'
p1025
tp1026
Rp1027
sg38
g11
(g15
S'`?l\xc0\xab\x1f\xde?'
p1028
tp1029
Rp1030
ssg42
g11
(g12
(S'S6'
p1031
I0
I1
tp1032
Rp1033
(I3
S'|'
p1034
NNNI6
I1
I0
tp1035
bS'ISOMAP'
p1036
tp1037
Rp1038
sg51
F0.2
sg131
g1027
sg52
g11
(g12
(S'S3'
p1039
I0
I1
tp1040
Rp1041
(I3
S'|'
p1042
NNNI3
I1
I0
tp1043
bS'VGG'
p1044
tp1045
Rp1046
sg61
g11
(g15
S'\xe3<\\qR\x1b\x0b@'
p1047
tp1048
Rp1049
sg65
g11
(g12
(S'S2'
p1050
I0
I1
tp1051
Rp1052
(I3
S'|'
p1053
NNNI2
I1
I0
tp1054
bS'RF'
p1055
tp1056
Rp1057
sg74
I3
sg38
g1030
sg75
g76
sg77
g11
(g15
S'\xfd%JaQ\xcc\xdf?'
p1058
tp1059
Rp1060
sg81
g82
sg83
g84
sbag4
(g5
g6
Ntp1061
Rp1062
(dp1063
g10
g11
(g15
S'\x00\x00\x00\x00\x00\x00\xf8\xff'
p1064
tp1065
Rp1066
sg25
g33
sg34
g35
sg36
(dp1067
g25
g33
sg140
g11
(g15
S'O}\x03\xe01\xa6A@'
p1068
tp1069
Rp1070
sg129
g11
(g157
S'\x02\x00\x00\x00\x00\x00\x00\x00'
p1071
tp1072
Rp1073
sg121
g11
(g15
S'oOA{\xdf\xa1\xc4?'
p1074
tp1075
Rp1076
ssg42
g11
(g12
(S'S3'
p1077
I0
I1
tp1078
Rp1079
(I3
S'|'
p1080
NNNI3
I1
I0
tp1081
bS'PCA'
p1082
tp1083
Rp1084
sg51
F0.2
sg121
g1076
sg52
g11
(g12
(S'S8'
p1085
I0
I1
tp1086
Rp1087
(I3
S'|'
p1088
NNNI8
I1
I0
tp1089
bS'haralick'
p1090
tp1091
Rp1092
sg140
g1070
sg129
g1073
sg61
g11
(g15
S';\xfd\xd8H\xce\xa2\xe8?'
p1093
tp1094
Rp1095
sg65
g11
(g12
(S'S3'
p1096
I0
I1
tp1097
Rp1098
(I3
S'|'
p1099
NNNI3
I1
I0
tp1100
bS'SVM'
p1101
tp1102
Rp1103
sg74
I3
sg75
g76
sg77
g11
(g15
S'\xedb\xc2\xe0;M\xe5?'
p1104
tp1105
Rp1106
sg81
g82
sg83
g84
sbag4
(g5
g6
Ntp1107
Rp1108
(dp1109
g10
g11
(g15
S'\x00\x00\x00\x00\x00\x00\xf8\xff'
p1110
tp1111
Rp1112
sg108
g11
(g157
S'\x03\x00\x00\x00\x00\x00\x00\x00'
p1113
tp1114
Rp1115
sg34
g35
sg36
(dp1116
g108
g1115
sg140
g11
(g15
S'\xec\r\xb4\x10\n\xb6Q@'
p1117
tp1118
Rp1119
sg129
g11
(g157
S'\x03\x00\x00\x00\x00\x00\x00\x00'
p1120
tp1121
Rp1122
sg131
g11
(g157
S'\x02\x00\x00\x00\x00\x00\x00\x00'
p1123
tp1124
Rp1125
sg121
g11
(g15
S'\xb5\x84\xaa`\xd8\xf0\x1f@'
p1126
tp1127
Rp1128
ssg121
g1128
sg42
g11
(g12
(S'S6'
p1129
I0
I1
tp1130
Rp1131
(I3
S'|'
p1132
NNNI6
I1
I0
tp1133
bS'ISOMAP'
p1134
tp1135
Rp1136
sg51
F0.2
sg131
g1125
sg52
g11
(g12
(S'S8'
p1137
I0
I1
tp1138
Rp1139
(I3
S'|'
p1140
NNNI8
I1
I0
tp1141
bS'haralick'
p1142
tp1143
Rp1144
sg140
g1119
sg129
g1122
sg61
g11
(g15
S'\x14K\xe9mw\x17\xec?'
p1145
tp1146
Rp1147
sg65
g11
(g12
(S'S3'
p1148
I0
I1
tp1149
Rp1150
(I3
S'|'
p1151
NNNI3
I1
I0
tp1152
bS'SVM'
p1153
tp1154
Rp1155
sg74
I3
sg75
g76
sg77
g11
(g15
S'\xf8\x8c\xf6\xdd>\x0c\xe3?'
p1156
tp1157
Rp1158
sg81
g82
sg83
g84
sbag4
(g5
g6
Ntp1159
Rp1160
(dp1161
g10
g11
(g15
S'\x00\x00\x00\x00\x00\x00\xf8\xff'
p1162
tp1163
Rp1164
sg108
g11
(g157
S'\x06\x00\x00\x00\x00\x00\x00\x00'
p1165
tp1166
Rp1167
sg34
g35
sg36
(dp1168
g108
g1167
sg140
g11
(g15
S'\x11\xcb\x9f\x91\x0b\xa8T@'
p1169
tp1170
Rp1171
sg131
g11
(g157
S'\x04\x00\x00\x00\x00\x00\x00\x00'
p1172
tp1173
Rp1174
sg121
g11
(g15
S'\xb6u\xc3\x1dS$\x12@'
p1175
tp1176
Rp1177
ssg121
g1177
sg42
g11
(g12
(S'S6'
p1178
I0
I1
tp1179
Rp1180
(I3
S'|'
p1181
NNNI6
I1
I0
tp1182
bS'ISOMAP'
p1183
tp1184
Rp1185
sg51
F0.2
sg131
g1174
sg52
g11
(g12
(S'S3'
p1186
I0
I1
tp1187
Rp1188
(I3
S'|'
p1189
NNNI3
I1
I0
tp1190
bS'VGG'
p1191
tp1192
Rp1193
sg140
g1171
sg61
g11
(g15
S'k=\xa2\x7f\xe1Q\xf0?'
p1194
tp1195
Rp1196
sg65
g11
(g12
(S'S3'
p1197
I0
I1
tp1198
Rp1199
(I3
S'|'
p1200
NNNI3
I1
I0
tp1201
bS'SVM'
p1202
tp1203
Rp1204
sg74
I3
sg75
g76
sg77
g11
(g15
S'\xd8\x9dE\x92\xcd\xd4\xdf?'
p1205
tp1206
Rp1207
sg81
g82
sg83
g84
sbag4
(g5
g6
Ntp1208
Rp1209
(dp1210
g10
g11
(g15
S'\x00\x00\x00\x00\x00\x00\xf8\xff'
p1211
tp1212
Rp1213
sg25
g33
sg34
g35
sg36
(dp1214
g25
g33
sg140
g11
(g15
S'\\xS/\x0f/V@'
p1215
tp1216
Rp1217
sg121
g11
(g15
S'z\x1d\x10~\x1a\x1d\x1b@'
p1218
tp1219
Rp1220
ssg42
g11
(g12
(S'S3'
p1221
I0
I1
tp1222
Rp1223
(I3
S'|'
p1224
NNNI3
I1
I0
tp1225
bS'PCA'
p1226
tp1227
Rp1228
sg51
F0.2
sg121
g1220
sg52
g11
(g12
(S'S3'
p1229
I0
I1
tp1230
Rp1231
(I3
S'|'
p1232
NNNI3
I1
I0
tp1233
bS'VGG'
p1234
tp1235
Rp1236
sg140
g1217
sg61
g11
(g15
S"\xf3\xb7\xd4'\xa1\xb0\xf0?"
p1237
tp1238
Rp1239
sg65
g11
(g12
(S'S3'
p1240
I0
I1
tp1241
Rp1242
(I3
S'|'
p1243
NNNI3
I1
I0
tp1244
bS'SVM'
p1245
tp1246
Rp1247
sg74
I3
sg75
g76
sg77
g11
(g15
S'\xcb\xd7\xfes\xd3\xf1\xdc?'
p1248
tp1249
Rp1250
sg81
g82
sg83
g84
sbag4
(g5
g6
Ntp1251
Rp1252
(dp1253
g10
g11
(g15
S'\x00\x00\x00\x00\x00\x00\xf8\xff'
p1254
tp1255
Rp1256
sg25
g33
sg34
g35
sg36
(dp1257
g25
g33
sg140
g11
(g15
S'\x1cd[\x194\xe8O@'
p1258
tp1259
Rp1260
sg121
g11
(g15
S'\xb5(\xe8\x83\x12\xa3\x05@'
p1261
tp1262
Rp1263
ssg42
g11
(g12
(S'S3'
p1264
I0
I1
tp1265
Rp1266
(I3
S'|'
p1267
NNNI3
I1
I0
tp1268
bS'PCA'
p1269
tp1270
Rp1271
sg51
F0.2
sg121
g1263
sg52
g11
(g12
(S'S3'
p1272
I0
I1
tp1273
Rp1274
(I3
S'|'
p1275
NNNI3
I1
I0
tp1276
bS'VGG'
p1277
tp1278
Rp1279
sg140
g1260
sg61
g11
(g15
S'\xc8V\x1dM\xd0\xd3\xef?'
p1280
tp1281
Rp1282
sg65
g11
(g12
(S'S3'
p1283
I0
I1
tp1284
Rp1285
(I3
S'|'
p1286
NNNI3
I1
I0
tp1287
bS'SVM'
p1288
tp1289
Rp1290
sg74
I3
sg75
g76
sg77
g11
(g15
S'\xa3Z,LV\x1f\xdd?'
p1291
tp1292
Rp1293
sg81
g82
sg83
g84
sbag4
(g5
g6
Ntp1294
Rp1295
(dp1296
g10
g11
(g15
S'\x00\x00\x00\x00\x00\x00\xf8\xff'
p1297
tp1298
Rp1299
sg25
g358
sg34
g35
sg36
(dp1300
g25
g358
sg140
g11
(g15
S'\xf6\x8dJ1\xca\x83?@'
p1301
tp1302
Rp1303
sg121
g11
(g15
S'\x06\xca\x82\xff}\xd9\x0e@'
p1304
tp1305
Rp1306
ssg42
g11
(g12
(S'S3'
p1307
I0
I1
tp1308
Rp1309
(I3
S'|'
p1310
NNNI3
I1
I0
tp1311
bS'PCA'
p1312
tp1313
Rp1314
sg51
F0.2
sg121
g1306
sg52
g11
(g12
(S'S9'
p1315
I0
I1
tp1316
Rp1317
(I3
S'|'
p1318
NNNI9
I1
I0
tp1319
bS'inception'
p1320
tp1321
Rp1322
sg140
g1303
sg61
g11
(g15
S'\xdcD!\xab\xe8F\xf0?'
p1323
tp1324
Rp1325
sg65
g11
(g12
(S'S3'
p1326
I0
I1
tp1327
Rp1328
(I3
S'|'
p1329
NNNI3
I1
I0
tp1330
bS'SVM'
p1331
tp1332
Rp1333
sg74
I3
sg75
g76
sg77
g11
(g15
S'\xc7q\x1c\xc7q\x1c\xdf?'
p1334
tp1335
Rp1336
sg81
g82
sg83
g84
sbag4
(g5
g6
Ntp1337
Rp1338
(dp1339
g10
g11
(g15
S'\x00\x00\x00\x00\x00\x00\xf8\xff'
p1340
tp1341
Rp1342
sg21
g11
(g15
S'\x00\x00\x00\x00\x00`m@'
p1343
tp1344
Rp1345
sg34
g35
sg108
g11
(g157
S'\x05\x00\x00\x00\x00\x00\x00\x00'
p1346
tp1347
Rp1348
sg36
(dp1349
g21
g1345
sg108
g1348
sg131
g11
(g157
S'\x02\x00\x00\x00\x00\x00\x00\x00'
p1350
tp1351
Rp1352
sg38
g11
(g15
S'\xb6\xbc\xed+k\xe3\xe7?'
p1353
tp1354
Rp1355
ssg42
g11
(g12
(S'S6'
p1356
I0
I1
tp1357
Rp1358
(I3
S'|'
p1359
NNNI6
I1
I0
tp1360
bS'ISOMAP'
p1361
tp1362
Rp1363
sg51
F0.2
sg131
g1352
sg52
g11
(g12
(S'S9'
p1364
I0
I1
tp1365
Rp1366
(I3
S'|'
p1367
NNNI9
I1
I0
tp1368
bS'inception'
p1369
tp1370
Rp1371
sg61
g11
(g15
S'\x0e\xe9\xce\xed\xe9\x82\x04@'
p1372
tp1373
Rp1374
sg65
g11
(g12
(S'S2'
p1375
I0
I1
tp1376
Rp1377
(I3
S'|'
p1378
NNNI2
I1
I0
tp1379
bS'RF'
p1380
tp1381
Rp1382
sg74
I3
sg38
g1355
sg75
g76
sg77
g11
(g15
S'MV\x1f%\xe1\xbf\xde?'
p1383
tp1384
Rp1385
sg81
g82
sg83
g84
sbag4
(g5
g6
Ntp1386
Rp1387
(dp1388
g10
g11
(g15
S'\x00\x00\x00\x00\x00\x00\xf8\xff'
p1389
tp1390
Rp1391
sg108
g11
(g157
S'\x04\x00\x00\x00\x00\x00\x00\x00'
p1392
tp1393
Rp1394
sg34
g35
sg36
(dp1395
g108
g1394
sg140
g11
(g15
S'~\x12\xd3M;@J@'
p1396
tp1397
Rp1398
sg129
g11
(g157
S'\x03\x00\x00\x00\x00\x00\x00\x00'
p1399
tp1400
Rp1401
sg131
g11
(g157
S'\x04\x00\x00\x00\x00\x00\x00\x00'
p1402
tp1403
Rp1404
sg121
g11
(g15
S'#\x12"?_\x8f\xf4?'
p1405
tp1406
Rp1407
ssg121
g1407
sg42
g11
(g12
(S'S6'
p1408
I0
I1
tp1409
Rp1410
(I3
S'|'
p1411
NNNI6
I1
I0
tp1412
bS'ISOMAP'
p1413
tp1414
Rp1415
sg51
F0.2
sg131
g1404
sg52
g11
(g12
(S'S8'
p1416
I0
I1
tp1417
Rp1418
(I3
S'|'
p1419
NNNI8
I1
I0
tp1420
bS'haralick'
p1421
tp1422
Rp1423
sg140
g1398
sg129
g1401
sg61
g11
(g15
S's\x87Vy\x9b\x8d\xed?'
p1424
tp1425
Rp1426
sg65
g11
(g12
(S'S3'
p1427
I0
I1
tp1428
Rp1429
(I3
S'|'
p1430
NNNI3
I1
I0
tp1431
bS'SVM'
p1432
tp1433
Rp1434
sg74
I3
sg75
g76
sg77
g11
(g15
S'c|\xca\xb4s\xb0\xe2?'
p1435
tp1436
Rp1437
sg81
g82
sg83
g84
sbag4
(g5
g6
Ntp1438
Rp1439
(dp1440
g10
g11
(g15
S'\x00\x00\x00\x00\x00\x00\xf8\xff'
p1441
tp1442
Rp1443
sg108
g11
(g157
S'\x06\x00\x00\x00\x00\x00\x00\x00'
p1444
tp1445
Rp1446
sg34
g35
sg36
(dp1447
g108
g1446
sg140
g11
(g15
S'\xca}g~Q\xe69@'
p1448
tp1449
Rp1450
sg131
g11
(g157
S'\x02\x00\x00\x00\x00\x00\x00\x00'
p1451
tp1452
Rp1453
sg121
g11
(g15
S"k\x05'\xa6\x80\xf8\xfb?"
p1454
tp1455
Rp1456
ssg121
g1456
sg42
g11
(g12
(S'S6'
p1457
I0
I1
tp1458
Rp1459
(I3
S'|'
p1460
NNNI6
I1
I0
tp1461
bS'ISOMAP'
p1462
tp1463
Rp1464
sg51
F0.2
sg131
g1453
sg52
g11
(g12
(S'S9'
p1465
I0
I1
tp1466
Rp1467
(I3
S'|'
p1468
NNNI9
I1
I0
tp1469
bS'inception'
p1470
tp1471
Rp1472
sg140
g1450
sg61
g11
(g15
S'\xb3\rR\x95\x88\x7f\xf0?'
p1473
tp1474
Rp1475
sg65
g11
(g12
(S'S3'
p1476
I0
I1
tp1477
Rp1478
(I3
S'|'
p1479
NNNI3
I1
I0
tp1480
bS'SVM'
p1481
tp1482
Rp1483
sg74
I3
sg75
g76
sg77
g11
(g15
S'm\xaeq\xbb\x980\xe0?'
p1484
tp1485
Rp1486
sg81
g82
sg83
g84
sbag4
(g5
g6
Ntp1487
Rp1488
(dp1489
g10
g11
(g15
S'\x00\x00\x00\x00\x00\x00\xf8\xff'
p1490
tp1491
Rp1492
sg25
g33
sg34
g35
sg36
(dp1493
g25
g33
sg140
g11
(g15
S"\x85\x14'\xbf\xe3\xbeS@"
p1494
tp1495
Rp1496
sg129
g11
(g157
S'\x03\x00\x00\x00\x00\x00\x00\x00'
p1497
tp1498
Rp1499
sg121
g11
(g15
S'\xd9V\x18\x1c\xd0i\xea?'
p1500
tp1501
Rp1502
ssg42
g11
(g12
(S'S3'
p1503
I0
I1
tp1504
Rp1505
(I3
S'|'
p1506
NNNI3
I1
I0
tp1507
bS'PCA'
p1508
tp1509
Rp1510
sg51
F0.2
sg121
g1502
sg52
g11
(g12
(S'S8'
p1511
I0
I1
tp1512
Rp1513
(I3
S'|'
p1514
NNNI8
I1
I0
tp1515
bS'haralick'
p1516
tp1517
Rp1518
sg140
g1496
sg129
g1499
sg61
g11
(g15
S'\x0b\xfbK\xde~[\xe9?'
p1519
tp1520
Rp1521
sg65
g11
(g12
(S'S3'
p1522
I0
I1
tp1523
Rp1524
(I3
S'|'
p1525
NNNI3
I1
I0
tp1526
bS'SVM'
p1527
tp1528
Rp1529
sg74
I3
sg75
g76
sg77
g11
(g15
S'\xa3Z,LV\x1f\xe5?'
p1530
tp1531
Rp1532
sg81
g82
sg83
g84
sbag4
(g5
g6
Ntp1533
Rp1534
(dp1535
g10
g11
(g15
S'\x00\x00\x00\x00\x00\x00\xf8\xff'
p1536
tp1537
Rp1538
sg25
g358
sg34
g35
sg36
(dp1539
g25
g358
sg140
g11
(g15
S'\xcbf1\xc1\xc8 9@'
p1540
tp1541
Rp1542
sg129
g11
(g157
S'\x02\x00\x00\x00\x00\x00\x00\x00'
p1543
tp1544
Rp1545
sg121
g11
(g15
S'\xc1[7 \xea&\xfb?'
p1546
tp1547
Rp1548
ssg42
g11
(g12
(S'S3'
p1549
I0
I1
tp1550
Rp1551
(I3
S'|'
p1552
NNNI3
I1
I0
tp1553
bS'PCA'
p1554
tp1555
Rp1556
sg51
F0.2
sg121
g1548
sg52
g11
(g12
(S'S8'
p1557
I0
I1
tp1558
Rp1559
(I3
S'|'
p1560
NNNI8
I1
I0
tp1561
bS'haralick'
p1562
tp1563
Rp1564
sg140
g1542
sg129
g1545
sg61
g11
(g15
S'3g\x84g*\x89\xea?'
p1565
tp1566
Rp1567
sg65
g11
(g12
(S'S3'
p1568
I0
I1
tp1569
Rp1570
(I3
S'|'
p1571
NNNI3
I1
I0
tp1572
bS'SVM'
p1573
tp1574
Rp1575
sg74
I3
sg75
g76
sg77
g11
(g15
S'\xb7\x8b\t\x83\xef4\xe5?'
p1576
tp1577
Rp1578
sg81
g82
sg83
g84
sbag4
(g5
g6
Ntp1579
Rp1580
(dp1581
g10
g11
(g15
S'\x00\x00\x00\x00\x00\x00\xf8\xff'
p1582
tp1583
Rp1584
sg25
g358
sg34
g35
sg36
(dp1585
g25
g358
sg140
g11
(g15
S'\x1b\xc9\xf1\xe0\xd5iG@'
p1586
tp1587
Rp1588
sg129
g11
(g157
S'\x02\x00\x00\x00\x00\x00\x00\x00'
p1589
tp1590
Rp1591
sg121
g11
(g15
S'Y\x9d1\x9aa \x15@'
p1592
tp1593
Rp1594
ssg42
g11
(g12
(S'S3'
p1595
I0
I1
tp1596
Rp1597
(I3
S'|'
p1598
NNNI3
I1
I0
tp1599
bS'PCA'
p1600
tp1601
Rp1602
sg51
F0.2
sg121
g1594
sg52
g11
(g12
(S'S8'
p1603
I0
I1
tp1604
Rp1605
(I3
S'|'
p1606
NNNI8
I1
I0
tp1607
bS'haralick'
p1608
tp1609
Rp1610
sg140
g1588
sg129
g1591
sg61
g11
(g15
S'\x80$\xc6\xc3\xac\xbd\xeb?'
p1611
tp1612
Rp1613
sg65
g11
(g12
(S'S3'
p1614
I0
I1
tp1615
Rp1616
(I3
S'|'
p1617
NNNI3
I1
I0
tp1618
bS'SVM'
p1619
tp1620
Rp1621
sg74
I3
sg75
g76
sg77
g11
(g15
S'\x0e\x90\x16\xaad\x94\xe3?'
p1622
tp1623
Rp1624
sg81
g82
sg83
g84
sbag4
(g5
g6
Ntp1625
Rp1626
(dp1627
g10
g11
(g15
S'\x00\x00\x00\x00\x00\x00\xf8\xff'
p1628
tp1629
Rp1630
sg21
g11
(g15
S'\x00\x00\x00\x00\x00@Z@'
p1631
tp1632
Rp1633
sg34
g35
sg108
g11
(g157
S'\x04\x00\x00\x00\x00\x00\x00\x00'
p1634
tp1635
Rp1636
sg36
(dp1637
g21
g1633
sg108
g1636
sg129
g11
(g157
S'\x03\x00\x00\x00\x00\x00\x00\x00'
p1638
tp1639
Rp1640
sg131
g11
(g157
S'\x03\x00\x00\x00\x00\x00\x00\x00'
p1641
tp1642
Rp1643
sg38
g11
(g15
S'\xe4|\xf3]\xb5\x8b\xeb?'
p1644
tp1645
Rp1646
ssg42
g11
(g12
(S'S6'
p1647
I0
I1
tp1648
Rp1649
(I3
S'|'
p1650
NNNI6
I1
I0
tp1651
bS'ISOMAP'
p1652
tp1653
Rp1654
sg51
F0.2
sg131
g1643
sg52
g11
(g12
(S'S8'
p1655
I0
I1
tp1656
Rp1657
(I3
S'|'
p1658
NNNI8
I1
I0
tp1659
bS'haralick'
p1660
tp1661
Rp1662
sg129
g1640
sg61
g11
(g15
S'\xac5)\x93r\xe2\xf7?'
p1663
tp1664
Rp1665
sg65
g11
(g12
(S'S2'
p1666
I0
I1
tp1667
Rp1668
(I3
S'|'
p1669
NNNI2
I1
I0
tp1670
bS'RF'
p1671
tp1672
Rp1673
sg74
I3
sg38
g1646
sg75
g76
sg77
g11
(g15
S'\x05S=\xfc8\xef\xe5?'
p1674
tp1675
Rp1676
sg81
g82
sg83
g84
sbag4
(g5
g6
Ntp1677
Rp1678
(dp1679
g10
g11
(g15
S'\x00\x00\x00\x00\x00\x00\xf8\xff'
p1680
tp1681
Rp1682
sg21
g11
(g15
S'\x00\x00\x00\x00\x00\x00 @'
p1683
tp1684
Rp1685
sg25
g358
sg34
g35
sg36
(dp1686
g21
g1685
sg38
g11
(g15
S'\x12H9u@\x81\xd6?'
p1687
tp1688
Rp1689
sg25
g358
ssg42
g11
(g12
(S'S3'
p1690
I0
I1
tp1691
Rp1692
(I3
S'|'
p1693
NNNI3
I1
I0
tp1694
bS'PCA'
p1695
tp1696
Rp1697
sg51
F0.2
sg52
g11
(g12
(S'S9'
p1698
I0
I1
tp1699
Rp1700
(I3
S'|'
p1701
NNNI9
I1
I0
tp1702
bS'inception'
p1703
tp1704
Rp1705
sg61
g11
(g15
S'A\xf2L\xd6\xdeL\x14@'
p1706
tp1707
Rp1708
sg65
g11
(g12
(S'S2'
p1709
I0
I1
tp1710
Rp1711
(I3
S'|'
p1712
NNNI2
I1
I0
tp1713
bS'RF'
p1714
tp1715
Rp1716
sg74
I3
sg38
g1689
sg75
g76
sg77
g11
(g15
S"(}\xd2'}\xd2\xdf?"
p1717
tp1718
Rp1719
sg81
g82
sg83
g84
sbag4
(g5
g6
Ntp1720
Rp1721
(dp1722
g10
g11
(g15
S'\x00\x00\x00\x00\x00\x00\xf8\xff'
p1723
tp1724
Rp1725
sg21
g11
(g15
S'\x00\x00\x00\x00\x00`i@'
p1726
tp1727
Rp1728
sg25
g33
sg34
g35
sg36
(dp1729
g21
g1728
sg38
g11
(g15
S'\xc0#\xb2\x99M\xf7\xe9?'
p1730
tp1731
Rp1732
sg25
g33
ssg42
g11
(g12
(S'S3'
p1733
I0
I1
tp1734
Rp1735
(I3
S'|'
p1736
NNNI3
I1
I0
tp1737
bS'PCA'
p1738
tp1739
Rp1740
sg51
F0.2
sg52
g11
(g12
(S'S9'
p1741
I0
I1
tp1742
Rp1743
(I3
S'|'
p1744
NNNI9
I1
I0
tp1745
bS'inception'
p1746
tp1747
Rp1748
sg61
g11
(g15
S'm\x89!\xd4\x1f\xb4\xf8?'
p1749
tp1750
Rp1751
sg65
g11
(g12
(S'S2'
p1752
I0
I1
tp1753
Rp1754
(I3
S'|'
p1755
NNNI2
I1
I0
tp1756
bS'RF'
p1757
tp1758
Rp1759
sg74
I3
sg38
g1732
sg75
g76
sg77
g11
(g15
S'\th\xd7z\xba\xce\xe0?'
p1760
tp1761
Rp1762
sg81
g82
sg83
g84
sbag4
(g5
g6
Ntp1763
Rp1764
(dp1765
g10
g11
(g15
S'\x00\x00\x00\x00\x00\x00\xf8\xff'
p1766
tp1767
Rp1768
sg21
g11
(g15
S'\x00\x00\x00\x00\x00\x00 @'
p1769
tp1770
Rp1771
sg25
g33
sg34
g35
sg36
(dp1772
g21
g1771
sg38
g11
(g15
S'\xedcp<\x07u\xdb?'
p1773
tp1774
Rp1775
sg25
g33
sg129
g11
(g157
S'\x01\x00\x00\x00\x00\x00\x00\x00'
p1776
tp1777
Rp1778
ssg42
g11
(g12
(S'S3'
p1779
I0
I1
tp1780
Rp1781
(I3
S'|'
p1782
NNNI3
I1
I0
tp1783
bS'PCA'
p1784
tp1785
Rp1786
sg51
F0.2
sg52
g11
(g12
(S'S8'
p1787
I0
I1
tp1788
Rp1789
(I3
S'|'
p1790
NNNI8
I1
I0
tp1791
bS'haralick'
p1792
tp1793
Rp1794
sg129
g1778
sg61
g11
(g15
S'@j\xfb\xe2\xc0\xe9"@'
p1795
tp1796
Rp1797
sg65
g11
(g12
(S'S2'
p1798
I0
I1
tp1799
Rp1800
(I3
S'|'
p1801
NNNI2
I1
I0
tp1802
bS'RF'
p1803
tp1804
Rp1805
sg74
I3
sg38
g1775
sg75
g76
sg77
g11
(g15
S'\nh\xd7z\xba\xce\xe0?'
p1806
tp1807
Rp1808
sg81
g82
sg83
g84
sbag4
(g5
g6
Ntp1809
Rp1810
(dp1811
g10
g11
(g15
S'\x00\x00\x00\x00\x00\x00\xf8\xff'
p1812
tp1813
Rp1814
sg21
g11
(g15
S'\x00\x00\x00\x00\x00@R@'
p1815
tp1816
Rp1817
sg34
g35
sg108
g11
(g157
S'\x03\x00\x00\x00\x00\x00\x00\x00'
p1818
tp1819
Rp1820
sg36
(dp1821
g21
g1817
sg108
g1820
sg131
g11
(g157
S'\x02\x00\x00\x00\x00\x00\x00\x00'
p1822
tp1823
Rp1824
sg38
g11
(g15
S'\xd6\xc6\x08\xbc\xdd\xbe\xea?'
p1825
tp1826
Rp1827
ssg42
g11
(g12
(S'S6'
p1828
I0
I1
tp1829
Rp1830
(I3
S'|'
p1831
NNNI6
I1
I0
tp1832
bS'ISOMAP'
p1833
tp1834
Rp1835
sg51
F0.2
sg131
g1824
sg52
g11
(g12
(S'S9'
p1836
I0
I1
tp1837
Rp1838
(I3
S'|'
p1839
NNNI9
I1
I0
tp1840
bS'inception'
p1841
tp1842
Rp1843
sg61
g11
(g15
S'(r\xda[\xc3Z\x07@'
p1844
tp1845
Rp1846
sg65
g11
(g12
(S'S2'
p1847
I0
I1
tp1848
Rp1849
(I3
S'|'
p1850
NNNI2
I1
I0
tp1851
bS'RF'
p1852
tp1853
Rp1854
sg74
I3
sg38
g1827
sg75
g76
sg77
g11
(g15
S']D\xa5r\x85h\xdc?'
p1855
tp1856
Rp1857
sg81
g82
sg83
g84
sbag4
(g5
g6
Ntp1858
Rp1859
(dp1860
g10
g11
(g15
S'\x00\x00\x00\x00\x00\x00\xf8\xff'
p1861
tp1862
Rp1863
sg21
g11
(g15
S'\x00\x00\x00\x00\x00`m@'
p1864
tp1865
Rp1866
sg34
g35
sg108
g11
(g157
S'\x04\x00\x00\x00\x00\x00\x00\x00'
p1867
tp1868
Rp1869
sg36
(dp1870
g21
g1866
sg108
g1869
sg131
g11
(g157
S'\x02\x00\x00\x00\x00\x00\x00\x00'
p1871
tp1872
Rp1873
sg38
g11
(g15
S'\x986ch`\xce\xec?'
p1874
tp1875
Rp1876
ssg42
g11
(g12
(S'S6'
p1877
I0
I1
tp1878
Rp1879
(I3
S'|'
p1880
NNNI6
I1
I0
tp1881
bS'ISOMAP'
p1882
tp1883
Rp1884
sg51
F0.2
sg131
g1873
sg52
g11
(g12
(S'S3'
p1885
I0
I1
tp1886
Rp1887
(I3
S'|'
p1888
NNNI3
I1
I0
tp1889
bS'VGG'
p1890
tp1891
Rp1892
sg61
g11
(g15
S'[ \x16>,2\xf1?'
p1893
tp1894
Rp1895
sg65
g11
(g12
(S'S2'
p1896
I0
I1
tp1897
Rp1898
(I3
S'|'
p1899
NNNI2
I1
I0
tp1900
bS'RF'
p1901
tp1902
Rp1903
sg74
I3
sg38
g1876
sg75
g76
sg77
g11
(g15
S'M\xc73yI\xba\xe0?'
p1904
tp1905
Rp1906
sg81
g82
sg83
g84
sbag4
(g5
g6
Ntp1907
Rp1908
(dp1909
g10
g11
(g15
S'\x00\x00\x00\x00\x00\x00\xf8\xff'
p1910
tp1911
Rp1912
sg108
g11
(g157
S'\x04\x00\x00\x00\x00\x00\x00\x00'
p1913
tp1914
Rp1915
sg34
g35
sg36
(dp1916
g108
g1915
sg140
g11
(g15
S'\xe2\x82\xb7\xbd\x8a\xdfQ@'
p1917
tp1918
Rp1919
sg131
g11
(g157
S'\x02\x00\x00\x00\x00\x00\x00\x00'
p1920
tp1921
Rp1922
sg121
g11
(g15
S'8Xta\x7f\x18\x05@'
p1923
tp1924
Rp1925
ssg121
g1925
sg42
g11
(g12
(S'S6'
p1926
I0
I1
tp1927
Rp1928
(I3
S'|'
p1929
NNNI6
I1
I0
tp1930
bS'ISOMAP'
p1931
tp1932
Rp1933
sg51
F0.2
sg131
g1922
sg52
g11
(g12
(S'S3'
p1934
I0
I1
tp1935
Rp1936
(I3
S'|'
p1937
NNNI3
I1
I0
tp1938
bS'VGG'
p1939
tp1940
Rp1941
sg140
g1919
sg61
g11
(g15
S'\x17\r\x1e\xb8\xd0\xcf\xee?'
p1942
tp1943
Rp1944
sg65
g11
(g12
(S'S3'
p1945
I0
I1
tp1946
Rp1947
(I3
S'|'
p1948
NNNI3
I1
I0
tp1949
bS'SVM'
p1950
tp1951
Rp1952
sg74
I3
sg75
g76
sg77
g11
(g15
S'\xb8\x9b\xef\x953\xb7\xe0?'
p1953
tp1954
Rp1955
sg81
g82
sg83
g84
sbag4
(g5
g6
Ntp1956
Rp1957
(dp1958
g10
g11
(g15
S'\x00\x00\x00\x00\x00\x00\xf8\xff'
p1959
tp1960
Rp1961
sg21
g11
(g15
S'\x00\x00\x00\x00\x00\xc0p@'
p1962
tp1963
Rp1964
sg34
g35
sg108
g11
(g157
S'\x03\x00\x00\x00\x00\x00\x00\x00'
p1965
tp1966
Rp1967
sg36
(dp1968
g21
g1964
sg108
g1967
sg131
g11
(g157
S'\x03\x00\x00\x00\x00\x00\x00\x00'
p1969
tp1970
Rp1971
sg38
g11
(g15
S'\x86\xa7\xd8\xb5z:\xe4?'
p1972
tp1973
Rp1974
ssg42
g11
(g12
(S'S6'
p1975
I0
I1
tp1976
Rp1977
(I3
S'|'
p1978
NNNI6
I1
I0
tp1979
bS'ISOMAP'
p1980
tp1981
Rp1982
sg51
F0.2
sg131
g1971
sg52
g11
(g12
(S'S9'
p1983
I0
I1
tp1984
Rp1985
(I3
S'|'
p1986
NNNI9
I1
I0
tp1987
bS'inception'
p1988
tp1989
Rp1990
sg61
g11
(g15
S'\xda+h\x1bv\x11\x03@'
p1991
tp1992
Rp1993
sg65
g11
(g12
(S'S2'
p1994
I0
I1
tp1995
Rp1996
(I3
S'|'
p1997
NNNI2
I1
I0
tp1998
bS'RF'
p1999
tp2000
Rp2001
sg74
I3
sg38
g1974
sg75
g76
sg77
g11
(g15
S'\xb3\xa1m\xd1\xfc~\xdd?'
p2002
tp2003
Rp2004
sg81
g82
sg83
g84
sbag4
(g5
g6
Ntp2005
Rp2006
(dp2007
g10
g11
(g15
S'\x00\x00\x00\x00\x00\x00\xf8\xff'
p2008
tp2009
Rp2010
sg21
g11
(g15
S'\x00\x00\x00\x00\x00@e@'
p2011
tp2012
Rp2013
sg34
g35
sg108
g11
(g157
S'\x05\x00\x00\x00\x00\x00\x00\x00'
p2014
tp2015
Rp2016
sg36
(dp2017
g21
g2013
sg108
g2016
sg129
g11
(g157
S'\x03\x00\x00\x00\x00\x00\x00\x00'
p2018
tp2019
Rp2020
sg131
g11
(g157
S'\x02\x00\x00\x00\x00\x00\x00\x00'
p2021
tp2022
Rp2023
sg38
g11
(g15
S"N'\xea\xe9\xbb\xf9\xec?"
p2024
tp2025
Rp2026
ssg42
g11
(g12
(S'S6'
p2027
I0
I1
tp2028
Rp2029
(I3
S'|'
p2030
NNNI6
I1
I0
tp2031
bS'ISOMAP'
p2032
tp2033
Rp2034
sg51
F0.2
sg131
g2023
sg52
g11
(g12
(S'S8'
p2035
I0
I1
tp2036
Rp2037
(I3
S'|'
p2038
NNNI8
I1
I0
tp2039
bS'haralick'
p2040
tp2041
Rp2042
sg129
g2020
sg61
g11
(g15
S'Qc(\r5\xf7\xf7?'
p2043
tp2044
Rp2045
sg65
g11
(g12
(S'S2'
p2046
I0
I1
tp2047
Rp2048
(I3
S'|'
p2049
NNNI2
I1
I0
tp2050
bS'RF'
p2051
tp2052
Rp2053
sg74
I3
sg38
g2026
sg75
g76
sg77
g11
(g15
S'\xa3Z,LV\x1f\xe5?'
p2054
tp2055
Rp2056
sg81
g82
sg83
g84
sbag4
(g5
g6
Ntp2057
Rp2058
(dp2059
g10
g11
(g15
S'\x00\x00\x00\x00\x00\x00\xf8\xff'
p2060
tp2061
Rp2062
sg21
g11
(g15
S'\x00\x00\x00\x00\x00\x00D@'
p2063
tp2064
Rp2065
sg25
g33
sg34
g35
sg36
(dp2066
g21
g2065
sg38
g11
(g15
S'0\x8a{\xd0\xfam\xe5?'
p2067
tp2068
Rp2069
sg25
g33
ssg42
g11
(g12
(S'S3'
p2070
I0
I1
tp2071
Rp2072
(I3
S'|'
p2073
NNNI3
I1
I0
tp2074
bS'PCA'
p2075
tp2076
Rp2077
sg51
F0.2
sg52
g11
(g12
(S'S9'
p2078
I0
I1
tp2079
Rp2080
(I3
S'|'
p2081
NNNI9
I1
I0
tp2082
bS'inception'
p2083
tp2084
Rp2085
sg61
g11
(g15
S'{\x1a\xe3\x19\xcc\x05\x04@'
p2086
tp2087
Rp2088
sg65
g11
(g12
(S'S2'
p2089
I0
I1
tp2090
Rp2091
(I3
S'|'
p2092
NNNI2
I1
I0
tp2093
bS'RF'
p2094
tp2095
Rp2096
sg74
I3
sg38
g2069
sg75
g76
sg77
g11
(g15
S'\x10,)\xcb[\xb8\xe0?'
p2097
tp2098
Rp2099
sg81
g82
sg83
g84
sbag4
(g5
g6
Ntp2100
Rp2101
(dp2102
g10
g11
(g15
S'\x00\x00\x00\x00\x00\x00\xf8\xff'
p2103
tp2104
Rp2105
sg21
g11
(g15
S'\x00\x00\x00\x00\x00@Z@'
p2106
tp2107
Rp2108
sg34
g35
sg108
g11
(g157
S'\x05\x00\x00\x00\x00\x00\x00\x00'
p2109
tp2110
Rp2111
sg36
(dp2112
g21
g2108
sg108
g2111
sg131
g11
(g157
S'\x03\x00\x00\x00\x00\x00\x00\x00'
p2113
tp2114
Rp2115
sg38
g11
(g15
S'\xbe\xb8\xa2\xe68\x84\xd8?'
p2116
tp2117
Rp2118
ssg42
g11
(g12
(S'S6'
p2119
I0
I1
tp2120
Rp2121
(I3
S'|'
p2122
NNNI6
I1
I0
tp2123
bS'ISOMAP'
p2124
tp2125
Rp2126
sg51
F0.2
sg131
g2115
sg52
g11
(g12
(S'S3'
p2127
I0
I1
tp2128
Rp2129
(I3
S'|'
p2130
NNNI3
I1
I0
tp2131
bS'VGG'
p2132
tp2133
Rp2134
sg61
g11
(g15
S'\xbd\x87W\xd1\x0f\x97\xf5?'
p2135
tp2136
Rp2137
sg65
g11
(g12
(S'S2'
p2138
I0
I1
tp2139
Rp2140
(I3
S'|'
p2141
NNNI2
I1
I0
tp2142
bS'RF'
p2143
tp2144
Rp2145
sg74
I3
sg38
g2118
sg75
g76
sg77
g11
(g15
S'\xa0x\x03\xa4\x85*\xe1?'
p2146
tp2147
Rp2148
sg81
g82
sg83
g84
sbag4
(g5
g6
Ntp2149
Rp2150
(dp2151
g10
g11
(g15
S'\x00\x00\x00\x00\x00\x00\xf8\xff'
p2152
tp2153
Rp2154
sg108
g11
(g157
S'\x04\x00\x00\x00\x00\x00\x00\x00'
p2155
tp2156
Rp2157
sg34
g35
sg36
(dp2158
g108
g2157
sg140
g11
(g15
S'\x1b\xb0O \x80@D@'
p2159
tp2160
Rp2161
sg131
g11
(g157
S'\x04\x00\x00\x00\x00\x00\x00\x00'
p2162
tp2163
Rp2164
sg121
g11
(g15
S'\xf1\xa3\xd6\xbb\xbe\xda\x12@'
p2165
tp2166
Rp2167
ssg121
g2167
sg42
g11
(g12
(S'S6'
p2168
I0
I1
tp2169
Rp2170
(I3
S'|'
p2171
NNNI6
I1
I0
tp2172
bS'ISOMAP'
p2173
tp2174
Rp2175
sg51
F0.2
sg131
g2164
sg52
g11
(g12
(S'S9'
p2176
I0
I1
tp2177
Rp2178
(I3
S'|'
p2179
NNNI9
I1
I0
tp2180
bS'inception'
p2181
tp2182
Rp2183
sg140
g2161
sg61
g11
(g15
S'\\\xa6\x884\x14|\xf0?'
p2184
tp2185
Rp2186
sg65
g11
(g12
(S'S3'
p2187
I0
I1
tp2188
Rp2189
(I3
S'|'
p2190
NNNI3
I1
I0
tp2191
bS'SVM'
p2192
tp2193
Rp2194
sg74
I3
sg75
g76
sg77
g11
(g15
S'Yb|\xca\xb4s\xe0?'
p2195
tp2196
Rp2197
sg81
g82
sg83
g84
sbag4
(g5
g6
Ntp2198
Rp2199
(dp2200
g10
g11
(g15
S'\x00\x00\x00\x00\x00\x00\xf8\xff'
p2201
tp2202
Rp2203
sg108
g11
(g157
S'\x05\x00\x00\x00\x00\x00\x00\x00'
p2204
tp2205
Rp2206
sg34
g35
sg36
(dp2207
g108
g2206
sg140
g11
(g15
S'\x84Y\r\xe3n\xd99@'
p2208
tp2209
Rp2210
sg129
g11
(g157
S'\x03\x00\x00\x00\x00\x00\x00\x00'
p2211
tp2212
Rp2213
sg131
g11
(g157
S'\x03\x00\x00\x00\x00\x00\x00\x00'
p2214
tp2215
Rp2216
sg121
g11
(g15
S'\xe0\xbd\xca*\xe7_\x13@'
p2217
tp2218
Rp2219
ssg121
g2219
sg42
g11
(g12
(S'S6'
p2220
I0
I1
tp2221
Rp2222
(I3
S'|'
p2223
NNNI6
I1
I0
tp2224
bS'ISOMAP'
p2225
tp2226
Rp2227
sg51
F0.2
sg131
g2216
sg52
g11
(g12
(S'S8'
p2228
I0
I1
tp2229
Rp2230
(I3
S'|'
p2231
NNNI8
I1
I0
tp2232
bS'haralick'
p2233
tp2234
Rp2235
sg140
g2210
sg129
g2213
sg61
g11
(g15
S'\xfc\xeb\xa2\xf0\xee\xb4\xec?'
p2236
tp2237
Rp2238
sg65
g11
(g12
(S'S3'
p2239
I0
I1
tp2240
Rp2241
(I3
S'|'
p2242
NNNI3
I1
I0
tp2243
bS'SVM'
p2244
tp2245
Rp2246
sg74
I3
sg75
g76
sg77
g11
(g15
S'\xd1\xfc~\x05\x99S\xe3?'
p2247
tp2248
Rp2249
sg81
g82
sg83
g84
sbag4
(g5
g6
Ntp2250
Rp2251
(dp2252
g10
g11
(g15
S'\x00\x00\x00\x00\x00\x00\xf8\xff'
p2253
tp2254
Rp2255
sg21
g11
(g15
S'\x00\x00\x00\x00\x00@Z@'
p2256
tp2257
Rp2258
sg34
g35
sg108
g11
(g157
S'\x04\x00\x00\x00\x00\x00\x00\x00'
p2259
tp2260
Rp2261
sg36
(dp2262
g21
g2258
sg108
g2261
sg131
g11
(g157
S'\x02\x00\x00\x00\x00\x00\x00\x00'
p2263
tp2264
Rp2265
sg38
g11
(g15
S'\xcd\x0c=Prc\xe0?'
p2266
tp2267
Rp2268
ssg42
g11
(g12
(S'S6'
p2269
I0
I1
tp2270
Rp2271
(I3
S'|'
p2272
NNNI6
I1
I0
tp2273
bS'ISOMAP'
p2274
tp2275
Rp2276
sg51
F0.2
sg131
g2265
sg52
g11
(g12
(S'S3'
p2277
I0
I1
tp2278
Rp2279
(I3
S'|'
p2280
NNNI3
I1
I0
tp2281
bS'VGG'
p2282
tp2283
Rp2284
sg61
g11
(g15
S'\x07\x01\x95n\xda\xd4\xf6?'
p2285
tp2286
Rp2287
sg65
g11
(g12
(S'S2'
p2288
I0
I1
tp2289
Rp2290
(I3
S'|'
p2291
NNNI2
I1
I0
tp2292
bS'RF'
p2293
tp2294
Rp2295
sg74
I3
sg38
g2268
sg75
g76
sg77
g11
(g15
S'\xe8\xc9n])\x8d\xe0?'
p2296
tp2297
Rp2298
sg81
g82
sg83
g84
sbag4
(g5
g6
Ntp2299
Rp2300
(dp2301
g10
g11
(g15
S'\x00\x00\x00\x00\x00\x00\xf8\xff'
p2302
tp2303
Rp2304
sg25
g358
sg34
g35
sg36
(dp2305
g25
g358
sg140
g11
(g15
S'\xc20c\x0f\xfc\x17\x19@'
p2306
tp2307
Rp2308
sg121
g11
(g15
S'\xde\xa5\x02h\x8cK\x14@'
p2309
tp2310
Rp2311
ssg42
g11
(g12
(S'S3'
p2312
I0
I1
tp2313
Rp2314
(I3
S'|'
p2315
NNNI3
I1
I0
tp2316
bS'PCA'
p2317
tp2318
Rp2319
sg51
F0.2
sg121
g2311
sg52
g11
(g12
(S'S3'
p2320
I0
I1
tp2321
Rp2322
(I3
S'|'
p2323
NNNI3
I1
I0
tp2324
bS'VGG'
p2325
tp2326
Rp2327
sg140
g2308
sg61
g11
(g15
S"%\xdb\x07'Qf\xf0?"
p2328
tp2329
Rp2330
sg65
g11
(g12
(S'S3'
p2331
I0
I1
tp2332
Rp2333
(I3
S'|'
p2334
NNNI3
I1
I0
tp2335
bS'SVM'
p2336
tp2337
Rp2338
sg74
I3
sg75
g76
sg77
g11
(g15
S'P\xbc\x01\xd2B\x95\xdc?'
p2339
tp2340
Rp2341
sg81
g82
sg83
g84
sbag4
(g5
g6
Ntp2342
Rp2343
(dp2344
g10
g11
(g15
S'\x00\x00\x00\x00\x00\x00\xf8\xff'
p2345
tp2346
Rp2347
sg108
g11
(g157
S'\x03\x00\x00\x00\x00\x00\x00\x00'
p2348
tp2349
Rp2350
sg34
g35
sg36
(dp2351
g108
g2350
sg140
g11
(g15
S'\xbf\x98@\xbc\xfb\rG@'
p2352
tp2353
Rp2354
sg131
g11
(g157
S'\x02\x00\x00\x00\x00\x00\x00\x00'
p2355
tp2356
Rp2357
sg121
g11
(g15
S'\x1c\xa3bC\t\x0f\x08@'
p2358
tp2359
Rp2360
ssg121
g2360
sg42
g11
(g12
(S'S6'
p2361
I0
I1
tp2362
Rp2363
(I3
S'|'
p2364
NNNI6
I1
I0
tp2365
bS'ISOMAP'
p2366
tp2367
Rp2368
sg51
F0.2
sg131
g2357
sg52
g11
(g12
(S'S3'
p2369
I0
I1
tp2370
Rp2371
(I3
S'|'
p2372
NNNI3
I1
I0
tp2373
bS'VGG'
p2374
tp2375
Rp2376
sg140
g2354
sg61
g11
(g15
S']=\x11\x13>C\xef?'
p2377
tp2378
Rp2379
sg65
g11
(g12
(S'S3'
p2380
I0
I1
tp2381
Rp2382
(I3
S'|'
p2383
NNNI3
I1
I0
tp2384
bS'SVM'
p2385
tp2386
Rp2387
sg74
I3
sg75
g76
sg77
g11
(g15
S'1a\xf0\x9d\xa6\xc0\xde?'
p2388
tp2389
Rp2390
sg81
g82
sg83
g84
sbag4
(g5
g6
Ntp2391
Rp2392
(dp2393
g10
g11
(g15
S'\x00\x00\x00\x00\x00\x00\xf8\xff'
p2394
tp2395
Rp2396
sg25
g33
sg34
g35
sg36
(dp2397
g25
g33
sg140
g11
(g15
S'k\xd8\x9a\x85Ld@@'
p2398
tp2399
Rp2400
sg129
g11
(g157
S'\x03\x00\x00\x00\x00\x00\x00\x00'
p2401
tp2402
Rp2403
sg121
g11
(g15
S'\xfd\x02lN\xc6\xaa\xf7?'
p2404
tp2405
Rp2406
ssg42
g11
(g12
(S'S3'
p2407
I0
I1
tp2408
Rp2409
(I3
S'|'
p2410
NNNI3
I1
I0
tp2411
bS'PCA'
p2412
tp2413
Rp2414
sg51
F0.2
sg121
g2406
sg52
g11
(g12
(S'S8'
p2415
I0
I1
tp2416
Rp2417
(I3
S'|'
p2418
NNNI8
I1
I0
tp2419
bS'haralick'
p2420
tp2421
Rp2422
sg140
g2400
sg129
g2403
sg61
g11
(g15
S'\xe37\x81\x98\x9a\xf0\xe9?'
p2423
tp2424
Rp2425
sg65
g11
(g12
(S'S3'
p2426
I0
I1
tp2427
Rp2428
(I3
S'|'
p2429
NNNI3
I1
I0
tp2430
bS'SVM'
p2431
tp2432
Rp2433
sg74
I3
sg75
g76
sg77
g11
(g15
S'\xeeb\xc2\xe0;M\xe5?'
p2434
tp2435
Rp2436
sg81
g82
sg83
g84
sbag4
(g5
g6
Ntp2437
Rp2438
(dp2439
g10
g11
(g15
S'\x00\x00\x00\x00\x00\x00\xf8\xff'
p2440
tp2441
Rp2442
sg21
g11
(g15
S'\x00\x00\x00\x00\x00\x00D@'
p2443
tp2444
Rp2445
sg34
g35
sg108
g11
(g157
S'\x04\x00\x00\x00\x00\x00\x00\x00'
p2446
tp2447
Rp2448
sg36
(dp2449
g21
g2445
sg108
g2448
sg131
g11
(g157
S'\x04\x00\x00\x00\x00\x00\x00\x00'
p2450
tp2451
Rp2452
sg38
g11
(g15
S'\x10\xb5\xcf\xcb~\xef\xe3?'
p2453
tp2454
Rp2455
ssg42
g11
(g12
(S'S6'
p2456
I0
I1
tp2457
Rp2458
(I3
S'|'
p2459
NNNI6
I1
I0
tp2460
bS'ISOMAP'
p2461
tp2462
Rp2463
sg51
F0.2
sg131
g2452
sg52
g11
(g12
(S'S3'
p2464
I0
I1
tp2465
Rp2466
(I3
S'|'
p2467
NNNI3
I1
I0
tp2468
bS'VGG'
p2469
tp2470
Rp2471
sg61
g11
(g15
S'\x8d[\xdc\x01:\xa7\xf5?'
p2472
tp2473
Rp2474
sg65
g11
(g12
(S'S2'
p2475
I0
I1
tp2476
Rp2477
(I3
S'|'
p2478
NNNI2
I1
I0
tp2479
bS'RF'
p2480
tp2481
Rp2482
sg74
I3
sg38
g2455
sg75
g76
sg77
g11
(g15
S'\xdf\x84"\xa6\xdb&\xe3?'
p2483
tp2484
Rp2485
sg81
g82
sg83
g84
sbag4
(g5
g6
Ntp2486
Rp2487
(dp2488
g10
g11
(g15
S'\x00\x00\x00\x00\x00\x00\xf8\xff'
p2489
tp2490
Rp2491
sg25
g358
sg34
g35
sg36
(dp2492
g25
g358
sg140
g11
(g15
S"\xc6\x14\x85\xf2\xb8\xb3'@"
p2493
tp2494
Rp2495
sg129
g11
(g157
S'\x02\x00\x00\x00\x00\x00\x00\x00'
p2496
tp2497
Rp2498
sg121
g11
(g15
S';\xa1\x07\xef\xf1\x96\x01@'
p2499
tp2500
Rp2501
ssg42
g11
(g12
(S'S3'
p2502
I0
I1
tp2503
Rp2504
(I3
S'|'
p2505
NNNI3
I1
I0
tp2506
bS'PCA'
p2507
tp2508
Rp2509
sg51
F0.2
sg121
g2501
sg52
g11
(g12
(S'S8'
p2510
I0
I1
tp2511
Rp2512
(I3
S'|'
p2513
NNNI8
I1
I0
tp2514
bS'haralick'
p2515
tp2516
Rp2517
sg140
g2495
sg129
g2498
sg61
g11
(g15
S'\xad\xbc\x15\xa8\x94;\xea?'
p2518
tp2519
Rp2520
sg65
g11
(g12
(S'S3'
p2521
I0
I1
tp2522
Rp2523
(I3
S'|'
p2524
NNNI3
I1
I0
tp2525
bS'SVM'
p2526
tp2527
Rp2528
sg74
I3
sg75
g76
sg77
g11
(g15
S'\x08X\xf1gvL\xe5?'
p2529
tp2530
Rp2531
sg81
g82
sg83
g84
sbag4
(g5
g6
Ntp2532
Rp2533
(dp2534
g10
g11
(g15
S'\x00\x00\x00\x00\x00\x00\xf8\xff'
p2535
tp2536
Rp2537
sg25
g33
sg34
g35
sg36
(dp2538
g25
g33
sg140
g11
(g15
S'\xe0V\x0f\xd1i\xb42@'
p2539
tp2540
Rp2541
sg121
g11
(g15
S'\xd7\xe0\xecx>7\x1b@'
p2542
tp2543
Rp2544
ssg42
g11
(g12
(S'S3'
p2545
I0
I1
tp2546
Rp2547
(I3
S'|'
p2548
NNNI3
I1
I0
tp2549
bS'PCA'
p2550
tp2551
Rp2552
sg51
F0.2
sg121
g2544
sg52
g11
(g12
(S'S3'
p2553
I0
I1
tp2554
Rp2555
(I3
S'|'
p2556
NNNI3
I1
I0
tp2557
bS'VGG'
p2558
tp2559
Rp2560
sg140
g2541
sg61
g11
(g15
S'\x07\xec\xb2\r\x8f\xa8\xf0?'
p2561
tp2562
Rp2563
sg65
g11
(g12
(S'S3'
p2564
I0
I1
tp2565
Rp2566
(I3
S'|'
p2567
NNNI3
I1
I0
tp2568
bS'SVM'
p2569
tp2570
Rp2571
sg74
I3
sg75
g76
sg77
g11
(g15
S'\xcb\xd7\xfes\xd3\xf1\xdc?'
p2572
tp2573
Rp2574
sg81
g82
sg83
g84
sbag4
(g5
g6
Ntp2575
Rp2576
(dp2577
g10
g11
(g15
S'\x00\x00\x00\x00\x00\x00\xf8\xff'
p2578
tp2579
Rp2580
sg108
g11
(g157
S'\x06\x00\x00\x00\x00\x00\x00\x00'
p2581
tp2582
Rp2583
sg34
g35
sg36
(dp2584
g108
g2583
sg140
g11
(g15
S'\xa9\x90\xf8\xf3LA8@'
p2585
tp2586
Rp2587
sg131
g11
(g157
S'\x04\x00\x00\x00\x00\x00\x00\x00'
p2588
tp2589
Rp2590
sg121
g11
(g15
S'\x1cP6&X\xdc\x1d@'
p2591
tp2592
Rp2593
ssg121
g2593
sg42
g11
(g12
(S'S6'
p2594
I0
I1
tp2595
Rp2596
(I3
S'|'
p2597
NNNI6
I1
I0
tp2598
bS'ISOMAP'
p2599
tp2600
Rp2601
sg51
F0.2
sg131
g2590
sg52
g11
(g12
(S'S3'
p2602
I0
I1
tp2603
Rp2604
(I3
S'|'
p2605
NNNI3
I1
I0
tp2606
bS'VGG'
p2607
tp2608
Rp2609
sg140
g2587
sg61
g11
(g15
S'G\x1dw\xa1\xeaQ\xf0?'
p2610
tp2611
Rp2612
sg65
g11
(g12
(S'S3'
p2613
I0
I1
tp2614
Rp2615
(I3
S'|'
p2616
NNNI3
I1
I0
tp2617
bS'SVM'
p2618
tp2619
Rp2620
sg74
I3
sg75
g76
sg77
g11
(g15
S'\t\xe4\x1dv)\xee\xde?'
p2621
tp2622
Rp2623
sg81
g82
sg83
g84
sbasS'error_curve'
p2624
(lp2625
g64
ag64
ag64
ag64
ag64
ag64
ag64
ag64
ag64
ag64
ag64
ag64
ag64
ag64
ag64
ag64
ag64
ag64
ag64
ag64
ag64
ag64
ag64
ag64
ag64
ag64
ag64
ag64
ag64
ag64
ag64
ag64
ag64
ag64
ag64
ag64
ag64
ag64
ag64
ag64
ag64
ag64
ag64
ag64
ag64
ag64
ag64
ag64
ag64
ag64
ag64
ag64
ag64
asS'iters'
p2626
I51
sg34
g35
sS'results_loc'
p2627
S'/gpfs/u/home/CGHI/CGHIarch/barn/EP_project/results/'
p2628
sS'times'
p2629
(lp2630
F2.3058950901031494
aF23.970522165298462
aF24.43830108642578
aF46.01965117454529
aF46.207003116607666
aF46.39451599121094
aF67.66691708564758
aF89.09342503547668
aF91.0779881477356
aF91.6335551738739
aF91.82196402549744
aF117.61296200752258
aF141.88095712661743
aF142.0749650001526
aF142.26409316062927
aF142.7085781097412
aF143.27249717712402
aF167.11898398399353
aF167.59423303604126
aF168.170175075531
aF189.88454818725586
aF211.88364911079407
aF212.48593997955322
aF212.69959712028503
aF212.90514302253723
aF213.08992505073547
aF215.3003339767456
aF237.06848096847534
aF237.5279471874237
aF260.94673919677734
aF282.8758270740509
aF304.73518800735474
aF327.65147399902344
aF327.8334290981293
aF329.70401215553284
aF351.4091281890869
aF352.3492250442505
aF354.6637110710144
aF355.2752959728241
aF357.71782207489014
aF384.625
aF385.0854070186615
aF386.42154812812805
aF386.89261412620544
aF410.1450791358948
aF411.46249508857727
aF411.685182094574
aF412.26158809661865
aF434.3576180934906
aF435.1843421459198
aF457.0542151927948
aF457.27421617507935
aF457.8822500705719
asS'data_loc'
p2631
g84
sS'run'
p2632
I5
sg81
S'random_MCMC'
p2633
sb.