(iprototypes.random_based_mcmc1
random_MCMC
p0
(dp1
S'best_pipelines'
p2
(lp3
ccopy_reg
_reconstructor
p4
(cprototypes.data_analytic_pipeline
image_classification_pipeline
p5
c__builtin__
object
p6
Ntp7
Rp8
(dp9
S'f1_score'
p10
cnumpy.core.multiarray
scalar
p11
(cnumpy
dtype
p12
(S'f8'
p13
I0
I1
tp14
Rp15
(I3
S'<'
p16
NNNI-1
I-1
I0
tp17
bS'\x00\x00\x00\x00\x00\x00\xf8\xff'
p18
tp19
Rp20
sS'n_neighbors'
p21
g11
(g12
(S'i8'
p22
I0
I1
tp23
Rp24
(I3
S'<'
p25
NNNI-1
I-1
I0
tp26
bS'\x06\x00\x00\x00\x00\x00\x00\x00'
p27
tp28
Rp29
sS'data_name'
p30
S'matsc_dataset2'
p31
sS'kwargs'
p32
(dp33
g21
g29
sS'svm_C'
p34
g11
(g15
S'\x9a\x91%L#\xb2E@'
p35
tp36
Rp37
sS'n_components'
p38
g11
(g24
S'\x02\x00\x00\x00\x00\x00\x00\x00'
p39
tp40
Rp41
sS'svm_gamma'
p42
g11
(g15
S'\xc2(\x91\x94i\xa8\x1a@'
p43
tp44
Rp45
ssg42
g45
sS'dimensionality_reduction'
p46
g11
(g12
(S'S6'
p47
I0
I1
tp48
Rp49
(I3
S'|'
p50
NNNI6
I1
I0
tp51
bS'ISOMAP'
p52
tp53
Rp54
sS'test_size'
p55
F0.2
sg38
g41
sS'feature_extraction'
p56
g11
(g12
(S'S3'
p57
I0
I1
tp58
Rp59
(I3
S'|'
p60
NNNI3
I1
I0
tp61
bS'VGG'
p62
tp63
Rp64
sg34
g37
sS'result'
p65
g11
(g15
S'\x85\xf8\xd2\x89rW\xd1?'
p66
tp67
Rp68
sS'learning_algorithm'
p69
g11
(g12
(S'S3'
p70
I0
I1
tp71
Rp72
(I3
S'|'
p73
NNNI3
I1
I0
tp74
bS'SVM'
p75
tp76
Rp77
sS'val_splits'
p78
I3
sS'ml_type'
p79
S'validation'
p80
sS'accuracy'
p81
g11
(g15
S'\xeb\xbc\x04\xe5P\xd2\xeb?'
p82
tp83
Rp84
sS'type1'
p85
S'random1'
p86
sS'data_location'
p87
S'/gpfs/u/home/CGHI/CGHIarch/barn/EP_project/data/'
p88
sbag4
(g5
g6
Ntp89
Rp90
(dp91
g10
g11
(g15
S'\x00\x00\x00\x00\x00\x00\xf8\xff'
p92
tp93
Rp94
sS'n_estimators'
p95
g11
(g15
S'\x00\x00\x00\x00\x00@e@'
p96
tp97
Rp98
sg30
g31
sg21
g11
(g24
S'\x04\x00\x00\x00\x00\x00\x00\x00'
p99
tp100
Rp101
sg32
(dp102
g95
g98
sg21
g101
sg38
g11
(g24
S'\x03\x00\x00\x00\x00\x00\x00\x00'
p103
tp104
Rp105
sS'max_features'
p106
g11
(g15
S'\xa4\x16\x7f\xc7\x87W\xec?'
p107
tp108
Rp109
ssg46
g11
(g12
(S'S6'
p110
I0
I1
tp111
Rp112
(I3
S'|'
p113
NNNI6
I1
I0
tp114
bS'ISOMAP'
p115
tp116
Rp117
sg55
F0.2
sg38
g105
sg56
g11
(g12
(S'S3'
p118
I0
I1
tp119
Rp120
(I3
S'|'
p121
NNNI3
I1
I0
tp122
bS'VGG'
p123
tp124
Rp125
sg65
g11
(g15
S'\xbd\xed\x1e\x8d\xc3\xd5\xc5?'
p126
tp127
Rp128
sg69
g11
(g12
(S'S2'
p129
I0
I1
tp130
Rp131
(I3
S'|'
p132
NNNI2
I1
I0
tp133
bS'RF'
p134
tp135
Rp136
sg78
I3
sg106
g109
sg79
g80
sg81
g11
(g15
S'\x8b\xa1}\x8d\xd7\x16\xee?'
p137
tp138
Rp139
sg85
g86
sg87
g88
sbasS'paths'
p140
(lp141
(lp142
S'VGG'
p143
aS'PCA'
p144
aS'SVM'
p145
aa(lp146
g143
ag144
aS'RF'
p147
aa(lp148
g143
aS'ISOMAP'
p149
ag145
aa(lp150
g143
ag149
ag147
aa(lp151
S'haralick'
p152
ag144
ag145
aa(lp153
g152
ag144
ag147
aa(lp154
g152
ag149
ag145
aa(lp155
g152
ag149
ag147
aa(lp156
S'inception'
p157
ag144
ag145
aa(lp158
g157
ag144
ag147
aa(lp159
g157
ag149
ag145
aa(lp160
g157
ag149
ag147
aasS'pipeline'
p161
(dp162
g21
(lp163
I3
aI4
aI5
aI6
aI7
asS'pca_whiten'
p164
(lp165
I01
aI00
asg95
cnumpy.core.multiarray
_reconstruct
p166
(cnumpy
ndarray
p167
(I0
tp168
S'b'
p169
tp170
Rp171
(I1
(I10
tp172
g15
I00
S'\x00\x00\x00\x00\x00\x00 @\x00\x00\x00\x00\x00\x00D@\x00\x00\x00\x00\x00@R@\x00\x00\x00\x00\x00@Z@\x00\x00\x00\x00\x00@a@\x00\x00\x00\x00\x00@e@\x00\x00\x00\x00\x00`i@\x00\x00\x00\x00\x00`m@\x00\x00\x00\x00\x00\xc0p@\x00\x00\x00\x00\x00\xc0r@'
p173
tp174
bsg46
(lp175
g144
ag149
asg42
g166
(g167
(I0
tp176
g169
tp177
Rp178
(I1
(I10
tp179
g15
I00
S"{\x14\xaeG\xe1z\x84?\x102Tv\x98\xba\xec?\xe7\xd5\xc4\xb3\xa2\x91\xfc?b\xc9/\x96\xfcb\x05@\xd2'}\xd2'}\x0c@!Ce\x87\xa9\xcb\x11@X\xf2\x8b%\xbfX\x15@\x90\xa1\xb2\xc3\xd4\xe5\x18@\xc8P\xd9a\xear\x1c@\x00\x00\x00\x00\x00\x00 @"
p180
tp181
bsg56
(lp182
g143
ag152
ag157
asS'haralick_distance'
p183
(lp184
I1
aI2
aI3
asg38
(lp185
I2
aI3
aI4
asg69
(lp186
g145
ag147
asg106
g166
(g167
(I0
tp187
g169
tp188
Rp189
(I1
(I5
tp190
g15
I00
S'333333\xd3?\x9a\x99\x99\x99\x99\x99\xd9?\x00\x00\x00\x00\x00\x00\xe0?433333\xe3?hfffff\xe6?'
p191
tp192
bsg34
g166
(g167
(I0
tp193
g169
tp194
Rp195
(I1
(I10
tp196
g15
I00
S'\x9a\x99\x99\x99\x99\x99\xb9?gfffff&@\xce\xcc\xcc\xcc\xccL6@43333\xb3@@\x01\x00\x00\x00\x00@F@\xce\xcc\xcc\xcc\xcc\xccK@\xcd\xcc\xcc\xcc\xcc\xacP@43333sS@\x9a\x99\x99\x99\x999V@\x00\x00\x00\x00\x00\x00Y@'
p197
tp198
bssS'pipelines'
p199
(lp200
g8
ag4
(g5
g6
Ntp201
Rp202
(dp203
g10
g11
(g15
S'\x00\x00\x00\x00\x00\x00\xf8\xff'
p204
tp205
Rp206
sg95
g11
(g15
S'\x00\x00\x00\x00\x00@Z@'
p207
tp208
Rp209
sg30
g31
sg21
g11
(g24
S'\x05\x00\x00\x00\x00\x00\x00\x00'
p210
tp211
Rp212
sg32
(dp213
g95
g209
sg21
g212
sg38
g11
(g24
S'\x02\x00\x00\x00\x00\x00\x00\x00'
p214
tp215
Rp216
sg106
g11
(g15
S'F\xa9\x86V8\x83\xef?'
p217
tp218
Rp219
ssg46
g11
(g12
(S'S6'
p220
I0
I1
tp221
Rp222
(I3
S'|'
p223
NNNI6
I1
I0
tp224
bS'ISOMAP'
p225
tp226
Rp227
sg55
F0.2
sg38
g216
sg56
g11
(g12
(S'S9'
p228
I0
I1
tp229
Rp230
(I3
S'|'
p231
NNNI9
I1
I0
tp232
bS'inception'
p233
tp234
Rp235
sg65
g11
(g15
S'\xbdb\xb6U\xdct\xf1?'
p236
tp237
Rp238
sg69
g11
(g12
(S'S2'
p239
I0
I1
tp240
Rp241
(I3
S'|'
p242
NNNI2
I1
I0
tp243
bS'RF'
p244
tp245
Rp246
sg78
I3
sg106
g219
sg79
g80
sg81
g11
(g15
S'\xe1-\x08\xcc\xd9u\xe9?'
p247
tp248
Rp249
sg85
g86
sg87
g88
sbag4
(g5
g6
Ntp250
Rp251
(dp252
g10
g11
(g15
S'\x00\x00\x00\x00\x00\x00\xf8\xff'
p253
tp254
Rp255
sg95
g11
(g15
S'\x00\x00\x00\x00\x00`m@'
p256
tp257
Rp258
sg30
g31
sg21
g11
(g24
S'\x04\x00\x00\x00\x00\x00\x00\x00'
p259
tp260
Rp261
sg32
(dp262
g95
g258
sg21
g261
sg183
g11
(g24
S'\x02\x00\x00\x00\x00\x00\x00\x00'
p263
tp264
Rp265
sg38
g11
(g24
S'\x02\x00\x00\x00\x00\x00\x00\x00'
p266
tp267
Rp268
sg106
g11
(g15
S'\xcap;y\xed7\xe2?'
p269
tp270
Rp271
ssg46
g11
(g12
(S'S6'
p272
I0
I1
tp273
Rp274
(I3
S'|'
p275
NNNI6
I1
I0
tp276
bS'ISOMAP'
p277
tp278
Rp279
sg55
F0.2
sg38
g268
sg56
g11
(g12
(S'S8'
p280
I0
I1
tp281
Rp282
(I3
S'|'
p283
NNNI8
I1
I0
tp284
bS'haralick'
p285
tp286
Rp287
sg183
g265
sg65
g11
(g15
S'\xb7\x1c@\xa5\xb0\xd4\xd8?'
p288
tp289
Rp290
sg69
g11
(g12
(S'S2'
p291
I0
I1
tp292
Rp293
(I3
S'|'
p294
NNNI2
I1
I0
tp295
bS'RF'
p296
tp297
Rp298
sg78
I3
sg106
g271
sg79
g80
sg81
g11
(g15
S'+\xe5\x01\xc2\x86\xba\xec?'
p299
tp300
Rp301
sg85
g86
sg87
g88
sbag90
ag4
(g5
g6
Ntp302
Rp303
(dp304
g10
g11
(g15
S'\x00\x00\x00\x00\x00\x00\xf8\xff'
p305
tp306
Rp307
sg95
g11
(g15
S'\x00\x00\x00\x00\x00@a@'
p308
tp309
Rp310
sg30
g31
sg21
g11
(g24
S'\x05\x00\x00\x00\x00\x00\x00\x00'
p311
tp312
Rp313
sg32
(dp314
g95
g310
sg21
g313
sg38
g11
(g24
S'\x04\x00\x00\x00\x00\x00\x00\x00'
p315
tp316
Rp317
sg106
g11
(g15
S'\xc6W\xea\x10\xb4\xc9\xef?'
p318
tp319
Rp320
ssg46
g11
(g12
(S'S6'
p321
I0
I1
tp322
Rp323
(I3
S'|'
p324
NNNI6
I1
I0
tp325
bS'ISOMAP'
p326
tp327
Rp328
sg55
F0.2
sg38
g317
sg56
g11
(g12
(S'S3'
p329
I0
I1
tp330
Rp331
(I3
S'|'
p332
NNNI3
I1
I0
tp333
bS'VGG'
p334
tp335
Rp336
sg65
g11
(g15
S'Z\x00\xe7\xe6\x01\x11\xd0?'
p337
tp338
Rp339
sg69
g11
(g12
(S'S2'
p340
I0
I1
tp341
Rp342
(I3
S'|'
p343
NNNI2
I1
I0
tp344
bS'RF'
p345
tp346
Rp347
sg78
I3
sg106
g320
sg79
g80
sg81
g11
(g15
S'(\x9b\xfd\xef\x04\xd1\xed?'
p348
tp349
Rp350
sg85
g86
sg87
g88
sbag4
(g5
g6
Ntp351
Rp352
(dp353
g10
g11
(g15
S'\x00\x00\x00\x00\x00\x00\xf8\xff'
p354
tp355
Rp356
sg95
g11
(g15
S'\x00\x00\x00\x00\x00`i@'
p357
tp358
Rp359
sg164
g11
(g12
(S'b1'
p360
I0
I1
tp361
Rp362
(I3
S'|'
p363
NNNI-1
I-1
I0
tp364
bS'\x01'
p365
tp366
Rp367
sg30
g31
sg32
(dp368
g95
g359
sg106
g11
(g15
S'`\x98{\xa4\xb5\xab\xda?'
p369
tp370
Rp371
sg164
g367
ssg46
g11
(g12
(S'S3'
p372
I0
I1
tp373
Rp374
(I3
S'|'
p375
NNNI3
I1
I0
tp376
bS'PCA'
p377
tp378
Rp379
sg55
F0.2
sg56
g11
(g12
(S'S3'
p380
I0
I1
tp381
Rp382
(I3
S'|'
p383
NNNI3
I1
I0
tp384
bS'VGG'
p385
tp386
Rp387
sg65
g11
(g15
S'\xc8sN\xb8\x02\x1e\xcf?'
p388
tp389
Rp390
sg69
g11
(g12
(S'S2'
p391
I0
I1
tp392
Rp393
(I3
S'|'
p394
NNNI2
I1
I0
tp395
bS'RF'
p396
tp397
Rp398
sg78
I3
sg106
g371
sg79
g80
sg81
g11
(g15
S'8\xbe\x02\xad\x7f\x00\xee?'
p399
tp400
Rp401
sg85
g86
sg87
g88
sbag4
(g5
g6
Ntp402
Rp403
(dp404
g10
g11
(g15
S'\x00\x00\x00\x00\x00\x00\xf8\xff'
p405
tp406
Rp407
sg21
g11
(g24
S'\x06\x00\x00\x00\x00\x00\x00\x00'
p408
tp409
Rp410
sg30
g31
sg32
(dp411
g21
g410
sg34
g11
(g15
S'\xc0\x90\xf2\xad\xbe\x904@'
p412
tp413
Rp414
sg183
g11
(g24
S'\x01\x00\x00\x00\x00\x00\x00\x00'
p415
tp416
Rp417
sg38
g11
(g24
S'\x04\x00\x00\x00\x00\x00\x00\x00'
p418
tp419
Rp420
sg42
g11
(g15
S'\xf0\xec\xac\xc3i`\x15@'
p421
tp422
Rp423
ssg42
g423
sg46
g11
(g12
(S'S6'
p424
I0
I1
tp425
Rp426
(I3
S'|'
p427
NNNI6
I1
I0
tp428
bS'ISOMAP'
p429
tp430
Rp431
sg55
F0.2
sg38
g420
sg56
g11
(g12
(S'S8'
p432
I0
I1
tp433
Rp434
(I3
S'|'
p435
NNNI8
I1
I0
tp436
bS'haralick'
p437
tp438
Rp439
sg34
g414
sg183
g417
sg65
g11
(g15
S'\xcd\x8c-\x0fL\xa8\xce?'
p440
tp441
Rp442
sg69
g11
(g12
(S'S3'
p443
I0
I1
tp444
Rp445
(I3
S'|'
p446
NNNI3
I1
I0
tp447
bS'SVM'
p448
tp449
Rp450
sg78
I3
sg79
g80
sg81
g11
(g15
S'\xe8r\x00\x13\xcf\xe8\xec?'
p451
tp452
Rp453
sg85
g86
sg87
g88
sbag4
(g5
g6
Ntp454
Rp455
(dp456
g10
g11
(g15
S'\x00\x00\x00\x00\x00\x00\xf8\xff'
p457
tp458
Rp459
sg95
g11
(g15
S'\x00\x00\x00\x00\x00@Z@'
p460
tp461
Rp462
sg164
g11
(g362
S'\x00'
p463
tp464
Rp465
sg30
g31
sg32
(dp466
g95
g462
sg106
g11
(g15
S'\xbe\xb6\x14~\xa0\x8d\xed?'
p467
tp468
Rp469
sg164
g465
sg183
g11
(g24
S'\x01\x00\x00\x00\x00\x00\x00\x00'
p470
tp471
Rp472
ssg46
g11
(g12
(S'S3'
p473
I0
I1
tp474
Rp475
(I3
S'|'
p476
NNNI3
I1
I0
tp477
bS'PCA'
p478
tp479
Rp480
sg55
F0.2
sg56
g11
(g12
(S'S8'
p481
I0
I1
tp482
Rp483
(I3
S'|'
p484
NNNI8
I1
I0
tp485
bS'haralick'
p486
tp487
Rp488
sg183
g472
sg65
g11
(g15
S'\xd5u\xdb\xa1\x04\xb8\xe3?'
p489
tp490
Rp491
sg69
g11
(g12
(S'S2'
p492
I0
I1
tp493
Rp494
(I3
S'|'
p495
NNNI2
I1
I0
tp496
bS'RF'
p497
tp498
Rp499
sg78
I3
sg106
g469
sg79
g80
sg81
g11
(g15
S'\xfc-~\x16\xf1\x16\xec?'
p500
tp501
Rp502
sg85
g86
sg87
g88
sbag4
(g5
g6
Ntp503
Rp504
(dp505
g10
g11
(g15
S'\x00\x00\x00\x00\x00\x00\xf8\xff'
p506
tp507
Rp508
sg21
g11
(g24
S'\x03\x00\x00\x00\x00\x00\x00\x00'
p509
tp510
Rp511
sg30
g31
sg32
(dp512
g21
g511
sg34
g11
(g15
S'\xb6\x99\x89\xae\xc6\xca?@'
p513
tp514
Rp515
sg38
g11
(g24
S'\x03\x00\x00\x00\x00\x00\x00\x00'
p516
tp517
Rp518
sg42
g11
(g15
S'I\xc6\xbc\xa1\x1d\x03\x1a@'
p519
tp520
Rp521
ssg42
g521
sg46
g11
(g12
(S'S6'
p522
I0
I1
tp523
Rp524
(I3
S'|'
p525
NNNI6
I1
I0
tp526
bS'ISOMAP'
p527
tp528
Rp529
sg55
F0.2
sg38
g518
sg56
g11
(g12
(S'S3'
p530
I0
I1
tp531
Rp532
(I3
S'|'
p533
NNNI3
I1
I0
tp534
bS'VGG'
p535
tp536
Rp537
sg34
g515
sg65
g11
(g15
S'e\x82\x0e\x14\xb4\xc5\xce?'
p538
tp539
Rp540
sg69
g11
(g12
(S'S3'
p541
I0
I1
tp542
Rp543
(I3
S'|'
p544
NNNI3
I1
I0
tp545
bS'SVM'
p546
tp547
Rp548
sg78
I3
sg79
g80
sg81
g11
(g15
S'C\xd5|\xdd\x83\\\xed?'
p549
tp550
Rp551
sg85
g86
sg87
g88
sbag4
(g5
g6
Ntp552
Rp553
(dp554
g10
g11
(g15
S'\x00\x00\x00\x00\x00\x00\xf8\xff'
p555
tp556
Rp557
sg164
g465
sg30
g31
sg32
(dp558
g164
g465
sg34
g11
(g15
S'\xb9\x7f\x8e\xded\x03A@'
p559
tp560
Rp561
sg42
g11
(g15
S'\x04\xa1R\xaeQ\xfd\x1a@'
p562
tp563
Rp564
ssg46
g11
(g12
(S'S3'
p565
I0
I1
tp566
Rp567
(I3
S'|'
p568
NNNI3
I1
I0
tp569
bS'PCA'
p570
tp571
Rp572
sg55
F0.2
sg42
g564
sg56
g11
(g12
(S'S3'
p573
I0
I1
tp574
Rp575
(I3
S'|'
p576
NNNI3
I1
I0
tp577
bS'VGG'
p578
tp579
Rp580
sg34
g561
sg65
g11
(g15
S'\xef\x8c{-\x12\xa3\xd0?'
p581
tp582
Rp583
sg69
g11
(g12
(S'S3'
p584
I0
I1
tp585
Rp586
(I3
S'|'
p587
NNNI3
I1
I0
tp588
bS'SVM'
p589
tp590
Rp591
sg78
I3
sg79
g80
sg81
g11
(g15
S'\x0b,\x81\xea\xaa\xd1\xec?'
p592
tp593
Rp594
sg85
g86
sg87
g88
sbag4
(g5
g6
Ntp595
Rp596
(dp597
g10
g11
(g15
S'\x00\x00\x00\x00\x00\x00\xf8\xff'
p598
tp599
Rp600
sg21
g11
(g24
S'\x05\x00\x00\x00\x00\x00\x00\x00'
p601
tp602
Rp603
sg30
g31
sg32
(dp604
g21
g603
sg34
g11
(g15
S'\xdb\xf8r\t\xb4PW@'
p605
tp606
Rp607
sg183
g11
(g24
S'\x03\x00\x00\x00\x00\x00\x00\x00'
p608
tp609
Rp610
sg38
g11
(g24
S'\x03\x00\x00\x00\x00\x00\x00\x00'
p611
tp612
Rp613
sg42
g11
(g15
S',C\x91D\x1e(\x10@'
p614
tp615
Rp616
ssg42
g616
sg46
g11
(g12
(S'S6'
p617
I0
I1
tp618
Rp619
(I3
S'|'
p620
NNNI6
I1
I0
tp621
bS'ISOMAP'
p622
tp623
Rp624
sg55
F0.2
sg38
g613
sg56
g11
(g12
(S'S8'
p625
I0
I1
tp626
Rp627
(I3
S'|'
p628
NNNI8
I1
I0
tp629
bS'haralick'
p630
tp631
Rp632
sg34
g607
sg183
g610
sg65
g11
(g15
S'\xfbZi\xdf\xe9\xf8\xd1?'
p633
tp634
Rp635
sg69
g11
(g12
(S'S3'
p636
I0
I1
tp637
Rp638
(I3
S'|'
p639
NNNI3
I1
I0
tp640
bS'SVM'
p641
tp642
Rp643
sg78
I3
sg79
g80
sg81
g11
(g15
S'`~\x02\x86EF\xeb?'
p644
tp645
Rp646
sg85
g86
sg87
g88
sbag4
(g5
g6
Ntp647
Rp648
(dp649
g10
g11
(g15
S'\x00\x00\x00\x00\x00\x00\xf8\xff'
p650
tp651
Rp652
sg95
g11
(g15
S'\x00\x00\x00\x00\x00\xc0p@'
p653
tp654
Rp655
sg164
g465
sg30
g31
sg32
(dp656
g95
g655
sg106
g11
(g15
S'\xdd\xc5\xff\x1b\xddq\xe3?'
p657
tp658
Rp659
sg164
g465
sg183
g11
(g24
S'\x01\x00\x00\x00\x00\x00\x00\x00'
p660
tp661
Rp662
ssg46
g11
(g12
(S'S3'
p663
I0
I1
tp664
Rp665
(I3
S'|'
p666
NNNI3
I1
I0
tp667
bS'PCA'
p668
tp669
Rp670
sg55
F0.2
sg56
g11
(g12
(S'S8'
p671
I0
I1
tp672
Rp673
(I3
S'|'
p674
NNNI8
I1
I0
tp675
bS'haralick'
p676
tp677
Rp678
sg183
g662
sg65
g11
(g15
S'Q%\xb8\x18\x16\xda\xe3?'
p679
tp680
Rp681
sg69
g11
(g12
(S'S2'
p682
I0
I1
tp683
Rp684
(I3
S'|'
p685
NNNI2
I1
I0
tp686
bS'RF'
p687
tp688
Rp689
sg78
I3
sg106
g659
sg79
g80
sg81
g11
(g15
S'\xdbt\xfd>\x15.\xec?'
p690
tp691
Rp692
sg85
g86
sg87
g88
sbag4
(g5
g6
Ntp693
Rp694
(dp695
g10
g11
(g15
S'\x00\x00\x00\x00\x00\x00\xf8\xff'
p696
tp697
Rp698
sg164
g465
sg30
g31
sg32
(dp699
g164
g465
sg34
g11
(g15
S'\x17\xa2\x1a\xb7\x8a\x8dA@'
p700
tp701
Rp702
sg183
g11
(g24
S'\x01\x00\x00\x00\x00\x00\x00\x00'
p703
tp704
Rp705
sg42
g11
(g15
S'\x7f\xaf\xf7-\xd7s\x11@'
p706
tp707
Rp708
ssg46
g11
(g12
(S'S3'
p709
I0
I1
tp710
Rp711
(I3
S'|'
p712
NNNI3
I1
I0
tp713
bS'PCA'
p714
tp715
Rp716
sg55
F0.2
sg42
g708
sg56
g11
(g12
(S'S8'
p717
I0
I1
tp718
Rp719
(I3
S'|'
p720
NNNI8
I1
I0
tp721
bS'haralick'
p722
tp723
Rp724
sg34
g702
sg183
g705
sg65
g11
(g15
S'|\x96j\x87\xa4\xfc\xd0?'
p725
tp726
Rp727
sg69
g11
(g12
(S'S3'
p728
I0
I1
tp729
Rp730
(I3
S'|'
p731
NNNI3
I1
I0
tp732
bS'SVM'
p733
tp734
Rp735
sg78
I3
sg79
g80
sg81
g11
(g15
S'\\rw\xf9\xcer\xea?'
p736
tp737
Rp738
sg85
g86
sg87
g88
sbag4
(g5
g6
Ntp739
Rp740
(dp741
g10
g11
(g15
S'\x00\x00\x00\x00\x00\x00\xf8\xff'
p742
tp743
Rp744
sg164
g367
sg30
g31
sg32
(dp745
g164
g367
sg34
g11
(g15
S'\xe4\xc3>=L\xccP@'
p746
tp747
Rp748
sg42
g11
(g15
S' \x91\x99x\xda5\x0e@'
p749
tp750
Rp751
ssg46
g11
(g12
(S'S3'
p752
I0
I1
tp753
Rp754
(I3
S'|'
p755
NNNI3
I1
I0
tp756
bS'PCA'
p757
tp758
Rp759
sg55
F0.2
sg42
g751
sg56
g11
(g12
(S'S9'
p760
I0
I1
tp761
Rp762
(I3
S'|'
p763
NNNI9
I1
I0
tp764
bS'inception'
p765
tp766
Rp767
sg34
g748
sg65
g11
(g15
S'M\x87[\xbd\xbf\xdc\xd4?'
p768
tp769
Rp770
sg69
g11
(g12
(S'S3'
p771
I0
I1
tp772
Rp773
(I3
S'|'
p774
NNNI3
I1
I0
tp775
bS'SVM'
p776
tp777
Rp778
sg78
I3
sg79
g80
sg81
g11
(g15
S'\r\xfe\x02\xd4\xb9\xba\xe8?'
p779
tp780
Rp781
sg85
g86
sg87
g88
sbag4
(g5
g6
Ntp782
Rp783
(dp784
g10
g11
(g15
S'\x00\x00\x00\x00\x00\x00\xf8\xff'
p785
tp786
Rp787
sg95
g11
(g15
S'\x00\x00\x00\x00\x00@a@'
p788
tp789
Rp790
sg164
g367
sg30
g31
sg32
(dp791
g95
g790
sg106
g11
(g15
S"B'C\x13\x076\xd6?"
p792
tp793
Rp794
sg164
g367
ssg46
g11
(g12
(S'S3'
p795
I0
I1
tp796
Rp797
(I3
S'|'
p798
NNNI3
I1
I0
tp799
bS'PCA'
p800
tp801
Rp802
sg55
F0.2
sg56
g11
(g12
(S'S3'
p803
I0
I1
tp804
Rp805
(I3
S'|'
p806
NNNI3
I1
I0
tp807
bS'VGG'
p808
tp809
Rp810
sg65
g11
(g15
S'\xad\x03\xa1\x99\x94\x89\xcf?'
p811
tp812
Rp813
sg69
g11
(g12
(S'S2'
p814
I0
I1
tp815
Rp816
(I3
S'|'
p817
NNNI2
I1
I0
tp818
bS'RF'
p819
tp820
Rp821
sg78
I3
sg106
g794
sg79
g80
sg81
g11
(g15
S'\x0f\x86\x80\xebF\xba\xed?'
p822
tp823
Rp824
sg85
g86
sg87
g88
sbag4
(g5
g6
Ntp825
Rp826
(dp827
g10
g11
(g15
S'\x00\x00\x00\x00\x00\x00\xf8\xff'
p828
tp829
Rp830
sg95
g11
(g15
S'\x00\x00\x00\x00\x00@e@'
p831
tp832
Rp833
sg30
g31
sg21
g11
(g24
S'\x05\x00\x00\x00\x00\x00\x00\x00'
p834
tp835
Rp836
sg32
(dp837
g95
g833
sg21
g836
sg183
g11
(g24
S'\x02\x00\x00\x00\x00\x00\x00\x00'
p838
tp839
Rp840
sg38
g11
(g24
S'\x03\x00\x00\x00\x00\x00\x00\x00'
p841
tp842
Rp843
sg106
g11
(g15
S'f\n}\xb1A\xd3\xe8?'
p844
tp845
Rp846
ssg46
g11
(g12
(S'S6'
p847
I0
I1
tp848
Rp849
(I3
S'|'
p850
NNNI6
I1
I0
tp851
bS'ISOMAP'
p852
tp853
Rp854
sg55
F0.2
sg38
g843
sg56
g11
(g12
(S'S8'
p855
I0
I1
tp856
Rp857
(I3
S'|'
p858
NNNI8
I1
I0
tp859
bS'haralick'
p860
tp861
Rp862
sg183
g840
sg65
g11
(g15
S'\x0f\x0f9}\x0c\xed\xdd?'
p863
tp864
Rp865
sg69
g11
(g12
(S'S2'
p866
I0
I1
tp867
Rp868
(I3
S'|'
p869
NNNI2
I1
I0
tp870
bS'RF'
p871
tp872
Rp873
sg78
I3
sg106
g846
sg79
g80
sg81
g11
(g15
S'l2\x01\x88}\x17\xed?'
p874
tp875
Rp876
sg85
g86
sg87
g88
sbag4
(g5
g6
Ntp877
Rp878
(dp879
g10
g11
(g15
S'\x00\x00\x00\x00\x00\x00\xf8\xff'
p880
tp881
Rp882
sg95
g11
(g15
S'\x00\x00\x00\x00\x00@R@'
p883
tp884
Rp885
sg164
g465
sg30
g31
sg32
(dp886
g95
g885
sg106
g11
(g15
S'P\xc1\xa6\x8bQ_\xec?'
p887
tp888
Rp889
sg164
g465
sg183
g11
(g24
S'\x02\x00\x00\x00\x00\x00\x00\x00'
p890
tp891
Rp892
ssg46
g11
(g12
(S'S3'
p893
I0
I1
tp894
Rp895
(I3
S'|'
p896
NNNI3
I1
I0
tp897
bS'PCA'
p898
tp899
Rp900
sg55
F0.2
sg56
g11
(g12
(S'S8'
p901
I0
I1
tp902
Rp903
(I3
S'|'
p904
NNNI8
I1
I0
tp905
bS'haralick'
p906
tp907
Rp908
sg183
g892
sg65
g11
(g15
S'ST1D\xe8\xd6\xe1?'
p909
tp910
Rp911
sg69
g11
(g12
(S'S2'
p912
I0
I1
tp913
Rp914
(I3
S'|'
p915
NNNI2
I1
I0
tp916
bS'RF'
p917
tp918
Rp919
sg78
I3
sg106
g889
sg79
g80
sg81
g11
(g15
S'\xad\x7f\x00Ntt\xed?'
p920
tp921
Rp922
sg85
g86
sg87
g88
sbag4
(g5
g6
Ntp923
Rp924
(dp925
g10
g11
(g15
S'\x00\x00\x00\x00\x00\x00\xf8\xff'
p926
tp927
Rp928
sg95
g11
(g15
S'\x00\x00\x00\x00\x00@R@'
p929
tp930
Rp931
sg30
g31
sg21
g11
(g24
S'\x05\x00\x00\x00\x00\x00\x00\x00'
p932
tp933
Rp934
sg32
(dp935
g95
g931
sg21
g934
sg38
g11
(g24
S'\x04\x00\x00\x00\x00\x00\x00\x00'
p936
tp937
Rp938
sg106
g11
(g15
S'p\x9f\xdc\x02q\x14\xe4?'
p939
tp940
Rp941
ssg46
g11
(g12
(S'S6'
p942
I0
I1
tp943
Rp944
(I3
S'|'
p945
NNNI6
I1
I0
tp946
bS'ISOMAP'
p947
tp948
Rp949
sg55
F0.2
sg38
g938
sg56
g11
(g12
(S'S9'
p950
I0
I1
tp951
Rp952
(I3
S'|'
p953
NNNI9
I1
I0
tp954
bS'inception'
p955
tp956
Rp957
sg65
g11
(g15
S'\x93\xfcm\xb2\xe8J\xef?'
p958
tp959
Rp960
sg69
g11
(g12
(S'S2'
p961
I0
I1
tp962
Rp963
(I3
S'|'
p964
NNNI2
I1
I0
tp965
bS'RF'
p966
tp967
Rp968
sg78
I3
sg106
g941
sg79
g80
sg81
g11
(g15
S'\xc9\x18\x8b\xc7\x1b_\xe9?'
p969
tp970
Rp971
sg85
g86
sg87
g88
sbag4
(g5
g6
Ntp972
Rp973
(dp974
g10
g11
(g15
S'\x00\x00\x00\x00\x00\x00\xf8\xff'
p975
tp976
Rp977
sg95
g11
(g15
S'\x00\x00\x00\x00\x00\x00D@'
p978
tp979
Rp980
sg164
g465
sg30
g31
sg32
(dp981
g95
g980
sg106
g11
(g15
S'\xe6\x92\x16\xe0;\x8e\xea?'
p982
tp983
Rp984
sg164
g465
ssg46
g11
(g12
(S'S3'
p985
I0
I1
tp986
Rp987
(I3
S'|'
p988
NNNI3
I1
I0
tp989
bS'PCA'
p990
tp991
Rp992
sg55
F0.2
sg56
g11
(g12
(S'S3'
p993
I0
I1
tp994
Rp995
(I3
S'|'
p996
NNNI3
I1
I0
tp997
bS'VGG'
p998
tp999
Rp1000
sg65
g11
(g15
S'\r\xd9\x83Vr\x05\xdc?'
p1001
tp1002
Rp1003
sg69
g11
(g12
(S'S2'
p1004
I0
I1
tp1005
Rp1006
(I3
S'|'
p1007
NNNI2
I1
I0
tp1008
bS'RF'
p1009
tp1010
Rp1011
sg78
I3
sg106
g984
sg79
g80
sg81
g11
(g15
S'Q\xf8\x81\x9a\xfe\x8b\xed?'
p1012
tp1013
Rp1014
sg85
g86
sg87
g88
sbag4
(g5
g6
Ntp1015
Rp1016
(dp1017
g10
g11
(g15
S'\x00\x00\x00\x00\x00\x00\xf8\xff'
p1018
tp1019
Rp1020
sg164
g465
sg30
g31
sg32
(dp1021
g164
g465
sg34
g11
(g15
S'e\xf8\xff\xc4\xbf\x86G@'
p1022
tp1023
Rp1024
sg183
g11
(g24
S'\x02\x00\x00\x00\x00\x00\x00\x00'
p1025
tp1026
Rp1027
sg42
g11
(g15
S'}\xfe\x86\xe3i+\x19@'
p1028
tp1029
Rp1030
ssg46
g11
(g12
(S'S3'
p1031
I0
I1
tp1032
Rp1033
(I3
S'|'
p1034
NNNI3
I1
I0
tp1035
bS'PCA'
p1036
tp1037
Rp1038
sg55
F0.2
sg42
g1030
sg56
g11
(g12
(S'S8'
p1039
I0
I1
tp1040
Rp1041
(I3
S'|'
p1042
NNNI8
I1
I0
tp1043
bS'haralick'
p1044
tp1045
Rp1046
sg34
g1024
sg183
g1027
sg65
g11
(g15
S'\x8b\x91\xb7q\xd0\x8e\xd1?'
p1047
tp1048
Rp1049
sg69
g11
(g12
(S'S3'
p1050
I0
I1
tp1051
Rp1052
(I3
S'|'
p1053
NNNI3
I1
I0
tp1054
bS'SVM'
p1055
tp1056
Rp1057
sg78
I3
sg79
g80
sg81
g11
(g15
S'\xeb\x97\x02\xfc\x8f]\xec?'
p1058
tp1059
Rp1060
sg85
g86
sg87
g88
sbag4
(g5
g6
Ntp1061
Rp1062
(dp1063
g10
g11
(g15
S'\x00\x00\x00\x00\x00\x00\xf8\xff'
p1064
tp1065
Rp1066
sg164
g367
sg30
g31
sg32
(dp1067
g164
g367
sg34
g11
(g15
S'\xd7\x9d\xe4\x13\xc5&I@'
p1068
tp1069
Rp1070
sg183
g11
(g24
S'\x02\x00\x00\x00\x00\x00\x00\x00'
p1071
tp1072
Rp1073
sg42
g11
(g15
S'\xed*\xc78}%\x1a@'
p1074
tp1075
Rp1076
ssg46
g11
(g12
(S'S3'
p1077
I0
I1
tp1078
Rp1079
(I3
S'|'
p1080
NNNI3
I1
I0
tp1081
bS'PCA'
p1082
tp1083
Rp1084
sg55
F0.2
sg42
g1076
sg56
g11
(g12
(S'S8'
p1085
I0
I1
tp1086
Rp1087
(I3
S'|'
p1088
NNNI8
I1
I0
tp1089
bS'haralick'
p1090
tp1091
Rp1092
sg34
g1070
sg183
g1073
sg65
g11
(g15
S'l:\xe6\xac\x85\xb3\xd1?'
p1093
tp1094
Rp1095
sg69
g11
(g12
(S'S3'
p1096
I0
I1
tp1097
Rp1098
(I3
S'|'
p1099
NNNI3
I1
I0
tp1100
bS'SVM'
p1101
tp1102
Rp1103
sg78
I3
sg79
g80
sg81
g11
(g15
S'\xeb\x97\x02\xfc\x8f]\xec?'
p1104
tp1105
Rp1106
sg85
g86
sg87
g88
sbag4
(g5
g6
Ntp1107
Rp1108
(dp1109
g10
g11
(g15
S'\x00\x00\x00\x00\x00\x00\xf8\xff'
p1110
tp1111
Rp1112
sg164
g367
sg30
g31
sg32
(dp1113
g164
g367
sg34
g11
(g15
S'GP+\x17\xa1I\x18@'
p1114
tp1115
Rp1116
sg183
g11
(g24
S'\x03\x00\x00\x00\x00\x00\x00\x00'
p1117
tp1118
Rp1119
sg42
g11
(g15
S'{\xd8s\xe6o\xe6\x16@'
p1120
tp1121
Rp1122
ssg46
g11
(g12
(S'S3'
p1123
I0
I1
tp1124
Rp1125
(I3
S'|'
p1126
NNNI3
I1
I0
tp1127
bS'PCA'
p1128
tp1129
Rp1130
sg55
F0.2
sg42
g1122
sg56
g11
(g12
(S'S8'
p1131
I0
I1
tp1132
Rp1133
(I3
S'|'
p1134
NNNI8
I1
I0
tp1135
bS'haralick'
p1136
tp1137
Rp1138
sg34
g1116
sg183
g1119
sg65
g11
(g15
S'\x16\xdc\x96\xbc(\xe8\xd0?'
p1139
tp1140
Rp1141
sg69
g11
(g12
(S'S3'
p1142
I0
I1
tp1143
Rp1144
(I3
S'|'
p1145
NNNI3
I1
I0
tp1146
bS'SVM'
p1147
tp1148
Rp1149
sg78
I3
sg79
g80
sg81
g11
(g15
S'\x84\\\x85F\xe2\xa3\xea?'
p1150
tp1151
Rp1152
sg85
g86
sg87
g88
sbag4
(g5
g6
Ntp1153
Rp1154
(dp1155
g10
g11
(g15
S'\x00\x00\x00\x00\x00\x00\xf8\xff'
p1156
tp1157
Rp1158
sg95
g11
(g15
S'\x00\x00\x00\x00\x00`m@'
p1159
tp1160
Rp1161
sg30
g31
sg21
g11
(g24
S'\x05\x00\x00\x00\x00\x00\x00\x00'
p1162
tp1163
Rp1164
sg32
(dp1165
g95
g1161
sg21
g1164
sg38
g11
(g24
S'\x02\x00\x00\x00\x00\x00\x00\x00'
p1166
tp1167
Rp1168
sg106
g11
(g15
S'\x1a\xa7\xff\xa2\xde\x04\xe2?'
p1169
tp1170
Rp1171
ssg46
g11
(g12
(S'S6'
p1172
I0
I1
tp1173
Rp1174
(I3
S'|'
p1175
NNNI6
I1
I0
tp1176
bS'ISOMAP'
p1177
tp1178
Rp1179
sg55
F0.2
sg38
g1168
sg56
g11
(g12
(S'S9'
p1180
I0
I1
tp1181
Rp1182
(I3
S'|'
p1183
NNNI9
I1
I0
tp1184
bS'inception'
p1185
tp1186
Rp1187
sg65
g11
(g15
S'\x05\xc0w\xc1\xf4\xbf\xef?'
p1188
tp1189
Rp1190
sg69
g11
(g12
(S'S2'
p1191
I0
I1
tp1192
Rp1193
(I3
S'|'
p1194
NNNI2
I1
I0
tp1195
bS'RF'
p1196
tp1197
Rp1198
sg78
I3
sg106
g1171
sg79
g80
sg81
g11
(g15
S'\x7f\x02\x86EF\xbb\xe9?'
p1199
tp1200
Rp1201
sg85
g86
sg87
g88
sbag4
(g5
g6
Ntp1202
Rp1203
(dp1204
g10
g11
(g15
S'\x00\x00\x00\x00\x00\x00\xf8\xff'
p1205
tp1206
Rp1207
sg95
g11
(g15
S'\x00\x00\x00\x00\x00\x00 @'
p1208
tp1209
Rp1210
sg30
g31
sg21
g11
(g24
S'\x07\x00\x00\x00\x00\x00\x00\x00'
p1211
tp1212
Rp1213
sg32
(dp1214
g95
g1210
sg21
g1213
sg38
g11
(g24
S'\x04\x00\x00\x00\x00\x00\x00\x00'
p1215
tp1216
Rp1217
sg106
g11
(g15
S'\xce\x99\xa7\x1f\x1c\x85\xd4?'
p1218
tp1219
Rp1220
ssg46
g11
(g12
(S'S6'
p1221
I0
I1
tp1222
Rp1223
(I3
S'|'
p1224
NNNI6
I1
I0
tp1225
bS'ISOMAP'
p1226
tp1227
Rp1228
sg55
F0.2
sg38
g1217
sg56
g11
(g12
(S'S9'
p1229
I0
I1
tp1230
Rp1231
(I3
S'|'
p1232
NNNI9
I1
I0
tp1233
bS'inception'
p1234
tp1235
Rp1236
sg65
g11
(g15
S';a\xd9\x0c<l\xf7?'
p1237
tp1238
Rp1239
sg69
g11
(g12
(S'S2'
p1240
I0
I1
tp1241
Rp1242
(I3
S'|'
p1243
NNNI2
I1
I0
tp1244
bS'RF'
p1245
tp1246
Rp1247
sg78
I3
sg106
g1220
sg79
g80
sg81
g11
(g15
S'\x1c\xfc\x05\xa8su\xe9?'
p1248
tp1249
Rp1250
sg85
g86
sg87
g88
sbag4
(g5
g6
Ntp1251
Rp1252
(dp1253
g10
g11
(g15
S'\x00\x00\x00\x00\x00\x00\xf8\xff'
p1254
tp1255
Rp1256
sg164
g367
sg30
g31
sg32
(dp1257
g164
g367
sg34
g11
(g15
S'DX\x9d\xb0R\x9cL@'
p1258
tp1259
Rp1260
sg183
g11
(g24
S'\x02\x00\x00\x00\x00\x00\x00\x00'
p1261
tp1262
Rp1263
sg42
g11
(g15
S'\xd0\xf6\x964\x95M\t@'
p1264
tp1265
Rp1266
ssg46
g11
(g12
(S'S3'
p1267
I0
I1
tp1268
Rp1269
(I3
S'|'
p1270
NNNI3
I1
I0
tp1271
bS'PCA'
p1272
tp1273
Rp1274
sg55
F0.2
sg42
g1266
sg56
g11
(g12
(S'S8'
p1275
I0
I1
tp1276
Rp1277
(I3
S'|'
p1278
NNNI8
I1
I0
tp1279
bS'haralick'
p1280
tp1281
Rp1282
sg34
g1260
sg183
g1263
sg65
g11
(g15
S'\xdb\x9e\x9b\x05I\xb6\xd0?'
p1283
tp1284
Rp1285
sg69
g11
(g12
(S'S3'
p1286
I0
I1
tp1287
Rp1288
(I3
S'|'
p1289
NNNI3
I1
I0
tp1290
bS'SVM'
p1291
tp1292
Rp1293
sg78
I3
sg79
g80
sg81
g11
(g15
S'o|\x05Z\xff\x00\xec?'
p1294
tp1295
Rp1296
sg85
g86
sg87
g88
sbag4
(g5
g6
Ntp1297
Rp1298
(dp1299
g10
g11
(g15
S'\x00\x00\x00\x00\x00\x00\xf8\xff'
p1300
tp1301
Rp1302
sg21
g11
(g24
S'\x05\x00\x00\x00\x00\x00\x00\x00'
p1303
tp1304
Rp1305
sg30
g31
sg32
(dp1306
g21
g1305
sg34
g11
(g15
S'JTucy\x11>@'
p1307
tp1308
Rp1309
sg183
g11
(g24
S'\x01\x00\x00\x00\x00\x00\x00\x00'
p1310
tp1311
Rp1312
sg38
g11
(g24
S'\x03\x00\x00\x00\x00\x00\x00\x00'
p1313
tp1314
Rp1315
sg42
g11
(g15
S'_\x82\xa5\x19/\xf8\x1e@'
p1316
tp1317
Rp1318
ssg42
g1318
sg46
g11
(g12
(S'S6'
p1319
I0
I1
tp1320
Rp1321
(I3
S'|'
p1322
NNNI6
I1
I0
tp1323
bS'ISOMAP'
p1324
tp1325
Rp1326
sg55
F0.2
sg38
g1315
sg56
g11
(g12
(S'S8'
p1327
I0
I1
tp1328
Rp1329
(I3
S'|'
p1330
NNNI8
I1
I0
tp1331
bS'haralick'
p1332
tp1333
Rp1334
sg34
g1309
sg183
g1312
sg65
g11
(g15
S'\xc8\xea\xd8\x8f\x1c\xab\xd0?'
p1335
tp1336
Rp1337
sg69
g11
(g12
(S'S3'
p1338
I0
I1
tp1339
Rp1340
(I3
S'|'
p1341
NNNI3
I1
I0
tp1342
bS'SVM'
p1343
tp1344
Rp1345
sg78
I3
sg79
g80
sg81
g11
(g15
S'\xe3\xf3\xfe(r\x8b\xec?'
p1346
tp1347
Rp1348
sg85
g86
sg87
g88
sbag4
(g5
g6
Ntp1349
Rp1350
(dp1351
g10
g11
(g15
S'\x00\x00\x00\x00\x00\x00\xf8\xff'
p1352
tp1353
Rp1354
sg21
g11
(g24
S'\x03\x00\x00\x00\x00\x00\x00\x00'
p1355
tp1356
Rp1357
sg30
g31
sg32
(dp1358
g21
g1357
sg34
g11
(g15
S'[\t%\xd0\x83]&@'
p1359
tp1360
Rp1361
sg38
g11
(g24
S'\x02\x00\x00\x00\x00\x00\x00\x00'
p1362
tp1363
Rp1364
sg42
g11
(g15
S'\xae\x92\xc7\xc7\x01\xb0\xde?'
p1365
tp1366
Rp1367
ssg42
g1367
sg46
g11
(g12
(S'S6'
p1368
I0
I1
tp1369
Rp1370
(I3
S'|'
p1371
NNNI6
I1
I0
tp1372
bS'ISOMAP'
p1373
tp1374
Rp1375
sg55
F0.2
sg38
g1364
sg56
g11
(g12
(S'S9'
p1376
I0
I1
tp1377
Rp1378
(I3
S'|'
p1379
NNNI9
I1
I0
tp1380
bS'inception'
p1381
tp1382
Rp1383
sg34
g1361
sg65
g11
(g15
S'\xdc\x1flI\x06\x12\xd3?'
p1384
tp1385
Rp1386
sg69
g11
(g12
(S'S3'
p1387
I0
I1
tp1388
Rp1389
(I3
S'|'
p1390
NNNI3
I1
I0
tp1391
bS'SVM'
p1392
tp1393
Rp1394
sg78
I3
sg79
g80
sg81
g11
(g15
S'v#\xdd\xe6\xd7\xb3\xe2?'
p1395
tp1396
Rp1397
sg85
g86
sg87
g88
sbag4
(g5
g6
Ntp1398
Rp1399
(dp1400
g10
g11
(g15
S'\x00\x00\x00\x00\x00\x00\xf8\xff'
p1401
tp1402
Rp1403
sg21
g11
(g24
S'\x04\x00\x00\x00\x00\x00\x00\x00'
p1404
tp1405
Rp1406
sg30
g31
sg32
(dp1407
g21
g1406
sg34
g11
(g15
S'\x8e|\xc8\xb7\x84#J@'
p1408
tp1409
Rp1410
sg38
g11
(g24
S'\x04\x00\x00\x00\x00\x00\x00\x00'
p1411
tp1412
Rp1413
sg42
g11
(g15
S'\xe5\x0c\xdb\xf6i:\x19@'
p1414
tp1415
Rp1416
ssg42
g1416
sg46
g11
(g12
(S'S6'
p1417
I0
I1
tp1418
Rp1419
(I3
S'|'
p1420
NNNI6
I1
I0
tp1421
bS'ISOMAP'
p1422
tp1423
Rp1424
sg55
F0.2
sg38
g1413
sg56
g11
(g12
(S'S9'
p1425
I0
I1
tp1426
Rp1427
(I3
S'|'
p1428
NNNI9
I1
I0
tp1429
bS'inception'
p1430
tp1431
Rp1432
sg34
g1410
sg65
g11
(g15
S'O\xe0\x13\x87hS\xd4?'
p1433
tp1434
Rp1435
sg69
g11
(g12
(S'S3'
p1436
I0
I1
tp1437
Rp1438
(I3
S'|'
p1439
NNNI3
I1
I0
tp1440
bS'SVM'
p1441
tp1442
Rp1443
sg78
I3
sg79
g80
sg81
g11
(g15
S'\xff\xd9a.V@\xe6?'
p1444
tp1445
Rp1446
sg85
g86
sg87
g88
sbag4
(g5
g6
Ntp1447
Rp1448
(dp1449
g10
g11
(g15
S'\x00\x00\x00\x00\x00\x00\xf8\xff'
p1450
tp1451
Rp1452
sg21
g11
(g24
S'\x06\x00\x00\x00\x00\x00\x00\x00'
p1453
tp1454
Rp1455
sg30
g31
sg32
(dp1456
g21
g1455
sg34
g11
(g15
S'\xfeFr\x05\x0f\xe42@'
p1457
tp1458
Rp1459
sg183
g11
(g24
S'\x03\x00\x00\x00\x00\x00\x00\x00'
p1460
tp1461
Rp1462
sg38
g11
(g24
S'\x03\x00\x00\x00\x00\x00\x00\x00'
p1463
tp1464
Rp1465
sg42
g11
(g15
S'3\xae\xac\x05\xe9u\x14@'
p1466
tp1467
Rp1468
ssg42
g1468
sg46
g11
(g12
(S'S6'
p1469
I0
I1
tp1470
Rp1471
(I3
S'|'
p1472
NNNI6
I1
I0
tp1473
bS'ISOMAP'
p1474
tp1475
Rp1476
sg55
F0.2
sg38
g1465
sg56
g11
(g12
(S'S8'
p1477
I0
I1
tp1478
Rp1479
(I3
S'|'
p1480
NNNI8
I1
I0
tp1481
bS'haralick'
p1482
tp1483
Rp1484
sg34
g1459
sg183
g1462
sg65
g11
(g15
S'\xafI\xe5z>\xcb\xd3?'
p1485
tp1486
Rp1487
sg69
g11
(g12
(S'S3'
p1488
I0
I1
tp1489
Rp1490
(I3
S'|'
p1491
NNNI3
I1
I0
tp1492
bS'SVM'
p1493
tp1494
Rp1495
sg78
I3
sg79
g80
sg81
g11
(g15
S'\x0f\x9b\x87\xa5\xed/\xeb?'
p1496
tp1497
Rp1498
sg85
g86
sg87
g88
sbag4
(g5
g6
Ntp1499
Rp1500
(dp1501
g10
g11
(g15
S'\x00\x00\x00\x00\x00\x00\xf8\xff'
p1502
tp1503
Rp1504
sg95
g11
(g15
S'\x00\x00\x00\x00\x00\xc0p@'
p1505
tp1506
Rp1507
sg30
g31
sg21
g11
(g24
S'\x04\x00\x00\x00\x00\x00\x00\x00'
p1508
tp1509
Rp1510
sg32
(dp1511
g95
g1507
sg21
g1510
sg38
g11
(g24
S'\x04\x00\x00\x00\x00\x00\x00\x00'
p1512
tp1513
Rp1514
sg106
g11
(g15
S'x\x8c>\xd4\x91\xdc\xda?'
p1515
tp1516
Rp1517
ssg46
g11
(g12
(S'S6'
p1518
I0
I1
tp1519
Rp1520
(I3
S'|'
p1521
NNNI6
I1
I0
tp1522
bS'ISOMAP'
p1523
tp1524
Rp1525
sg55
F0.2
sg38
g1514
sg56
g11
(g12
(S'S9'
p1526
I0
I1
tp1527
Rp1528
(I3
S'|'
p1529
NNNI9
I1
I0
tp1530
bS'inception'
p1531
tp1532
Rp1533
sg65
g11
(g15
S'Q}=\xdc\xc2L\xea?'
p1534
tp1535
Rp1536
sg69
g11
(g12
(S'S2'
p1537
I0
I1
tp1538
Rp1539
(I3
S'|'
p1540
NNNI2
I1
I0
tp1541
bS'RF'
p1542
tp1543
Rp1544
sg78
I3
sg106
g1517
sg79
g80
sg81
g11
(g15
S'U\xca\x03\x84\ru\xe9?'
p1545
tp1546
Rp1547
sg85
g86
sg87
g88
sbag4
(g5
g6
Ntp1548
Rp1549
(dp1550
g10
g11
(g15
S'\x00\x00\x00\x00\x00\x00\xf8\xff'
p1551
tp1552
Rp1553
sg95
g11
(g15
S'\x00\x00\x00\x00\x00\x00 @'
p1554
tp1555
Rp1556
sg30
g31
sg21
g11
(g24
S'\x04\x00\x00\x00\x00\x00\x00\x00'
p1557
tp1558
Rp1559
sg32
(dp1560
g95
g1556
sg21
g1559
sg38
g11
(g24
S'\x03\x00\x00\x00\x00\x00\x00\x00'
p1561
tp1562
Rp1563
sg106
g11
(g15
S'\xa3\xf6\xb5=sj\xd4?'
p1564
tp1565
Rp1566
ssg46
g11
(g12
(S'S6'
p1567
I0
I1
tp1568
Rp1569
(I3
S'|'
p1570
NNNI6
I1
I0
tp1571
bS'ISOMAP'
p1572
tp1573
Rp1574
sg55
F0.2
sg38
g1563
sg56
g11
(g12
(S'S9'
p1575
I0
I1
tp1576
Rp1577
(I3
S'|'
p1578
NNNI9
I1
I0
tp1579
bS'inception'
p1580
tp1581
Rp1582
sg65
g11
(g15
S'\xd7\xcaC\xce\x8c\xd9\xf5?'
p1583
tp1584
Rp1585
sg69
g11
(g12
(S'S2'
p1586
I0
I1
tp1587
Rp1588
(I3
S'|'
p1589
NNNI2
I1
I0
tp1590
bS'RF'
p1591
tp1592
Rp1593
sg78
I3
sg106
g1566
sg79
g80
sg81
g11
(g15
S'-m\x7f\xd9\x13\xba\xe9?'
p1594
tp1595
Rp1596
sg85
g86
sg87
g88
sbag4
(g5
g6
Ntp1597
Rp1598
(dp1599
g10
g11
(g15
S'\x00\x00\x00\x00\x00\x00\xf8\xff'
p1600
tp1601
Rp1602
sg164
g465
sg30
g31
sg32
(dp1603
g164
g465
sg34
g11
(g15
S'1\xbb\x98\x90\x83_9@'
p1604
tp1605
Rp1606
sg42
g11
(g15
S'\xc2m\xda\xbdZ\xec\x12@'
p1607
tp1608
Rp1609
ssg46
g11
(g12
(S'S3'
p1610
I0
I1
tp1611
Rp1612
(I3
S'|'
p1613
NNNI3
I1
I0
tp1614
bS'PCA'
p1615
tp1616
Rp1617
sg55
F0.2
sg42
g1609
sg56
g11
(g12
(S'S9'
p1618
I0
I1
tp1619
Rp1620
(I3
S'|'
p1621
NNNI9
I1
I0
tp1622
bS'inception'
p1623
tp1624
Rp1625
sg34
g1606
sg65
g11
(g15
S'\x0c\xd1]\x0b\xb2p\xd4?'
p1626
tp1627
Rp1628
sg69
g11
(g12
(S'S3'
p1629
I0
I1
tp1630
Rp1631
(I3
S'|'
p1632
NNNI3
I1
I0
tp1633
bS'SVM'
p1634
tp1635
Rp1636
sg78
I3
sg79
g80
sg81
g11
(g15
S'\xc3\xe7\xfdQ\xe4\x16\xe9?'
p1637
tp1638
Rp1639
sg85
g86
sg87
g88
sbag4
(g5
g6
Ntp1640
Rp1641
(dp1642
g10
g11
(g15
S'\x00\x00\x00\x00\x00\x00\xf8\xff'
p1643
tp1644
Rp1645
sg95
g11
(g15
S'\x00\x00\x00\x00\x00@e@'
p1646
tp1647
Rp1648
sg30
g31
sg21
g11
(g24
S'\x06\x00\x00\x00\x00\x00\x00\x00'
p1649
tp1650
Rp1651
sg32
(dp1652
g95
g1648
sg21
g1651
sg183
g11
(g24
S'\x01\x00\x00\x00\x00\x00\x00\x00'
p1653
tp1654
Rp1655
sg38
g11
(g24
S'\x04\x00\x00\x00\x00\x00\x00\x00'
p1656
tp1657
Rp1658
sg106
g11
(g15
S'\xce`\xc7f\x1d\xa4\xee?'
p1659
tp1660
Rp1661
ssg46
g11
(g12
(S'S6'
p1662
I0
I1
tp1663
Rp1664
(I3
S'|'
p1665
NNNI6
I1
I0
tp1666
bS'ISOMAP'
p1667
tp1668
Rp1669
sg55
F0.2
sg38
g1658
sg56
g11
(g12
(S'S8'
p1670
I0
I1
tp1671
Rp1672
(I3
S'|'
p1673
NNNI8
I1
I0
tp1674
bS'haralick'
p1675
tp1676
Rp1677
sg183
g1655
sg65
g11
(g15
S'\x1dU\xa6\xc1\xb3\x7f\xd1?'
p1678
tp1679
Rp1680
sg69
g11
(g12
(S'S2'
p1681
I0
I1
tp1682
Rp1683
(I3
S'|'
p1684
NNNI2
I1
I0
tp1685
bS'RF'
p1686
tp1687
Rp1688
sg78
I3
sg106
g1661
sg79
g80
sg81
g11
(g15
S'\xa5\x00\xffc\x17\x17\xed?'
p1689
tp1690
Rp1691
sg85
g86
sg87
g88
sbag4
(g5
g6
Ntp1692
Rp1693
(dp1694
g10
g11
(g15
S'\x00\x00\x00\x00\x00\x00\xf8\xff'
p1695
tp1696
Rp1697
sg95
g11
(g15
S'\x00\x00\x00\x00\x00@e@'
p1698
tp1699
Rp1700
sg30
g31
sg21
g11
(g24
S'\x07\x00\x00\x00\x00\x00\x00\x00'
p1701
tp1702
Rp1703
sg32
(dp1704
g95
g1700
sg21
g1703
sg38
g11
(g24
S'\x02\x00\x00\x00\x00\x00\x00\x00'
p1705
tp1706
Rp1707
sg106
g11
(g15
S'\xd8\x07\xf0\xf6\x0c\xa8\xeb?'
p1708
tp1709
Rp1710
ssg46
g11
(g12
(S'S6'
p1711
I0
I1
tp1712
Rp1713
(I3
S'|'
p1714
NNNI6
I1
I0
tp1715
bS'ISOMAP'
p1716
tp1717
Rp1718
sg55
F0.2
sg38
g1707
sg56
g11
(g12
(S'S9'
p1719
I0
I1
tp1720
Rp1721
(I3
S'|'
p1722
NNNI9
I1
I0
tp1723
bS'inception'
p1724
tp1725
Rp1726
sg65
g11
(g15
S'\xa7L\x14\x90\xf1g\xed?'
p1727
tp1728
Rp1729
sg69
g11
(g12
(S'S2'
p1730
I0
I1
tp1731
Rp1732
(I3
S'|'
p1733
NNNI2
I1
I0
tp1734
bS'RF'
p1735
tp1736
Rp1737
sg78
I3
sg106
g1710
sg79
g80
sg81
g11
(g15
S'm\xba~\x9f\n\x17\xea?'
p1738
tp1739
Rp1740
sg85
g86
sg87
g88
sbag4
(g5
g6
Ntp1741
Rp1742
(dp1743
g10
g11
(g15
S'\x00\x00\x00\x00\x00\x00\xf8\xff'
p1744
tp1745
Rp1746
sg164
g367
sg30
g31
sg32
(dp1747
g164
g367
sg34
g11
(g15
S'\xad\xdb\xce:\xb6\xe66@'
p1748
tp1749
Rp1750
sg183
g11
(g24
S'\x03\x00\x00\x00\x00\x00\x00\x00'
p1751
tp1752
Rp1753
sg42
g11
(g15
S'/@\xd4g:\n\xff?'
p1754
tp1755
Rp1756
ssg46
g11
(g12
(S'S3'
p1757
I0
I1
tp1758
Rp1759
(I3
S'|'
p1760
NNNI3
I1
I0
tp1761
bS'PCA'
p1762
tp1763
Rp1764
sg55
F0.2
sg42
g1756
sg56
g11
(g12
(S'S8'
p1765
I0
I1
tp1766
Rp1767
(I3
S'|'
p1768
NNNI8
I1
I0
tp1769
bS'haralick'
p1770
tp1771
Rp1772
sg34
g1750
sg183
g1753
sg65
g11
(g15
S'\xe7x\x8b\xf2\x14\x7f\xd1?'
p1773
tp1774
Rp1775
sg69
g11
(g12
(S'S3'
p1776
I0
I1
tp1777
Rp1778
(I3
S'|'
p1779
NNNI3
I1
I0
tp1780
bS'SVM'
p1781
tp1782
Rp1783
sg78
I3
sg79
g80
sg81
g11
(g15
S'\tA\x88\xa4QG\xea?'
p1784
tp1785
Rp1786
sg85
g86
sg87
g88
sbag4
(g5
g6
Ntp1787
Rp1788
(dp1789
g10
g11
(g15
S'\x00\x00\x00\x00\x00\x00\xf8\xff'
p1790
tp1791
Rp1792
sg95
g11
(g15
S'\x00\x00\x00\x00\x00@Z@'
p1793
tp1794
Rp1795
sg164
g367
sg30
g31
sg32
(dp1796
g95
g1795
sg106
g11
(g15
S'\x1ea\xc0\x07~\xa1\xe0?'
p1797
tp1798
Rp1799
sg164
g367
ssg46
g11
(g12
(S'S3'
p1800
I0
I1
tp1801
Rp1802
(I3
S'|'
p1803
NNNI3
I1
I0
tp1804
bS'PCA'
p1805
tp1806
Rp1807
sg55
F0.2
sg56
g11
(g12
(S'S3'
p1808
I0
I1
tp1809
Rp1810
(I3
S'|'
p1811
NNNI3
I1
I0
tp1812
bS'VGG'
p1813
tp1814
Rp1815
sg65
g11
(g15
S'\x07\xb8\xe7vP\x94\xd0?'
p1816
tp1817
Rp1818
sg69
g11
(g12
(S'S2'
p1819
I0
I1
tp1820
Rp1821
(I3
S'|'
p1822
NNNI2
I1
I0
tp1823
bS'RF'
p1824
tp1825
Rp1826
sg78
I3
sg106
g1799
sg79
g80
sg81
g11
(g15
S'\x9b\xe9\x843\x13\xbb\xed?'
p1827
tp1828
Rp1829
sg85
g86
sg87
g88
sbag4
(g5
g6
Ntp1830
Rp1831
(dp1832
g10
g11
(g15
S'\x00\x00\x00\x00\x00\x00\xf8\xff'
p1833
tp1834
Rp1835
sg95
g11
(g15
S'\x00\x00\x00\x00\x00\x00 @'
p1836
tp1837
Rp1838
sg30
g31
sg21
g11
(g24
S'\x03\x00\x00\x00\x00\x00\x00\x00'
p1839
tp1840
Rp1841
sg32
(dp1842
g95
g1838
sg21
g1841
sg38
g11
(g24
S'\x03\x00\x00\x00\x00\x00\x00\x00'
p1843
tp1844
Rp1845
sg106
g11
(g15
S'\xde\x1ap\x9c|\x04\xd9?'
p1846
tp1847
Rp1848
ssg46
g11
(g12
(S'S6'
p1849
I0
I1
tp1850
Rp1851
(I3
S'|'
p1852
NNNI6
I1
I0
tp1853
bS'ISOMAP'
p1854
tp1855
Rp1856
sg55
F0.2
sg38
g1845
sg56
g11
(g12
(S'S3'
p1857
I0
I1
tp1858
Rp1859
(I3
S'|'
p1860
NNNI3
I1
I0
tp1861
bS'VGG'
p1862
tp1863
Rp1864
sg65
g11
(g15
S'@\x99\xccq\x88\x06\xe7?'
p1865
tp1866
Rp1867
sg69
g11
(g12
(S'S2'
p1868
I0
I1
tp1869
Rp1870
(I3
S'|'
p1871
NNNI2
I1
I0
tp1872
bS'RF'
p1873
tp1874
Rp1875
sg78
I3
sg106
g1848
sg79
g80
sg81
g11
(g15
S'\x08\x07\x7f\x01\xea\\\xed?'
p1876
tp1877
Rp1878
sg85
g86
sg87
g88
sbag4
(g5
g6
Ntp1879
Rp1880
(dp1881
g10
g11
(g15
S'\x00\x00\x00\x00\x00\x00\xf8\xff'
p1882
tp1883
Rp1884
sg164
g367
sg30
g31
sg32
(dp1885
g164
g367
sg34
g11
(g15
S'\xca[\xb1\x10\x9a\x9e#@'
p1886
tp1887
Rp1888
sg42
g11
(g15
S'E\xdd\x04\x9d!^\xe7?'
p1889
tp1890
Rp1891
ssg46
g11
(g12
(S'S3'
p1892
I0
I1
tp1893
Rp1894
(I3
S'|'
p1895
NNNI3
I1
I0
tp1896
bS'PCA'
p1897
tp1898
Rp1899
sg55
F0.2
sg42
g1891
sg56
g11
(g12
(S'S9'
p1900
I0
I1
tp1901
Rp1902
(I3
S'|'
p1903
NNNI9
I1
I0
tp1904
bS'inception'
p1905
tp1906
Rp1907
sg34
g1888
sg65
g11
(g15
S'U\x0f:)\x16\x7f\xd4?'
p1908
tp1909
Rp1910
sg69
g11
(g12
(S'S3'
p1911
I0
I1
tp1912
Rp1913
(I3
S'|'
p1914
NNNI3
I1
I0
tp1915
bS'SVM'
p1916
tp1917
Rp1918
sg78
I3
sg79
g80
sg81
g11
(g15
S'\x9dG\xf4\xd6R\xcf\xe7?'
p1919
tp1920
Rp1921
sg85
g86
sg87
g88
sbag4
(g5
g6
Ntp1922
Rp1923
(dp1924
g10
g11
(g15
S'\x00\x00\x00\x00\x00\x00\xf8\xff'
p1925
tp1926
Rp1927
sg95
g11
(g15
S'\x00\x00\x00\x00\x00\x00 @'
p1928
tp1929
Rp1930
sg164
g367
sg30
g31
sg32
(dp1931
g95
g1930
sg106
g11
(g15
S'R\xc2\x01\xdc\x15O\xe5?'
p1932
tp1933
Rp1934
sg164
g367
ssg46
g11
(g12
(S'S3'
p1935
I0
I1
tp1936
Rp1937
(I3
S'|'
p1938
NNNI3
I1
I0
tp1939
bS'PCA'
p1940
tp1941
Rp1942
sg55
F0.2
sg56
g11
(g12
(S'S3'
p1943
I0
I1
tp1944
Rp1945
(I3
S'|'
p1946
NNNI3
I1
I0
tp1947
bS'VGG'
p1948
tp1949
Rp1950
sg65
g11
(g15
S'\xfc>}5;\x94\xe9?'
p1951
tp1952
Rp1953
sg69
g11
(g12
(S'S2'
p1954
I0
I1
tp1955
Rp1956
(I3
S'|'
p1957
NNNI2
I1
I0
tp1958
bS'RF'
p1959
tp1960
Rp1961
sg78
I3
sg106
g1934
sg79
g80
sg81
g11
(g15
S'\xd5\xb7\x82\x0f\xad\xba\xed?'
p1962
tp1963
Rp1964
sg85
g86
sg87
g88
sbag4
(g5
g6
Ntp1965
Rp1966
(dp1967
g10
g11
(g15
S'\x00\x00\x00\x00\x00\x00\xf8\xff'
p1968
tp1969
Rp1970
sg164
g465
sg30
g31
sg32
(dp1971
g164
g465
sg34
g11
(g15
S'\xa7x\xe7\xf1\xb8\x01X@'
p1972
tp1973
Rp1974
sg183
g11
(g24
S'\x01\x00\x00\x00\x00\x00\x00\x00'
p1975
tp1976
Rp1977
sg42
g11
(g15
S'\x08\x119\x004\xf2\x1d@'
p1978
tp1979
Rp1980
ssg46
g11
(g12
(S'S3'
p1981
I0
I1
tp1982
Rp1983
(I3
S'|'
p1984
NNNI3
I1
I0
tp1985
bS'PCA'
p1986
tp1987
Rp1988
sg55
F0.2
sg42
g1980
sg56
g11
(g12
(S'S8'
p1989
I0
I1
tp1990
Rp1991
(I3
S'|'
p1992
NNNI8
I1
I0
tp1993
bS'haralick'
p1994
tp1995
Rp1996
sg34
g1974
sg183
g1977
sg65
g11
(g15
S'\xe7>\n\x14MB\xd1?'
p1997
tp1998
Rp1999
sg69
g11
(g12
(S'S3'
p2000
I0
I1
tp2001
Rp2002
(I3
S'|'
p2003
NNNI3
I1
I0
tp2004
bS'SVM'
p2005
tp2006
Rp2007
sg78
I3
sg79
g80
sg81
g11
(g15
S'\xf8F\xf5r;\xb8\xea?'
p2008
tp2009
Rp2010
sg85
g86
sg87
g88
sbag4
(g5
g6
Ntp2011
Rp2012
(dp2013
g10
g11
(g15
S'\x00\x00\x00\x00\x00\x00\xf8\xff'
p2014
tp2015
Rp2016
sg95
g11
(g15
S'\x00\x00\x00\x00\x00\xc0p@'
p2017
tp2018
Rp2019
sg164
g367
sg30
g31
sg32
(dp2020
g95
g2019
sg106
g11
(g15
S'23U\x0e;\x19\xe9?'
p2021
tp2022
Rp2023
sg164
g367
sg183
g11
(g24
S'\x03\x00\x00\x00\x00\x00\x00\x00'
p2024
tp2025
Rp2026
ssg46
g11
(g12
(S'S3'
p2027
I0
I1
tp2028
Rp2029
(I3
S'|'
p2030
NNNI3
I1
I0
tp2031
bS'PCA'
p2032
tp2033
Rp2034
sg55
F0.2
sg56
g11
(g12
(S'S8'
p2035
I0
I1
tp2036
Rp2037
(I3
S'|'
p2038
NNNI8
I1
I0
tp2039
bS'haralick'
p2040
tp2041
Rp2042
sg183
g2026
sg65
g11
(g15
S'\x8cg\x1c\x82S\x18\xe9?'
p2043
tp2044
Rp2045
sg69
g11
(g12
(S'S2'
p2046
I0
I1
tp2047
Rp2048
(I3
S'|'
p2049
NNNI2
I1
I0
tp2050
bS'RF'
p2051
tp2052
Rp2053
sg78
I3
sg106
g2023
sg79
g80
sg81
g11
(g15
S'Tk\xf8\xf7\xe4\x15\xed?'
p2054
tp2055
Rp2056
sg85
g86
sg87
g88
sbag4
(g5
g6
Ntp2057
Rp2058
(dp2059
g10
g11
(g15
S'\x00\x00\x00\x00\x00\x00\xf8\xff'
p2060
tp2061
Rp2062
sg164
g367
sg30
g31
sg32
(dp2063
g164
g367
sg34
g11
(g15
S'\xa5\x8b8\xf3\xffc9@'
p2064
tp2065
Rp2066
sg42
g11
(g15
S'\xba\xc9\x90tT\xa1\x0f@'
p2067
tp2068
Rp2069
ssg46
g11
(g12
(S'S3'
p2070
I0
I1
tp2071
Rp2072
(I3
S'|'
p2073
NNNI3
I1
I0
tp2074
bS'PCA'
p2075
tp2076
Rp2077
sg55
F0.2
sg42
g2069
sg56
g11
(g12
(S'S3'
p2078
I0
I1
tp2079
Rp2080
(I3
S'|'
p2081
NNNI3
I1
I0
tp2082
bS'VGG'
p2083
tp2084
Rp2085
sg34
g2066
sg65
g11
(g15
S"\x97t'\xa6\x8fd\xcf?"
p2086
tp2087
Rp2088
sg69
g11
(g12
(S'S3'
p2089
I0
I1
tp2090
Rp2091
(I3
S'|'
p2092
NNNI3
I1
I0
tp2093
bS'SVM'
p2094
tp2095
Rp2096
sg78
I3
sg79
g80
sg81
g11
(g15
S'\x0b,\x81\xea\xaa\xd1\xec?'
p2097
tp2098
Rp2099
sg85
g86
sg87
g88
sbag4
(g5
g6
Ntp2100
Rp2101
(dp2102
g10
g11
(g15
S'\x00\x00\x00\x00\x00\x00\xf8\xff'
p2103
tp2104
Rp2105
sg95
g11
(g15
S'\x00\x00\x00\x00\x00@e@'
p2106
tp2107
Rp2108
sg164
g367
sg30
g31
sg32
(dp2109
g95
g2108
sg106
g11
(g15
S'\x04n\xd3&\xc2\x9d\xe2?'
p2110
tp2111
Rp2112
sg164
g367
ssg46
g11
(g12
(S'S3'
p2113
I0
I1
tp2114
Rp2115
(I3
S'|'
p2116
NNNI3
I1
I0
tp2117
bS'PCA'
p2118
tp2119
Rp2120
sg55
F0.2
sg56
g11
(g12
(S'S3'
p2121
I0
I1
tp2122
Rp2123
(I3
S'|'
p2124
NNNI3
I1
I0
tp2125
bS'VGG'
p2126
tp2127
Rp2128
sg65
g11
(g15
S'[\xba\x1f\xf1&\xee\xcf?'
p2129
tp2130
Rp2131
sg69
g11
(g12
(S'S2'
p2132
I0
I1
tp2133
Rp2134
(I3
S'|'
p2135
NNNI2
I1
I0
tp2136
bS'RF'
p2137
tp2138
Rp2139
sg78
I3
sg106
g2112
sg79
g80
sg81
g11
(g15
S'\xb4\xfe\x018\xd1\xd1\xed?'
p2140
tp2141
Rp2142
sg85
g86
sg87
g88
sbag4
(g5
g6
Ntp2143
Rp2144
(dp2145
g10
g11
(g15
S'\x00\x00\x00\x00\x00\x00\xf8\xff'
p2146
tp2147
Rp2148
sg95
g11
(g15
S'\x00\x00\x00\x00\x00@R@'
p2149
tp2150
Rp2151
sg30
g31
sg21
g11
(g24
S'\x03\x00\x00\x00\x00\x00\x00\x00'
p2152
tp2153
Rp2154
sg32
(dp2155
g95
g2151
sg21
g2154
sg183
g11
(g24
S'\x02\x00\x00\x00\x00\x00\x00\x00'
p2156
tp2157
Rp2158
sg38
g11
(g24
S'\x04\x00\x00\x00\x00\x00\x00\x00'
p2159
tp2160
Rp2161
sg106
g11
(g15
S':\xb47\x925\xf6\xe7?'
p2162
tp2163
Rp2164
ssg46
g11
(g12
(S'S6'
p2165
I0
I1
tp2166
Rp2167
(I3
S'|'
p2168
NNNI6
I1
I0
tp2169
bS'ISOMAP'
p2170
tp2171
Rp2172
sg55
F0.2
sg38
g2161
sg56
g11
(g12
(S'S8'
p2173
I0
I1
tp2174
Rp2175
(I3
S'|'
p2176
NNNI8
I1
I0
tp2177
bS'haralick'
p2178
tp2179
Rp2180
sg183
g2158
sg65
g11
(g15
S'[-\x84\x96S\x83\xe2?'
p2181
tp2182
Rp2183
sg69
g11
(g12
(S'S2'
p2184
I0
I1
tp2185
Rp2186
(I3
S'|'
p2187
NNNI2
I1
I0
tp2188
bS'RF'
p2189
tp2190
Rp2191
sg78
I3
sg106
g2164
sg79
g80
sg81
g11
(g15
S'\xb0\xc9\x04 \xf6]\xec?'
p2192
tp2193
Rp2194
sg85
g86
sg87
g88
sbag4
(g5
g6
Ntp2195
Rp2196
(dp2197
g10
g11
(g15
S'\x00\x00\x00\x00\x00\x00\xf8\xff'
p2198
tp2199
Rp2200
sg164
g367
sg30
g31
sg32
(dp2201
g164
g367
sg34
g11
(g15
S'\xc4\x90\x9e\xa0-\xb4K@'
p2202
tp2203
Rp2204
sg42
g11
(g15
S'\xb1\xe9"i\x12I\xce?'
p2205
tp2206
Rp2207
ssg46
g11
(g12
(S'S3'
p2208
I0
I1
tp2209
Rp2210
(I3
S'|'
p2211
NNNI3
I1
I0
tp2212
bS'PCA'
p2213
tp2214
Rp2215
sg55
F0.2
sg42
g2207
sg56
g11
(g12
(S'S3'
p2216
I0
I1
tp2217
Rp2218
(I3
S'|'
p2219
NNNI3
I1
I0
tp2220
bS'VGG'
p2221
tp2222
Rp2223
sg34
g2204
sg65
g11
(g15
S'%\x85\x0e\x0eO\xb7\xd3?'
p2224
tp2225
Rp2226
sg69
g11
(g12
(S'S3'
p2227
I0
I1
tp2228
Rp2229
(I3
S'|'
p2230
NNNI3
I1
I0
tp2231
bS'SVM'
p2232
tp2233
Rp2234
sg78
I3
sg79
g80
sg81
g11
(g15
S'Q\xf8\x81\x9a\xfe\x8b\xed?'
p2235
tp2236
Rp2237
sg85
g86
sg87
g88
sbag4
(g5
g6
Ntp2238
Rp2239
(dp2240
g10
g11
(g15
S'\x00\x00\x00\x00\x00\x00\xf8\xff'
p2241
tp2242
Rp2243
sg164
g367
sg30
g31
sg32
(dp2244
g164
g367
sg34
g11
(g15
S'\x0e\xe0G\x87\xb3\xcfB@'
p2245
tp2246
Rp2247
sg42
g11
(g15
S'\x0c\xe7\xb2\x18\x16\xc2\x1c@'
p2248
tp2249
Rp2250
ssg46
g11
(g12
(S'S3'
p2251
I0
I1
tp2252
Rp2253
(I3
S'|'
p2254
NNNI3
I1
I0
tp2255
bS'PCA'
p2256
tp2257
Rp2258
sg55
F0.2
sg42
g2250
sg56
g11
(g12
(S'S3'
p2259
I0
I1
tp2260
Rp2261
(I3
S'|'
p2262
NNNI3
I1
I0
tp2263
bS'VGG'
p2264
tp2265
Rp2266
sg34
g2247
sg65
g11
(g15
S'\x90\xd2\x11\xa7\x16\xe9\xd0?'
p2267
tp2268
Rp2269
sg69
g11
(g12
(S'S3'
p2270
I0
I1
tp2271
Rp2272
(I3
S'|'
p2273
NNNI3
I1
I0
tp2274
bS'SVM'
p2275
tp2276
Rp2277
sg78
I3
sg79
g80
sg81
g11
(g15
S'\x0b,\x81\xea\xaa\xd1\xec?'
p2278
tp2279
Rp2280
sg85
g86
sg87
g88
sbag4
(g5
g6
Ntp2281
Rp2282
(dp2283
g10
g11
(g15
S'\x00\x00\x00\x00\x00\x00\xf8\xff'
p2284
tp2285
Rp2286
sg21
g11
(g24
S'\x07\x00\x00\x00\x00\x00\x00\x00'
p2287
tp2288
Rp2289
sg30
g31
sg32
(dp2290
g21
g2289
sg34
g11
(g15
S'\x15eA\xec\x8b\xae0@'
p2291
tp2292
Rp2293
sg38
g11
(g24
S'\x02\x00\x00\x00\x00\x00\x00\x00'
p2294
tp2295
Rp2296
sg42
g11
(g15
S'\x95\xe8.$\xe2_\xf6?'
p2297
tp2298
Rp2299
ssg42
g2299
sg46
g11
(g12
(S'S6'
p2300
I0
I1
tp2301
Rp2302
(I3
S'|'
p2303
NNNI6
I1
I0
tp2304
bS'ISOMAP'
p2305
tp2306
Rp2307
sg55
F0.2
sg38
g2296
sg56
g11
(g12
(S'S3'
p2308
I0
I1
tp2309
Rp2310
(I3
S'|'
p2311
NNNI3
I1
I0
tp2312
bS'VGG'
p2313
tp2314
Rp2315
sg34
g2293
sg65
g11
(g15
S"\\'\xa7\x92\xa22\xce?"
p2316
tp2317
Rp2318
sg69
g11
(g12
(S'S3'
p2319
I0
I1
tp2320
Rp2321
(I3
S'|'
p2322
NNNI3
I1
I0
tp2323
bS'SVM'
p2324
tp2325
Rp2326
sg78
I3
sg79
g80
sg81
g11
(g15
S"'\xb0\x04\xaa\xabF\xeb?"
p2327
tp2328
Rp2329
sg85
g86
sg87
g88
sbag4
(g5
g6
Ntp2330
Rp2331
(dp2332
g10
g11
(g15
S'\x00\x00\x00\x00\x00\x00\xf8\xff'
p2333
tp2334
Rp2335
sg95
g11
(g15
S'\x00\x00\x00\x00\x00\x00 @'
p2336
tp2337
Rp2338
sg164
g465
sg30
g31
sg32
(dp2339
g95
g2338
sg106
g11
(g15
S'|\x13\xb47\x1e\xa5\xef?'
p2340
tp2341
Rp2342
sg164
g465
sg183
g11
(g24
S'\x01\x00\x00\x00\x00\x00\x00\x00'
p2343
tp2344
Rp2345
ssg46
g11
(g12
(S'S3'
p2346
I0
I1
tp2347
Rp2348
(I3
S'|'
p2349
NNNI3
I1
I0
tp2350
bS'PCA'
p2351
tp2352
Rp2353
sg55
F0.2
sg56
g11
(g12
(S'S8'
p2354
I0
I1
tp2355
Rp2356
(I3
S'|'
p2357
NNNI8
I1
I0
tp2358
bS'haralick'
p2359
tp2360
Rp2361
sg183
g2345
sg65
g11
(g15
S'W\xbc1s\x1f\xc8\xf3?'
p2362
tp2363
Rp2364
sg69
g11
(g12
(S'S2'
p2365
I0
I1
tp2366
Rp2367
(I3
S'|'
p2368
NNNI2
I1
I0
tp2369
bS'RF'
p2370
tp2371
Rp2372
sg78
I3
sg106
g2342
sg79
g80
sg81
g11
(g15
S'={}\xdc\xe7s\xec?'
p2373
tp2374
Rp2375
sg85
g86
sg87
g88
sbag4
(g5
g6
Ntp2376
Rp2377
(dp2378
g10
g11
(g15
S'\x00\x00\x00\x00\x00\x00\xf8\xff'
p2379
tp2380
Rp2381
sg95
g11
(g15
S'\x00\x00\x00\x00\x00\x00D@'
p2382
tp2383
Rp2384
sg30
g31
sg21
g11
(g24
S'\x07\x00\x00\x00\x00\x00\x00\x00'
p2385
tp2386
Rp2387
sg32
(dp2388
g95
g2384
sg21
g2387
sg38
g11
(g24
S'\x04\x00\x00\x00\x00\x00\x00\x00'
p2389
tp2390
Rp2391
sg106
g11
(g15
S'\x8a\xe5\xa2; D\xda?'
p2392
tp2393
Rp2394
ssg46
g11
(g12
(S'S6'
p2395
I0
I1
tp2396
Rp2397
(I3
S'|'
p2398
NNNI6
I1
I0
tp2399
bS'ISOMAP'
p2400
tp2401
Rp2402
sg55
F0.2
sg38
g2391
sg56
g11
(g12
(S'S3'
p2403
I0
I1
tp2404
Rp2405
(I3
S'|'
p2406
NNNI3
I1
I0
tp2407
bS'VGG'
p2408
tp2409
Rp2410
sg65
g11
(g15
S'\xed8AtZ\xd3\xd0?'
p2411
tp2412
Rp2413
sg69
g11
(g12
(S'S2'
p2414
I0
I1
tp2415
Rp2416
(I3
S'|'
p2417
NNNI2
I1
I0
tp2418
bS'RF'
p2419
tp2420
Rp2421
sg78
I3
sg106
g2394
sg79
g80
sg81
g11
(g15
S'\x18*\x84\xbed\x8c\xed?'
p2422
tp2423
Rp2424
sg85
g86
sg87
g88
sbag4
(g5
g6
Ntp2425
Rp2426
(dp2427
g10
g11
(g15
S'\x00\x00\x00\x00\x00\x00\xf8\xff'
p2428
tp2429
Rp2430
sg21
g11
(g24
S'\x07\x00\x00\x00\x00\x00\x00\x00'
p2431
tp2432
Rp2433
sg30
g31
sg32
(dp2434
g21
g2433
sg34
g11
(g15
S'\x95\x163\xc7lrA@'
p2435
tp2436
Rp2437
sg38
g11
(g24
S'\x04\x00\x00\x00\x00\x00\x00\x00'
p2438
tp2439
Rp2440
sg42
g11
(g15
S'\x83\xc3W\xb01\xb6\x03@'
p2441
tp2442
Rp2443
ssg42
g2443
sg46
g11
(g12
(S'S6'
p2444
I0
I1
tp2445
Rp2446
(I3
S'|'
p2447
NNNI6
I1
I0
tp2448
bS'ISOMAP'
p2449
tp2450
Rp2451
sg55
F0.2
sg38
g2440
sg56
g11
(g12
(S'S9'
p2452
I0
I1
tp2453
Rp2454
(I3
S'|'
p2455
NNNI9
I1
I0
tp2456
bS'inception'
p2457
tp2458
Rp2459
sg34
g2437
sg65
g11
(g15
S'%\xd0\xa59f\x8c\xd3?'
p2460
tp2461
Rp2462
sg69
g11
(g12
(S'S3'
p2463
I0
I1
tp2464
Rp2465
(I3
S'|'
p2466
NNNI3
I1
I0
tp2467
bS'SVM'
p2468
tp2469
Rp2470
sg78
I3
sg79
g80
sg81
g11
(g15
S'\xd7\xdc\x84\xf8m/\xe5?'
p2471
tp2472
Rp2473
sg85
g86
sg87
g88
sbag4
(g5
g6
Ntp2474
Rp2475
(dp2476
g10
g11
(g15
S'\x00\x00\x00\x00\x00\x00\xf8\xff'
p2477
tp2478
Rp2479
sg21
g11
(g24
S'\x03\x00\x00\x00\x00\x00\x00\x00'
p2480
tp2481
Rp2482
sg30
g31
sg32
(dp2483
g21
g2482
sg34
g11
(g15
S'\xa9m\xe6\xd0\x91"R@'
p2484
tp2485
Rp2486
sg38
g11
(g24
S'\x02\x00\x00\x00\x00\x00\x00\x00'
p2487
tp2488
Rp2489
sg42
g11
(g15
S'\xeb\xc7\xecA\xbf{\x14@'
p2490
tp2491
Rp2492
ssg42
g2492
sg46
g11
(g12
(S'S6'
p2493
I0
I1
tp2494
Rp2495
(I3
S'|'
p2496
NNNI6
I1
I0
tp2497
bS'ISOMAP'
p2498
tp2499
Rp2500
sg55
F0.2
sg38
g2489
sg56
g11
(g12
(S'S9'
p2501
I0
I1
tp2502
Rp2503
(I3
S'|'
p2504
NNNI9
I1
I0
tp2505
bS'inception'
p2506
tp2507
Rp2508
sg34
g2486
sg65
g11
(g15
S'\xa0\xde\xcb\ta\xad\xd3?'
p2509
tp2510
Rp2511
sg69
g11
(g12
(S'S3'
p2512
I0
I1
tp2513
Rp2514
(I3
S'|'
p2515
NNNI3
I1
I0
tp2516
bS'SVM'
p2517
tp2518
Rp2519
sg78
I3
sg79
g80
sg81
g11
(g15
S'\xbb\xa5\xd9\xc4\xa9\x84\xe4?'
p2520
tp2521
Rp2522
sg85
g86
sg87
g88
sbag4
(g5
g6
Ntp2523
Rp2524
(dp2525
g10
g11
(g15
S'\x00\x00\x00\x00\x00\x00\xf8\xff'
p2526
tp2527
Rp2528
sg21
g11
(g24
S'\x04\x00\x00\x00\x00\x00\x00\x00'
p2529
tp2530
Rp2531
sg30
g31
sg32
(dp2532
g21
g2531
sg34
g11
(g15
S'\x00\xbcr\x0c\x06&\x18@'
p2533
tp2534
Rp2535
sg183
g11
(g24
S'\x03\x00\x00\x00\x00\x00\x00\x00'
p2536
tp2537
Rp2538
sg38
g11
(g24
S'\x02\x00\x00\x00\x00\x00\x00\x00'
p2539
tp2540
Rp2541
sg42
g11
(g15
S'M\xd0\r\xd7qh\x10@'
p2542
tp2543
Rp2544
ssg42
g2544
sg46
g11
(g12
(S'S6'
p2545
I0
I1
tp2546
Rp2547
(I3
S'|'
p2548
NNNI6
I1
I0
tp2549
bS'ISOMAP'
p2550
tp2551
Rp2552
sg55
F0.2
sg38
g2541
sg56
g11
(g12
(S'S8'
p2553
I0
I1
tp2554
Rp2555
(I3
S'|'
p2556
NNNI8
I1
I0
tp2557
bS'haralick'
p2558
tp2559
Rp2560
sg34
g2535
sg183
g2538
sg65
g11
(g15
S'\xff\x1aB\x99\xbbT\xd0?'
p2561
tp2562
Rp2563
sg69
g11
(g12
(S'S3'
p2564
I0
I1
tp2565
Rp2566
(I3
S'|'
p2567
NNNI3
I1
I0
tp2568
bS'SVM'
p2569
tp2570
Rp2571
sg78
I3
sg79
g80
sg81
g11
(g15
S'#{\x07\x92\xd0\xd2\xe9?'
p2572
tp2573
Rp2574
sg85
g86
sg87
g88
sbag4
(g5
g6
Ntp2575
Rp2576
(dp2577
g10
g11
(g15
S'\x00\x00\x00\x00\x00\x00\xf8\xff'
p2578
tp2579
Rp2580
sg164
g367
sg30
g31
sg32
(dp2581
g164
g367
sg34
g11
(g15
S'\xb1\xf5\xfe=\xcb\x80\r@'
p2582
tp2583
Rp2584
sg42
g11
(g15
S'\xa2\xc9V\xc5(\xa8\x10@'
p2585
tp2586
Rp2587
ssg46
g11
(g12
(S'S3'
p2588
I0
I1
tp2589
Rp2590
(I3
S'|'
p2591
NNNI3
I1
I0
tp2592
bS'PCA'
p2593
tp2594
Rp2595
sg55
F0.2
sg42
g2587
sg56
g11
(g12
(S'S9'
p2596
I0
I1
tp2597
Rp2598
(I3
S'|'
p2599
NNNI9
I1
I0
tp2600
bS'inception'
p2601
tp2602
Rp2603
sg34
g2584
sg65
g11
(g15
S'uz\xac*\x8c\xe5\xd4?'
p2604
tp2605
Rp2606
sg69
g11
(g12
(S'S3'
p2607
I0
I1
tp2608
Rp2609
(I3
S'|'
p2610
NNNI3
I1
I0
tp2611
bS'SVM'
p2612
tp2613
Rp2614
sg78
I3
sg79
g80
sg81
g11
(g15
S'sw\xf9\xcer\x8a\xe8?'
p2615
tp2616
Rp2617
sg85
g86
sg87
g88
sbag4
(g5
g6
Ntp2618
Rp2619
(dp2620
g10
g11
(g15
S'\x00\x00\x00\x00\x00\x00\xf8\xff'
p2621
tp2622
Rp2623
sg164
g367
sg30
g31
sg32
(dp2624
g164
g367
sg34
g11
(g15
S'\xfd\x15c\xac\xa67I@'
p2625
tp2626
Rp2627
sg42
g11
(g15
S'|Q`_>\x0e\xf7?'
p2628
tp2629
Rp2630
ssg46
g11
(g12
(S'S3'
p2631
I0
I1
tp2632
Rp2633
(I3
S'|'
p2634
NNNI3
I1
I0
tp2635
bS'PCA'
p2636
tp2637
Rp2638
sg55
F0.2
sg42
g2630
sg56
g11
(g12
(S'S9'
p2639
I0
I1
tp2640
Rp2641
(I3
S'|'
p2642
NNNI9
I1
I0
tp2643
bS'inception'
p2644
tp2645
Rp2646
sg34
g2627
sg65
g11
(g15
S'\xe8\xbf2\x9dOq\xd4?'
p2647
tp2648
Rp2649
sg69
g11
(g12
(S'S3'
p2650
I0
I1
tp2651
Rp2652
(I3
S'|'
p2653
NNNI3
I1
I0
tp2654
bS'SVM'
p2655
tp2656
Rp2657
sg78
I3
sg79
g80
sg81
g11
(g15
S'\x940z\xa6Ns\xe8?'
p2658
tp2659
Rp2660
sg85
g86
sg87
g88
sbag4
(g5
g6
Ntp2661
Rp2662
(dp2663
g10
g11
(g15
S'\x00\x00\x00\x00\x00\x00\xf8\xff'
p2664
tp2665
Rp2666
sg95
g11
(g15
S'\x00\x00\x00\x00\x00@e@'
p2667
tp2668
Rp2669
sg164
g367
sg30
g31
sg32
(dp2670
g95
g2669
sg106
g11
(g15
S'\xdaK\xa3\x05\x8e\x1d\xe8?'
p2671
tp2672
Rp2673
sg164
g367
sg183
g11
(g24
S'\x03\x00\x00\x00\x00\x00\x00\x00'
p2674
tp2675
Rp2676
ssg46
g11
(g12
(S'S3'
p2677
I0
I1
tp2678
Rp2679
(I3
S'|'
p2680
NNNI3
I1
I0
tp2681
bS'PCA'
p2682
tp2683
Rp2684
sg55
F0.2
sg56
g11
(g12
(S'S8'
p2685
I0
I1
tp2686
Rp2687
(I3
S'|'
p2688
NNNI8
I1
I0
tp2689
bS'haralick'
p2690
tp2691
Rp2692
sg183
g2676
sg65
g11
(g15
S'\xbd6\x7f\xce]d\xe6?'
p2693
tp2694
Rp2695
sg69
g11
(g12
(S'S2'
p2696
I0
I1
tp2697
Rp2698
(I3
S'|'
p2699
NNNI2
I1
I0
tp2700
bS'RF'
p2701
tp2702
Rp2703
sg78
I3
sg106
g2673
sg79
g80
sg81
g11
(g15
S'u$y\xcf\xc0\xfe\xec?'
p2704
tp2705
Rp2706
sg85
g86
sg87
g88
sbag4
(g5
g6
Ntp2707
Rp2708
(dp2709
g10
g11
(g15
S'\x00\x00\x00\x00\x00\x00\xf8\xff'
p2710
tp2711
Rp2712
sg164
g367
sg30
g31
sg32
(dp2713
g164
g367
sg34
g11
(g15
S'\xd9\xb2NI\xf0\xb8T@'
p2714
tp2715
Rp2716
sg42
g11
(g15
S'\xac\xae\xce\x95\xd9\xef\x18@'
p2717
tp2718
Rp2719
ssg46
g11
(g12
(S'S3'
p2720
I0
I1
tp2721
Rp2722
(I3
S'|'
p2723
NNNI3
I1
I0
tp2724
bS'PCA'
p2725
tp2726
Rp2727
sg55
F0.2
sg42
g2719
sg56
g11
(g12
(S'S9'
p2728
I0
I1
tp2729
Rp2730
(I3
S'|'
p2731
NNNI9
I1
I0
tp2732
bS'inception'
p2733
tp2734
Rp2735
sg34
g2716
sg65
g11
(g15
S'\xe1\xe1\x0c\xd1\xb9\xa0\xd4?'
p2736
tp2737
Rp2738
sg69
g11
(g12
(S'S3'
p2739
I0
I1
tp2740
Rp2741
(I3
S'|'
p2742
NNNI3
I1
I0
tp2743
bS'SVM'
p2744
tp2745
Rp2746
sg78
I3
sg79
g80
sg81
g11
(g15
S'\xd5T\x07\xe1\xe0/\xe8?'
p2747
tp2748
Rp2749
sg85
g86
sg87
g88
sbasS'error_curve'
p2750
(lp2751
g68
ag68
ag68
ag128
ag128
ag128
ag128
ag128
ag128
ag128
ag128
ag128
ag128
ag128
ag128
ag128
ag128
ag128
ag128
ag128
ag128
ag128
ag128
ag128
ag128
ag128
ag128
ag128
ag128
ag128
ag128
ag128
ag128
ag128
ag128
ag128
ag128
ag128
ag128
ag128
ag128
ag128
ag128
ag128
ag128
ag128
ag128
ag128
ag128
ag128
ag128
ag128
ag128
ag128
ag128
ag128
asS'iters'
p2752
I51
sg30
g31
sS'results_loc'
p2753
S'/gpfs/u/home/CGHI/CGHIarch/barn/EP_project/results/'
p2754
sS'times'
p2755
(lp2756
F0.5935420989990234
aF1.928502082824707
aF16.317315101623535
aF18.14604902267456
aF19.765554904937744
aF21.475374937057495
aF34.070980072021484
aF47.58931303024292
aF48.152183055877686
aF48.33034300804138
aF61.05897402763367
aF77.22654294967651
aF91.36262702941895
aF91.51629400253296
aF92.70146298408508
aF107.47694897651672
aF120.55819892883301
aF121.65485191345215
aF122.09591889381409
aF134.87828707695007
aF147.53415393829346
aF160.17549991607666
aF162.48364806175232
aF163.10508799552917
aF175.73727703094482
aF188.40827989578247
aF188.93753290176392
aF189.49417304992676
aF202.2232780456543
aF204.76816201210022
aF205.34489107131958
aF205.49855303764343
aF219.4816770553589
aF221.32862210273743
aF234.01092195510864
aF234.95342588424683
aF235.53508496284485
aF235.68016695976257
aF235.8513538837433
aF248.51208996772766
aF263.29601311683655
aF263.45375394821167
aF264.918359041214
aF278.02384400367737
aF278.1481909751892
aF278.3164620399475
aF278.9109001159668
aF291.5250918865204
aF292.4072000980377
aF292.9988069534302
aF293.52823209762573
aF306.13194489479065
aF306.2863790988922
aF306.43220806121826
aF320.6575949192047
aF320.81793904304504
asS'data_loc'
p2757
g88
sS'run'
p2758
I2
sg85
S'random_MCMC'
p2759
sb.