(iprototypes.random_based_mcmc1
random_MCMC
p0
(dp1
S'best_pipelines'
p2
(lp3
ccopy_reg
_reconstructor
p4
(cprototypes.data_analytic_pipeline
image_classification_pipeline
p5
c__builtin__
object
p6
Ntp7
Rp8
(dp9
S'f1_score'
p10
cnumpy.core.multiarray
scalar
p11
(cnumpy
dtype
p12
(S'f8'
p13
I0
I1
tp14
Rp15
(I3
S'<'
p16
NNNI-1
I-1
I0
tp17
bS'\x00\x00\x00\x00\x00\x00\xf8\xff'
p18
tp19
Rp20
sS'n_neighbors'
p21
g11
(g12
(S'i8'
p22
I0
I1
tp23
Rp24
(I3
S'<'
p25
NNNI-1
I-1
I0
tp26
bS'\x04\x00\x00\x00\x00\x00\x00\x00'
p27
tp28
Rp29
sS'data_name'
p30
S'brain'
p31
sS'kwargs'
p32
(dp33
g21
g29
sS'svm_C'
p34
g11
(g15
S'\xdbM\xcb\x14bdW@'
p35
tp36
Rp37
sS'n_components'
p38
g11
(g24
S'\x02\x00\x00\x00\x00\x00\x00\x00'
p39
tp40
Rp41
sS'svm_gamma'
p42
g11
(g15
S':a\x9d\xf3\x9dh\x08@'
p43
tp44
Rp45
ssg42
g45
sS'dimensionality_reduction'
p46
g11
(g12
(S'S6'
p47
I0
I1
tp48
Rp49
(I3
S'|'
p50
NNNI6
I1
I0
tp51
bS'ISOMAP'
p52
tp53
Rp54
sS'test_size'
p55
F0.2
sg38
g41
sS'feature_extraction'
p56
g11
(g12
(S'S3'
p57
I0
I1
tp58
Rp59
(I3
S'|'
p60
NNNI3
I1
I0
tp61
bS'VGG'
p62
tp63
Rp64
sg34
g37
sS'result'
p65
g11
(g15
S'\xbd3\xd9\xe0\xa6\xb4\xe2?'
p66
tp67
Rp68
sS'learning_algorithm'
p69
g11
(g12
(S'S3'
p70
I0
I1
tp71
Rp72
(I3
S'|'
p73
NNNI3
I1
I0
tp74
bS'SVM'
p75
tp76
Rp77
sS'val_splits'
p78
I3
sS'ml_type'
p79
S'validation'
p80
sS'accuracy'
p81
g11
(g15
S'Y\xc8\x0f\xb0s\xca\xe6?'
p82
tp83
Rp84
sS'type1'
p85
S'random1'
p86
sS'data_location'
p87
S'/gpfs/u/home/CGHI/CGHIarch/barn/EP_project/data/'
p88
sbag4
(g5
g6
Ntp89
Rp90
(dp91
g10
g11
(g15
S'\x00\x00\x00\x00\x00\x00\xf8\xff'
p92
tp93
Rp94
sS'n_estimators'
p95
g11
(g15
S'\x00\x00\x00\x00\x00\x00D@'
p96
tp97
Rp98
sS'pca_whiten'
p99
g11
(g12
(S'b1'
p100
I0
I1
tp101
Rp102
(I3
S'|'
p103
NNNI-1
I-1
I0
tp104
bS'\x01'
p105
tp106
Rp107
sg30
g31
sg32
(dp108
g95
g98
sS'max_features'
p109
g11
(g15
S'\xdf(~\x99\xd1!\xe9?'
p110
tp111
Rp112
sg99
g107
ssg46
g11
(g12
(S'S3'
p113
I0
I1
tp114
Rp115
(I3
S'|'
p116
NNNI3
I1
I0
tp117
bS'PCA'
p118
tp119
Rp120
sg55
F0.2
sg56
g11
(g12
(S'S3'
p121
I0
I1
tp122
Rp123
(I3
S'|'
p124
NNNI3
I1
I0
tp125
bS'VGG'
p126
tp127
Rp128
sg65
g11
(g15
S'T\x8b`\xd6\xbdg\xde?'
p129
tp130
Rp131
sg69
g11
(g12
(S'S2'
p132
I0
I1
tp133
Rp134
(I3
S'|'
p135
NNNI2
I1
I0
tp136
bS'RF'
p137
tp138
Rp139
sg78
I3
sg109
g112
sg79
g80
sg81
g11
(g15
S'4X \r)\xef\xea?'
p140
tp141
Rp142
sg85
g86
sg87
g88
sbag4
(g5
g6
Ntp143
Rp144
(dp145
g10
g11
(g15
S'\x00\x00\x00\x00\x00\x00\xf8\xff'
p146
tp147
Rp148
sg95
g11
(g15
S'\x00\x00\x00\x00\x00\xc0r@'
p149
tp150
Rp151
sg99
g11
(g102
S'\x00'
p152
tp153
Rp154
sg30
g31
sg32
(dp155
g95
g151
sg109
g11
(g15
S'\x0e9@\xa98F\xe5?'
p156
tp157
Rp158
sg99
g154
ssg46
g11
(g12
(S'S3'
p159
I0
I1
tp160
Rp161
(I3
S'|'
p162
NNNI3
I1
I0
tp163
bS'PCA'
p164
tp165
Rp166
sg55
F0.2
sg56
g11
(g12
(S'S3'
p167
I0
I1
tp168
Rp169
(I3
S'|'
p170
NNNI3
I1
I0
tp171
bS'VGG'
p172
tp173
Rp174
sg65
g11
(g15
S'\xc5c\xf9$\x9f^\xda?'
p175
tp176
Rp177
sg69
g11
(g12
(S'S2'
p178
I0
I1
tp179
Rp180
(I3
S'|'
p181
NNNI2
I1
I0
tp182
bS'RF'
p183
tp184
Rp185
sg78
I3
sg109
g158
sg79
g80
sg81
g11
(g15
S'\x1d4\xc1qD\x90\xea?'
p186
tp187
Rp188
sg85
g86
sg87
g88
sbag4
(g5
g6
Ntp189
Rp190
(dp191
g10
g11
(g15
S'\x00\x00\x00\x00\x00\x00\xf8\xff'
p192
tp193
Rp194
sg95
g11
(g15
S'\x00\x00\x00\x00\x00\xc0r@'
p195
tp196
Rp197
sg99
g107
sg30
g31
sg32
(dp198
g95
g197
sg109
g11
(g15
S'E-\x1fL\xe8"\xdd?'
p199
tp200
Rp201
sg99
g107
ssg46
g11
(g12
(S'S3'
p202
I0
I1
tp203
Rp204
(I3
S'|'
p205
NNNI3
I1
I0
tp206
bS'PCA'
p207
tp208
Rp209
sg55
F0.2
sg56
g11
(g12
(S'S3'
p210
I0
I1
tp211
Rp212
(I3
S'|'
p213
NNNI3
I1
I0
tp214
bS'VGG'
p215
tp216
Rp217
sg65
g11
(g15
S'\xe82\xafA\x8aC\xda?'
p218
tp219
Rp220
sg69
g11
(g12
(S'S2'
p221
I0
I1
tp222
Rp223
(I3
S'|'
p224
NNNI2
I1
I0
tp225
bS'RF'
p226
tp227
Rp228
sg78
I3
sg109
g201
sg79
g80
sg81
g11
(g15
S'\xfb\xd1sv\xbf\x7f\xea?'
p229
tp230
Rp231
sg85
g86
sg87
g88
sbag4
(g5
g6
Ntp232
Rp233
(dp234
g10
g11
(g15
S'\x00\x00\x00\x00\x00\x00\xf8\xff'
p235
tp236
Rp237
sg95
g11
(g15
S'\x00\x00\x00\x00\x00\x00D@'
p238
tp239
Rp240
sg99
g107
sg30
g31
sg32
(dp241
g95
g240
sg109
g11
(g15
S'\xa8V4\x95\xc5$\xe8?'
p242
tp243
Rp244
sg99
g107
ssg46
g11
(g12
(S'S3'
p245
I0
I1
tp246
Rp247
(I3
S'|'
p248
NNNI3
I1
I0
tp249
bS'PCA'
p250
tp251
Rp252
sg55
F0.2
sg56
g11
(g12
(S'S3'
p253
I0
I1
tp254
Rp255
(I3
S'|'
p256
NNNI3
I1
I0
tp257
bS'VGG'
p258
tp259
Rp260
sg65
g11
(g15
S"\xffT\xa6;'\xb5\xd9?"
p261
tp262
Rp263
sg69
g11
(g12
(S'S2'
p264
I0
I1
tp265
Rp266
(I3
S'|'
p267
NNNI2
I1
I0
tp268
bS'RF'
p269
tp270
Rp271
sg78
I3
sg109
g244
sg79
g80
sg81
g11
(g15
S'+\xc2x\xaf\xd6\x7f\xea?'
p272
tp273
Rp274
sg85
g86
sg87
g88
sbasS'paths'
p275
(lp276
(lp277
S'VGG'
p278
aS'PCA'
p279
aS'SVM'
p280
aa(lp281
g278
ag279
aS'RF'
p282
aa(lp283
g278
aS'ISOMAP'
p284
ag280
aa(lp285
g278
ag284
ag282
aa(lp286
S'haralick'
p287
ag279
ag280
aa(lp288
g287
ag279
ag282
aa(lp289
g287
ag284
ag280
aa(lp290
g287
ag284
ag282
aa(lp291
S'inception'
p292
ag279
ag280
aa(lp293
g292
ag279
ag282
aa(lp294
g292
ag284
ag280
aa(lp295
g292
ag284
ag282
aasS'pipeline'
p296
(dp297
g21
(lp298
I3
aI4
aI5
aI6
aI7
asg99
(lp299
I01
aI00
asg95
cnumpy.core.multiarray
_reconstruct
p300
(cnumpy
ndarray
p301
(I0
tp302
S'b'
p303
tp304
Rp305
(I1
(I10
tp306
g15
I00
S'\x00\x00\x00\x00\x00\x00 @\x00\x00\x00\x00\x00\x00D@\x00\x00\x00\x00\x00@R@\x00\x00\x00\x00\x00@Z@\x00\x00\x00\x00\x00@a@\x00\x00\x00\x00\x00@e@\x00\x00\x00\x00\x00`i@\x00\x00\x00\x00\x00`m@\x00\x00\x00\x00\x00\xc0p@\x00\x00\x00\x00\x00\xc0r@'
p307
tp308
bsg46
(lp309
g279
ag284
asg42
g300
(g301
(I0
tp310
g303
tp311
Rp312
(I1
(I10
tp313
g15
I00
S"{\x14\xaeG\xe1z\x84?\x102Tv\x98\xba\xec?\xe7\xd5\xc4\xb3\xa2\x91\xfc?b\xc9/\x96\xfcb\x05@\xd2'}\xd2'}\x0c@!Ce\x87\xa9\xcb\x11@X\xf2\x8b%\xbfX\x15@\x90\xa1\xb2\xc3\xd4\xe5\x18@\xc8P\xd9a\xear\x1c@\x00\x00\x00\x00\x00\x00 @"
p314
tp315
bsg56
(lp316
g278
ag287
ag292
asS'haralick_distance'
p317
(lp318
I1
aI2
aI3
asg38
(lp319
I2
aI3
aI4
asg69
(lp320
g280
ag282
asg109
g300
(g301
(I0
tp321
g303
tp322
Rp323
(I1
(I5
tp324
g15
I00
S'333333\xd3?\x9a\x99\x99\x99\x99\x99\xd9?\x00\x00\x00\x00\x00\x00\xe0?433333\xe3?hfffff\xe6?'
p325
tp326
bsg34
g300
(g301
(I0
tp327
g303
tp328
Rp329
(I1
(I10
tp330
g15
I00
S'\x9a\x99\x99\x99\x99\x99\xb9?gfffff&@\xce\xcc\xcc\xcc\xccL6@43333\xb3@@\x01\x00\x00\x00\x00@F@\xce\xcc\xcc\xcc\xcc\xccK@\xcd\xcc\xcc\xcc\xcc\xacP@43333sS@\x9a\x99\x99\x99\x999V@\x00\x00\x00\x00\x00\x00Y@'
p331
tp332
bssS'pipelines'
p333
(lp334
g8
ag4
(g5
g6
Ntp335
Rp336
(dp337
g10
g11
(g15
S'\x00\x00\x00\x00\x00\x00\xf8\xff'
p338
tp339
Rp340
sg21
g11
(g24
S'\x07\x00\x00\x00\x00\x00\x00\x00'
p341
tp342
Rp343
sg30
g31
sg32
(dp344
g21
g343
sg34
g11
(g15
S'9\x9eO\xcf\x0c\xb6U@'
p345
tp346
Rp347
sg38
g11
(g24
S'\x03\x00\x00\x00\x00\x00\x00\x00'
p348
tp349
Rp350
sg42
g11
(g15
S'Fc\x06\xac\x18{\x15@'
p351
tp352
Rp353
ssg42
g353
sg46
g11
(g12
(S'S6'
p354
I0
I1
tp355
Rp356
(I3
S'|'
p357
NNNI6
I1
I0
tp358
bS'ISOMAP'
p359
tp360
Rp361
sg55
F0.2
sg38
g350
sg56
g11
(g12
(S'S9'
p362
I0
I1
tp363
Rp364
(I3
S'|'
p365
NNNI9
I1
I0
tp366
bS'inception'
p367
tp368
Rp369
sg34
g347
sg65
g11
(g15
S'\xe90\xb1\xd1\xc7\xe0\xe6?'
p370
tp371
Rp372
sg69
g11
(g12
(S'S3'
p373
I0
I1
tp374
Rp375
(I3
S'|'
p376
NNNI3
I1
I0
tp377
bS'SVM'
p378
tp379
Rp380
sg78
I3
sg79
g80
sg81
g11
(g15
S'4\xeaQ\x95u1\xe4?'
p381
tp382
Rp383
sg85
g86
sg87
g88
sbag4
(g5
g6
Ntp384
Rp385
(dp386
g10
g11
(g15
S'\x00\x00\x00\x00\x00\x00\xf8\xff'
p387
tp388
Rp389
sg99
g154
sg30
g31
sg32
(dp390
g99
g154
sg34
g11
(g15
S'H\r\xc2\x1f\x14EW@'
p391
tp392
Rp393
sg42
g11
(g15
S'\xae\xbcA\x91\x1fC\x06@'
p394
tp395
Rp396
ssg46
g11
(g12
(S'S3'
p397
I0
I1
tp398
Rp399
(I3
S'|'
p400
NNNI3
I1
I0
tp401
bS'PCA'
p402
tp403
Rp404
sg55
F0.2
sg42
g396
sg56
g11
(g12
(S'S3'
p405
I0
I1
tp406
Rp407
(I3
S'|'
p408
NNNI3
I1
I0
tp409
bS'VGG'
p410
tp411
Rp412
sg34
g393
sg65
g11
(g15
S'\x81+\xb2\xd9\x8a+\xe3?'
p413
tp414
Rp415
sg69
g11
(g12
(S'S3'
p416
I0
I1
tp417
Rp418
(I3
S'|'
p419
NNNI3
I1
I0
tp420
bS'SVM'
p421
tp422
Rp423
sg78
I3
sg79
g80
sg81
g11
(g15
S'\x80\x8en\x9cIh\xe7?'
p424
tp425
Rp426
sg85
g86
sg87
g88
sbag4
(g5
g6
Ntp427
Rp428
(dp429
g10
g11
(g15
S'\x00\x00\x00\x00\x00\x00\xf8\xff'
p430
tp431
Rp432
sg95
g11
(g15
S'\x00\x00\x00\x00\x00@e@'
p433
tp434
Rp435
sg30
g31
sg21
g11
(g24
S'\x04\x00\x00\x00\x00\x00\x00\x00'
p436
tp437
Rp438
sg32
(dp439
g95
g435
sg21
g438
sg38
g11
(g24
S'\x02\x00\x00\x00\x00\x00\x00\x00'
p440
tp441
Rp442
sg109
g11
(g15
S'\xa2\xf7\x02\xbb\xbd\xdd\xd5?'
p443
tp444
Rp445
ssg46
g11
(g12
(S'S6'
p446
I0
I1
tp447
Rp448
(I3
S'|'
p449
NNNI6
I1
I0
tp450
bS'ISOMAP'
p451
tp452
Rp453
sg55
F0.2
sg38
g442
sg56
g11
(g12
(S'S3'
p454
I0
I1
tp455
Rp456
(I3
S'|'
p457
NNNI3
I1
I0
tp458
bS'VGG'
p459
tp460
Rp461
sg65
g11
(g15
S'\xbc$\xce\x8e9c\xf0?'
p462
tp463
Rp464
sg69
g11
(g12
(S'S2'
p465
I0
I1
tp466
Rp467
(I3
S'|'
p468
NNNI2
I1
I0
tp469
bS'RF'
p470
tp471
Rp472
sg78
I3
sg109
g445
sg79
g80
sg81
g11
(g15
S'\x19&\xf9\xe6@c\xe9?'
p473
tp474
Rp475
sg85
g86
sg87
g88
sbag4
(g5
g6
Ntp476
Rp477
(dp478
g10
g11
(g15
S'\x00\x00\x00\x00\x00\x00\xf8\xff'
p479
tp480
Rp481
sg21
g11
(g24
S'\x03\x00\x00\x00\x00\x00\x00\x00'
p482
tp483
Rp484
sg30
g31
sg32
(dp485
g21
g484
sg34
g11
(g15
S'\xc5\xbdM\xaa\xcb\xf7X@'
p486
tp487
Rp488
sg317
g11
(g24
S'\x03\x00\x00\x00\x00\x00\x00\x00'
p489
tp490
Rp491
sg38
g11
(g24
S'\x02\x00\x00\x00\x00\x00\x00\x00'
p492
tp493
Rp494
sg42
g11
(g15
S'\x1e\xff\xa1s\xf0\x98\x11@'
p495
tp496
Rp497
ssg42
g497
sg46
g11
(g12
(S'S6'
p498
I0
I1
tp499
Rp500
(I3
S'|'
p501
NNNI6
I1
I0
tp502
bS'ISOMAP'
p503
tp504
Rp505
sg55
F0.2
sg38
g494
sg56
g11
(g12
(S'S8'
p506
I0
I1
tp507
Rp508
(I3
S'|'
p509
NNNI8
I1
I0
tp510
bS'haralick'
p511
tp512
Rp513
sg34
g488
sg317
g491
sg65
g11
(g15
S'\x84\xa6\xf3\x15@\xc9\xe4?'
p514
tp515
Rp516
sg69
g11
(g12
(S'S3'
p517
I0
I1
tp518
Rp519
(I3
S'|'
p520
NNNI3
I1
I0
tp521
bS'SVM'
p522
tp523
Rp524
sg78
I3
sg79
g80
sg81
g11
(g15
S'\x15\xffG\xb9\x91h\xe7?'
p525
tp526
Rp527
sg85
g86
sg87
g88
sbag4
(g5
g6
Ntp528
Rp529
(dp530
g10
g11
(g15
S'\x00\x00\x00\x00\x00\x00\xf8\xff'
p531
tp532
Rp533
sg99
g107
sg30
g31
sg32
(dp534
g99
g107
sg34
g11
(g15
S'5\xe6\x91K}C4@'
p535
tp536
Rp537
sg42
g11
(g15
S'\xfcl\x0e\xeb\x16\xe8\xf8?'
p538
tp539
Rp540
ssg46
g11
(g12
(S'S3'
p541
I0
I1
tp542
Rp543
(I3
S'|'
p544
NNNI3
I1
I0
tp545
bS'PCA'
p546
tp547
Rp548
sg55
F0.2
sg42
g540
sg56
g11
(g12
(S'S9'
p549
I0
I1
tp550
Rp551
(I3
S'|'
p552
NNNI9
I1
I0
tp553
bS'inception'
p554
tp555
Rp556
sg34
g537
sg65
g11
(g15
S'\x14C\x14\xc89z\xe3?'
p557
tp558
Rp559
sg69
g11
(g12
(S'S3'
p560
I0
I1
tp561
Rp562
(I3
S'|'
p563
NNNI3
I1
I0
tp564
bS'SVM'
p565
tp566
Rp567
sg78
I3
sg79
g80
sg81
g11
(g15
S'\x0e\xa6\xe3Pt>\xe5?'
p568
tp569
Rp570
sg85
g86
sg87
g88
sbag4
(g5
g6
Ntp571
Rp572
(dp573
g10
g11
(g15
S'\x00\x00\x00\x00\x00\x00\xf8\xff'
p574
tp575
Rp576
sg95
g11
(g15
S'\x00\x00\x00\x00\x00\xc0r@'
p577
tp578
Rp579
sg30
g31
sg21
g11
(g24
S'\x05\x00\x00\x00\x00\x00\x00\x00'
p580
tp581
Rp582
sg32
(dp583
g95
g579
sg21
g582
sg317
g11
(g24
S'\x03\x00\x00\x00\x00\x00\x00\x00'
p584
tp585
Rp586
sg38
g11
(g24
S'\x03\x00\x00\x00\x00\x00\x00\x00'
p587
tp588
Rp589
sg109
g11
(g15
S'7\xf8\xf7\xc3\x8c\x18\xdf?'
p590
tp591
Rp592
ssg46
g11
(g12
(S'S6'
p593
I0
I1
tp594
Rp595
(I3
S'|'
p596
NNNI6
I1
I0
tp597
bS'ISOMAP'
p598
tp599
Rp600
sg55
F0.2
sg38
g589
sg56
g11
(g12
(S'S8'
p601
I0
I1
tp602
Rp603
(I3
S'|'
p604
NNNI8
I1
I0
tp605
bS'haralick'
p606
tp607
Rp608
sg317
g586
sg65
g11
(g15
S'K\x90\xbdj\xf3\xf7\xe8?'
p609
tp610
Rp611
sg69
g11
(g12
(S'S2'
p612
I0
I1
tp613
Rp614
(I3
S'|'
p615
NNNI2
I1
I0
tp616
bS'RF'
p617
tp618
Rp619
sg78
I3
sg109
g592
sg79
g80
sg81
g11
(g15
S'tb\xb4f\x01a\xea?'
p620
tp621
Rp622
sg85
g86
sg87
g88
sbag90
ag144
ag4
(g5
g6
Ntp623
Rp624
(dp625
g10
g11
(g15
S'\x00\x00\x00\x00\x00\x00\xf8\xff'
p626
tp627
Rp628
sg95
g11
(g15
S'\x00\x00\x00\x00\x00\xc0p@'
p629
tp630
Rp631
sg99
g107
sg30
g31
sg32
(dp632
g95
g631
sg109
g11
(g15
S'x6,\xbb\xa6g\xd6?'
p633
tp634
Rp635
sg99
g107
sg317
g11
(g24
S'\x03\x00\x00\x00\x00\x00\x00\x00'
p636
tp637
Rp638
ssg46
g11
(g12
(S'S3'
p639
I0
I1
tp640
Rp641
(I3
S'|'
p642
NNNI3
I1
I0
tp643
bS'PCA'
p644
tp645
Rp646
sg55
F0.2
sg56
g11
(g12
(S'S8'
p647
I0
I1
tp648
Rp649
(I3
S'|'
p650
NNNI8
I1
I0
tp651
bS'haralick'
p652
tp653
Rp654
sg317
g638
sg65
g11
(g15
S'\x10\xf8\xf7\xcc\x0er\x00@'
p655
tp656
Rp657
sg69
g11
(g12
(S'S2'
p658
I0
I1
tp659
Rp660
(I3
S'|'
p661
NNNI2
I1
I0
tp662
bS'RF'
p663
tp664
Rp665
sg78
I3
sg109
g635
sg79
g80
sg81
g11
(g15
S'\x94\x8a\xcaK\x1a~\xe6?'
p666
tp667
Rp668
sg85
g86
sg87
g88
sbag4
(g5
g6
Ntp669
Rp670
(dp671
g10
g11
(g15
S'\x00\x00\x00\x00\x00\x00\xf8\xff'
p672
tp673
Rp674
sg95
g11
(g15
S'\x00\x00\x00\x00\x00@e@'
p675
tp676
Rp677
sg99
g107
sg30
g31
sg32
(dp678
g95
g677
sg109
g11
(g15
S'\x87\x1bIO\x98\xf5\xe5?'
p679
tp680
Rp681
sg99
g107
sg317
g11
(g24
S'\x03\x00\x00\x00\x00\x00\x00\x00'
p682
tp683
Rp684
ssg46
g11
(g12
(S'S3'
p685
I0
I1
tp686
Rp687
(I3
S'|'
p688
NNNI3
I1
I0
tp689
bS'PCA'
p690
tp691
Rp692
sg55
F0.2
sg56
g11
(g12
(S'S8'
p693
I0
I1
tp694
Rp695
(I3
S'|'
p696
NNNI8
I1
I0
tp697
bS'haralick'
p698
tp699
Rp700
sg317
g684
sg65
g11
(g15
S'kt\x03\x1f\xf5c\x00@'
p701
tp702
Rp703
sg69
g11
(g12
(S'S2'
p704
I0
I1
tp705
Rp706
(I3
S'|'
p707
NNNI2
I1
I0
tp708
bS'RF'
p709
tp710
Rp711
sg78
I3
sg109
g681
sg79
g80
sg81
g11
(g15
S'\x94\x8a\xcaK\x1a~\xe6?'
p712
tp713
Rp714
sg85
g86
sg87
g88
sbag4
(g5
g6
Ntp715
Rp716
(dp717
g10
g11
(g15
S'\x00\x00\x00\x00\x00\x00\xf8\xff'
p718
tp719
Rp720
sg95
g11
(g15
S'\x00\x00\x00\x00\x00@a@'
p721
tp722
Rp723
sg99
g154
sg30
g31
sg32
(dp724
g95
g723
sg109
g11
(g15
S'\xfd\xb3;1Y\x80\xe1?'
p725
tp726
Rp727
sg99
g154
sg317
g11
(g24
S'\x01\x00\x00\x00\x00\x00\x00\x00'
p728
tp729
Rp730
ssg46
g11
(g12
(S'S3'
p731
I0
I1
tp732
Rp733
(I3
S'|'
p734
NNNI3
I1
I0
tp735
bS'PCA'
p736
tp737
Rp738
sg55
F0.2
sg56
g11
(g12
(S'S8'
p739
I0
I1
tp740
Rp741
(I3
S'|'
p742
NNNI8
I1
I0
tp743
bS'haralick'
p744
tp745
Rp746
sg317
g730
sg65
g11
(g15
S'Yu\x86\xfe\xdc\x16\x03@'
p747
tp748
Rp749
sg69
g11
(g12
(S'S2'
p750
I0
I1
tp751
Rp752
(I3
S'|'
p753
NNNI2
I1
I0
tp754
bS'RF'
p755
tp756
Rp757
sg78
I3
sg109
g727
sg79
g80
sg81
g11
(g15
S'\xbd\x80\x8b\xe6\xe2Y\xe7?'
p758
tp759
Rp760
sg85
g86
sg87
g88
sbag4
(g5
g6
Ntp761
Rp762
(dp763
g10
g11
(g15
S'\x00\x00\x00\x00\x00\x00\xf8\xff'
p764
tp765
Rp766
sg21
g11
(g24
S'\x05\x00\x00\x00\x00\x00\x00\x00'
p767
tp768
Rp769
sg30
g31
sg32
(dp770
g21
g769
sg34
g11
(g15
S'\xdb\xdfs\xc3\xbe\xf0E@'
p771
tp772
Rp773
sg38
g11
(g24
S'\x04\x00\x00\x00\x00\x00\x00\x00'
p774
tp775
Rp776
sg42
g11
(g15
S'y=,\xa1\xb5\xca\x12@'
p777
tp778
Rp779
ssg42
g779
sg46
g11
(g12
(S'S6'
p780
I0
I1
tp781
Rp782
(I3
S'|'
p783
NNNI6
I1
I0
tp784
bS'ISOMAP'
p785
tp786
Rp787
sg55
F0.2
sg38
g776
sg56
g11
(g12
(S'S9'
p788
I0
I1
tp789
Rp790
(I3
S'|'
p791
NNNI9
I1
I0
tp792
bS'inception'
p793
tp794
Rp795
sg34
g773
sg65
g11
(g15
S'\xa8\xaa\xb6\x95\x81\x96\xe5?'
p796
tp797
Rp798
sg69
g11
(g12
(S'S3'
p799
I0
I1
tp800
Rp801
(I3
S'|'
p802
NNNI3
I1
I0
tp803
bS'SVM'
p804
tp805
Rp806
sg78
I3
sg79
g80
sg81
g11
(g15
S'\xd5\xec\xda\xff/a\xe4?'
p807
tp808
Rp809
sg85
g86
sg87
g88
sbag4
(g5
g6
Ntp810
Rp811
(dp812
g10
g11
(g15
S'\x00\x00\x00\x00\x00\x00\xf8\xff'
p813
tp814
Rp815
sg21
g11
(g24
S'\x04\x00\x00\x00\x00\x00\x00\x00'
p816
tp817
Rp818
sg30
g31
sg32
(dp819
g21
g818
sg34
g11
(g15
S'E\xce\x12\xe5aVP@'
p820
tp821
Rp822
sg38
g11
(g24
S'\x04\x00\x00\x00\x00\x00\x00\x00'
p823
tp824
Rp825
sg42
g11
(g15
S"\xdb\xa2\xd1\xc4-'\x18@"
p826
tp827
Rp828
ssg42
g828
sg46
g11
(g12
(S'S6'
p829
I0
I1
tp830
Rp831
(I3
S'|'
p832
NNNI6
I1
I0
tp833
bS'ISOMAP'
p834
tp835
Rp836
sg55
F0.2
sg38
g825
sg56
g11
(g12
(S'S3'
p837
I0
I1
tp838
Rp839
(I3
S'|'
p840
NNNI3
I1
I0
tp841
bS'VGG'
p842
tp843
Rp844
sg34
g822
sg65
g11
(g15
S'\xe3V\xc1GW\xe5\xe1?'
p845
tp846
Rp847
sg69
g11
(g12
(S'S3'
p848
I0
I1
tp849
Rp850
(I3
S'|'
p851
NNNI3
I1
I0
tp852
bS'SVM'
p853
tp854
Rp855
sg78
I3
sg79
g80
sg81
g11
(g15
S'\xa1@\xf9\x045\xf4\xe8?'
p856
tp857
Rp858
sg85
g86
sg87
g88
sbag4
(g5
g6
Ntp859
Rp860
(dp861
g10
g11
(g15
S'\x00\x00\x00\x00\x00\x00\xf8\xff'
p862
tp863
Rp864
sg95
g11
(g15
S'\x00\x00\x00\x00\x00\x00 @'
p865
tp866
Rp867
sg30
g31
sg21
g11
(g24
S'\x03\x00\x00\x00\x00\x00\x00\x00'
p868
tp869
Rp870
sg32
(dp871
g95
g867
sg21
g870
sg38
g11
(g24
S'\x02\x00\x00\x00\x00\x00\x00\x00'
p872
tp873
Rp874
sg109
g11
(g15
S"\x083\xddm\xda'\xef?"
p875
tp876
Rp877
ssg46
g11
(g12
(S'S6'
p878
I0
I1
tp879
Rp880
(I3
S'|'
p881
NNNI6
I1
I0
tp882
bS'ISOMAP'
p883
tp884
Rp885
sg55
F0.2
sg38
g874
sg56
g11
(g12
(S'S9'
p886
I0
I1
tp887
Rp888
(I3
S'|'
p889
NNNI9
I1
I0
tp890
bS'inception'
p891
tp892
Rp893
sg65
g11
(g15
S'\xfd\xe3\x91j\xec\x08\x0c@'
p894
tp895
Rp896
sg69
g11
(g12
(S'S2'
p897
I0
I1
tp898
Rp899
(I3
S'|'
p900
NNNI2
I1
I0
tp901
bS'RF'
p902
tp903
Rp904
sg78
I3
sg109
g877
sg79
g80
sg81
g11
(g15
S'u\x95v\xae)/\xe4?'
p905
tp906
Rp907
sg85
g86
sg87
g88
sbag4
(g5
g6
Ntp908
Rp909
(dp910
g10
g11
(g15
S'\x00\x00\x00\x00\x00\x00\xf8\xff'
p911
tp912
Rp913
sg95
g11
(g15
S'\x00\x00\x00\x00\x00\x00 @'
p914
tp915
Rp916
sg30
g31
sg21
g11
(g24
S'\x07\x00\x00\x00\x00\x00\x00\x00'
p917
tp918
Rp919
sg32
(dp920
g95
g916
sg21
g919
sg38
g11
(g24
S'\x03\x00\x00\x00\x00\x00\x00\x00'
p921
tp922
Rp923
sg109
g11
(g15
S'\x88e\xb1\xc5ES\xed?'
p924
tp925
Rp926
ssg46
g11
(g12
(S'S6'
p927
I0
I1
tp928
Rp929
(I3
S'|'
p930
NNNI6
I1
I0
tp931
bS'ISOMAP'
p932
tp933
Rp934
sg55
F0.2
sg38
g923
sg56
g11
(g12
(S'S9'
p935
I0
I1
tp936
Rp937
(I3
S'|'
p938
NNNI9
I1
I0
tp939
bS'inception'
p940
tp941
Rp942
sg65
g11
(g15
S'\r\xca\xe1\x83\x02\xc5\x05@'
p943
tp944
Rp945
sg69
g11
(g12
(S'S2'
p946
I0
I1
tp947
Rp948
(I3
S'|'
p949
NNNI2
I1
I0
tp950
bS'RF'
p951
tp952
Rp953
sg78
I3
sg109
g926
sg79
g80
sg81
g11
(g15
S'\xbb\x89\xb0\xf6\x9a\xda\xe6?'
p954
tp955
Rp956
sg85
g86
sg87
g88
sbag4
(g5
g6
Ntp957
Rp958
(dp959
g10
g11
(g15
S'\x00\x00\x00\x00\x00\x00\xf8\xff'
p960
tp961
Rp962
sg99
g154
sg30
g31
sg32
(dp963
g99
g154
sg34
g11
(g15
S'i\x92\xdc\x1e\x93\xc2M@'
p964
tp965
Rp966
sg42
g11
(g15
S'"i\xae\xef\xbb\xbc\x05@'
p967
tp968
Rp969
ssg46
g11
(g12
(S'S3'
p970
I0
I1
tp971
Rp972
(I3
S'|'
p973
NNNI3
I1
I0
tp974
bS'PCA'
p975
tp976
Rp977
sg55
F0.2
sg42
g969
sg56
g11
(g12
(S'S3'
p978
I0
I1
tp979
Rp980
(I3
S'|'
p981
NNNI3
I1
I0
tp982
bS'VGG'
p983
tp984
Rp985
sg34
g966
sg65
g11
(g15
S'\xbc\xc0\x15\xbb\xa3\x1c\xe3?'
p986
tp987
Rp988
sg69
g11
(g12
(S'S3'
p989
I0
I1
tp990
Rp991
(I3
S'|'
p992
NNNI3
I1
I0
tp993
bS'SVM'
p994
tp995
Rp996
sg78
I3
sg79
g80
sg81
g11
(g15
S'\x13=\x1a\x10\xa0H\xe7?'
p997
tp998
Rp999
sg85
g86
sg87
g88
sbag4
(g5
g6
Ntp1000
Rp1001
(dp1002
g10
g11
(g15
S'\x00\x00\x00\x00\x00\x00\xf8\xff'
p1003
tp1004
Rp1005
sg21
g11
(g24
S'\x05\x00\x00\x00\x00\x00\x00\x00'
p1006
tp1007
Rp1008
sg30
g31
sg32
(dp1009
g21
g1008
sg34
g11
(g15
S'\n\xef\xdd\xe8\xd6\xf0N@'
p1010
tp1011
Rp1012
sg38
g11
(g24
S'\x02\x00\x00\x00\x00\x00\x00\x00'
p1013
tp1014
Rp1015
sg42
g11
(g15
S'\xa0I\x9b\xf8z\xff\xec?'
p1016
tp1017
Rp1018
ssg42
g1018
sg46
g11
(g12
(S'S6'
p1019
I0
I1
tp1020
Rp1021
(I3
S'|'
p1022
NNNI6
I1
I0
tp1023
bS'ISOMAP'
p1024
tp1025
Rp1026
sg55
F0.2
sg38
g1015
sg56
g11
(g12
(S'S9'
p1027
I0
I1
tp1028
Rp1029
(I3
S'|'
p1030
NNNI9
I1
I0
tp1031
bS'inception'
p1032
tp1033
Rp1034
sg34
g1012
sg65
g11
(g15
S'\x00Q\x8cY\xf6D\xe6?'
p1035
tp1036
Rp1037
sg69
g11
(g12
(S'S3'
p1038
I0
I1
tp1039
Rp1040
(I3
S'|'
p1041
NNNI3
I1
I0
tp1042
bS'SVM'
p1043
tp1044
Rp1045
sg78
I3
sg79
g80
sg81
g11
(g15
S'\xdf\x16\xd6\xd0\xfc\x94\xe3?'
p1046
tp1047
Rp1048
sg85
g86
sg87
g88
sbag4
(g5
g6
Ntp1049
Rp1050
(dp1051
g10
g11
(g15
S'\x00\x00\x00\x00\x00\x00\xf8\xff'
p1052
tp1053
Rp1054
sg99
g154
sg30
g31
sg32
(dp1055
g99
g154
sg34
g11
(g15
S'BL\xb8\xbfaXQ@'
p1056
tp1057
Rp1058
sg317
g11
(g24
S'\x03\x00\x00\x00\x00\x00\x00\x00'
p1059
tp1060
Rp1061
sg42
g11
(g15
S'\xf5m\xcbW\x9cg\t@'
p1062
tp1063
Rp1064
ssg46
g11
(g12
(S'S3'
p1065
I0
I1
tp1066
Rp1067
(I3
S'|'
p1068
NNNI3
I1
I0
tp1069
bS'PCA'
p1070
tp1071
Rp1072
sg55
F0.2
sg42
g1064
sg56
g11
(g12
(S'S8'
p1073
I0
I1
tp1074
Rp1075
(I3
S'|'
p1076
NNNI8
I1
I0
tp1077
bS'haralick'
p1078
tp1079
Rp1080
sg34
g1058
sg317
g1061
sg65
g11
(g15
S'\x12\x1b\xa3\x9e~\x87\xe0?'
p1081
tp1082
Rp1083
sg69
g11
(g12
(S'S3'
p1084
I0
I1
tp1085
Rp1086
(I3
S'|'
p1087
NNNI3
I1
I0
tp1088
bS'SVM'
p1089
tp1090
Rp1091
sg78
I3
sg79
g80
sg81
g11
(g15
S'QX\xbe\xac\x9a\xf2\xe3?'
p1092
tp1093
Rp1094
sg85
g86
sg87
g88
sbag4
(g5
g6
Ntp1095
Rp1096
(dp1097
g10
g11
(g15
S'\x00\x00\x00\x00\x00\x00\xf8\xff'
p1098
tp1099
Rp1100
sg99
g107
sg30
g31
sg32
(dp1101
g99
g107
sg34
g11
(g15
S'\x02\xd1P\xbeB\x05?@'
p1102
tp1103
Rp1104
sg317
g11
(g24
S'\x01\x00\x00\x00\x00\x00\x00\x00'
p1105
tp1106
Rp1107
sg42
g11
(g15
S'\xba\xd9\xee\xb7t\xcf\xe0?'
p1108
tp1109
Rp1110
ssg46
g11
(g12
(S'S3'
p1111
I0
I1
tp1112
Rp1113
(I3
S'|'
p1114
NNNI3
I1
I0
tp1115
bS'PCA'
p1116
tp1117
Rp1118
sg55
F0.2
sg42
g1110
sg56
g11
(g12
(S'S8'
p1119
I0
I1
tp1120
Rp1121
(I3
S'|'
p1122
NNNI8
I1
I0
tp1123
bS'haralick'
p1124
tp1125
Rp1126
sg34
g1104
sg317
g1107
sg65
g11
(g15
S'\xdc\x9d\xd3\xcdA@\xdf?'
p1127
tp1128
Rp1129
sg69
g11
(g12
(S'S3'
p1130
I0
I1
tp1131
Rp1132
(I3
S'|'
p1133
NNNI3
I1
I0
tp1134
bS'SVM'
p1135
tp1136
Rp1137
sg78
I3
sg79
g80
sg81
g11
(g15
S'-\x9a\x8d\xa4\xd9\xbb\xe6?'
p1138
tp1139
Rp1140
sg85
g86
sg87
g88
sbag4
(g5
g6
Ntp1141
Rp1142
(dp1143
g10
g11
(g15
S'\x00\x00\x00\x00\x00\x00\xf8\xff'
p1144
tp1145
Rp1146
sg21
g11
(g24
S'\x05\x00\x00\x00\x00\x00\x00\x00'
p1147
tp1148
Rp1149
sg30
g31
sg32
(dp1150
g21
g1149
sg34
g11
(g15
S'Mo\xa1do\x98V@'
p1151
tp1152
Rp1153
sg317
g11
(g24
S'\x01\x00\x00\x00\x00\x00\x00\x00'
p1154
tp1155
Rp1156
sg38
g11
(g24
S'\x03\x00\x00\x00\x00\x00\x00\x00'
p1157
tp1158
Rp1159
sg42
g11
(g15
S'M\xe6\x94\x18\xd6\x99\x15@'
p1160
tp1161
Rp1162
ssg42
g1162
sg46
g11
(g12
(S'S6'
p1163
I0
I1
tp1164
Rp1165
(I3
S'|'
p1166
NNNI6
I1
I0
tp1167
bS'ISOMAP'
p1168
tp1169
Rp1170
sg55
F0.2
sg38
g1159
sg56
g11
(g12
(S'S8'
p1171
I0
I1
tp1172
Rp1173
(I3
S'|'
p1174
NNNI8
I1
I0
tp1175
bS'haralick'
p1176
tp1177
Rp1178
sg34
g1153
sg317
g1156
sg65
g11
(g15
S'\x18A\x15( \xa9\xe1?'
p1179
tp1180
Rp1181
sg69
g11
(g12
(S'S3'
p1182
I0
I1
tp1183
Rp1184
(I3
S'|'
p1185
NNNI3
I1
I0
tp1186
bS'SVM'
p1187
tp1188
Rp1189
sg78
I3
sg79
g80
sg81
g11
(g15
S'\xc1\xd6C\xefN/\xe5?'
p1190
tp1191
Rp1192
sg85
g86
sg87
g88
sbag190
ag4
(g5
g6
Ntp1193
Rp1194
(dp1195
g10
g11
(g15
S'\x00\x00\x00\x00\x00\x00\xf8\xff'
p1196
tp1197
Rp1198
sg95
g11
(g15
S'\x00\x00\x00\x00\x00@a@'
p1199
tp1200
Rp1201
sg99
g154
sg30
g31
sg32
(dp1202
g95
g1201
sg109
g11
(g15
S'\xce\x19\xcdI\x17F\xe5?'
p1203
tp1204
Rp1205
sg99
g154
sg317
g11
(g24
S'\x01\x00\x00\x00\x00\x00\x00\x00'
p1206
tp1207
Rp1208
ssg46
g11
(g12
(S'S3'
p1209
I0
I1
tp1210
Rp1211
(I3
S'|'
p1212
NNNI3
I1
I0
tp1213
bS'PCA'
p1214
tp1215
Rp1216
sg55
F0.2
sg56
g11
(g12
(S'S8'
p1217
I0
I1
tp1218
Rp1219
(I3
S'|'
p1220
NNNI8
I1
I0
tp1221
bS'haralick'
p1222
tp1223
Rp1224
sg317
g1208
sg65
g11
(g15
S'\xbb\xf5Z:^\xf2\x02@'
p1225
tp1226
Rp1227
sg69
g11
(g12
(S'S2'
p1228
I0
I1
tp1229
Rp1230
(I3
S'|'
p1231
NNNI2
I1
I0
tp1232
bS'RF'
p1233
tp1234
Rp1235
sg78
I3
sg109
g1205
sg79
g80
sg81
g11
(g15
S'\xbd\x80\x8b\xe6\xe2Y\xe7?'
p1236
tp1237
Rp1238
sg85
g86
sg87
g88
sbag4
(g5
g6
Ntp1239
Rp1240
(dp1241
g10
g11
(g15
S'\x00\x00\x00\x00\x00\x00\xf8\xff'
p1242
tp1243
Rp1244
sg95
g11
(g15
S'\x00\x00\x00\x00\x00\xc0p@'
p1245
tp1246
Rp1247
sg30
g31
sg21
g11
(g24
S'\x03\x00\x00\x00\x00\x00\x00\x00'
p1248
tp1249
Rp1250
sg32
(dp1251
g95
g1247
sg21
g1250
sg38
g11
(g24
S'\x04\x00\x00\x00\x00\x00\x00\x00'
p1252
tp1253
Rp1254
sg109
g11
(g15
S'E.\x96b\x03\xa8\xd6?'
p1255
tp1256
Rp1257
ssg46
g11
(g12
(S'S6'
p1258
I0
I1
tp1259
Rp1260
(I3
S'|'
p1261
NNNI6
I1
I0
tp1262
bS'ISOMAP'
p1263
tp1264
Rp1265
sg55
F0.2
sg38
g1254
sg56
g11
(g12
(S'S3'
p1266
I0
I1
tp1267
Rp1268
(I3
S'|'
p1269
NNNI3
I1
I0
tp1270
bS'VGG'
p1271
tp1272
Rp1273
sg65
g11
(g15
S'\x9dDS\x1a\xbf\xd7\xe5?'
p1274
tp1275
Rp1276
sg69
g11
(g12
(S'S2'
p1277
I0
I1
tp1278
Rp1279
(I3
S'|'
p1280
NNNI2
I1
I0
tp1281
bS'RF'
p1282
tp1283
Rp1284
sg78
I3
sg109
g1257
sg79
g80
sg81
g11
(g15
S'}\xe2\xa3\x19\x90#\xe9?'
p1285
tp1286
Rp1287
sg85
g86
sg87
g88
sbag4
(g5
g6
Ntp1288
Rp1289
(dp1290
g10
g11
(g15
S'\x00\x00\x00\x00\x00\x00\xf8\xff'
p1291
tp1292
Rp1293
sg95
g11
(g15
S'\x00\x00\x00\x00\x00`i@'
p1294
tp1295
Rp1296
sg30
g31
sg21
g11
(g24
S'\x06\x00\x00\x00\x00\x00\x00\x00'
p1297
tp1298
Rp1299
sg32
(dp1300
g95
g1296
sg21
g1299
sg38
g11
(g24
S'\x02\x00\x00\x00\x00\x00\x00\x00'
p1301
tp1302
Rp1303
sg109
g11
(g15
S'\xb2t\xd4\x90~\xe0\xe1?'
p1304
tp1305
Rp1306
ssg46
g11
(g12
(S'S6'
p1307
I0
I1
tp1308
Rp1309
(I3
S'|'
p1310
NNNI6
I1
I0
tp1311
bS'ISOMAP'
p1312
tp1313
Rp1314
sg55
F0.2
sg38
g1303
sg56
g11
(g12
(S'S3'
p1315
I0
I1
tp1316
Rp1317
(I3
S'|'
p1318
NNNI3
I1
I0
tp1319
bS'VGG'
p1320
tp1321
Rp1322
sg65
g11
(g15
S'D\xb7I?\xa6\x03\xe6?'
p1323
tp1324
Rp1325
sg69
g11
(g12
(S'S2'
p1326
I0
I1
tp1327
Rp1328
(I3
S'|'
p1329
NNNI2
I1
I0
tp1330
bS'RF'
p1331
tp1332
Rp1333
sg78
I3
sg109
g1306
sg79
g80
sg81
g11
(g15
S'(`\xef6\x01\xd5\xe8?'
p1334
tp1335
Rp1336
sg85
g86
sg87
g88
sbag4
(g5
g6
Ntp1337
Rp1338
(dp1339
g10
g11
(g15
S'\x00\x00\x00\x00\x00\x00\xf8\xff'
p1340
tp1341
Rp1342
sg21
g11
(g24
S'\x07\x00\x00\x00\x00\x00\x00\x00'
p1343
tp1344
Rp1345
sg30
g31
sg32
(dp1346
g21
g1345
sg34
g11
(g15
S"\xb4#\xd9\xc4'\x1f?@"
p1347
tp1348
Rp1349
sg317
g11
(g24
S'\x03\x00\x00\x00\x00\x00\x00\x00'
p1350
tp1351
Rp1352
sg38
g11
(g24
S'\x02\x00\x00\x00\x00\x00\x00\x00'
p1353
tp1354
Rp1355
sg42
g11
(g15
S'\xd9M\xfc@\xe6Q\x14@'
p1356
tp1357
Rp1358
ssg42
g1358
sg46
g11
(g12
(S'S6'
p1359
I0
I1
tp1360
Rp1361
(I3
S'|'
p1362
NNNI6
I1
I0
tp1363
bS'ISOMAP'
p1364
tp1365
Rp1366
sg55
F0.2
sg38
g1355
sg56
g11
(g12
(S'S8'
p1367
I0
I1
tp1368
Rp1369
(I3
S'|'
p1370
NNNI8
I1
I0
tp1371
bS'haralick'
p1372
tp1373
Rp1374
sg34
g1349
sg317
g1352
sg65
g11
(g15
S'TYZ\x1bU\xe3\xdd?'
p1375
tp1376
Rp1377
sg69
g11
(g12
(S'S3'
p1378
I0
I1
tp1379
Rp1380
(I3
S'|'
p1381
NNNI3
I1
I0
tp1382
bS'SVM'
p1383
tp1384
Rp1385
sg78
I3
sg79
g80
sg81
g11
(g15
S'\xe7\xed\xa6`\x83g\xe8?'
p1386
tp1387
Rp1388
sg85
g86
sg87
g88
sbag4
(g5
g6
Ntp1389
Rp1390
(dp1391
g10
g11
(g15
S'\x00\x00\x00\x00\x00\x00\xf8\xff'
p1392
tp1393
Rp1394
sg99
g154
sg30
g31
sg32
(dp1395
g99
g154
sg34
g11
(g15
S'I?H\xdekRG@'
p1396
tp1397
Rp1398
sg42
g11
(g15
S'\x94E\xa9.\x1e\xfe\x17@'
p1399
tp1400
Rp1401
ssg46
g11
(g12
(S'S3'
p1402
I0
I1
tp1403
Rp1404
(I3
S'|'
p1405
NNNI3
I1
I0
tp1406
bS'PCA'
p1407
tp1408
Rp1409
sg55
F0.2
sg42
g1401
sg56
g11
(g12
(S'S9'
p1410
I0
I1
tp1411
Rp1412
(I3
S'|'
p1413
NNNI9
I1
I0
tp1414
bS'inception'
p1415
tp1416
Rp1417
sg34
g1398
sg65
g11
(g15
S'\xa9J\xec\x1ap\xa5\xe3?'
p1418
tp1419
Rp1420
sg69
g11
(g12
(S'S3'
p1421
I0
I1
tp1422
Rp1423
(I3
S'|'
p1424
NNNI3
I1
I0
tp1425
bS'SVM'
p1426
tp1427
Rp1428
sg78
I3
sg79
g80
sg81
g11
(g15
S'\xad\xc6\xd7\xe2=N\xe5?'
p1429
tp1430
Rp1431
sg85
g86
sg87
g88
sbag4
(g5
g6
Ntp1432
Rp1433
(dp1434
g10
g11
(g15
S'\x00\x00\x00\x00\x00\x00\xf8\xff'
p1435
tp1436
Rp1437
sg95
g11
(g15
S'\x00\x00\x00\x00\x00\x00D@'
p1438
tp1439
Rp1440
sg30
g31
sg21
g11
(g24
S'\x05\x00\x00\x00\x00\x00\x00\x00'
p1441
tp1442
Rp1443
sg32
(dp1444
g95
g1440
sg21
g1443
sg317
g11
(g24
S'\x01\x00\x00\x00\x00\x00\x00\x00'
p1445
tp1446
Rp1447
sg38
g11
(g24
S'\x03\x00\x00\x00\x00\x00\x00\x00'
p1448
tp1449
Rp1450
sg109
g11
(g15
S'D2\xb2\x05\xfe\xb0\xee?'
p1451
tp1452
Rp1453
ssg46
g11
(g12
(S'S6'
p1454
I0
I1
tp1455
Rp1456
(I3
S'|'
p1457
NNNI6
I1
I0
tp1458
bS'ISOMAP'
p1459
tp1460
Rp1461
sg55
F0.2
sg38
g1450
sg56
g11
(g12
(S'S8'
p1462
I0
I1
tp1463
Rp1464
(I3
S'|'
p1465
NNNI8
I1
I0
tp1466
bS'haralick'
p1467
tp1468
Rp1469
sg317
g1447
sg65
g11
(g15
S'\x89p\xc6\x86\x9f\x08\x01@'
p1470
tp1471
Rp1472
sg69
g11
(g12
(S'S2'
p1473
I0
I1
tp1474
Rp1475
(I3
S'|'
p1476
NNNI2
I1
I0
tp1477
bS'RF'
p1478
tp1479
Rp1480
sg78
I3
sg109
g1453
sg79
g80
sg81
g11
(g15
S'\x1d\x95\xef\x16\xe4\xd7\xe7?'
p1481
tp1482
Rp1483
sg85
g86
sg87
g88
sbag4
(g5
g6
Ntp1484
Rp1485
(dp1486
g10
g11
(g15
S'\x00\x00\x00\x00\x00\x00\xf8\xff'
p1487
tp1488
Rp1489
sg95
g11
(g15
S'\x00\x00\x00\x00\x00@a@'
p1490
tp1491
Rp1492
sg99
g154
sg30
g31
sg32
(dp1493
g95
g1492
sg109
g11
(g15
S'\x9c~V\xbctD\xe3?'
p1494
tp1495
Rp1496
sg99
g154
sg317
g11
(g24
S'\x03\x00\x00\x00\x00\x00\x00\x00'
p1497
tp1498
Rp1499
ssg46
g11
(g12
(S'S3'
p1500
I0
I1
tp1501
Rp1502
(I3
S'|'
p1503
NNNI3
I1
I0
tp1504
bS'PCA'
p1505
tp1506
Rp1507
sg55
F0.2
sg56
g11
(g12
(S'S8'
p1508
I0
I1
tp1509
Rp1510
(I3
S'|'
p1511
NNNI8
I1
I0
tp1512
bS'haralick'
p1513
tp1514
Rp1515
sg317
g1499
sg65
g11
(g15
S'\xf3\t\xef\xe3(0\x02@'
p1516
tp1517
Rp1518
sg69
g11
(g12
(S'S2'
p1519
I0
I1
tp1520
Rp1521
(I3
S'|'
p1522
NNNI2
I1
I0
tp1523
bS'RF'
p1524
tp1525
Rp1526
sg78
I3
sg109
g1496
sg79
g80
sg81
g11
(g15
S'\x94\x8a\xcaK\x1a~\xe6?'
p1527
tp1528
Rp1529
sg85
g86
sg87
g88
sbag4
(g5
g6
Ntp1530
Rp1531
(dp1532
g10
g11
(g15
S'\x00\x00\x00\x00\x00\x00\xf8\xff'
p1533
tp1534
Rp1535
sg21
g11
(g24
S'\x03\x00\x00\x00\x00\x00\x00\x00'
p1536
tp1537
Rp1538
sg30
g31
sg32
(dp1539
g21
g1538
sg34
g11
(g15
S'\xd5\x84"^*\x9d;@'
p1540
tp1541
Rp1542
sg38
g11
(g24
S'\x03\x00\x00\x00\x00\x00\x00\x00'
p1543
tp1544
Rp1545
sg42
g11
(g15
S'\x8a`\x9c(k\xd1\r@'
p1546
tp1547
Rp1548
ssg42
g1548
sg46
g11
(g12
(S'S6'
p1549
I0
I1
tp1550
Rp1551
(I3
S'|'
p1552
NNNI6
I1
I0
tp1553
bS'ISOMAP'
p1554
tp1555
Rp1556
sg55
F0.2
sg38
g1545
sg56
g11
(g12
(S'S3'
p1557
I0
I1
tp1558
Rp1559
(I3
S'|'
p1560
NNNI3
I1
I0
tp1561
bS'VGG'
p1562
tp1563
Rp1564
sg34
g1542
sg65
g11
(g15
S'\xcb\xdep\xb7S\xf5\xe0?'
p1565
tp1566
Rp1567
sg69
g11
(g12
(S'S3'
p1568
I0
I1
tp1569
Rp1570
(I3
S'|'
p1571
NNNI3
I1
I0
tp1572
bS'SVM'
p1573
tp1574
Rp1575
sg78
I3
sg79
g80
sg81
g11
(g15
S',\xcd]\xee(g\xe8?'
p1576
tp1577
Rp1578
sg85
g86
sg87
g88
sbag4
(g5
g6
Ntp1579
Rp1580
(dp1581
g10
g11
(g15
S'\x00\x00\x00\x00\x00\x00\xf8\xff'
p1582
tp1583
Rp1584
sg21
g11
(g24
S'\x04\x00\x00\x00\x00\x00\x00\x00'
p1585
tp1586
Rp1587
sg30
g31
sg32
(dp1588
g21
g1587
sg34
g11
(g15
S'\xe4\x99\x16\xd7U\xf6P@'
p1589
tp1590
Rp1591
sg38
g11
(g24
S'\x02\x00\x00\x00\x00\x00\x00\x00'
p1592
tp1593
Rp1594
sg42
g11
(g15
S'\x8c\xb6\xe2~\xcc(\x0b@'
p1595
tp1596
Rp1597
ssg42
g1597
sg46
g11
(g12
(S'S6'
p1598
I0
I1
tp1599
Rp1600
(I3
S'|'
p1601
NNNI6
I1
I0
tp1602
bS'ISOMAP'
p1603
tp1604
Rp1605
sg55
F0.2
sg38
g1594
sg56
g11
(g12
(S'S3'
p1606
I0
I1
tp1607
Rp1608
(I3
S'|'
p1609
NNNI3
I1
I0
tp1610
bS'VGG'
p1611
tp1612
Rp1613
sg34
g1591
sg65
g11
(g15
S'\x1f\xaf\xe4}.}\xe2?'
p1614
tp1615
Rp1616
sg69
g11
(g12
(S'S3'
p1617
I0
I1
tp1618
Rp1619
(I3
S'|'
p1620
NNNI3
I1
I0
tp1621
bS'SVM'
p1622
tp1623
Rp1624
sg78
I3
sg79
g80
sg81
g11
(g15
S'\xd3\xa8\x19~\xa7\xe9\xe6?'
p1625
tp1626
Rp1627
sg85
g86
sg87
g88
sbag4
(g5
g6
Ntp1628
Rp1629
(dp1630
g10
g11
(g15
S'\x00\x00\x00\x00\x00\x00\xf8\xff'
p1631
tp1632
Rp1633
sg21
g11
(g24
S'\x03\x00\x00\x00\x00\x00\x00\x00'
p1634
tp1635
Rp1636
sg30
g31
sg32
(dp1637
g21
g1636
sg34
g11
(g15
S'\x02\xf5v\xbe\xa1\xecH@'
p1638
tp1639
Rp1640
sg38
g11
(g24
S'\x02\x00\x00\x00\x00\x00\x00\x00'
p1641
tp1642
Rp1643
sg42
g11
(g15
S'\x1b\xfa[\xa4\x80\xaf\xb0?'
p1644
tp1645
Rp1646
ssg42
g1646
sg46
g11
(g12
(S'S6'
p1647
I0
I1
tp1648
Rp1649
(I3
S'|'
p1650
NNNI6
I1
I0
tp1651
bS'ISOMAP'
p1652
tp1653
Rp1654
sg55
F0.2
sg38
g1643
sg56
g11
(g12
(S'S3'
p1655
I0
I1
tp1656
Rp1657
(I3
S'|'
p1658
NNNI3
I1
I0
tp1659
bS'VGG'
p1660
tp1661
Rp1662
sg34
g1640
sg65
g11
(g15
S'C^\x93k$9\xe1?'
p1663
tp1664
Rp1665
sg69
g11
(g12
(S'S3'
p1666
I0
I1
tp1667
Rp1668
(I3
S'|'
p1669
NNNI3
I1
I0
tp1670
bS'SVM'
p1671
tp1672
Rp1673
sg78
I3
sg79
g80
sg81
g11
(g15
S'\xb5\x12\xff\xfe\xf9\xb0\xe5?'
p1674
tp1675
Rp1676
sg85
g86
sg87
g88
sbag4
(g5
g6
Ntp1677
Rp1678
(dp1679
g10
g11
(g15
S'\x00\x00\x00\x00\x00\x00\xf8\xff'
p1680
tp1681
Rp1682
sg21
g11
(g24
S'\x06\x00\x00\x00\x00\x00\x00\x00'
p1683
tp1684
Rp1685
sg30
g31
sg32
(dp1686
g21
g1685
sg34
g11
(g15
S'\xebQN\xfc\x88\x831@'
p1687
tp1688
Rp1689
sg38
g11
(g24
S'\x04\x00\x00\x00\x00\x00\x00\x00'
p1690
tp1691
Rp1692
sg42
g11
(g15
S'\x9d\n\x00\xdf\x83\x16\x1a@'
p1693
tp1694
Rp1695
ssg42
g1695
sg46
g11
(g12
(S'S6'
p1696
I0
I1
tp1697
Rp1698
(I3
S'|'
p1699
NNNI6
I1
I0
tp1700
bS'ISOMAP'
p1701
tp1702
Rp1703
sg55
F0.2
sg38
g1692
sg56
g11
(g12
(S'S9'
p1704
I0
I1
tp1705
Rp1706
(I3
S'|'
p1707
NNNI9
I1
I0
tp1708
bS'inception'
p1709
tp1710
Rp1711
sg34
g1689
sg65
g11
(g15
S'\xf8B\xa3\x0f\xd6?\xe4?'
p1712
tp1713
Rp1714
sg69
g11
(g12
(S'S3'
p1715
I0
I1
tp1716
Rp1717
(I3
S'|'
p1718
NNNI3
I1
I0
tp1719
bS'SVM'
p1720
tp1721
Rp1722
sg78
I3
sg79
g80
sg81
g11
(g15
S'\xc7\xb0\xe8\xa7\x7f\xcf\xe4?'
p1723
tp1724
Rp1725
sg85
g86
sg87
g88
sbag4
(g5
g6
Ntp1726
Rp1727
(dp1728
g10
g11
(g15
S'\x00\x00\x00\x00\x00\x00\xf8\xff'
p1729
tp1730
Rp1731
sg21
g11
(g24
S'\x05\x00\x00\x00\x00\x00\x00\x00'
p1732
tp1733
Rp1734
sg30
g31
sg32
(dp1735
g21
g1734
sg34
g11
(g15
S'\xd6\xd8\x7f{H\xfa:@'
p1736
tp1737
Rp1738
sg38
g11
(g24
S'\x02\x00\x00\x00\x00\x00\x00\x00'
p1739
tp1740
Rp1741
sg42
g11
(g15
S'\x05<\x08\x0eL\x91\x1a@'
p1742
tp1743
Rp1744
ssg42
g1744
sg46
g11
(g12
(S'S6'
p1745
I0
I1
tp1746
Rp1747
(I3
S'|'
p1748
NNNI6
I1
I0
tp1749
bS'ISOMAP'
p1750
tp1751
Rp1752
sg55
F0.2
sg38
g1741
sg56
g11
(g12
(S'S9'
p1753
I0
I1
tp1754
Rp1755
(I3
S'|'
p1756
NNNI9
I1
I0
tp1757
bS'inception'
p1758
tp1759
Rp1760
sg34
g1738
sg65
g11
(g15
S'-\xdf\x81\xb3HU\xe7?'
p1761
tp1762
Rp1763
sg69
g11
(g12
(S'S3'
p1764
I0
I1
tp1765
Rp1766
(I3
S'|'
p1767
NNNI3
I1
I0
tp1768
bS'SVM'
p1769
tp1770
Rp1771
sg78
I3
sg79
g80
sg81
g11
(g15
S'k%bN\xc5\xa3\xe3?'
p1772
tp1773
Rp1774
sg85
g86
sg87
g88
sbag4
(g5
g6
Ntp1775
Rp1776
(dp1777
g10
g11
(g15
S'\x00\x00\x00\x00\x00\x00\xf8\xff'
p1778
tp1779
Rp1780
sg95
g11
(g15
S'\x00\x00\x00\x00\x00`i@'
p1781
tp1782
Rp1783
sg30
g31
sg21
g11
(g24
S'\x07\x00\x00\x00\x00\x00\x00\x00'
p1784
tp1785
Rp1786
sg32
(dp1787
g95
g1783
sg21
g1786
sg317
g11
(g24
S'\x03\x00\x00\x00\x00\x00\x00\x00'
p1788
tp1789
Rp1790
sg38
g11
(g24
S'\x03\x00\x00\x00\x00\x00\x00\x00'
p1791
tp1792
Rp1793
sg109
g11
(g15
S'\xc8\xf1\xd3t\xff\x82\xe6?'
p1794
tp1795
Rp1796
ssg46
g11
(g12
(S'S6'
p1797
I0
I1
tp1798
Rp1799
(I3
S'|'
p1800
NNNI6
I1
I0
tp1801
bS'ISOMAP'
p1802
tp1803
Rp1804
sg55
F0.2
sg38
g1793
sg56
g11
(g12
(S'S8'
p1805
I0
I1
tp1806
Rp1807
(I3
S'|'
p1808
NNNI8
I1
I0
tp1809
bS'haralick'
p1810
tp1811
Rp1812
sg317
g1790
sg65
g11
(g15
S'\x00\xedO\xc7v\xb6\xea?'
p1813
tp1814
Rp1815
sg69
g11
(g12
(S'S2'
p1816
I0
I1
tp1817
Rp1818
(I3
S'|'
p1819
NNNI2
I1
I0
tp1820
bS'RF'
p1821
tp1822
Rp1823
sg78
I3
sg109
g1796
sg79
g80
sg81
g11
(g15
S'\xfb\xb4\x06S\xa8\xaf\xea?'
p1824
tp1825
Rp1826
sg85
g86
sg87
g88
sbag4
(g5
g6
Ntp1827
Rp1828
(dp1829
g10
g11
(g15
S'\x00\x00\x00\x00\x00\x00\xf8\xff'
p1830
tp1831
Rp1832
sg95
g11
(g15
S'\x00\x00\x00\x00\x00\x00D@'
p1833
tp1834
Rp1835
sg99
g154
sg30
g31
sg32
(dp1836
g95
g1835
sg109
g11
(g15
S'\xd5\xba\x9b\xb3\x1e\xad\xe3?'
p1837
tp1838
Rp1839
sg99
g154
ssg46
g11
(g12
(S'S3'
p1840
I0
I1
tp1841
Rp1842
(I3
S'|'
p1843
NNNI3
I1
I0
tp1844
bS'PCA'
p1845
tp1846
Rp1847
sg55
F0.2
sg56
g11
(g12
(S'S9'
p1848
I0
I1
tp1849
Rp1850
(I3
S'|'
p1851
NNNI9
I1
I0
tp1852
bS'inception'
p1853
tp1854
Rp1855
sg65
g11
(g15
S'\x84$k)UX\xe9?'
p1856
tp1857
Rp1858
sg69
g11
(g12
(S'S2'
p1859
I0
I1
tp1860
Rp1861
(I3
S'|'
p1862
NNNI2
I1
I0
tp1863
bS'RF'
p1864
tp1865
Rp1866
sg78
I3
sg109
g1839
sg79
g80
sg81
g11
(g15
S'_\t4\xf5Qe\xe8?'
p1867
tp1868
Rp1869
sg85
g86
sg87
g88
sbag4
(g5
g6
Ntp1870
Rp1871
(dp1872
g10
g11
(g15
S'\x00\x00\x00\x00\x00\x00\xf8\xff'
p1873
tp1874
Rp1875
sg21
g11
(g24
S'\x07\x00\x00\x00\x00\x00\x00\x00'
p1876
tp1877
Rp1878
sg30
g31
sg32
(dp1879
g21
g1878
sg34
g11
(g15
S'\\\x91\xbf`\x8a\x85A@'
p1880
tp1881
Rp1882
sg38
g11
(g24
S'\x03\x00\x00\x00\x00\x00\x00\x00'
p1883
tp1884
Rp1885
sg42
g11
(g15
S'\xf0\xb4\x1d\x16\xff$\x1d@'
p1886
tp1887
Rp1888
ssg42
g1888
sg46
g11
(g12
(S'S6'
p1889
I0
I1
tp1890
Rp1891
(I3
S'|'
p1892
NNNI6
I1
I0
tp1893
bS'ISOMAP'
p1894
tp1895
Rp1896
sg55
F0.2
sg38
g1885
sg56
g11
(g12
(S'S3'
p1897
I0
I1
tp1898
Rp1899
(I3
S'|'
p1900
NNNI3
I1
I0
tp1901
bS'VGG'
p1902
tp1903
Rp1904
sg34
g1882
sg65
g11
(g15
S'y\xe6\xb0\xab\t\x1b\xe3?'
p1905
tp1906
Rp1907
sg69
g11
(g12
(S'S3'
p1908
I0
I1
tp1909
Rp1910
(I3
S'|'
p1911
NNNI3
I1
I0
tp1912
bS'SVM'
p1913
tp1914
Rp1915
sg78
I3
sg79
g80
sg81
g11
(g15
S'0\xa6\x04\xa3a\xf7\xe7?'
p1916
tp1917
Rp1918
sg85
g86
sg87
g88
sbag4
(g5
g6
Ntp1919
Rp1920
(dp1921
g10
g11
(g15
S'\x00\x00\x00\x00\x00\x00\xf8\xff'
p1922
tp1923
Rp1924
sg95
g11
(g15
S'\x00\x00\x00\x00\x00`i@'
p1925
tp1926
Rp1927
sg99
g154
sg30
g31
sg32
(dp1928
g95
g1927
sg109
g11
(g15
S'\xf9\x90\xcaM\x17i\xd8?'
p1929
tp1930
Rp1931
sg99
g154
ssg46
g11
(g12
(S'S3'
p1932
I0
I1
tp1933
Rp1934
(I3
S'|'
p1935
NNNI3
I1
I0
tp1936
bS'PCA'
p1937
tp1938
Rp1939
sg55
F0.2
sg56
g11
(g12
(S'S3'
p1940
I0
I1
tp1941
Rp1942
(I3
S'|'
p1943
NNNI3
I1
I0
tp1944
bS'VGG'
p1945
tp1946
Rp1947
sg65
g11
(g15
S'Aj\xfd\xe5&D\xda?'
p1948
tp1949
Rp1950
sg69
g11
(g12
(S'S2'
p1951
I0
I1
tp1952
Rp1953
(I3
S'|'
p1954
NNNI2
I1
I0
tp1955
bS'RF'
p1956
tp1957
Rp1958
sg78
I3
sg109
g1931
sg79
g80
sg81
g11
(g15
S'\xa3\xa4~\x85\xfa\xbe\xea?'
p1959
tp1960
Rp1961
sg85
g86
sg87
g88
sbag4
(g5
g6
Ntp1962
Rp1963
(dp1964
g10
g11
(g15
S'\x00\x00\x00\x00\x00\x00\xf8\xff'
p1965
tp1966
Rp1967
sg99
g107
sg30
g31
sg32
(dp1968
g99
g107
sg34
g11
(g15
S'\xed\x8d\xe3i\xf7~C@'
p1969
tp1970
Rp1971
sg42
g11
(g15
S'&\xf8\x9f\xf1\xe3\x8f\x13@'
p1972
tp1973
Rp1974
ssg46
g11
(g12
(S'S3'
p1975
I0
I1
tp1976
Rp1977
(I3
S'|'
p1978
NNNI3
I1
I0
tp1979
bS'PCA'
p1980
tp1981
Rp1982
sg55
F0.2
sg42
g1974
sg56
g11
(g12
(S'S3'
p1983
I0
I1
tp1984
Rp1985
(I3
S'|'
p1986
NNNI3
I1
I0
tp1987
bS'VGG'
p1988
tp1989
Rp1990
sg34
g1971
sg65
g11
(g15
S'\xc1e\xf9O\x0b \xe6?'
p1991
tp1992
Rp1993
sg69
g11
(g12
(S'S3'
p1994
I0
I1
tp1995
Rp1996
(I3
S'|'
p1997
NNNI3
I1
I0
tp1998
bS'SVM'
p1999
tp2000
Rp2001
sg78
I3
sg79
g80
sg81
g11
(g15
S'e\x0b\x80\x94w\x8e\xe5?'
p2002
tp2003
Rp2004
sg85
g86
sg87
g88
sbag4
(g5
g6
Ntp2005
Rp2006
(dp2007
g10
g11
(g15
S'\x00\x00\x00\x00\x00\x00\xf8\xff'
p2008
tp2009
Rp2010
sg21
g11
(g24
S'\x06\x00\x00\x00\x00\x00\x00\x00'
p2011
tp2012
Rp2013
sg30
g31
sg32
(dp2014
g21
g2013
sg34
g11
(g15
S'\xdd\xee\xc9\xe9\x85:I@'
p2015
tp2016
Rp2017
sg317
g11
(g24
S'\x01\x00\x00\x00\x00\x00\x00\x00'
p2018
tp2019
Rp2020
sg38
g11
(g24
S'\x04\x00\x00\x00\x00\x00\x00\x00'
p2021
tp2022
Rp2023
sg42
g11
(g15
S'\xdd\xeb|=\x8d\t\x07@'
p2024
tp2025
Rp2026
ssg42
g2026
sg46
g11
(g12
(S'S6'
p2027
I0
I1
tp2028
Rp2029
(I3
S'|'
p2030
NNNI6
I1
I0
tp2031
bS'ISOMAP'
p2032
tp2033
Rp2034
sg55
F0.2
sg38
g2023
sg56
g11
(g12
(S'S8'
p2035
I0
I1
tp2036
Rp2037
(I3
S'|'
p2038
NNNI8
I1
I0
tp2039
bS'haralick'
p2040
tp2041
Rp2042
sg34
g2017
sg317
g2020
sg65
g11
(g15
S'\xb71|\xfc#<\xe1?'
p2043
tp2044
Rp2045
sg69
g11
(g12
(S'S3'
p2046
I0
I1
tp2047
Rp2048
(I3
S'|'
p2049
NNNI3
I1
I0
tp2050
bS'SVM'
p2051
tp2052
Rp2053
sg78
I3
sg79
g80
sg81
g11
(g15
S'\xab\x1c^\xec\xff\xfa\xe6?'
p2054
tp2055
Rp2056
sg85
g86
sg87
g88
sbag4
(g5
g6
Ntp2057
Rp2058
(dp2059
g10
g11
(g15
S'\x00\x00\x00\x00\x00\x00\xf8\xff'
p2060
tp2061
Rp2062
sg95
g11
(g15
S'\x00\x00\x00\x00\x00\xc0p@'
p2063
tp2064
Rp2065
sg30
g31
sg21
g11
(g24
S'\x07\x00\x00\x00\x00\x00\x00\x00'
p2066
tp2067
Rp2068
sg32
(dp2069
g95
g2065
sg21
g2068
sg38
g11
(g24
S'\x02\x00\x00\x00\x00\x00\x00\x00'
p2070
tp2071
Rp2072
sg109
g11
(g15
S'\x81\xe0d\x07\xf5r\xda?'
p2073
tp2074
Rp2075
ssg46
g11
(g12
(S'S6'
p2076
I0
I1
tp2077
Rp2078
(I3
S'|'
p2079
NNNI6
I1
I0
tp2080
bS'ISOMAP'
p2081
tp2082
Rp2083
sg55
F0.2
sg38
g2072
sg56
g11
(g12
(S'S9'
p2084
I0
I1
tp2085
Rp2086
(I3
S'|'
p2087
NNNI9
I1
I0
tp2088
bS'inception'
p2089
tp2090
Rp2091
sg65
g11
(g15
S"\xbf'\xf5\x95DQ\xf1?"
p2092
tp2093
Rp2094
sg69
g11
(g12
(S'S2'
p2095
I0
I1
tp2096
Rp2097
(I3
S'|'
p2098
NNNI2
I1
I0
tp2099
bS'RF'
p2100
tp2101
Rp2102
sg78
I3
sg109
g2075
sg79
g80
sg81
g11
(g15
S'W\x98\xad\x01\x81\x8c\xe6?'
p2103
tp2104
Rp2105
sg85
g86
sg87
g88
sbag4
(g5
g6
Ntp2106
Rp2107
(dp2108
g10
g11
(g15
S'\x00\x00\x00\x00\x00\x00\xf8\xff'
p2109
tp2110
Rp2111
sg95
g11
(g15
S'\x00\x00\x00\x00\x00\x00D@'
p2112
tp2113
Rp2114
sg30
g31
sg21
g11
(g24
S'\x06\x00\x00\x00\x00\x00\x00\x00'
p2115
tp2116
Rp2117
sg32
(dp2118
g95
g2114
sg21
g2117
sg38
g11
(g24
S'\x04\x00\x00\x00\x00\x00\x00\x00'
p2119
tp2120
Rp2121
sg109
g11
(g15
S'\x94\xd5\xeas\x8c\xad\xde?'
p2122
tp2123
Rp2124
ssg46
g11
(g12
(S'S6'
p2125
I0
I1
tp2126
Rp2127
(I3
S'|'
p2128
NNNI6
I1
I0
tp2129
bS'ISOMAP'
p2130
tp2131
Rp2132
sg55
F0.2
sg38
g2121
sg56
g11
(g12
(S'S9'
p2133
I0
I1
tp2134
Rp2135
(I3
S'|'
p2136
NNNI9
I1
I0
tp2137
bS'inception'
p2138
tp2139
Rp2140
sg65
g11
(g15
S'\xf0\xcf\xd22Y\xf7\xf0?'
p2141
tp2142
Rp2143
sg69
g11
(g12
(S'S2'
p2144
I0
I1
tp2145
Rp2146
(I3
S'|'
p2147
NNNI2
I1
I0
tp2148
bS'RF'
p2149
tp2150
Rp2151
sg78
I3
sg109
g2124
sg79
g80
sg81
g11
(g15
S'\x84\xdeo0Z*\xe7?'
p2152
tp2153
Rp2154
sg85
g86
sg87
g88
sbag4
(g5
g6
Ntp2155
Rp2156
(dp2157
g10
g11
(g15
S'\x00\x00\x00\x00\x00\x00\xf8\xff'
p2158
tp2159
Rp2160
sg95
g11
(g15
S'\x00\x00\x00\x00\x00\x00 @'
p2161
tp2162
Rp2163
sg30
g31
sg21
g11
(g24
S'\x06\x00\x00\x00\x00\x00\x00\x00'
p2164
tp2165
Rp2166
sg32
(dp2167
g95
g2163
sg21
g2166
sg38
g11
(g24
S'\x04\x00\x00\x00\x00\x00\x00\x00'
p2168
tp2169
Rp2170
sg109
g11
(g15
S'6\x99\x9d\x1d\x07\xb4\xec?'
p2171
tp2172
Rp2173
ssg46
g11
(g12
(S'S6'
p2174
I0
I1
tp2175
Rp2176
(I3
S'|'
p2177
NNNI6
I1
I0
tp2178
bS'ISOMAP'
p2179
tp2180
Rp2181
sg55
F0.2
sg38
g2170
sg56
g11
(g12
(S'S3'
p2182
I0
I1
tp2183
Rp2184
(I3
S'|'
p2185
NNNI3
I1
I0
tp2186
bS'VGG'
p2187
tp2188
Rp2189
sg65
g11
(g15
S'a0;\xd0\x0b\x80\xfb?'
p2190
tp2191
Rp2192
sg69
g11
(g12
(S'S2'
p2193
I0
I1
tp2194
Rp2195
(I3
S'|'
p2196
NNNI2
I1
I0
tp2197
bS'RF'
p2198
tp2199
Rp2200
sg78
I3
sg109
g2173
sg79
g80
sg81
g11
(g15
S'\x8d-\\\x00<\xf2\xe9?'
p2201
tp2202
Rp2203
sg85
g86
sg87
g88
sbag4
(g5
g6
Ntp2204
Rp2205
(dp2206
g10
g11
(g15
S'\x00\x00\x00\x00\x00\x00\xf8\xff'
p2207
tp2208
Rp2209
sg95
g11
(g15
S'\x00\x00\x00\x00\x00\xc0p@'
p2210
tp2211
Rp2212
sg99
g154
sg30
g31
sg32
(dp2213
g95
g2212
sg109
g11
(g15
S'@\xf7\x9cEOp\xdb?'
p2214
tp2215
Rp2216
sg99
g154
sg317
g11
(g24
S'\x02\x00\x00\x00\x00\x00\x00\x00'
p2217
tp2218
Rp2219
ssg46
g11
(g12
(S'S3'
p2220
I0
I1
tp2221
Rp2222
(I3
S'|'
p2223
NNNI3
I1
I0
tp2224
bS'PCA'
p2225
tp2226
Rp2227
sg55
F0.2
sg56
g11
(g12
(S'S8'
p2228
I0
I1
tp2229
Rp2230
(I3
S'|'
p2231
NNNI8
I1
I0
tp2232
bS'haralick'
p2233
tp2234
Rp2235
sg317
g2219
sg65
g11
(g15
S'\xb5g\xca\x9eNS\x01@'
p2236
tp2237
Rp2238
sg69
g11
(g12
(S'S2'
p2239
I0
I1
tp2240
Rp2241
(I3
S'|'
p2242
NNNI2
I1
I0
tp2243
bS'RF'
p2244
tp2245
Rp2246
sg78
I3
sg109
g2216
sg79
g80
sg81
g11
(g15
S'D\xf1H\xfa\x98\x88\xe7?'
p2247
tp2248
Rp2249
sg85
g86
sg87
g88
sbag4
(g5
g6
Ntp2250
Rp2251
(dp2252
g10
g11
(g15
S'\x00\x00\x00\x00\x00\x00\xf8\xff'
p2253
tp2254
Rp2255
sg95
g11
(g15
S'\x00\x00\x00\x00\x00@a@'
p2256
tp2257
Rp2258
sg30
g31
sg21
g11
(g24
S'\x07\x00\x00\x00\x00\x00\x00\x00'
p2259
tp2260
Rp2261
sg32
(dp2262
g95
g2258
sg21
g2261
sg317
g11
(g24
S'\x02\x00\x00\x00\x00\x00\x00\x00'
p2263
tp2264
Rp2265
sg38
g11
(g24
S'\x04\x00\x00\x00\x00\x00\x00\x00'
p2266
tp2267
Rp2268
sg109
g11
(g15
S'a\x93t\x9b`>\xd6?'
p2269
tp2270
Rp2271
ssg46
g11
(g12
(S'S6'
p2272
I0
I1
tp2273
Rp2274
(I3
S'|'
p2275
NNNI6
I1
I0
tp2276
bS'ISOMAP'
p2277
tp2278
Rp2279
sg55
F0.2
sg38
g2268
sg56
g11
(g12
(S'S8'
p2280
I0
I1
tp2281
Rp2282
(I3
S'|'
p2283
NNNI8
I1
I0
tp2284
bS'haralick'
p2285
tp2286
Rp2287
sg317
g2265
sg65
g11
(g15
S'\xf5\xd8{\x8f\\\xe6\xe7?'
p2288
tp2289
Rp2290
sg69
g11
(g12
(S'S2'
p2291
I0
I1
tp2292
Rp2293
(I3
S'|'
p2294
NNNI2
I1
I0
tp2295
bS'RF'
p2296
tp2297
Rp2298
sg78
I3
sg109
g2271
sg79
g80
sg81
g11
(g15
S'E\x1c\xf27(\xc3\xe9?'
p2299
tp2300
Rp2301
sg85
g86
sg87
g88
sbag4
(g5
g6
Ntp2302
Rp2303
(dp2304
g10
g11
(g15
S'\x00\x00\x00\x00\x00\x00\xf8\xff'
p2305
tp2306
Rp2307
sg95
g11
(g15
S'\x00\x00\x00\x00\x00@e@'
p2308
tp2309
Rp2310
sg99
g107
sg30
g31
sg32
(dp2311
g95
g2310
sg109
g11
(g15
S'_\x9b\xc5\xf7\x1b\xdc\xd6?'
p2312
tp2313
Rp2314
sg99
g107
sg317
g11
(g24
S'\x01\x00\x00\x00\x00\x00\x00\x00'
p2315
tp2316
Rp2317
ssg46
g11
(g12
(S'S3'
p2318
I0
I1
tp2319
Rp2320
(I3
S'|'
p2321
NNNI3
I1
I0
tp2322
bS'PCA'
p2323
tp2324
Rp2325
sg55
F0.2
sg56
g11
(g12
(S'S8'
p2326
I0
I1
tp2327
Rp2328
(I3
S'|'
p2329
NNNI8
I1
I0
tp2330
bS'haralick'
p2331
tp2332
Rp2333
sg317
g2317
sg65
g11
(g15
S'\x00{\x1bi0\x0e\x02@'
p2334
tp2335
Rp2336
sg69
g11
(g12
(S'S2'
p2337
I0
I1
tp2338
Rp2339
(I3
S'|'
p2340
NNNI2
I1
I0
tp2341
bS'RF'
p2342
tp2343
Rp2344
sg78
I3
sg109
g2314
sg79
g80
sg81
g11
(g15
S'\xbd\x80\x8b\xe6\xe2Y\xe7?'
p2345
tp2346
Rp2347
sg85
g86
sg87
g88
sbag4
(g5
g6
Ntp2348
Rp2349
(dp2350
g10
g11
(g15
S'\x00\x00\x00\x00\x00\x00\xf8\xff'
p2351
tp2352
Rp2353
sg95
g11
(g15
S'\x00\x00\x00\x00\x00@R@'
p2354
tp2355
Rp2356
sg99
g107
sg30
g31
sg32
(dp2357
g95
g2356
sg109
g11
(g15
S'\xa5\x8e\x89\xc3\x02;\xe3?'
p2358
tp2359
Rp2360
sg99
g107
sg317
g11
(g24
S'\x01\x00\x00\x00\x00\x00\x00\x00'
p2361
tp2362
Rp2363
ssg46
g11
(g12
(S'S3'
p2364
I0
I1
tp2365
Rp2366
(I3
S'|'
p2367
NNNI3
I1
I0
tp2368
bS'PCA'
p2369
tp2370
Rp2371
sg55
F0.2
sg56
g11
(g12
(S'S8'
p2372
I0
I1
tp2373
Rp2374
(I3
S'|'
p2375
NNNI8
I1
I0
tp2376
bS'haralick'
p2377
tp2378
Rp2379
sg317
g2363
sg65
g11
(g15
S'#\r\xedb\xdfo\x04@'
p2380
tp2381
Rp2382
sg69
g11
(g12
(S'S2'
p2383
I0
I1
tp2384
Rp2385
(I3
S'|'
p2386
NNNI2
I1
I0
tp2387
bS'RF'
p2388
tp2389
Rp2390
sg78
I3
sg109
g2360
sg79
g80
sg81
g11
(g15
S'\xc9\x11=0]y\xe7?'
p2391
tp2392
Rp2393
sg85
g86
sg87
g88
sbag4
(g5
g6
Ntp2394
Rp2395
(dp2396
g10
g11
(g15
S'\x00\x00\x00\x00\x00\x00\xf8\xff'
p2397
tp2398
Rp2399
sg99
g107
sg30
g31
sg32
(dp2400
g99
g107
sg34
g11
(g15
S'H\xe6\xf2\x8b\xb4PT@'
p2401
tp2402
Rp2403
sg317
g11
(g24
S'\x01\x00\x00\x00\x00\x00\x00\x00'
p2404
tp2405
Rp2406
sg42
g11
(g15
S'\x8a\x1eqM1\xe1\x12@'
p2407
tp2408
Rp2409
ssg46
g11
(g12
(S'S3'
p2410
I0
I1
tp2411
Rp2412
(I3
S'|'
p2413
NNNI3
I1
I0
tp2414
bS'PCA'
p2415
tp2416
Rp2417
sg55
F0.2
sg42
g2409
sg56
g11
(g12
(S'S8'
p2418
I0
I1
tp2419
Rp2420
(I3
S'|'
p2421
NNNI8
I1
I0
tp2422
bS'haralick'
p2423
tp2424
Rp2425
sg34
g2403
sg317
g2406
sg65
g11
(g15
S'\xe4\x81W\x1c\xdfy\xe0?'
p2426
tp2427
Rp2428
sg69
g11
(g12
(S'S3'
p2429
I0
I1
tp2430
Rp2431
(I3
S'|'
p2432
NNNI3
I1
I0
tp2433
bS'SVM'
p2434
tp2435
Rp2436
sg78
I3
sg79
g80
sg81
g11
(g15
S'ty\xd0\xa2\n~\xe5?'
p2437
tp2438
Rp2439
sg85
g86
sg87
g88
sbag4
(g5
g6
Ntp2440
Rp2441
(dp2442
g10
g11
(g15
S'\x00\x00\x00\x00\x00\x00\xf8\xff'
p2443
tp2444
Rp2445
sg99
g107
sg30
g31
sg32
(dp2446
g99
g107
sg34
g11
(g15
S'\x7fbO_\xcd\x08N@'
p2447
tp2448
Rp2449
sg42
g11
(g15
S'\x12\x1d~*\x01\x10\x02@'
p2450
tp2451
Rp2452
ssg46
g11
(g12
(S'S3'
p2453
I0
I1
tp2454
Rp2455
(I3
S'|'
p2456
NNNI3
I1
I0
tp2457
bS'PCA'
p2458
tp2459
Rp2460
sg55
F0.2
sg42
g2452
sg56
g11
(g12
(S'S3'
p2461
I0
I1
tp2462
Rp2463
(I3
S'|'
p2464
NNNI3
I1
I0
tp2465
bS'VGG'
p2466
tp2467
Rp2468
sg34
g2449
sg65
g11
(g15
S'\xc7\xa9\xf1Tvm\xe2?'
p2469
tp2470
Rp2471
sg69
g11
(g12
(S'S3'
p2472
I0
I1
tp2473
Rp2474
(I3
S'|'
p2475
NNNI3
I1
I0
tp2476
bS'SVM'
p2477
tp2478
Rp2479
sg78
I3
sg79
g80
sg81
g11
(g15
S'].\x1d\xa9\xb4w\xe7?'
p2480
tp2481
Rp2482
sg85
g86
sg87
g88
sbag4
(g5
g6
Ntp2483
Rp2484
(dp2485
g10
g11
(g15
S'\x00\x00\x00\x00\x00\x00\xf8\xff'
p2486
tp2487
Rp2488
sg21
g11
(g24
S'\x06\x00\x00\x00\x00\x00\x00\x00'
p2489
tp2490
Rp2491
sg30
g31
sg32
(dp2492
g21
g2491
sg34
g11
(g15
S'\xa6 u:S\xabM@'
p2493
tp2494
Rp2495
sg317
g11
(g24
S'\x03\x00\x00\x00\x00\x00\x00\x00'
p2496
tp2497
Rp2498
sg38
g11
(g24
S'\x02\x00\x00\x00\x00\x00\x00\x00'
p2499
tp2500
Rp2501
sg42
g11
(g15
S'/\xc4\x1e\x1e\xe7?\x18@'
p2502
tp2503
Rp2504
ssg42
g2504
sg46
g11
(g12
(S'S6'
p2505
I0
I1
tp2506
Rp2507
(I3
S'|'
p2508
NNNI6
I1
I0
tp2509
bS'ISOMAP'
p2510
tp2511
Rp2512
sg55
F0.2
sg38
g2501
sg56
g11
(g12
(S'S8'
p2513
I0
I1
tp2514
Rp2515
(I3
S'|'
p2516
NNNI8
I1
I0
tp2517
bS'haralick'
p2518
tp2519
Rp2520
sg34
g2495
sg317
g2498
sg65
g11
(g15
S'\xf9\x98g\x0em6\xdf?'
p2521
tp2522
Rp2523
sg69
g11
(g12
(S'S3'
p2524
I0
I1
tp2525
Rp2526
(I3
S'|'
p2527
NNNI3
I1
I0
tp2528
bS'SVM'
p2529
tp2530
Rp2531
sg78
I3
sg79
g80
sg81
g11
(g15
S'\x0bN/@\x18I\xe7?'
p2532
tp2533
Rp2534
sg85
g86
sg87
g88
sbag4
(g5
g6
Ntp2535
Rp2536
(dp2537
g10
g11
(g15
S'\x00\x00\x00\x00\x00\x00\xf8\xff'
p2538
tp2539
Rp2540
sg21
g11
(g24
S'\x05\x00\x00\x00\x00\x00\x00\x00'
p2541
tp2542
Rp2543
sg30
g31
sg32
(dp2544
g21
g2543
sg34
g11
(g15
S'F\rp\xe7:\xfaE@'
p2545
tp2546
Rp2547
sg38
g11
(g24
S'\x04\x00\x00\x00\x00\x00\x00\x00'
p2548
tp2549
Rp2550
sg42
g11
(g15
S'q\x05\xda\xf2\xdah\x1b@'
p2551
tp2552
Rp2553
ssg42
g2553
sg46
g11
(g12
(S'S6'
p2554
I0
I1
tp2555
Rp2556
(I3
S'|'
p2557
NNNI6
I1
I0
tp2558
bS'ISOMAP'
p2559
tp2560
Rp2561
sg55
F0.2
sg38
g2550
sg56
g11
(g12
(S'S3'
p2562
I0
I1
tp2563
Rp2564
(I3
S'|'
p2565
NNNI3
I1
I0
tp2566
bS'VGG'
p2567
tp2568
Rp2569
sg34
g2547
sg65
g11
(g15
S'\x8d\xecz\x8ar\x04\xe1?'
p2570
tp2571
Rp2572
sg69
g11
(g12
(S'S3'
p2573
I0
I1
tp2574
Rp2575
(I3
S'|'
p2576
NNNI3
I1
I0
tp2577
bS'SVM'
p2578
tp2579
Rp2580
sg78
I3
sg79
g80
sg81
g11
(g15
S'\x85``\xd8.\xd5\xe8?'
p2581
tp2582
Rp2583
sg85
g86
sg87
g88
sbag4
(g5
g6
Ntp2584
Rp2585
(dp2586
g10
g11
(g15
S'\x00\x00\x00\x00\x00\x00\xf8\xff'
p2587
tp2588
Rp2589
sg99
g154
sg30
g31
sg32
(dp2590
g99
g154
sg34
g11
(g15
S'y\xc7%G\x8b\xe9>@'
p2591
tp2592
Rp2593
sg42
g11
(g15
S'1w\x0f2\x9e\xbe\x02@'
p2594
tp2595
Rp2596
ssg46
g11
(g12
(S'S3'
p2597
I0
I1
tp2598
Rp2599
(I3
S'|'
p2600
NNNI3
I1
I0
tp2601
bS'PCA'
p2602
tp2603
Rp2604
sg55
F0.2
sg42
g2596
sg56
g11
(g12
(S'S3'
p2605
I0
I1
tp2606
Rp2607
(I3
S'|'
p2608
NNNI3
I1
I0
tp2609
bS'VGG'
p2610
tp2611
Rp2612
sg34
g2593
sg65
g11
(g15
S'\xcdW\xa1\xdc1\xa4\xe2?'
p2613
tp2614
Rp2615
sg69
g11
(g12
(S'S3'
p2616
I0
I1
tp2617
Rp2618
(I3
S'|'
p2619
NNNI3
I1
I0
tp2620
bS'SVM'
p2621
tp2622
Rp2623
sg78
I3
sg79
g80
sg81
g11
(g15
S'].\x1d\xa9\xb4w\xe7?'
p2624
tp2625
Rp2626
sg85
g86
sg87
g88
sbag233
ag4
(g5
g6
Ntp2627
Rp2628
(dp2629
g10
g11
(g15
S'\x00\x00\x00\x00\x00\x00\xf8\xff'
p2630
tp2631
Rp2632
sg95
g11
(g15
S'\x00\x00\x00\x00\x00`i@'
p2633
tp2634
Rp2635
sg30
g31
sg21
g11
(g24
S'\x06\x00\x00\x00\x00\x00\x00\x00'
p2636
tp2637
Rp2638
sg32
(dp2639
g95
g2635
sg21
g2638
sg38
g11
(g24
S'\x02\x00\x00\x00\x00\x00\x00\x00'
p2640
tp2641
Rp2642
sg109
g11
(g15
S':\x11~;>d\xe9?'
p2643
tp2644
Rp2645
ssg46
g11
(g12
(S'S6'
p2646
I0
I1
tp2647
Rp2648
(I3
S'|'
p2649
NNNI6
I1
I0
tp2650
bS'ISOMAP'
p2651
tp2652
Rp2653
sg55
F0.2
sg38
g2642
sg56
g11
(g12
(S'S3'
p2654
I0
I1
tp2655
Rp2656
(I3
S'|'
p2657
NNNI3
I1
I0
tp2658
bS'VGG'
p2659
tp2660
Rp2661
sg65
g11
(g15
S'\x04:\xfa{\xd7\xb2\xe9?'
p2662
tp2663
Rp2664
sg69
g11
(g12
(S'S2'
p2665
I0
I1
tp2666
Rp2667
(I3
S'|'
p2668
NNNI2
I1
I0
tp2669
bS'RF'
p2670
tp2671
Rp2672
sg78
I3
sg109
g2645
sg79
g80
sg81
g11
(g15
S'\xa0B\xf5\x0c%\x14\xe9?'
p2673
tp2674
Rp2675
sg85
g86
sg87
g88
sbag4
(g5
g6
Ntp2676
Rp2677
(dp2678
g10
g11
(g15
S'\x00\x00\x00\x00\x00\x00\xf8\xff'
p2679
tp2680
Rp2681
sg95
g11
(g15
S'\x00\x00\x00\x00\x00@e@'
p2682
tp2683
Rp2684
sg99
g107
sg30
g31
sg32
(dp2685
g95
g2684
sg109
g11
(g15
S'\xc2\xe4\x88Zj\x1a\xef?'
p2686
tp2687
Rp2688
sg99
g107
sg317
g11
(g24
S'\x03\x00\x00\x00\x00\x00\x00\x00'
p2689
tp2690
Rp2691
ssg46
g11
(g12
(S'S3'
p2692
I0
I1
tp2693
Rp2694
(I3
S'|'
p2695
NNNI3
I1
I0
tp2696
bS'PCA'
p2697
tp2698
Rp2699
sg55
F0.2
sg56
g11
(g12
(S'S8'
p2700
I0
I1
tp2701
Rp2702
(I3
S'|'
p2703
NNNI8
I1
I0
tp2704
bS'haralick'
p2705
tp2706
Rp2707
sg317
g2691
sg65
g11
(g15
S'\x1d\xe7\xe8dA\x0e\x03@'
p2708
tp2709
Rp2710
sg69
g11
(g12
(S'S2'
p2711
I0
I1
tp2712
Rp2713
(I3
S'|'
p2714
NNNI2
I1
I0
tp2715
bS'RF'
p2716
tp2717
Rp2718
sg78
I3
sg109
g2688
sg79
g80
sg81
g11
(g15
S'\x94\x8a\xcaK\x1a~\xe6?'
p2719
tp2720
Rp2721
sg85
g86
sg87
g88
sbag4
(g5
g6
Ntp2722
Rp2723
(dp2724
g10
g11
(g15
S'\x00\x00\x00\x00\x00\x00\xf8\xff'
p2725
tp2726
Rp2727
sg95
g11
(g15
S'\x00\x00\x00\x00\x00@Z@'
p2728
tp2729
Rp2730
sg30
g31
sg21
g11
(g24
S'\x05\x00\x00\x00\x00\x00\x00\x00'
p2731
tp2732
Rp2733
sg32
(dp2734
g95
g2730
sg21
g2733
sg38
g11
(g24
S'\x02\x00\x00\x00\x00\x00\x00\x00'
p2735
tp2736
Rp2737
sg109
g11
(g15
S'\x81\xea\xf0\xd5&\xc6\xda?'
p2738
tp2739
Rp2740
ssg46
g11
(g12
(S'S6'
p2741
I0
I1
tp2742
Rp2743
(I3
S'|'
p2744
NNNI6
I1
I0
tp2745
bS'ISOMAP'
p2746
tp2747
Rp2748
sg55
F0.2
sg38
g2737
sg56
g11
(g12
(S'S3'
p2749
I0
I1
tp2750
Rp2751
(I3
S'|'
p2752
NNNI3
I1
I0
tp2753
bS'VGG'
p2754
tp2755
Rp2756
sg65
g11
(g15
S'$\xa2g\x17G!\xef?'
p2757
tp2758
Rp2759
sg69
g11
(g12
(S'S2'
p2760
I0
I1
tp2761
Rp2762
(I3
S'|'
p2763
NNNI2
I1
I0
tp2764
bS'RF'
p2765
tp2766
Rp2767
sg78
I3
sg109
g2740
sg79
g80
sg81
g11
(g15
S'\x90(f\xecc\xa2\xe9?'
p2768
tp2769
Rp2770
sg85
g86
sg87
g88
sbag4
(g5
g6
Ntp2771
Rp2772
(dp2773
g10
g11
(g15
S'\x00\x00\x00\x00\x00\x00\xf8\xff'
p2774
tp2775
Rp2776
sg21
g11
(g24
S'\x06\x00\x00\x00\x00\x00\x00\x00'
p2777
tp2778
Rp2779
sg30
g31
sg32
(dp2780
g21
g2779
sg34
g11
(g15
S'K\xec/\x96:\xd0Q@'
p2781
tp2782
Rp2783
sg38
g11
(g24
S'\x03\x00\x00\x00\x00\x00\x00\x00'
p2784
tp2785
Rp2786
sg42
g11
(g15
S'\xba+\xfc\x97g\xbc\xc1?'
p2787
tp2788
Rp2789
ssg42
g2789
sg46
g11
(g12
(S'S6'
p2790
I0
I1
tp2791
Rp2792
(I3
S'|'
p2793
NNNI6
I1
I0
tp2794
bS'ISOMAP'
p2795
tp2796
Rp2797
sg55
F0.2
sg38
g2786
sg56
g11
(g12
(S'S9'
p2798
I0
I1
tp2799
Rp2800
(I3
S'|'
p2801
NNNI9
I1
I0
tp2802
bS'inception'
p2803
tp2804
Rp2805
sg34
g2783
sg65
g11
(g15
S'\x93T\xe2\xc1F\xa6\xe5?'
p2806
tp2807
Rp2808
sg69
g11
(g12
(S'S3'
p2809
I0
I1
tp2810
Rp2811
(I3
S'|'
p2812
NNNI3
I1
I0
tp2813
bS'SVM'
p2814
tp2815
Rp2816
sg78
I3
sg79
g80
sg81
g11
(g15
S'%\r\xcf}\xe9\x13\xe4?'
p2817
tp2818
Rp2819
sg85
g86
sg87
g88
sbag4
(g5
g6
Ntp2820
Rp2821
(dp2822
g10
g11
(g15
S'\x00\x00\x00\x00\x00\x00\xf8\xff'
p2823
tp2824
Rp2825
sg95
g11
(g15
S'\x00\x00\x00\x00\x00\xc0r@'
p2826
tp2827
Rp2828
sg30
g31
sg21
g11
(g24
S'\x07\x00\x00\x00\x00\x00\x00\x00'
p2829
tp2830
Rp2831
sg32
(dp2832
g95
g2828
sg21
g2831
sg38
g11
(g24
S'\x04\x00\x00\x00\x00\x00\x00\x00'
p2833
tp2834
Rp2835
sg109
g11
(g15
S'\xf3\x04\xa2\xf2\x1b\xf4\xe4?'
p2836
tp2837
Rp2838
ssg46
g11
(g12
(S'S6'
p2839
I0
I1
tp2840
Rp2841
(I3
S'|'
p2842
NNNI6
I1
I0
tp2843
bS'ISOMAP'
p2844
tp2845
Rp2846
sg55
F0.2
sg38
g2835
sg56
g11
(g12
(S'S9'
p2847
I0
I1
tp2848
Rp2849
(I3
S'|'
p2850
NNNI9
I1
I0
tp2851
bS'inception'
p2852
tp2853
Rp2854
sg65
g11
(g15
S'\x1b\xdf\x192\xe4\xb3\xeb?'
p2855
tp2856
Rp2857
sg69
g11
(g12
(S'S2'
p2858
I0
I1
tp2859
Rp2860
(I3
S'|'
p2861
NNNI2
I1
I0
tp2862
bS'RF'
p2863
tp2864
Rp2865
sg78
I3
sg109
g2838
sg79
g80
sg81
g11
(g15
S'\x1b\x9c\x18\x1f\xac8\xe7?'
p2866
tp2867
Rp2868
sg85
g86
sg87
g88
sbag4
(g5
g6
Ntp2869
Rp2870
(dp2871
g10
g11
(g15
S'\x00\x00\x00\x00\x00\x00\xf8\xff'
p2872
tp2873
Rp2874
sg99
g154
sg30
g31
sg32
(dp2875
g99
g154
sg34
g11
(g15
S'\x9a\x06h\xc2\x12#"@'
p2876
tp2877
Rp2878
sg42
g11
(g15
S'\x19\xce\x8b}C\xda\x11@'
p2879
tp2880
Rp2881
ssg46
g11
(g12
(S'S3'
p2882
I0
I1
tp2883
Rp2884
(I3
S'|'
p2885
NNNI3
I1
I0
tp2886
bS'PCA'
p2887
tp2888
Rp2889
sg55
F0.2
sg42
g2881
sg56
g11
(g12
(S'S3'
p2890
I0
I1
tp2891
Rp2892
(I3
S'|'
p2893
NNNI3
I1
I0
tp2894
bS'VGG'
p2895
tp2896
Rp2897
sg34
g2878
sg65
g11
(g15
S'\xa3G\x13\xa5:\x9a\xe5?'
p2898
tp2899
Rp2900
sg69
g11
(g12
(S'S3'
p2901
I0
I1
tp2902
Rp2903
(I3
S'|'
p2904
NNNI3
I1
I0
tp2905
bS'SVM'
p2906
tp2907
Rp2908
sg78
I3
sg79
g80
sg81
g11
(g15
S'X\xcf\x8d<\xc7\xfc\xe5?'
p2909
tp2910
Rp2911
sg85
g86
sg87
g88
sbag4
(g5
g6
Ntp2912
Rp2913
(dp2914
g10
g11
(g15
S'\x00\x00\x00\x00\x00\x00\xf8\xff'
p2915
tp2916
Rp2917
sg95
g11
(g15
S'\x00\x00\x00\x00\x00`m@'
p2918
tp2919
Rp2920
sg99
g154
sg30
g31
sg32
(dp2921
g95
g2920
sg109
g11
(g15
S'\xae)\xf4) \xfc\xea?'
p2922
tp2923
Rp2924
sg99
g154
sg317
g11
(g24
S'\x02\x00\x00\x00\x00\x00\x00\x00'
p2925
tp2926
Rp2927
ssg46
g11
(g12
(S'S3'
p2928
I0
I1
tp2929
Rp2930
(I3
S'|'
p2931
NNNI3
I1
I0
tp2932
bS'PCA'
p2933
tp2934
Rp2935
sg55
F0.2
sg56
g11
(g12
(S'S8'
p2936
I0
I1
tp2937
Rp2938
(I3
S'|'
p2939
NNNI8
I1
I0
tp2940
bS'haralick'
p2941
tp2942
Rp2943
sg317
g2927
sg65
g11
(g15
S'J\xd0\x8d\x96\xb6\xc9\x00@'
p2944
tp2945
Rp2946
sg69
g11
(g12
(S'S2'
p2947
I0
I1
tp2948
Rp2949
(I3
S'|'
p2950
NNNI2
I1
I0
tp2951
bS'RF'
p2952
tp2953
Rp2954
sg78
I3
sg109
g2924
sg79
g80
sg81
g11
(g15
S'D\xf1H\xfa\x98\x88\xe7?'
p2955
tp2956
Rp2957
sg85
g86
sg87
g88
sbag4
(g5
g6
Ntp2958
Rp2959
(dp2960
g10
g11
(g15
S'\x00\x00\x00\x00\x00\x00\xf8\xff'
p2961
tp2962
Rp2963
sg95
g11
(g15
S'\x00\x00\x00\x00\x00`i@'
p2964
tp2965
Rp2966
sg99
g107
sg30
g31
sg32
(dp2967
g95
g2966
sg109
g11
(g15
S'\xc8\xc2\xe4!Z\x9d\xe7?'
p2968
tp2969
Rp2970
sg99
g107
ssg46
g11
(g12
(S'S3'
p2971
I0
I1
tp2972
Rp2973
(I3
S'|'
p2974
NNNI3
I1
I0
tp2975
bS'PCA'
p2976
tp2977
Rp2978
sg55
F0.2
sg56
g11
(g12
(S'S3'
p2979
I0
I1
tp2980
Rp2981
(I3
S'|'
p2982
NNNI3
I1
I0
tp2983
bS'VGG'
p2984
tp2985
Rp2986
sg65
g11
(g15
S'\x14e\xda\xb1\xbe\xd6\xd9?'
p2987
tp2988
Rp2989
sg69
g11
(g12
(S'S2'
p2990
I0
I1
tp2991
Rp2992
(I3
S'|'
p2993
NNNI2
I1
I0
tp2994
bS'RF'
p2995
tp2996
Rp2997
sg78
I3
sg109
g2970
sg79
g80
sg81
g11
(g15
S'5T(\xfdH\xaf\xea?'
p2998
tp2999
Rp3000
sg85
g86
sg87
g88
sbag4
(g5
g6
Ntp3001
Rp3002
(dp3003
g10
g11
(g15
S'\x00\x00\x00\x00\x00\x00\xf8\xff'
p3004
tp3005
Rp3006
sg99
g107
sg30
g31
sg32
(dp3007
g99
g107
sg34
g11
(g15
S'\xfa\x9e\xe9\xc9\xfe\xc5N@'
p3008
tp3009
Rp3010
sg42
g11
(g15
S'\xc7?\xbd`\xec\x8e\x18@'
p3011
tp3012
Rp3013
ssg46
g11
(g12
(S'S3'
p3014
I0
I1
tp3015
Rp3016
(I3
S'|'
p3017
NNNI3
I1
I0
tp3018
bS'PCA'
p3019
tp3020
Rp3021
sg55
F0.2
sg42
g3013
sg56
g11
(g12
(S'S9'
p3022
I0
I1
tp3023
Rp3024
(I3
S'|'
p3025
NNNI9
I1
I0
tp3026
bS'inception'
p3027
tp3028
Rp3029
sg34
g3010
sg65
g11
(g15
S'\x81\x8c\xd5\x7f\x8b\xaa\xe3?'
p3030
tp3031
Rp3032
sg69
g11
(g12
(S'S3'
p3033
I0
I1
tp3034
Rp3035
(I3
S'|'
p3036
NNNI3
I1
I0
tp3037
bS'SVM'
p3038
tp3039
Rp3040
sg78
I3
sg79
g80
sg81
g11
(g15
S'\x1c\x18,o\xe7m\xe5?'
p3041
tp3042
Rp3043
sg85
g86
sg87
g88
sbag4
(g5
g6
Ntp3044
Rp3045
(dp3046
g10
g11
(g15
S'\x00\x00\x00\x00\x00\x00\xf8\xff'
p3047
tp3048
Rp3049
sg95
g11
(g15
S'\x00\x00\x00\x00\x00@a@'
p3050
tp3051
Rp3052
sg30
g31
sg21
g11
(g24
S'\x04\x00\x00\x00\x00\x00\x00\x00'
p3053
tp3054
Rp3055
sg32
(dp3056
g95
g3052
sg21
g3055
sg317
g11
(g24
S'\x03\x00\x00\x00\x00\x00\x00\x00'
p3057
tp3058
Rp3059
sg38
g11
(g24
S'\x04\x00\x00\x00\x00\x00\x00\x00'
p3060
tp3061
Rp3062
sg109
g11
(g15
S'\xb5K\x80\xabT\xb0\xda?'
p3063
tp3064
Rp3065
ssg46
g11
(g12
(S'S6'
p3066
I0
I1
tp3067
Rp3068
(I3
S'|'
p3069
NNNI6
I1
I0
tp3070
bS'ISOMAP'
p3071
tp3072
Rp3073
sg55
F0.2
sg38
g3062
sg56
g11
(g12
(S'S8'
p3074
I0
I1
tp3075
Rp3076
(I3
S'|'
p3077
NNNI8
I1
I0
tp3078
bS'haralick'
p3079
tp3080
Rp3081
sg317
g3059
sg65
g11
(g15
S'E\x9b\xc5\x1f\x17:\xec?'
p3082
tp3083
Rp3084
sg69
g11
(g12
(S'S2'
p3085
I0
I1
tp3086
Rp3087
(I3
S'|'
p3088
NNNI2
I1
I0
tp3089
bS'RF'
p3090
tp3091
Rp3092
sg78
I3
sg109
g3065
sg79
g80
sg81
g11
(g15
S'\xbd\x00\xf4\x15<"\xea?'
p3093
tp3094
Rp3095
sg85
g86
sg87
g88
sbag4
(g5
g6
Ntp3096
Rp3097
(dp3098
g10
g11
(g15
S'\x00\x00\x00\x00\x00\x00\xf8\xff'
p3099
tp3100
Rp3101
sg21
g11
(g24
S'\x05\x00\x00\x00\x00\x00\x00\x00'
p3102
tp3103
Rp3104
sg30
g31
sg32
(dp3105
g21
g3104
sg34
g11
(g15
S'\xe5j;\xab\xe3\xefI@'
p3106
tp3107
Rp3108
sg38
g11
(g24
S'\x02\x00\x00\x00\x00\x00\x00\x00'
p3109
tp3110
Rp3111
sg42
g11
(g15
S'\xdf:e\x94\xbb\xef\x03@'
p3112
tp3113
Rp3114
ssg42
g3114
sg46
g11
(g12
(S'S6'
p3115
I0
I1
tp3116
Rp3117
(I3
S'|'
p3118
NNNI6
I1
I0
tp3119
bS'ISOMAP'
p3120
tp3121
Rp3122
sg55
F0.2
sg38
g3111
sg56
g11
(g12
(S'S3'
p3123
I0
I1
tp3124
Rp3125
(I3
S'|'
p3126
NNNI3
I1
I0
tp3127
bS'VGG'
p3128
tp3129
Rp3130
sg34
g3108
sg65
g11
(g15
S'\x1d\xdc\xa5\xe4\xf83\xe2?'
p3131
tp3132
Rp3133
sg69
g11
(g12
(S'S3'
p3134
I0
I1
tp3135
Rp3136
(I3
S'|'
p3137
NNNI3
I1
I0
tp3138
bS'SVM'
p3139
tp3140
Rp3141
sg78
I3
sg79
g80
sg81
g11
(g15
S'\xe8\x9a\x1ac\xa9\xea\xe6?'
p3142
tp3143
Rp3144
sg85
g86
sg87
g88
sbag4
(g5
g6
Ntp3145
Rp3146
(dp3147
g10
g11
(g15
S'\x00\x00\x00\x00\x00\x00\xf8\xff'
p3148
tp3149
Rp3150
sg95
g11
(g15
S'\x00\x00\x00\x00\x00\xc0r@'
p3151
tp3152
Rp3153
sg30
g31
sg21
g11
(g24
S'\x03\x00\x00\x00\x00\x00\x00\x00'
p3154
tp3155
Rp3156
sg32
(dp3157
g95
g3153
sg21
g3156
sg317
g11
(g24
S'\x01\x00\x00\x00\x00\x00\x00\x00'
p3158
tp3159
Rp3160
sg38
g11
(g24
S'\x04\x00\x00\x00\x00\x00\x00\x00'
p3161
tp3162
Rp3163
sg109
g11
(g15
S'\x85\x04z\x94\x84I\xda?'
p3164
tp3165
Rp3166
ssg46
g11
(g12
(S'S6'
p3167
I0
I1
tp3168
Rp3169
(I3
S'|'
p3170
NNNI6
I1
I0
tp3171
bS'ISOMAP'
p3172
tp3173
Rp3174
sg55
F0.2
sg38
g3163
sg56
g11
(g12
(S'S8'
p3175
I0
I1
tp3176
Rp3177
(I3
S'|'
p3178
NNNI8
I1
I0
tp3179
bS'haralick'
p3180
tp3181
Rp3182
sg317
g3160
sg65
g11
(g15
S"<<\\\x1a\x91'\xff?"
p3183
tp3184
Rp3185
sg69
g11
(g12
(S'S2'
p3186
I0
I1
tp3187
Rp3188
(I3
S'|'
p3189
NNNI2
I1
I0
tp3190
bS'RF'
p3191
tp3192
Rp3193
sg78
I3
sg109
g3166
sg79
g80
sg81
g11
(g15
S'\xb9\x8f0\x7f\xf6\xfc\xe5?'
p3194
tp3195
Rp3196
sg85
g86
sg87
g88
sbag4
(g5
g6
Ntp3197
Rp3198
(dp3199
g10
g11
(g15
S'\x00\x00\x00\x00\x00\x00\xf8\xff'
p3200
tp3201
Rp3202
sg95
g11
(g15
S'\x00\x00\x00\x00\x00@e@'
p3203
tp3204
Rp3205
sg99
g107
sg30
g31
sg32
(dp3206
g95
g3205
sg109
g11
(g15
S'\x90\xcc\xa8%5g\xe9?'
p3207
tp3208
Rp3209
sg99
g107
ssg46
g11
(g12
(S'S3'
p3210
I0
I1
tp3211
Rp3212
(I3
S'|'
p3213
NNNI3
I1
I0
tp3214
bS'PCA'
p3215
tp3216
Rp3217
sg55
F0.2
sg56
g11
(g12
(S'S3'
p3218
I0
I1
tp3219
Rp3220
(I3
S'|'
p3221
NNNI3
I1
I0
tp3222
bS'VGG'
p3223
tp3224
Rp3225
sg65
g11
(g15
S'T\xfd^\xc3\x01\x84\xda?'
p3226
tp3227
Rp3228
sg69
g11
(g12
(S'S2'
p3229
I0
I1
tp3230
Rp3231
(I3
S'|'
p3232
NNNI2
I1
I0
tp3233
bS'RF'
p3234
tp3235
Rp3236
sg78
I3
sg109
g3209
sg79
g80
sg81
g11
(g15
S'+\xc1z\xab\xdeo\xea?'
p3237
tp3238
Rp3239
sg85
g86
sg87
g88
sbag4
(g5
g6
Ntp3240
Rp3241
(dp3242
g10
g11
(g15
S'\x00\x00\x00\x00\x00\x00\xf8\xff'
p3243
tp3244
Rp3245
sg21
g11
(g24
S'\x07\x00\x00\x00\x00\x00\x00\x00'
p3246
tp3247
Rp3248
sg30
g31
sg32
(dp3249
g21
g3248
sg34
g11
(g15
S'\x06x\xa3_\xe8\x11P@'
p3250
tp3251
Rp3252
sg38
g11
(g24
S'\x04\x00\x00\x00\x00\x00\x00\x00'
p3253
tp3254
Rp3255
sg42
g11
(g15
S'\x8d\x9f\xef\x16y\xbe\xc7?'
p3256
tp3257
Rp3258
ssg42
g3258
sg46
g11
(g12
(S'S6'
p3259
I0
I1
tp3260
Rp3261
(I3
S'|'
p3262
NNNI6
I1
I0
tp3263
bS'ISOMAP'
p3264
tp3265
Rp3266
sg55
F0.2
sg38
g3255
sg56
g11
(g12
(S'S9'
p3267
I0
I1
tp3268
Rp3269
(I3
S'|'
p3270
NNNI9
I1
I0
tp3271
bS'inception'
p3272
tp3273
Rp3274
sg34
g3252
sg65
g11
(g15
S'\xb3Q\x92\xb6\xb9\x90\xe5?'
p3275
tp3276
Rp3277
sg69
g11
(g12
(S'S3'
p3278
I0
I1
tp3279
Rp3280
(I3
S'|'
p3281
NNNI3
I1
I0
tp3282
bS'SVM'
p3283
tp3284
Rp3285
sg78
I3
sg79
g80
sg81
g11
(g15
S'u\xd5|\xc3F\xb3\xe3?'
p3286
tp3287
Rp3288
sg85
g86
sg87
g88
sbag4
(g5
g6
Ntp3289
Rp3290
(dp3291
g10
g11
(g15
S'\x00\x00\x00\x00\x00\x00\xf8\xff'
p3292
tp3293
Rp3294
sg95
g11
(g15
S'\x00\x00\x00\x00\x00@R@'
p3295
tp3296
Rp3297
sg30
g31
sg21
g11
(g24
S'\x03\x00\x00\x00\x00\x00\x00\x00'
p3298
tp3299
Rp3300
sg32
(dp3301
g95
g3297
sg21
g3300
sg38
g11
(g24
S'\x02\x00\x00\x00\x00\x00\x00\x00'
p3302
tp3303
Rp3304
sg109
g11
(g15
S'0\x82\x08\x02Q\xc1\xe7?'
p3305
tp3306
Rp3307
ssg46
g11
(g12
(S'S6'
p3308
I0
I1
tp3309
Rp3310
(I3
S'|'
p3311
NNNI6
I1
I0
tp3312
bS'ISOMAP'
p3313
tp3314
Rp3315
sg55
F0.2
sg38
g3304
sg56
g11
(g12
(S'S3'
p3316
I0
I1
tp3317
Rp3318
(I3
S'|'
p3319
NNNI3
I1
I0
tp3320
bS'VGG'
p3321
tp3322
Rp3323
sg65
g11
(g15
S'\x13\xff\xa5dh\x14\xf6?'
p3324
tp3325
Rp3326
sg69
g11
(g12
(S'S2'
p3327
I0
I1
tp3328
Rp3329
(I3
S'|'
p3330
NNNI2
I1
I0
tp3331
bS'RF'
p3332
tp3333
Rp3334
sg78
I3
sg109
g3307
sg79
g80
sg81
g11
(g15
S'\x98\x8f\xe0\x8b\xbb\xd4\xe8?'
p3335
tp3336
Rp3337
sg85
g86
sg87
g88
sbag4
(g5
g6
Ntp3338
Rp3339
(dp3340
g10
g11
(g15
S'\x00\x00\x00\x00\x00\x00\xf8\xff'
p3341
tp3342
Rp3343
sg21
g11
(g24
S'\x03\x00\x00\x00\x00\x00\x00\x00'
p3344
tp3345
Rp3346
sg30
g31
sg32
(dp3347
g21
g3346
sg34
g11
(g15
S'\x00\xa4^\xc6\x12\xabP@'
p3348
tp3349
Rp3350
sg38
g11
(g24
S'\x03\x00\x00\x00\x00\x00\x00\x00'
p3351
tp3352
Rp3353
sg42
g11
(g15
S'@8/\x00PG\x1a@'
p3354
tp3355
Rp3356
ssg42
g3356
sg46
g11
(g12
(S'S6'
p3357
I0
I1
tp3358
Rp3359
(I3
S'|'
p3360
NNNI6
I1
I0
tp3361
bS'ISOMAP'
p3362
tp3363
Rp3364
sg55
F0.2
sg38
g3353
sg56
g11
(g12
(S'S9'
p3365
I0
I1
tp3366
Rp3367
(I3
S'|'
p3368
NNNI9
I1
I0
tp3369
bS'inception'
p3370
tp3371
Rp3372
sg34
g3350
sg65
g11
(g15
S'\xa7\x0br\x9ew\x1f\xe8?'
p3373
tp3374
Rp3375
sg69
g11
(g12
(S'S3'
p3376
I0
I1
tp3377
Rp3378
(I3
S'|'
p3379
NNNI3
I1
I0
tp3380
bS'SVM'
p3381
tp3382
Rp3383
sg78
I3
sg79
g80
sg81
g11
(g15
S"\xe8\x1c\xe5'@3\xe3?"
p3384
tp3385
Rp3386
sg85
g86
sg87
g88
sbag4
(g5
g6
Ntp3387
Rp3388
(dp3389
g10
g11
(g15
S'\x00\x00\x00\x00\x00\x00\xf8\xff'
p3390
tp3391
Rp3392
sg95
g11
(g15
S'\x00\x00\x00\x00\x00`i@'
p3393
tp3394
Rp3395
sg30
g31
sg21
g11
(g24
S'\x04\x00\x00\x00\x00\x00\x00\x00'
p3396
tp3397
Rp3398
sg32
(dp3399
g95
g3395
sg21
g3398
sg38
g11
(g24
S'\x04\x00\x00\x00\x00\x00\x00\x00'
p3400
tp3401
Rp3402
sg109
g11
(g15
S'\xb0\x83\xe7\xcc,1\xe0?'
p3403
tp3404
Rp3405
ssg46
g11
(g12
(S'S6'
p3406
I0
I1
tp3407
Rp3408
(I3
S'|'
p3409
NNNI6
I1
I0
tp3410
bS'ISOMAP'
p3411
tp3412
Rp3413
sg55
F0.2
sg38
g3402
sg56
g11
(g12
(S'S3'
p3414
I0
I1
tp3415
Rp3416
(I3
S'|'
p3417
NNNI3
I1
I0
tp3418
bS'VGG'
p3419
tp3420
Rp3421
sg65
g11
(g15
S'\xc5:l\x98~\xaf\xe8?'
p3422
tp3423
Rp3424
sg69
g11
(g12
(S'S2'
p3425
I0
I1
tp3426
Rp3427
(I3
S'|'
p3428
NNNI2
I1
I0
tp3429
bS'RF'
p3430
tp3431
Rp3432
sg78
I3
sg109
g3405
sg79
g80
sg81
g11
(g15
S'#\xd7\x11`\xba\x82\xe9?'
p3433
tp3434
Rp3435
sg85
g86
sg87
g88
sbag4
(g5
g6
Ntp3436
Rp3437
(dp3438
g10
g11
(g15
S'\x00\x00\x00\x00\x00\x00\xf8\xff'
p3439
tp3440
Rp3441
sg99
g154
sg30
g31
sg32
(dp3442
g99
g154
sg34
g11
(g15
S'\x10\xb7jLO_;@'
p3443
tp3444
Rp3445
sg317
g11
(g24
S'\x01\x00\x00\x00\x00\x00\x00\x00'
p3446
tp3447
Rp3448
sg42
g11
(g15
S'\x9d\x00\x8e\xeb\xdeP\x1e@'
p3449
tp3450
Rp3451
ssg46
g11
(g12
(S'S3'
p3452
I0
I1
tp3453
Rp3454
(I3
S'|'
p3455
NNNI3
I1
I0
tp3456
bS'PCA'
p3457
tp3458
Rp3459
sg55
F0.2
sg42
g3451
sg56
g11
(g12
(S'S8'
p3460
I0
I1
tp3461
Rp3462
(I3
S'|'
p3463
NNNI8
I1
I0
tp3464
bS'haralick'
p3465
tp3466
Rp3467
sg34
g3445
sg317
g3448
sg65
g11
(g15
S'\xd8\xf7O\x88Kg\xe0?'
p3468
tp3469
Rp3470
sg69
g11
(g12
(S'S3'
p3471
I0
I1
tp3472
Rp3473
(I3
S'|'
p3474
NNNI3
I1
I0
tp3475
bS'SVM'
p3476
tp3477
Rp3478
sg78
I3
sg79
g80
sg81
g11
(g15
S'\x17\x081\xf0\xf3/\xe5?'
p3479
tp3480
Rp3481
sg85
g86
sg87
g88
sbag4
(g5
g6
Ntp3482
Rp3483
(dp3484
g10
g11
(g15
S'\x00\x00\x00\x00\x00\x00\xf8\xff'
p3485
tp3486
Rp3487
sg21
g11
(g24
S'\x04\x00\x00\x00\x00\x00\x00\x00'
p3488
tp3489
Rp3490
sg30
g31
sg32
(dp3491
g21
g3490
sg34
g11
(g15
S'\xf1\x9d\x10X\xcd\xa6R@'
p3492
tp3493
Rp3494
sg38
g11
(g24
S'\x04\x00\x00\x00\x00\x00\x00\x00'
p3495
tp3496
Rp3497
sg42
g11
(g15
S'B\x92oy\xdbN\x1a@'
p3498
tp3499
Rp3500
ssg42
g3500
sg46
g11
(g12
(S'S6'
p3501
I0
I1
tp3502
Rp3503
(I3
S'|'
p3504
NNNI6
I1
I0
tp3505
bS'ISOMAP'
p3506
tp3507
Rp3508
sg55
F0.2
sg38
g3497
sg56
g11
(g12
(S'S9'
p3509
I0
I1
tp3510
Rp3511
(I3
S'|'
p3512
NNNI9
I1
I0
tp3513
bS'inception'
p3514
tp3515
Rp3516
sg34
g3494
sg65
g11
(g15
S'aWy\xf2\x16*\xe5?'
p3517
tp3518
Rp3519
sg69
g11
(g12
(S'S3'
p3520
I0
I1
tp3521
Rp3522
(I3
S'|'
p3523
NNNI3
I1
I0
tp3524
bS'SVM'
p3525
tp3526
Rp3527
sg78
I3
sg79
g80
sg81
g11
(g15
S'\xb9#/n\xe5\xef\xe4?'
p3528
tp3529
Rp3530
sg85
g86
sg87
g88
sbag4
(g5
g6
Ntp3531
Rp3532
(dp3533
g10
g11
(g15
S'\x00\x00\x00\x00\x00\x00\xf8\xff'
p3534
tp3535
Rp3536
sg95
g11
(g15
S'\x00\x00\x00\x00\x00`m@'
p3537
tp3538
Rp3539
sg99
g107
sg30
g31
sg32
(dp3540
g95
g3539
sg109
g11
(g15
S'|NE\xee\x98\x07\xe8?'
p3541
tp3542
Rp3543
sg99
g107
ssg46
g11
(g12
(S'S3'
p3544
I0
I1
tp3545
Rp3546
(I3
S'|'
p3547
NNNI3
I1
I0
tp3548
bS'PCA'
p3549
tp3550
Rp3551
sg55
F0.2
sg56
g11
(g12
(S'S3'
p3552
I0
I1
tp3553
Rp3554
(I3
S'|'
p3555
NNNI3
I1
I0
tp3556
bS'VGG'
p3557
tp3558
Rp3559
sg65
g11
(g15
S'\x8d\xe8Im7\x1f\xda?'
p3560
tp3561
Rp3562
sg69
g11
(g12
(S'S2'
p3563
I0
I1
tp3564
Rp3565
(I3
S'|'
p3566
NNNI2
I1
I0
tp3567
bS'RF'
p3568
tp3569
Rp3570
sg78
I3
sg109
g3543
sg79
g80
sg81
g11
(g15
S')\xc4t\xb7\xc6\x9f\xea?'
p3571
tp3572
Rp3573
sg85
g86
sg87
g88
sbag4
(g5
g6
Ntp3574
Rp3575
(dp3576
g10
g11
(g15
S'\x00\x00\x00\x00\x00\x00\xf8\xff'
p3577
tp3578
Rp3579
sg99
g154
sg30
g31
sg32
(dp3580
g99
g154
sg34
g11
(g15
S'\xf0N\xf8Q\x1en\x1f@'
p3581
tp3582
Rp3583
sg317
g11
(g24
S'\x01\x00\x00\x00\x00\x00\x00\x00'
p3584
tp3585
Rp3586
sg42
g11
(g15
S'\xef_@\xdc\x08\xe5\x18@'
p3587
tp3588
Rp3589
ssg46
g11
(g12
(S'S3'
p3590
I0
I1
tp3591
Rp3592
(I3
S'|'
p3593
NNNI3
I1
I0
tp3594
bS'PCA'
p3595
tp3596
Rp3597
sg55
F0.2
sg42
g3589
sg56
g11
(g12
(S'S8'
p3598
I0
I1
tp3599
Rp3600
(I3
S'|'
p3601
NNNI8
I1
I0
tp3602
bS'haralick'
p3603
tp3604
Rp3605
sg34
g3583
sg317
g3586
sg65
g11
(g15
S',y\x87\x03\x8cc\xe0?'
p3606
tp3607
Rp3608
sg69
g11
(g12
(S'S3'
p3609
I0
I1
tp3610
Rp3611
(I3
S'|'
p3612
NNNI3
I1
I0
tp3613
bS'SVM'
p3614
tp3615
Rp3616
sg78
I3
sg79
g80
sg81
g11
(g15
S'\x0f/R\x85\x9c\x1b\xe6?'
p3617
tp3618
Rp3619
sg85
g86
sg87
g88
sbag4
(g5
g6
Ntp3620
Rp3621
(dp3622
g10
g11
(g15
S'\x00\x00\x00\x00\x00\x00\xf8\xff'
p3623
tp3624
Rp3625
sg95
g11
(g15
S'\x00\x00\x00\x00\x00`m@'
p3626
tp3627
Rp3628
sg30
g31
sg21
g11
(g24
S'\x05\x00\x00\x00\x00\x00\x00\x00'
p3629
tp3630
Rp3631
sg32
(dp3632
g95
g3628
sg21
g3631
sg317
g11
(g24
S'\x01\x00\x00\x00\x00\x00\x00\x00'
p3633
tp3634
Rp3635
sg38
g11
(g24
S'\x02\x00\x00\x00\x00\x00\x00\x00'
p3636
tp3637
Rp3638
sg109
g11
(g15
S'h\xfdn\xe9\x80@\xd5?'
p3639
tp3640
Rp3641
ssg46
g11
(g12
(S'S6'
p3642
I0
I1
tp3643
Rp3644
(I3
S'|'
p3645
NNNI6
I1
I0
tp3646
bS'ISOMAP'
p3647
tp3648
Rp3649
sg55
F0.2
sg38
g3638
sg56
g11
(g12
(S'S8'
p3650
I0
I1
tp3651
Rp3652
(I3
S'|'
p3653
NNNI8
I1
I0
tp3654
bS'haralick'
p3655
tp3656
Rp3657
sg317
g3635
sg65
g11
(g15
S"\x0b'e&[/\xfa?"
p3658
tp3659
Rp3660
sg69
g11
(g12
(S'S2'
p3661
I0
I1
tp3662
Rp3663
(I3
S'|'
p3664
NNNI2
I1
I0
tp3665
bS'RF'
p3666
tp3667
Rp3668
sg78
I3
sg109
g3641
sg79
g80
sg81
g11
(g15
S'A\xa4y(\x8fz\xe7?'
p3669
tp3670
Rp3671
sg85
g86
sg87
g88
sbag4
(g5
g6
Ntp3672
Rp3673
(dp3674
g10
g11
(g15
S'\x00\x00\x00\x00\x00\x00\xf8\xff'
p3675
tp3676
Rp3677
sg99
g154
sg30
g31
sg32
(dp3678
g99
g154
sg34
g11
(g15
S'u\xab\x11">\xf9P@'
p3679
tp3680
Rp3681
sg317
g11
(g24
S'\x03\x00\x00\x00\x00\x00\x00\x00'
p3682
tp3683
Rp3684
sg42
g11
(g15
S'\xd9\xd1?a\xfc\x1e\x11@'
p3685
tp3686
Rp3687
ssg46
g11
(g12
(S'S3'
p3688
I0
I1
tp3689
Rp3690
(I3
S'|'
p3691
NNNI3
I1
I0
tp3692
bS'PCA'
p3693
tp3694
Rp3695
sg55
F0.2
sg42
g3687
sg56
g11
(g12
(S'S8'
p3696
I0
I1
tp3697
Rp3698
(I3
S'|'
p3699
NNNI8
I1
I0
tp3700
bS'haralick'
p3701
tp3702
Rp3703
sg34
g3681
sg317
g3684
sg65
g11
(g15
S'\xa6\xd8\x9a\x13GR\xe0?'
p3704
tp3705
Rp3706
sg69
g11
(g12
(S'S3'
p3707
I0
I1
tp3708
Rp3709
(I3
S'|'
p3710
NNNI3
I1
I0
tp3711
bS'SVM'
p3712
tp3713
Rp3714
sg78
I3
sg79
g80
sg81
g11
(g15
S'W\x12\xc5I\xcc\xa1\xe4?'
p3715
tp3716
Rp3717
sg85
g86
sg87
g88
sbag4
(g5
g6
Ntp3718
Rp3719
(dp3720
g10
g11
(g15
S'\x00\x00\x00\x00\x00\x00\xf8\xff'
p3721
tp3722
Rp3723
sg95
g11
(g15
S'\x00\x00\x00\x00\x00\xc0r@'
p3724
tp3725
Rp3726
sg99
g154
sg30
g31
sg32
(dp3727
g95
g3726
sg109
g11
(g15
S'}\xf1\x81\xc0Q\xf5\xe7?'
p3728
tp3729
Rp3730
sg99
g154
ssg46
g11
(g12
(S'S3'
p3731
I0
I1
tp3732
Rp3733
(I3
S'|'
p3734
NNNI3
I1
I0
tp3735
bS'PCA'
p3736
tp3737
Rp3738
sg55
F0.2
sg56
g11
(g12
(S'S3'
p3739
I0
I1
tp3740
Rp3741
(I3
S'|'
p3742
NNNI3
I1
I0
tp3743
bS'VGG'
p3744
tp3745
Rp3746
sg65
g11
(g15
S'\x08>\x06\xa5\xb2Z\xda?'
p3747
tp3748
Rp3749
sg69
g11
(g12
(S'S2'
p3750
I0
I1
tp3751
Rp3752
(I3
S'|'
p3753
NNNI2
I1
I0
tp3754
bS'RF'
p3755
tp3756
Rp3757
sg78
I3
sg109
g3730
sg79
g80
sg81
g11
(g15
S'M#\xc8\xa6c\x80\xea?'
p3758
tp3759
Rp3760
sg85
g86
sg87
g88
sbag4
(g5
g6
Ntp3761
Rp3762
(dp3763
g10
g11
(g15
S'\x00\x00\x00\x00\x00\x00\xf8\xff'
p3764
tp3765
Rp3766
sg95
g11
(g15
S'\x00\x00\x00\x00\x00`i@'
p3767
tp3768
Rp3769
sg99
g107
sg30
g31
sg32
(dp3770
g95
g3769
sg109
g11
(g15
S'\x95\x96\xb2\\\r\xaf\xe2?'
p3771
tp3772
Rp3773
sg99
g107
ssg46
g11
(g12
(S'S3'
p3774
I0
I1
tp3775
Rp3776
(I3
S'|'
p3777
NNNI3
I1
I0
tp3778
bS'PCA'
p3779
tp3780
Rp3781
sg55
F0.2
sg56
g11
(g12
(S'S9'
p3782
I0
I1
tp3783
Rp3784
(I3
S'|'
p3785
NNNI9
I1
I0
tp3786
bS'inception'
p3787
tp3788
Rp3789
sg65
g11
(g15
S'h\x80\xe2%\xa5\xed\xe4?'
p3790
tp3791
Rp3792
sg69
g11
(g12
(S'S2'
p3793
I0
I1
tp3794
Rp3795
(I3
S'|'
p3796
NNNI2
I1
I0
tp3797
bS'RF'
p3798
tp3799
Rp3800
sg78
I3
sg109
g3773
sg79
g80
sg81
g11
(g15
S'\x81\x88\xee\x13\xeeE\xe8?'
p3801
tp3802
Rp3803
sg85
g86
sg87
g88
sbag4
(g5
g6
Ntp3804
Rp3805
(dp3806
g10
g11
(g15
S'\x00\x00\x00\x00\x00\x00\xf8\xff'
p3807
tp3808
Rp3809
sg95
g11
(g15
S'\x00\x00\x00\x00\x00\x00 @'
p3810
tp3811
Rp3812
sg30
g31
sg21
g11
(g24
S'\x04\x00\x00\x00\x00\x00\x00\x00'
p3813
tp3814
Rp3815
sg32
(dp3816
g95
g3812
sg21
g3815
sg38
g11
(g24
S'\x03\x00\x00\x00\x00\x00\x00\x00'
p3817
tp3818
Rp3819
sg109
g11
(g15
S'\xea\xfa\x19\xf3Q\xc1\xe7?'
p3820
tp3821
Rp3822
ssg46
g11
(g12
(S'S6'
p3823
I0
I1
tp3824
Rp3825
(I3
S'|'
p3826
NNNI6
I1
I0
tp3827
bS'ISOMAP'
p3828
tp3829
Rp3830
sg55
F0.2
sg38
g3819
sg56
g11
(g12
(S'S9'
p3831
I0
I1
tp3832
Rp3833
(I3
S'|'
p3834
NNNI9
I1
I0
tp3835
bS'inception'
p3836
tp3837
Rp3838
sg65
g11
(g15
S'\xf0\xab\xbf0G\x1f\x05@'
p3839
tp3840
Rp3841
sg69
g11
(g12
(S'S2'
p3842
I0
I1
tp3843
Rp3844
(I3
S'|'
p3845
NNNI2
I1
I0
tp3846
bS'RF'
p3847
tp3848
Rp3849
sg78
I3
sg109
g3822
sg79
g80
sg81
g11
(g15
S'\x80\x04\x02d){\xe6?'
p3850
tp3851
Rp3852
sg85
g86
sg87
g88
sbag4
(g5
g6
Ntp3853
Rp3854
(dp3855
g10
g11
(g15
S'\x00\x00\x00\x00\x00\x00\xf8\xff'
p3856
tp3857
Rp3858
sg21
g11
(g24
S'\x06\x00\x00\x00\x00\x00\x00\x00'
p3859
tp3860
Rp3861
sg30
g31
sg32
(dp3862
g21
g3861
sg34
g11
(g15
S'\xddO\xafz{\x12B@'
p3863
tp3864
Rp3865
sg38
g11
(g24
S'\x03\x00\x00\x00\x00\x00\x00\x00'
p3866
tp3867
Rp3868
sg42
g11
(g15
S'\xcfL{\x91\x8d\xe4\x11@'
p3869
tp3870
Rp3871
ssg42
g3871
sg46
g11
(g12
(S'S6'
p3872
I0
I1
tp3873
Rp3874
(I3
S'|'
p3875
NNNI6
I1
I0
tp3876
bS'ISOMAP'
p3877
tp3878
Rp3879
sg55
F0.2
sg38
g3868
sg56
g11
(g12
(S'S3'
p3880
I0
I1
tp3881
Rp3882
(I3
S'|'
p3883
NNNI3
I1
I0
tp3884
bS'VGG'
p3885
tp3886
Rp3887
sg34
g3865
sg65
g11
(g15
S'\x0641ApW\xe2?'
p3888
tp3889
Rp3890
sg69
g11
(g12
(S'S3'
p3891
I0
I1
tp3892
Rp3893
(I3
S'|'
p3894
NNNI3
I1
I0
tp3895
bS'SVM'
p3896
tp3897
Rp3898
sg78
I3
sg79
g80
sg81
g11
(g15
S'\x8b\xecn\xa7]H\xe7?'
p3899
tp3900
Rp3901
sg85
g86
sg87
g88
sbag4
(g5
g6
Ntp3902
Rp3903
(dp3904
g10
g11
(g15
S'\x00\x00\x00\x00\x00\x00\xf8\xff'
p3905
tp3906
Rp3907
sg99
g154
sg30
g31
sg32
(dp3908
g99
g154
sg34
g11
(g15
S'\xc2hJ\xdb\xeb6O@'
p3909
tp3910
Rp3911
sg42
g11
(g15
S'\xb6\xf1\x10)\xe5\xd4\xfa?'
p3912
tp3913
Rp3914
ssg46
g11
(g12
(S'S3'
p3915
I0
I1
tp3916
Rp3917
(I3
S'|'
p3918
NNNI3
I1
I0
tp3919
bS'PCA'
p3920
tp3921
Rp3922
sg55
F0.2
sg42
g3914
sg56
g11
(g12
(S'S3'
p3923
I0
I1
tp3924
Rp3925
(I3
S'|'
p3926
NNNI3
I1
I0
tp3927
bS'VGG'
p3928
tp3929
Rp3930
sg34
g3911
sg65
g11
(g15
S'd\xe0\xe9;\xd1K\xe1?'
p3931
tp3932
Rp3933
sg69
g11
(g12
(S'S3'
p3934
I0
I1
tp3935
Rp3936
(I3
S'|'
p3937
NNNI3
I1
I0
tp3938
bS'SVM'
p3939
tp3940
Rp3941
sg78
I3
sg79
g80
sg81
g11
(g15
S'\xdd\xa8\xc6\xe4\x1aF\xe8?'
p3942
tp3943
Rp3944
sg85
g86
sg87
g88
sbag4
(g5
g6
Ntp3945
Rp3946
(dp3947
g10
g11
(g15
S'\x00\x00\x00\x00\x00\x00\xf8\xff'
p3948
tp3949
Rp3950
sg95
g11
(g15
S'\x00\x00\x00\x00\x00\x00 @'
p3951
tp3952
Rp3953
sg30
g31
sg21
g11
(g24
S'\x04\x00\x00\x00\x00\x00\x00\x00'
p3954
tp3955
Rp3956
sg32
(dp3957
g95
g3953
sg21
g3956
sg38
g11
(g24
S'\x04\x00\x00\x00\x00\x00\x00\x00'
p3958
tp3959
Rp3960
sg109
g11
(g15
S'\xf4\xb3\x95W\x13\xb0\xdb?'
p3961
tp3962
Rp3963
ssg46
g11
(g12
(S'S6'
p3964
I0
I1
tp3965
Rp3966
(I3
S'|'
p3967
NNNI6
I1
I0
tp3968
bS'ISOMAP'
p3969
tp3970
Rp3971
sg55
F0.2
sg38
g3960
sg56
g11
(g12
(S'S9'
p3972
I0
I1
tp3973
Rp3974
(I3
S'|'
p3975
NNNI9
I1
I0
tp3976
bS'inception'
p3977
tp3978
Rp3979
sg65
g11
(g15
S'\xc4\xa8L%[#\x06@'
p3980
tp3981
Rp3982
sg69
g11
(g12
(S'S2'
p3983
I0
I1
tp3984
Rp3985
(I3
S'|'
p3986
NNNI2
I1
I0
tp3987
bS'RF'
p3988
tp3989
Rp3990
sg78
I3
sg109
g3963
sg79
g80
sg81
g11
(g15
S'3\xa6\x90\x13\xed\xb9\xe6?'
p3991
tp3992
Rp3993
sg85
g86
sg87
g88
sbag4
(g5
g6
Ntp3994
Rp3995
(dp3996
g10
g11
(g15
S'\x00\x00\x00\x00\x00\x00\xf8\xff'
p3997
tp3998
Rp3999
sg95
g11
(g15
S'\x00\x00\x00\x00\x00`i@'
p4000
tp4001
Rp4002
sg30
g31
sg21
g11
(g24
S'\x03\x00\x00\x00\x00\x00\x00\x00'
p4003
tp4004
Rp4005
sg32
(dp4006
g95
g4002
sg21
g4005
sg38
g11
(g24
S'\x03\x00\x00\x00\x00\x00\x00\x00'
p4007
tp4008
Rp4009
sg109
g11
(g15
S'<\xf8}cTZ\xd3?'
p4010
tp4011
Rp4012
ssg46
g11
(g12
(S'S6'
p4013
I0
I1
tp4014
Rp4015
(I3
S'|'
p4016
NNNI6
I1
I0
tp4017
bS'ISOMAP'
p4018
tp4019
Rp4020
sg55
F0.2
sg38
g4009
sg56
g11
(g12
(S'S3'
p4021
I0
I1
tp4022
Rp4023
(I3
S'|'
p4024
NNNI3
I1
I0
tp4025
bS'VGG'
p4026
tp4027
Rp4028
sg65
g11
(g15
S'P\x91 j\xfc\x18\xee?'
p4029
tp4030
Rp4031
sg69
g11
(g12
(S'S2'
p4032
I0
I1
tp4033
Rp4034
(I3
S'|'
p4035
NNNI2
I1
I0
tp4036
bS'RF'
p4037
tp4038
Rp4039
sg78
I3
sg109
g4012
sg79
g80
sg81
g11
(g15
S'\x1b#\xff\xdaX3\xe9?'
p4040
tp4041
Rp4042
sg85
g86
sg87
g88
sbag4
(g5
g6
Ntp4043
Rp4044
(dp4045
g10
g11
(g15
S'\x00\x00\x00\x00\x00\x00\xf8\xff'
p4046
tp4047
Rp4048
sg99
g107
sg30
g31
sg32
(dp4049
g99
g107
sg34
g11
(g15
S'\xfbB-{\xb3HV@'
p4050
tp4051
Rp4052
sg42
g11
(g15
S'\xc1\xc2Yc\xb3\x03\x18@'
p4053
tp4054
Rp4055
ssg46
g11
(g12
(S'S3'
p4056
I0
I1
tp4057
Rp4058
(I3
S'|'
p4059
NNNI3
I1
I0
tp4060
bS'PCA'
p4061
tp4062
Rp4063
sg55
F0.2
sg42
g4055
sg56
g11
(g12
(S'S3'
p4064
I0
I1
tp4065
Rp4066
(I3
S'|'
p4067
NNNI3
I1
I0
tp4068
bS'VGG'
p4069
tp4070
Rp4071
sg34
g4052
sg65
g11
(g15
S'\x88v\x1c\x9eGd\xe7?'
p4072
tp4073
Rp4074
sg69
g11
(g12
(S'S3'
p4075
I0
I1
tp4076
Rp4077
(I3
S'|'
p4078
NNNI3
I1
I0
tp4079
bS'SVM'
p4080
tp4081
Rp4082
sg78
I3
sg79
g80
sg81
g11
(g15
S'\xa3\x19\x0c\xfe/@\xe5?'
p4083
tp4084
Rp4085
sg85
g86
sg87
g88
sbag4
(g5
g6
Ntp4086
Rp4087
(dp4088
g10
g11
(g15
S'\x00\x00\x00\x00\x00\x00\xf8\xff'
p4089
tp4090
Rp4091
sg95
g11
(g15
S'\x00\x00\x00\x00\x00`i@'
p4092
tp4093
Rp4094
sg99
g107
sg30
g31
sg32
(dp4095
g95
g4094
sg109
g11
(g15
S',\n\xa0\x991\xe7\xd5?'
p4096
tp4097
Rp4098
sg99
g107
ssg46
g11
(g12
(S'S3'
p4099
I0
I1
tp4100
Rp4101
(I3
S'|'
p4102
NNNI3
I1
I0
tp4103
bS'PCA'
p4104
tp4105
Rp4106
sg55
F0.2
sg56
g11
(g12
(S'S3'
p4107
I0
I1
tp4108
Rp4109
(I3
S'|'
p4110
NNNI3
I1
I0
tp4111
bS'VGG'
p4112
tp4113
Rp4114
sg65
g11
(g15
S'm\xe8yc\xef\xe7\xda?'
p4115
tp4116
Rp4117
sg69
g11
(g12
(S'S2'
p4118
I0
I1
tp4119
Rp4120
(I3
S'|'
p4121
NNNI2
I1
I0
tp4122
bS'RF'
p4123
tp4124
Rp4125
sg78
I3
sg109
g4098
sg79
g80
sg81
g11
(g15
S'\x07c%\xc09\x9f\xea?'
p4126
tp4127
Rp4128
sg85
g86
sg87
g88
sbag4
(g5
g6
Ntp4129
Rp4130
(dp4131
g10
g11
(g15
S'\x00\x00\x00\x00\x00\x00\xf8\xff'
p4132
tp4133
Rp4134
sg95
g11
(g15
S'\x00\x00\x00\x00\x00\xc0p@'
p4135
tp4136
Rp4137
sg30
g31
sg21
g11
(g24
S'\x07\x00\x00\x00\x00\x00\x00\x00'
p4138
tp4139
Rp4140
sg32
(dp4141
g95
g4137
sg21
g4140
sg317
g11
(g24
S'\x02\x00\x00\x00\x00\x00\x00\x00'
p4142
tp4143
Rp4144
sg38
g11
(g24
S'\x03\x00\x00\x00\x00\x00\x00\x00'
p4145
tp4146
Rp4147
sg109
g11
(g15
S'n\xf1s\xe0\xd5\x8c\xdb?'
p4148
tp4149
Rp4150
ssg46
g11
(g12
(S'S6'
p4151
I0
I1
tp4152
Rp4153
(I3
S'|'
p4154
NNNI6
I1
I0
tp4155
bS'ISOMAP'
p4156
tp4157
Rp4158
sg55
F0.2
sg38
g4147
sg56
g11
(g12
(S'S8'
p4159
I0
I1
tp4160
Rp4161
(I3
S'|'
p4162
NNNI8
I1
I0
tp4163
bS'haralick'
p4164
tp4165
Rp4166
sg317
g4144
sg65
g11
(g15
S'\xf9\x95\xe65ph\xe6?'
p4167
tp4168
Rp4169
sg69
g11
(g12
(S'S2'
p4170
I0
I1
tp4171
Rp4172
(I3
S'|'
p4173
NNNI2
I1
I0
tp4174
bS'RF'
p4175
tp4176
Rp4177
sg78
I3
sg109
g4150
sg79
g80
sg81
g11
(g15
S'w\xee\x8bI0\xe3\xe9?'
p4178
tp4179
Rp4180
sg85
g86
sg87
g88
sbag4
(g5
g6
Ntp4181
Rp4182
(dp4183
g10
g11
(g15
S'\x00\x00\x00\x00\x00\x00\xf8\xff'
p4184
tp4185
Rp4186
sg99
g154
sg30
g31
sg32
(dp4187
g99
g154
sg34
g11
(g15
S'\xa3\xd9\xe1\xa1\xf4\xe94@'
p4188
tp4189
Rp4190
sg42
g11
(g15
S'\x97z\x99\xdb\x8bq\xf6?'
p4191
tp4192
Rp4193
ssg46
g11
(g12
(S'S3'
p4194
I0
I1
tp4195
Rp4196
(I3
S'|'
p4197
NNNI3
I1
I0
tp4198
bS'PCA'
p4199
tp4200
Rp4201
sg55
F0.2
sg42
g4193
sg56
g11
(g12
(S'S3'
p4202
I0
I1
tp4203
Rp4204
(I3
S'|'
p4205
NNNI3
I1
I0
tp4206
bS'VGG'
p4207
tp4208
Rp4209
sg34
g4190
sg65
g11
(g15
S'\x97\xf3\xbbn\xa4\xdd\xe0?'
p4210
tp4211
Rp4212
sg69
g11
(g12
(S'S3'
p4213
I0
I1
tp4214
Rp4215
(I3
S'|'
p4216
NNNI3
I1
I0
tp4217
bS'SVM'
p4218
tp4219
Rp4220
sg78
I3
sg79
g80
sg81
g11
(g15
S'\x9f~\xcb[C\xd4\xe8?'
p4221
tp4222
Rp4223
sg85
g86
sg87
g88
sbag4
(g5
g6
Ntp4224
Rp4225
(dp4226
g10
g11
(g15
S'\x00\x00\x00\x00\x00\x00\xf8\xff'
p4227
tp4228
Rp4229
sg95
g11
(g15
S'\x00\x00\x00\x00\x00@Z@'
p4230
tp4231
Rp4232
sg99
g107
sg30
g31
sg32
(dp4233
g95
g4232
sg109
g11
(g15
S'\xd8l\xb2\xcb&g\xeb?'
p4234
tp4235
Rp4236
sg99
g107
sg317
g11
(g24
S'\x03\x00\x00\x00\x00\x00\x00\x00'
p4237
tp4238
Rp4239
ssg46
g11
(g12
(S'S3'
p4240
I0
I1
tp4241
Rp4242
(I3
S'|'
p4243
NNNI3
I1
I0
tp4244
bS'PCA'
p4245
tp4246
Rp4247
sg55
F0.2
sg56
g11
(g12
(S'S8'
p4248
I0
I1
tp4249
Rp4250
(I3
S'|'
p4251
NNNI8
I1
I0
tp4252
bS'haralick'
p4253
tp4254
Rp4255
sg317
g4239
sg65
g11
(g15
S'\xa8\nO*\x83\x15\x02@'
p4256
tp4257
Rp4258
sg69
g11
(g12
(S'S2'
p4259
I0
I1
tp4260
Rp4261
(I3
S'|'
p4262
NNNI2
I1
I0
tp4263
bS'RF'
p4264
tp4265
Rp4266
sg78
I3
sg109
g4236
sg79
g80
sg81
g11
(g15
S'\x94\x8a\xcaK\x1a~\xe6?'
p4267
tp4268
Rp4269
sg85
g86
sg87
g88
sbag4
(g5
g6
Ntp4270
Rp4271
(dp4272
g10
g11
(g15
S'\x00\x00\x00\x00\x00\x00\xf8\xff'
p4273
tp4274
Rp4275
sg95
g11
(g15
S'\x00\x00\x00\x00\x00`i@'
p4276
tp4277
Rp4278
sg30
g31
sg21
g11
(g24
S'\x07\x00\x00\x00\x00\x00\x00\x00'
p4279
tp4280
Rp4281
sg32
(dp4282
g95
g4278
sg21
g4281
sg317
g11
(g24
S'\x03\x00\x00\x00\x00\x00\x00\x00'
p4283
tp4284
Rp4285
sg38
g11
(g24
S'\x02\x00\x00\x00\x00\x00\x00\x00'
p4286
tp4287
Rp4288
sg109
g11
(g15
S'\x8a\x8d:J\xc9\xc4\xe2?'
p4289
tp4290
Rp4291
ssg46
g11
(g12
(S'S6'
p4292
I0
I1
tp4293
Rp4294
(I3
S'|'
p4295
NNNI6
I1
I0
tp4296
bS'ISOMAP'
p4297
tp4298
Rp4299
sg55
F0.2
sg38
g4288
sg56
g11
(g12
(S'S8'
p4300
I0
I1
tp4301
Rp4302
(I3
S'|'
p4303
NNNI8
I1
I0
tp4304
bS'haralick'
p4305
tp4306
Rp4307
sg317
g4285
sg65
g11
(g15
S'\x0br\xb4\xaa?\xa9\xec?'
p4308
tp4309
Rp4310
sg69
g11
(g12
(S'S2'
p4311
I0
I1
tp4312
Rp4313
(I3
S'|'
p4314
NNNI2
I1
I0
tp4315
bS'RF'
p4316
tp4317
Rp4318
sg78
I3
sg109
g4291
sg79
g80
sg81
g11
(g15
S')\xa7\x07\x94\xaf\xcf\xea?'
p4319
tp4320
Rp4321
sg85
g86
sg87
g88
sbag4
(g5
g6
Ntp4322
Rp4323
(dp4324
g10
g11
(g15
S'\x00\x00\x00\x00\x00\x00\xf8\xff'
p4325
tp4326
Rp4327
sg21
g11
(g24
S'\x07\x00\x00\x00\x00\x00\x00\x00'
p4328
tp4329
Rp4330
sg30
g31
sg32
(dp4331
g21
g4330
sg34
g11
(g15
S'_\x1f\xff\x9a\x80\x0cW@'
p4332
tp4333
Rp4334
sg317
g11
(g24
S'\x01\x00\x00\x00\x00\x00\x00\x00'
p4335
tp4336
Rp4337
sg38
g11
(g24
S'\x04\x00\x00\x00\x00\x00\x00\x00'
p4338
tp4339
Rp4340
sg42
g11
(g15
S'\xe55\xd4%3\r\x07@'
p4341
tp4342
Rp4343
ssg42
g4343
sg46
g11
(g12
(S'S6'
p4344
I0
I1
tp4345
Rp4346
(I3
S'|'
p4347
NNNI6
I1
I0
tp4348
bS'ISOMAP'
p4349
tp4350
Rp4351
sg55
F0.2
sg38
g4340
sg56
g11
(g12
(S'S8'
p4352
I0
I1
tp4353
Rp4354
(I3
S'|'
p4355
NNNI8
I1
I0
tp4356
bS'haralick'
p4357
tp4358
Rp4359
sg34
g4334
sg317
g4337
sg65
g11
(g15
S'\\\xa6\x9e\xf4f\xfe\xe1?'
p4360
tp4361
Rp4362
sg69
g11
(g12
(S'S3'
p4363
I0
I1
tp4364
Rp4365
(I3
S'|'
p4366
NNNI3
I1
I0
tp4367
bS'SVM'
p4368
tp4369
Rp4370
sg78
I3
sg79
g80
sg81
g11
(g15
S'P\x80\xfe;#\x88\xe7?'
p4371
tp4372
Rp4373
sg85
g86
sg87
g88
sbag4
(g5
g6
Ntp4374
Rp4375
(dp4376
g10
g11
(g15
S'\x00\x00\x00\x00\x00\x00\xf8\xff'
p4377
tp4378
Rp4379
sg95
g11
(g15
S'\x00\x00\x00\x00\x00\x00D@'
p4380
tp4381
Rp4382
sg99
g154
sg30
g31
sg32
(dp4383
g95
g4382
sg109
g11
(g15
S'4~\x96\x12\xafu\xe4?'
p4384
tp4385
Rp4386
sg99
g154
ssg46
g11
(g12
(S'S3'
p4387
I0
I1
tp4388
Rp4389
(I3
S'|'
p4390
NNNI3
I1
I0
tp4391
bS'PCA'
p4392
tp4393
Rp4394
sg55
F0.2
sg56
g11
(g12
(S'S9'
p4395
I0
I1
tp4396
Rp4397
(I3
S'|'
p4398
NNNI9
I1
I0
tp4399
bS'inception'
p4400
tp4401
Rp4402
sg65
g11
(g15
S'\x18s\x9b\x06\x8b\x80\xe7?'
p4403
tp4404
Rp4405
sg69
g11
(g12
(S'S2'
p4406
I0
I1
tp4407
Rp4408
(I3
S'|'
p4409
NNNI2
I1
I0
tp4410
bS'RF'
p4411
tp4412
Rp4413
sg78
I3
sg109
g4386
sg79
g80
sg81
g11
(g15
S'\x15\x173XE&\xe8?'
p4414
tp4415
Rp4416
sg85
g86
sg87
g88
sbag4
(g5
g6
Ntp4417
Rp4418
(dp4419
g10
g11
(g15
S'\x00\x00\x00\x00\x00\x00\xf8\xff'
p4420
tp4421
Rp4422
sg21
g11
(g24
S'\x06\x00\x00\x00\x00\x00\x00\x00'
p4423
tp4424
Rp4425
sg30
g31
sg32
(dp4426
g21
g4425
sg34
g11
(g15
S'\x08&o\xf8c\xc7S@'
p4427
tp4428
Rp4429
sg38
g11
(g24
S'\x04\x00\x00\x00\x00\x00\x00\x00'
p4430
tp4431
Rp4432
sg42
g11
(g15
S'\xf7\xa8b/\x14%\x1a@'
p4433
tp4434
Rp4435
ssg42
g4435
sg46
g11
(g12
(S'S6'
p4436
I0
I1
tp4437
Rp4438
(I3
S'|'
p4439
NNNI6
I1
I0
tp4440
bS'ISOMAP'
p4441
tp4442
Rp4443
sg55
F0.2
sg38
g4432
sg56
g11
(g12
(S'S3'
p4444
I0
I1
tp4445
Rp4446
(I3
S'|'
p4447
NNNI3
I1
I0
tp4448
bS'VGG'
p4449
tp4450
Rp4451
sg34
g4429
sg65
g11
(g15
S'\xd9\xb4\xd9P]\x80\xe1?'
p4452
tp4453
Rp4454
sg69
g11
(g12
(S'S3'
p4455
I0
I1
tp4456
Rp4457
(I3
S'|'
p4458
NNNI3
I1
I0
tp4459
bS'SVM'
p4460
tp4461
Rp4462
sg78
I3
sg79
g80
sg81
g11
(g15
S'\xc3\xc2\xad/\xb9\x04\xe9?'
p4463
tp4464
Rp4465
sg85
g86
sg87
g88
sbag4
(g5
g6
Ntp4466
Rp4467
(dp4468
g10
g11
(g15
S'\x00\x00\x00\x00\x00\x00\xf8\xff'
p4469
tp4470
Rp4471
sg21
g11
(g24
S'\x03\x00\x00\x00\x00\x00\x00\x00'
p4472
tp4473
Rp4474
sg30
g31
sg32
(dp4475
g21
g4474
sg34
g11
(g15
S'\xdb\x8f\x0c\xc6\x90 P@'
p4476
tp4477
Rp4478
sg317
g11
(g24
S'\x01\x00\x00\x00\x00\x00\x00\x00'
p4479
tp4480
Rp4481
sg38
g11
(g24
S'\x02\x00\x00\x00\x00\x00\x00\x00'
p4482
tp4483
Rp4484
sg42
g11
(g15
S'rdI\xb3\xe8\x02\x12@'
p4485
tp4486
Rp4487
ssg42
g4487
sg46
g11
(g12
(S'S6'
p4488
I0
I1
tp4489
Rp4490
(I3
S'|'
p4491
NNNI6
I1
I0
tp4492
bS'ISOMAP'
p4493
tp4494
Rp4495
sg55
F0.2
sg38
g4484
sg56
g11
(g12
(S'S8'
p4496
I0
I1
tp4497
Rp4498
(I3
S'|'
p4499
NNNI8
I1
I0
tp4500
bS'haralick'
p4501
tp4502
Rp4503
sg34
g4478
sg317
g4481
sg65
g11
(g15
S'\xad\xb5:U\xf5-\xe9?'
p4504
tp4505
Rp4506
sg69
g11
(g12
(S'S3'
p4507
I0
I1
tp4508
Rp4509
(I3
S'|'
p4510
NNNI3
I1
I0
tp4511
bS'SVM'
p4512
tp4513
Rp4514
sg78
I3
sg79
g80
sg81
g11
(g15
S'KlYY\x86\xe5\xe2?'
p4515
tp4516
Rp4517
sg85
g86
sg87
g88
sbag4
(g5
g6
Ntp4518
Rp4519
(dp4520
g10
g11
(g15
S'\x00\x00\x00\x00\x00\x00\xf8\xff'
p4521
tp4522
Rp4523
sg95
g11
(g15
S'\x00\x00\x00\x00\x00\x00 @'
p4524
tp4525
Rp4526
sg30
g31
sg21
g11
(g24
S'\x07\x00\x00\x00\x00\x00\x00\x00'
p4527
tp4528
Rp4529
sg32
(dp4530
g95
g4526
sg21
g4529
sg38
g11
(g24
S'\x03\x00\x00\x00\x00\x00\x00\x00'
p4531
tp4532
Rp4533
sg109
g11
(g15
S'I\xe8\x8a\xcb\tK\xe8?'
p4534
tp4535
Rp4536
ssg46
g11
(g12
(S'S6'
p4537
I0
I1
tp4538
Rp4539
(I3
S'|'
p4540
NNNI6
I1
I0
tp4541
bS'ISOMAP'
p4542
tp4543
Rp4544
sg55
F0.2
sg38
g4533
sg56
g11
(g12
(S'S3'
p4545
I0
I1
tp4546
Rp4547
(I3
S'|'
p4548
NNNI3
I1
I0
tp4549
bS'VGG'
p4550
tp4551
Rp4552
sg65
g11
(g15
S'\xa3\xb6A\x13/\x05\x04@'
p4553
tp4554
Rp4555
sg69
g11
(g12
(S'S2'
p4556
I0
I1
tp4557
Rp4558
(I3
S'|'
p4559
NNNI2
I1
I0
tp4560
bS'RF'
p4561
tp4562
Rp4563
sg78
I3
sg109
g4536
sg79
g80
sg81
g11
(g15
S'3\xb8\xc4=Ed\xe9?'
p4564
tp4565
Rp4566
sg85
g86
sg87
g88
sbag4
(g5
g6
Ntp4567
Rp4568
(dp4569
g10
g11
(g15
S'\x00\x00\x00\x00\x00\x00\xf8\xff'
p4570
tp4571
Rp4572
sg99
g154
sg30
g31
sg32
(dp4573
g99
g154
sg34
g11
(g15
S'\xf8\xb6\xf9\xb8P\xa5J@'
p4574
tp4575
Rp4576
sg42
g11
(g15
S'\xb6\x883\x07\x17N\xf8?'
p4577
tp4578
Rp4579
ssg46
g11
(g12
(S'S3'
p4580
I0
I1
tp4581
Rp4582
(I3
S'|'
p4583
NNNI3
I1
I0
tp4584
bS'PCA'
p4585
tp4586
Rp4587
sg55
F0.2
sg42
g4579
sg56
g11
(g12
(S'S9'
p4588
I0
I1
tp4589
Rp4590
(I3
S'|'
p4591
NNNI9
I1
I0
tp4592
bS'inception'
p4593
tp4594
Rp4595
sg34
g4576
sg65
g11
(g15
S'\xa7\x8258\x049\xe3?'
p4596
tp4597
Rp4598
sg69
g11
(g12
(S'S3'
p4599
I0
I1
tp4600
Rp4601
(I3
S'|'
p4602
NNNI3
I1
I0
tp4603
bS'SVM'
p4604
tp4605
Rp4606
sg78
I3
sg79
g80
sg81
g11
(g15
S'\x0c\xaa\xdb`T~\xe5?'
p4607
tp4608
Rp4609
sg85
g86
sg87
g88
sbag4
(g5
g6
Ntp4610
Rp4611
(dp4612
g10
g11
(g15
S'\x00\x00\x00\x00\x00\x00\xf8\xff'
p4613
tp4614
Rp4615
sg99
g154
sg30
g31
sg32
(dp4616
g99
g154
sg34
g11
(g15
S'+{\x01\xd0\x06\x92T@'
p4617
tp4618
Rp4619
sg42
g11
(g15
S"m\xec\xd5&E'\xe5?"
p4620
tp4621
Rp4622
ssg46
g11
(g12
(S'S3'
p4623
I0
I1
tp4624
Rp4625
(I3
S'|'
p4626
NNNI3
I1
I0
tp4627
bS'PCA'
p4628
tp4629
Rp4630
sg55
F0.2
sg42
g4622
sg56
g11
(g12
(S'S9'
p4631
I0
I1
tp4632
Rp4633
(I3
S'|'
p4634
NNNI9
I1
I0
tp4635
bS'inception'
p4636
tp4637
Rp4638
sg34
g4619
sg65
g11
(g15
S'\r\xd4\xbe\xec\xdc\x84\xe3?'
p4639
tp4640
Rp4641
sg69
g11
(g12
(S'S3'
p4642
I0
I1
tp4643
Rp4644
(I3
S'|'
p4645
NNNI3
I1
I0
tp4646
bS'SVM'
p4647
tp4648
Rp4649
sg78
I3
sg79
g80
sg81
g11
(g15
S'|\xf77\xdd\x1d^\xe5?'
p4650
tp4651
Rp4652
sg85
g86
sg87
g88
sbag4
(g5
g6
Ntp4653
Rp4654
(dp4655
g10
g11
(g15
S'\x00\x00\x00\x00\x00\x00\xf8\xff'
p4656
tp4657
Rp4658
sg21
g11
(g24
S'\x05\x00\x00\x00\x00\x00\x00\x00'
p4659
tp4660
Rp4661
sg30
g31
sg32
(dp4662
g21
g4661
sg34
g11
(g15
S'\x0fh\xee\x9b|<\xef?'
p4663
tp4664
Rp4665
sg38
g11
(g24
S'\x02\x00\x00\x00\x00\x00\x00\x00'
p4666
tp4667
Rp4668
sg42
g11
(g15
S'9\x80\x93UC\x1b\xf9?'
p4669
tp4670
Rp4671
ssg42
g4671
sg46
g11
(g12
(S'S6'
p4672
I0
I1
tp4673
Rp4674
(I3
S'|'
p4675
NNNI6
I1
I0
tp4676
bS'ISOMAP'
p4677
tp4678
Rp4679
sg55
F0.2
sg38
g4668
sg56
g11
(g12
(S'S9'
p4680
I0
I1
tp4681
Rp4682
(I3
S'|'
p4683
NNNI9
I1
I0
tp4684
bS'inception'
p4685
tp4686
Rp4687
sg34
g4665
sg65
g11
(g15
S'\x85\x08\x80/\xa2\x81\xe6?'
p4688
tp4689
Rp4690
sg69
g11
(g12
(S'S3'
p4691
I0
I1
tp4692
Rp4693
(I3
S'|'
p4694
NNNI3
I1
I0
tp4695
bS'SVM'
p4696
tp4697
Rp4698
sg78
I3
sg79
g80
sg81
g11
(g15
S'P\xa0@R\x03\xb9\xe2?'
p4699
tp4700
Rp4701
sg85
g86
sg87
g88
sbag4
(g5
g6
Ntp4702
Rp4703
(dp4704
g10
g11
(g15
S'\x00\x00\x00\x00\x00\x00\xf8\xff'
p4705
tp4706
Rp4707
sg95
g11
(g15
S'\x00\x00\x00\x00\x00`i@'
p4708
tp4709
Rp4710
sg30
g31
sg21
g11
(g24
S'\x03\x00\x00\x00\x00\x00\x00\x00'
p4711
tp4712
Rp4713
sg32
(dp4714
g95
g4710
sg21
g4713
sg38
g11
(g24
S'\x04\x00\x00\x00\x00\x00\x00\x00'
p4715
tp4716
Rp4717
sg109
g11
(g15
S'H\x8d*\xdfxD\xe9?'
p4718
tp4719
Rp4720
ssg46
g11
(g12
(S'S6'
p4721
I0
I1
tp4722
Rp4723
(I3
S'|'
p4724
NNNI6
I1
I0
tp4725
bS'ISOMAP'
p4726
tp4727
Rp4728
sg55
F0.2
sg38
g4717
sg56
g11
(g12
(S'S9'
p4729
I0
I1
tp4730
Rp4731
(I3
S'|'
p4732
NNNI9
I1
I0
tp4733
bS'inception'
p4734
tp4735
Rp4736
sg65
g11
(g15
S'D=$c\xf5"\xf6?'
p4737
tp4738
Rp4739
sg69
g11
(g12
(S'S2'
p4740
I0
I1
tp4741
Rp4742
(I3
S'|'
p4743
NNNI2
I1
I0
tp4744
bS'RF'
p4745
tp4746
Rp4747
sg78
I3
sg109
g4720
sg79
g80
sg81
g11
(g15
S'\xc4#\x13\xc1X=\xe5?'
p4748
tp4749
Rp4750
sg85
g86
sg87
g88
sbag4
(g5
g6
Ntp4751
Rp4752
(dp4753
g10
g11
(g15
S'\x00\x00\x00\x00\x00\x00\xf8\xff'
p4754
tp4755
Rp4756
sg95
g11
(g15
S'\x00\x00\x00\x00\x00`i@'
p4757
tp4758
Rp4759
sg30
g31
sg21
g11
(g24
S'\x07\x00\x00\x00\x00\x00\x00\x00'
p4760
tp4761
Rp4762
sg32
(dp4763
g95
g4759
sg21
g4762
sg38
g11
(g24
S'\x03\x00\x00\x00\x00\x00\x00\x00'
p4764
tp4765
Rp4766
sg109
g11
(g15
S'\x90\xa3\x1a\xdf\x9f\x8e\xe3?'
p4767
tp4768
Rp4769
ssg46
g11
(g12
(S'S6'
p4770
I0
I1
tp4771
Rp4772
(I3
S'|'
p4773
NNNI6
I1
I0
tp4774
bS'ISOMAP'
p4775
tp4776
Rp4777
sg55
F0.2
sg38
g4766
sg56
g11
(g12
(S'S9'
p4778
I0
I1
tp4779
Rp4780
(I3
S'|'
p4781
NNNI9
I1
I0
tp4782
bS'inception'
p4783
tp4784
Rp4785
sg65
g11
(g15
S'\x0c5t\x9dV\xe4\xee?'
p4786
tp4787
Rp4788
sg69
g11
(g12
(S'S2'
p4789
I0
I1
tp4790
Rp4791
(I3
S'|'
p4792
NNNI2
I1
I0
tp4793
bS'RF'
p4794
tp4795
Rp4796
sg78
I3
sg109
g4769
sg79
g80
sg81
g11
(g15
S'\xb7\xac\x112\x82\n\xe7?'
p4797
tp4798
Rp4799
sg85
g86
sg87
g88
sbag4
(g5
g6
Ntp4800
Rp4801
(dp4802
g10
g11
(g15
S'\x00\x00\x00\x00\x00\x00\xf8\xff'
p4803
tp4804
Rp4805
sg21
g11
(g24
S'\x06\x00\x00\x00\x00\x00\x00\x00'
p4806
tp4807
Rp4808
sg30
g31
sg32
(dp4809
g21
g4808
sg34
g11
(g15
S'V\xbeb1\xb1jO@'
p4810
tp4811
Rp4812
sg38
g11
(g24
S'\x02\x00\x00\x00\x00\x00\x00\x00'
p4813
tp4814
Rp4815
sg42
g11
(g15
S'\xde\x1e\xd3_\xf7_\xfa?'
p4816
tp4817
Rp4818
ssg42
g4818
sg46
g11
(g12
(S'S6'
p4819
I0
I1
tp4820
Rp4821
(I3
S'|'
p4822
NNNI6
I1
I0
tp4823
bS'ISOMAP'
p4824
tp4825
Rp4826
sg55
F0.2
sg38
g4815
sg56
g11
(g12
(S'S3'
p4827
I0
I1
tp4828
Rp4829
(I3
S'|'
p4830
NNNI3
I1
I0
tp4831
bS'VGG'
p4832
tp4833
Rp4834
sg34
g4812
sg65
g11
(g15
S'o\xb0\x9d\xcd-K\xe1?'
p4835
tp4836
Rp4837
sg69
g11
(g12
(S'S3'
p4838
I0
I1
tp4839
Rp4840
(I3
S'|'
p4841
NNNI3
I1
I0
tp4842
bS'SVM'
p4843
tp4844
Rp4845
sg78
I3
sg79
g80
sg81
g11
(g15
S'C\x85\x10\xfd\x87\x8a\xe7?'
p4846
tp4847
Rp4848
sg85
g86
sg87
g88
sbag4
(g5
g6
Ntp4849
Rp4850
(dp4851
g10
g11
(g15
S'\x00\x00\x00\x00\x00\x00\xf8\xff'
p4852
tp4853
Rp4854
sg95
g11
(g15
S'\x00\x00\x00\x00\x00\x00 @'
p4855
tp4856
Rp4857
sg30
g31
sg21
g11
(g24
S'\x03\x00\x00\x00\x00\x00\x00\x00'
p4858
tp4859
Rp4860
sg32
(dp4861
g95
g4857
sg21
g4860
sg38
g11
(g24
S'\x03\x00\x00\x00\x00\x00\x00\x00'
p4862
tp4863
Rp4864
sg109
g11
(g15
S'\xf2\x90e4\x8d0\xe6?'
p4865
tp4866
Rp4867
ssg46
g11
(g12
(S'S6'
p4868
I0
I1
tp4869
Rp4870
(I3
S'|'
p4871
NNNI6
I1
I0
tp4872
bS'ISOMAP'
p4873
tp4874
Rp4875
sg55
F0.2
sg38
g4864
sg56
g11
(g12
(S'S3'
p4876
I0
I1
tp4877
Rp4878
(I3
S'|'
p4879
NNNI3
I1
I0
tp4880
bS'VGG'
p4881
tp4882
Rp4883
sg65
g11
(g15
S'\xa5\x9d\xd2\xb2\x99\x14\x01@'
p4884
tp4885
Rp4886
sg69
g11
(g12
(S'S2'
p4887
I0
I1
tp4888
Rp4889
(I3
S'|'
p4890
NNNI2
I1
I0
tp4891
bS'RF'
p4892
tp4893
Rp4894
sg78
I3
sg109
g4867
sg79
g80
sg81
g11
(g15
S'\xd04\xf6M,4\xe9?'
p4895
tp4896
Rp4897
sg85
g86
sg87
g88
sbag4
(g5
g6
Ntp4898
Rp4899
(dp4900
g10
g11
(g15
S'\x00\x00\x00\x00\x00\x00\xf8\xff'
p4901
tp4902
Rp4903
sg99
g154
sg30
g31
sg32
(dp4904
g99
g154
sg34
g11
(g15
S'\x12V\x97\x99\xf2f1@'
p4905
tp4906
Rp4907
sg42
g11
(g15
S'\xd9\xc4\x9f`y\xfb\xb2?'
p4908
tp4909
Rp4910
ssg46
g11
(g12
(S'S3'
p4911
I0
I1
tp4912
Rp4913
(I3
S'|'
p4914
NNNI3
I1
I0
tp4915
bS'PCA'
p4916
tp4917
Rp4918
sg55
F0.2
sg42
g4910
sg56
g11
(g12
(S'S9'
p4919
I0
I1
tp4920
Rp4921
(I3
S'|'
p4922
NNNI9
I1
I0
tp4923
bS'inception'
p4924
tp4925
Rp4926
sg34
g4907
sg65
g11
(g15
S'/P=\x16\x82A\xe4?'
p4927
tp4928
Rp4929
sg69
g11
(g12
(S'S3'
p4930
I0
I1
tp4931
Rp4932
(I3
S'|'
p4933
NNNI3
I1
I0
tp4934
bS'SVM'
p4935
tp4936
Rp4937
sg78
I3
sg79
g80
sg81
g11
(g15
S'\x0b\xf4\x90\xfa\xacU\xe3?'
p4938
tp4939
Rp4940
sg85
g86
sg87
g88
sbag4
(g5
g6
Ntp4941
Rp4942
(dp4943
g10
g11
(g15
S'\x00\x00\x00\x00\x00\x00\xf8\xff'
p4944
tp4945
Rp4946
sg21
g11
(g24
S'\x04\x00\x00\x00\x00\x00\x00\x00'
p4947
tp4948
Rp4949
sg30
g31
sg32
(dp4950
g21
g4949
sg34
g11
(g15
S'FQE\x9b\x94\xd4H@'
p4951
tp4952
Rp4953
sg38
g11
(g24
S'\x02\x00\x00\x00\x00\x00\x00\x00'
p4954
tp4955
Rp4956
sg42
g11
(g15
S'\xd5\x96\xe3\xd8\x85\xeb\x02@'
p4957
tp4958
Rp4959
ssg42
g4959
sg46
g11
(g12
(S'S6'
p4960
I0
I1
tp4961
Rp4962
(I3
S'|'
p4963
NNNI6
I1
I0
tp4964
bS'ISOMAP'
p4965
tp4966
Rp4967
sg55
F0.2
sg38
g4956
sg56
g11
(g12
(S'S3'
p4968
I0
I1
tp4969
Rp4970
(I3
S'|'
p4971
NNNI3
I1
I0
tp4972
bS'VGG'
p4973
tp4974
Rp4975
sg34
g4953
sg65
g11
(g15
S'\x99\x86\xd1\xb1Z\xba\xe1?'
p4976
tp4977
Rp4978
sg69
g11
(g12
(S'S3'
p4979
I0
I1
tp4980
Rp4981
(I3
S'|'
p4982
NNNI3
I1
I0
tp4983
bS'SVM'
p4984
tp4985
Rp4986
sg78
I3
sg79
g80
sg81
g11
(g15
S'\x10\x0bg\xd51\x19\xe7?'
p4987
tp4988
Rp4989
sg85
g86
sg87
g88
sbag4
(g5
g6
Ntp4990
Rp4991
(dp4992
g10
g11
(g15
S'\x00\x00\x00\x00\x00\x00\xf8\xff'
p4993
tp4994
Rp4995
sg95
g11
(g15
S'\x00\x00\x00\x00\x00\x00D@'
p4996
tp4997
Rp4998
sg30
g31
sg21
g11
(g24
S'\x06\x00\x00\x00\x00\x00\x00\x00'
p4999
tp5000
Rp5001
sg32
(dp5002
g95
g4998
sg21
g5001
sg317
g11
(g24
S'\x01\x00\x00\x00\x00\x00\x00\x00'
p5003
tp5004
Rp5005
sg38
g11
(g24
S'\x02\x00\x00\x00\x00\x00\x00\x00'
p5006
tp5007
Rp5008
sg109
g11
(g15
S'\xeb\xb0U\xf1\x13\xef\xd6?'
p5009
tp5010
Rp5011
ssg46
g11
(g12
(S'S6'
p5012
I0
I1
tp5013
Rp5014
(I3
S'|'
p5015
NNNI6
I1
I0
tp5016
bS'ISOMAP'
p5017
tp5018
Rp5019
sg55
F0.2
sg38
g5008
sg56
g11
(g12
(S'S8'
p5020
I0
I1
tp5021
Rp5022
(I3
S'|'
p5023
NNNI8
I1
I0
tp5024
bS'haralick'
p5025
tp5026
Rp5027
sg317
g5005
sg65
g11
(g15
S'\xb8\xb0O\xbeT\x1b\x07@'
p5028
tp5029
Rp5030
sg69
g11
(g12
(S'S2'
p5031
I0
I1
tp5032
Rp5033
(I3
S'|'
p5034
NNNI2
I1
I0
tp5035
bS'RF'
p5036
tp5037
Rp5038
sg78
I3
sg109
g5011
sg79
g80
sg81
g11
(g15
S'\xf9\x00De|i\xe7?'
p5039
tp5040
Rp5041
sg85
g86
sg87
g88
sbag4
(g5
g6
Ntp5042
Rp5043
(dp5044
g10
g11
(g15
S'\x00\x00\x00\x00\x00\x00\xf8\xff'
p5045
tp5046
Rp5047
sg95
g11
(g15
S'\x00\x00\x00\x00\x00@Z@'
p5048
tp5049
Rp5050
sg99
g154
sg30
g31
sg32
(dp5051
g95
g5050
sg109
g11
(g15
S'Ph\xf9z\xd8\xc9\xe8?'
p5052
tp5053
Rp5054
sg99
g154
ssg46
g11
(g12
(S'S3'
p5055
I0
I1
tp5056
Rp5057
(I3
S'|'
p5058
NNNI3
I1
I0
tp5059
bS'PCA'
p5060
tp5061
Rp5062
sg55
F0.2
sg56
g11
(g12
(S'S9'
p5063
I0
I1
tp5064
Rp5065
(I3
S'|'
p5066
NNNI9
I1
I0
tp5067
bS'inception'
p5068
tp5069
Rp5070
sg65
g11
(g15
S')\x83b\xd8\xbf\x1b\xe7?'
p5071
tp5072
Rp5073
sg69
g11
(g12
(S'S2'
p5074
I0
I1
tp5075
Rp5076
(I3
S'|'
p5077
NNNI2
I1
I0
tp5078
bS'RF'
p5079
tp5080
Rp5081
sg78
I3
sg109
g5054
sg79
g80
sg81
g11
(g15
S'Sy\x80\xaf\xcfU\xe8?'
p5082
tp5083
Rp5084
sg85
g86
sg87
g88
sbasS'error_curve'
p5085
(lp5086
g68
ag68
ag68
ag68
ag68
ag68
ag68
ag131
ag177
ag177
ag177
ag177
ag177
ag177
ag177
ag177
ag177
ag177
ag177
ag177
ag177
ag220
ag220
ag220
ag220
ag220
ag220
ag220
ag220
ag220
ag220
ag220
ag220
ag220
ag220
ag220
ag220
ag220
ag220
ag220
ag220
ag220
ag220
ag220
ag220
ag220
ag220
ag220
ag220
ag220
ag220
ag220
ag263
ag263
ag263
ag263
ag263
ag263
ag263
ag263
ag263
ag263
ag263
ag263
ag263
ag263
ag263
ag263
ag263
ag263
ag263
ag263
ag263
ag263
ag263
ag263
ag263
ag263
ag263
ag263
ag263
ag263
ag263
ag263
ag263
ag263
ag263
ag263
ag263
ag263
ag263
ag263
ag263
ag263
ag263
ag263
ag263
ag263
ag263
ag263
ag263
ag263
ag263
ag263
ag263
asS'iters'
p5087
I51
sg30
g31
sS'results_loc'
p5088
S'/gpfs/u/home/CGHI/CGHIarch/barn/EP_project/results/'
p5089
sS'times'
p5090
(lp5091
F1.1950089931488037
aF2.1528589725494385
aF2.4774229526519775
aF4.895411014556885
aF17.75013303756714
aF18.01988697052002
aF33.2264358997345
aF33.755465030670166
aF36.55772304534912
aF51.6484010219574
aF65.99792790412903
aF80.7898268699646
aF81.73739194869995
aF82.98685503005981
aF83.82885694503784
aF84.77976489067078
aF85.12312293052673
aF86.06131410598755
aF102.86363101005554
aF118.32414889335632
aF131.3031210899353
aF133.9657199382782
aF147.50953698158264
aF150.63467288017273
aF153.36371397972107
aF166.29042291641235
aF166.60157990455627
aF180.1329309940338
aF194.26952004432678
aF195.40129399299622
aF196.58414602279663
aF197.69564700126648
aF198.65654587745667
aF199.56792998313904
aF216.54489398002625
aF217.06815600395203
aF218.37676095962524
aF220.21584486961365
aF220.55702996253967
aF235.27121090888977
aF238.23111200332642
aF239.40901494026184
aF240.63859605789185
aF255.39838099479675
aF269.22948598861694
aF285.60766196250916
aF300.316251039505
aF314.2935779094696
aF314.62064909935
aF327.5582859516144
aF328.84511494636536
aF329.1648769378662
aF329.69489908218384
aF332.4215919971466
aF348.6725070476532
aF350.6213779449463
aF351.5717649459839
aF354.86103200912476
aF355.227511882782
aF370.31239795684814
aF372.25752210617065
aF372.56137204170227
aF386.4473750591278
aF387.6536018848419
aF402.5585820674896
aF404.2586100101471
aF405.21117305755615
aF406.8246328830719
aF407.69067907333374
aF410.40667700767517
aF425.4966731071472
aF426.42229104042053
aF428.71237993240356
aF441.2184031009674
aF455.5801999568939
aF468.3832850456238
aF471.24664092063904
aF473.20283603668213
aF474.0726408958435
aF475.3197650909424
aF475.6271538734436
aF476.49414896965027
aF479.11450004577637
aF479.4624969959259
aF481.2498779296875
aF496.2468059062958
aF496.5502600669861
aF510.08294010162354
aF524.6137189865112
aF537.2811949253082
aF537.8040869235992
aF539.1108999252319
aF551.7185978889465
aF552.9606730937958
aF553.2300109863281
aF553.480700969696
aF554.3840079307556
aF556.8875589370728
aF559.3298630714417
aF560.5662739276886
aF561.679703950882
aF561.9086740016937
aF563.0814309120178
aF575.9063589572906
aF577.0484840869904
asS'data_loc'
p5092
g88
sS'run'
p5093
I5
sg85
S'random_MCMC'
p5094
sb.