(iprototypes.random_based_mcmc1
random_MCMC
p0
(dp1
S'best_pipelines'
p2
(lp3
ccopy_reg
_reconstructor
p4
(cprototypes.data_analytic_pipeline
image_classification_pipeline
p5
c__builtin__
object
p6
Ntp7
Rp8
(dp9
S'f1_score'
p10
cnumpy.core.multiarray
scalar
p11
(cnumpy
dtype
p12
(S'f8'
p13
I0
I1
tp14
Rp15
(I3
S'<'
p16
NNNI-1
I-1
I0
tp17
bS'\x00\x00\x00\x00\x00\x00\xf8\xff'
p18
tp19
Rp20
sS'n_estimators'
p21
g11
(g15
S'\x00\x00\x00\x00\x00`i@'
p22
tp23
Rp24
sS'pca_whiten'
p25
g11
(g12
(S'b1'
p26
I0
I1
tp27
Rp28
(I3
S'|'
p29
NNNI-1
I-1
I0
tp30
bS'\x00'
p31
tp32
Rp33
sS'data_name'
p34
S'matsc_dataset1'
p35
sS'kwargs'
p36
(dp37
g21
g24
sS'max_features'
p38
g11
(g15
S'\xb4=-\x02D\xf8\xe0?'
p39
tp40
Rp41
sg25
g33
ssS'dimensionality_reduction'
p42
g11
(g12
(S'S3'
p43
I0
I1
tp44
Rp45
(I3
S'|'
p46
NNNI3
I1
I0
tp47
bS'PCA'
p48
tp49
Rp50
sS'test_size'
p51
F0.2
sS'feature_extraction'
p52
g11
(g12
(S'S9'
p53
I0
I1
tp54
Rp55
(I3
S'|'
p56
NNNI9
I1
I0
tp57
bS'inception'
p58
tp59
Rp60
sS'result'
p61
g11
(g15
S'5{\x9e6\x1c\xb4\xe0?'
p62
tp63
Rp64
sS'learning_algorithm'
p65
g11
(g12
(S'S2'
p66
I0
I1
tp67
Rp68
(I3
S'|'
p69
NNNI2
I1
I0
tp70
bS'RF'
p71
tp72
Rp73
sS'val_splits'
p74
I3
sg38
g41
sS'ml_type'
p75
S'validation'
p76
sS'accuracy'
p77
g11
(g15
S'\xdbhL\x85\x13\xf7\xe7?'
p78
tp79
Rp80
sS'type1'
p81
S'random1'
p82
sS'data_location'
p83
S'/gpfs/u/home/CGHI/CGHIarch/barn/EP_project/data/'
p84
sbag4
(g5
g6
Ntp85
Rp86
(dp87
g10
g11
(g15
S'\x00\x00\x00\x00\x00\x00\xf8\xff'
p88
tp89
Rp90
sS'n_neighbors'
p91
g11
(g12
(S'i8'
p92
I0
I1
tp93
Rp94
(I3
S'<'
p95
NNNI-1
I-1
I0
tp96
bS'\x03\x00\x00\x00\x00\x00\x00\x00'
p97
tp98
Rp99
sg34
g35
sg36
(dp100
g91
g99
sS'svm_C'
p101
g11
(g15
S'\xc2b\xcf\r\x94!@@'
p102
tp103
Rp104
sS'n_components'
p105
g11
(g94
S'\x02\x00\x00\x00\x00\x00\x00\x00'
p106
tp107
Rp108
sS'svm_gamma'
p109
g11
(g15
S'\x0b\x15K\xd3\xd5\xbd\x1a@'
p110
tp111
Rp112
ssg109
g112
sg42
g11
(g12
(S'S6'
p113
I0
I1
tp114
Rp115
(I3
S'|'
p116
NNNI6
I1
I0
tp117
bS'ISOMAP'
p118
tp119
Rp120
sg51
F0.2
sg105
g108
sg52
g11
(g12
(S'S9'
p121
I0
I1
tp122
Rp123
(I3
S'|'
p124
NNNI9
I1
I0
tp125
bS'inception'
p126
tp127
Rp128
sg101
g104
sg61
g11
(g15
S'\xcd\xd76\xf2\xbc\x99\xe0?'
p129
tp130
Rp131
sg65
g11
(g12
(S'S3'
p132
I0
I1
tp133
Rp134
(I3
S'|'
p135
NNNI3
I1
I0
tp136
bS'SVM'
p137
tp138
Rp139
sg74
I3
sg75
g76
sg77
g11
(g15
S'\xa8U\xfa\xb0C\x1e\xe1?'
p140
tp141
Rp142
sg81
g82
sg83
g84
sbag4
(g5
g6
Ntp143
Rp144
(dp145
g10
g11
(g15
S'\x00\x00\x00\x00\x00\x00\xf8\xff'
p146
tp147
Rp148
sg91
g11
(g94
S'\x05\x00\x00\x00\x00\x00\x00\x00'
p149
tp150
Rp151
sg34
g35
sg36
(dp152
g91
g151
sg101
g11
(g15
S'O\x87Xw\x87\xcc@@'
p153
tp154
Rp155
sg105
g11
(g94
S'\x03\x00\x00\x00\x00\x00\x00\x00'
p156
tp157
Rp158
sg109
g11
(g15
S'j5Q=}\x1b\x18@'
p159
tp160
Rp161
ssg109
g161
sg42
g11
(g12
(S'S6'
p162
I0
I1
tp163
Rp164
(I3
S'|'
p165
NNNI6
I1
I0
tp166
bS'ISOMAP'
p167
tp168
Rp169
sg51
F0.2
sg105
g158
sg52
g11
(g12
(S'S3'
p170
I0
I1
tp171
Rp172
(I3
S'|'
p173
NNNI3
I1
I0
tp174
bS'VGG'
p175
tp176
Rp177
sg101
g155
sg61
g11
(g15
S'<\x99\xa2\x19r\xc8\xdb?'
p178
tp179
Rp180
sg65
g11
(g12
(S'S3'
p181
I0
I1
tp182
Rp183
(I3
S'|'
p184
NNNI3
I1
I0
tp185
bS'SVM'
p186
tp187
Rp188
sg74
I3
sg75
g76
sg77
g11
(g15
S'\xac[\xfd\xb9@3\xea?'
p189
tp190
Rp191
sg81
g82
sg83
g84
sbag4
(g5
g6
Ntp192
Rp193
(dp194
g10
g11
(g15
S'\x00\x00\x00\x00\x00\x00\xf8\xff'
p195
tp196
Rp197
sg21
g11
(g15
S'\x00\x00\x00\x00\x00@e@'
p198
tp199
Rp200
sg25
g11
(g28
S'\x01'
p201
tp202
Rp203
sg34
g35
sg36
(dp204
g21
g200
sg38
g11
(g15
S'\xe9N\x832\x17]\xd5?'
p205
tp206
Rp207
sg25
g203
ssg42
g11
(g12
(S'S3'
p208
I0
I1
tp209
Rp210
(I3
S'|'
p211
NNNI3
I1
I0
tp212
bS'PCA'
p213
tp214
Rp215
sg51
F0.2
sg52
g11
(g12
(S'S3'
p216
I0
I1
tp217
Rp218
(I3
S'|'
p219
NNNI3
I1
I0
tp220
bS'VGG'
p221
tp222
Rp223
sg61
g11
(g15
S'\xe5\xe1,}\x92T\xd2?'
p224
tp225
Rp226
sg65
g11
(g12
(S'S2'
p227
I0
I1
tp228
Rp229
(I3
S'|'
p230
NNNI2
I1
I0
tp231
bS'RF'
p232
tp233
Rp234
sg74
I3
sg38
g207
sg75
g76
sg77
g11
(g15
S'\xa5,\x1f:\x04p\xec?'
p235
tp236
Rp237
sg81
g82
sg83
g84
sbasS'paths'
p238
(lp239
(lp240
S'VGG'
p241
aS'PCA'
p242
aS'SVM'
p243
aa(lp244
g241
ag242
aS'RF'
p245
aa(lp246
g241
aS'ISOMAP'
p247
ag243
aa(lp248
g241
ag247
ag245
aa(lp249
S'haralick'
p250
ag242
ag243
aa(lp251
g250
ag242
ag245
aa(lp252
g250
ag247
ag243
aa(lp253
g250
ag247
ag245
aa(lp254
S'inception'
p255
ag242
ag243
aa(lp256
g255
ag242
ag245
aa(lp257
g255
ag247
ag243
aa(lp258
g255
ag247
ag245
aasS'pipeline'
p259
(dp260
g91
(lp261
I3
aI4
aI5
aI6
aI7
asg25
(lp262
I01
aI00
asg21
cnumpy.core.multiarray
_reconstruct
p263
(cnumpy
ndarray
p264
(I0
tp265
S'b'
p266
tp267
Rp268
(I1
(I10
tp269
g15
I00
S'\x00\x00\x00\x00\x00\x00 @\x00\x00\x00\x00\x00\x00D@\x00\x00\x00\x00\x00@R@\x00\x00\x00\x00\x00@Z@\x00\x00\x00\x00\x00@a@\x00\x00\x00\x00\x00@e@\x00\x00\x00\x00\x00`i@\x00\x00\x00\x00\x00`m@\x00\x00\x00\x00\x00\xc0p@\x00\x00\x00\x00\x00\xc0r@'
p270
tp271
bsg42
(lp272
g242
ag247
asg109
g263
(g264
(I0
tp273
g266
tp274
Rp275
(I1
(I10
tp276
g15
I00
S"{\x14\xaeG\xe1z\x84?\x102Tv\x98\xba\xec?\xe7\xd5\xc4\xb3\xa2\x91\xfc?b\xc9/\x96\xfcb\x05@\xd2'}\xd2'}\x0c@!Ce\x87\xa9\xcb\x11@X\xf2\x8b%\xbfX\x15@\x90\xa1\xb2\xc3\xd4\xe5\x18@\xc8P\xd9a\xear\x1c@\x00\x00\x00\x00\x00\x00 @"
p277
tp278
bsg52
(lp279
g241
ag250
ag255
asS'haralick_distance'
p280
(lp281
I1
aI2
aI3
asg105
(lp282
I2
aI3
aI4
asg65
(lp283
g243
ag245
asg38
g263
(g264
(I0
tp284
g266
tp285
Rp286
(I1
(I5
tp287
g15
I00
S'333333\xd3?\x9a\x99\x99\x99\x99\x99\xd9?\x00\x00\x00\x00\x00\x00\xe0?433333\xe3?hfffff\xe6?'
p288
tp289
bsg101
g263
(g264
(I0
tp290
g266
tp291
Rp292
(I1
(I10
tp293
g15
I00
S'\x9a\x99\x99\x99\x99\x99\xb9?gfffff&@\xce\xcc\xcc\xcc\xccL6@43333\xb3@@\x01\x00\x00\x00\x00@F@\xce\xcc\xcc\xcc\xcc\xccK@\xcd\xcc\xcc\xcc\xcc\xacP@43333sS@\x9a\x99\x99\x99\x999V@\x00\x00\x00\x00\x00\x00Y@'
p294
tp295
bssS'pipelines'
p296
(lp297
g8
ag86
ag4
(g5
g6
Ntp298
Rp299
(dp300
g10
g11
(g15
S'\x00\x00\x00\x00\x00\x00\xf8\xff'
p301
tp302
Rp303
sg21
g11
(g15
S'\x00\x00\x00\x00\x00\x00 @'
p304
tp305
Rp306
sg25
g33
sg34
g35
sg36
(dp307
g21
g306
sg38
g11
(g15
S'\x0f\xcc\x8d\xd1\xbe\xc7\xe0?'
p308
tp309
Rp310
sg25
g33
ssg42
g11
(g12
(S'S3'
p311
I0
I1
tp312
Rp313
(I3
S'|'
p314
NNNI3
I1
I0
tp315
bS'PCA'
p316
tp317
Rp318
sg51
F0.2
sg52
g11
(g12
(S'S3'
p319
I0
I1
tp320
Rp321
(I3
S'|'
p322
NNNI3
I1
I0
tp323
bS'VGG'
p324
tp325
Rp326
sg61
g11
(g15
S'M6[\xfe\x8f&\xed?'
p327
tp328
Rp329
sg65
g11
(g12
(S'S2'
p330
I0
I1
tp331
Rp332
(I3
S'|'
p333
NNNI2
I1
I0
tp334
bS'RF'
p335
tp336
Rp337
sg74
I3
sg38
g310
sg75
g76
sg77
g11
(g15
S'0E\x1bo\xc7\x16\xec?'
p338
tp339
Rp340
sg81
g82
sg83
g84
sbag144
ag4
(g5
g6
Ntp341
Rp342
(dp343
g10
g11
(g15
S'\x00\x00\x00\x00\x00\x00\xf8\xff'
p344
tp345
Rp346
sg91
g11
(g94
S'\x04\x00\x00\x00\x00\x00\x00\x00'
p347
tp348
Rp349
sg34
g35
sg36
(dp350
g91
g349
sg101
g11
(g15
S'H\x1f\x8bn\xcb\x91N@'
p351
tp352
Rp353
sg105
g11
(g94
S'\x03\x00\x00\x00\x00\x00\x00\x00'
p354
tp355
Rp356
sg109
g11
(g15
S'\xbb\x81\xb4\xe4\x0c\xf9\x12@'
p357
tp358
Rp359
ssg109
g359
sg42
g11
(g12
(S'S6'
p360
I0
I1
tp361
Rp362
(I3
S'|'
p363
NNNI6
I1
I0
tp364
bS'ISOMAP'
p365
tp366
Rp367
sg51
F0.2
sg105
g356
sg52
g11
(g12
(S'S9'
p368
I0
I1
tp369
Rp370
(I3
S'|'
p371
NNNI9
I1
I0
tp372
bS'inception'
p373
tp374
Rp375
sg101
g353
sg61
g11
(g15
S'I \x0fX\xa1L\xe0?'
p376
tp377
Rp378
sg65
g11
(g12
(S'S3'
p379
I0
I1
tp380
Rp381
(I3
S'|'
p382
NNNI3
I1
I0
tp383
bS'SVM'
p384
tp385
Rp386
sg74
I3
sg75
g76
sg77
g11
(g15
S'\x11)\xf9X\x99\x18\xe2?'
p387
tp388
Rp389
sg81
g82
sg83
g84
sbag193
ag4
(g5
g6
Ntp390
Rp391
(dp392
g10
g11
(g15
S'\x00\x00\x00\x00\x00\x00\xf8\xff'
p393
tp394
Rp395
sg21
g11
(g15
S'\x00\x00\x00\x00\x00@R@'
p396
tp397
Rp398
sg25
g33
sg34
g35
sg36
(dp399
g21
g398
sg38
g11
(g15
S'\xe5\xd8\xf0\xd4\xeb\xaa\xe2?'
p400
tp401
Rp402
sg25
g33
sg280
g11
(g94
S'\x02\x00\x00\x00\x00\x00\x00\x00'
p403
tp404
Rp405
ssg42
g11
(g12
(S'S3'
p406
I0
I1
tp407
Rp408
(I3
S'|'
p409
NNNI3
I1
I0
tp410
bS'PCA'
p411
tp412
Rp413
sg51
F0.2
sg52
g11
(g12
(S'S8'
p414
I0
I1
tp415
Rp416
(I3
S'|'
p417
NNNI8
I1
I0
tp418
bS'haralick'
p419
tp420
Rp421
sg280
g405
sg61
g11
(g15
S'\xc4\x98\xe3g\xaf\xc4\xe8?'
p422
tp423
Rp424
sg65
g11
(g12
(S'S2'
p425
I0
I1
tp426
Rp427
(I3
S'|'
p428
NNNI2
I1
I0
tp429
bS'RF'
p430
tp431
Rp432
sg74
I3
sg38
g402
sg75
g76
sg77
g11
(g15
S'Pn2\xaa\xba\x99\xeb?'
p433
tp434
Rp435
sg81
g82
sg83
g84
sbag4
(g5
g6
Ntp436
Rp437
(dp438
g10
g11
(g15
S'\x00\x00\x00\x00\x00\x00\xf8\xff'
p439
tp440
Rp441
sg21
g11
(g15
S'\x00\x00\x00\x00\x00`i@'
p442
tp443
Rp444
sg25
g203
sg34
g35
sg36
(dp445
g21
g444
sg38
g11
(g15
S'@\x1b2,4\x96\xe2?'
p446
tp447
Rp448
sg25
g203
ssg42
g11
(g12
(S'S3'
p449
I0
I1
tp450
Rp451
(I3
S'|'
p452
NNNI3
I1
I0
tp453
bS'PCA'
p454
tp455
Rp456
sg51
F0.2
sg52
g11
(g12
(S'S3'
p457
I0
I1
tp458
Rp459
(I3
S'|'
p460
NNNI3
I1
I0
tp461
bS'VGG'
p462
tp463
Rp464
sg61
g11
(g15
S'#{\x03Y)\xe4\xd2?'
p465
tp466
Rp467
sg65
g11
(g12
(S'S2'
p468
I0
I1
tp469
Rp470
(I3
S'|'
p471
NNNI2
I1
I0
tp472
bS'RF'
p473
tp474
Rp475
sg74
I3
sg38
g448
sg75
g76
sg77
g11
(g15
S'{s\x82d\xa0(\xec?'
p476
tp477
Rp478
sg81
g82
sg83
g84
sbag4
(g5
g6
Ntp479
Rp480
(dp481
g10
g11
(g15
S'\x00\x00\x00\x00\x00\x00\xf8\xff'
p482
tp483
Rp484
sg25
g33
sg34
g35
sg36
(dp485
g25
g33
sg101
g11
(g15
S'u`q1\xd3{F@'
p486
tp487
Rp488
sg109
g11
(g15
S'\t\xbbm\xec\xe4/\x16@'
p489
tp490
Rp491
ssg42
g11
(g12
(S'S3'
p492
I0
I1
tp493
Rp494
(I3
S'|'
p495
NNNI3
I1
I0
tp496
bS'PCA'
p497
tp498
Rp499
sg51
F0.2
sg109
g491
sg52
g11
(g12
(S'S3'
p500
I0
I1
tp501
Rp502
(I3
S'|'
p503
NNNI3
I1
I0
tp504
bS'VGG'
p505
tp506
Rp507
sg101
g488
sg61
g11
(g15
S'\x10\xf1\xec{f\xda\xd8?'
p508
tp509
Rp510
sg65
g11
(g12
(S'S3'
p511
I0
I1
tp512
Rp513
(I3
S'|'
p514
NNNI3
I1
I0
tp515
bS'SVM'
p516
tp517
Rp518
sg74
I3
sg75
g76
sg77
g11
(g15
S'\xcd\x84\x14\xf53\xb6\xe9?'
p519
tp520
Rp521
sg81
g82
sg83
g84
sbag4
(g5
g6
Ntp522
Rp523
(dp524
g10
g11
(g15
S'\x00\x00\x00\x00\x00\x00\xf8\xff'
p525
tp526
Rp527
sg91
g11
(g94
S'\x06\x00\x00\x00\x00\x00\x00\x00'
p528
tp529
Rp530
sg34
g35
sg36
(dp531
g91
g530
sg101
g11
(g15
S'\xb1\xae\x12\x9eS\x8e1@'
p532
tp533
Rp534
sg105
g11
(g94
S'\x03\x00\x00\x00\x00\x00\x00\x00'
p535
tp536
Rp537
sg109
g11
(g15
S'\x7fD\xbd\xcdv\xb1\x11@'
p538
tp539
Rp540
ssg109
g540
sg42
g11
(g12
(S'S6'
p541
I0
I1
tp542
Rp543
(I3
S'|'
p544
NNNI6
I1
I0
tp545
bS'ISOMAP'
p546
tp547
Rp548
sg51
F0.2
sg105
g537
sg52
g11
(g12
(S'S9'
p549
I0
I1
tp550
Rp551
(I3
S'|'
p552
NNNI9
I1
I0
tp553
bS'inception'
p554
tp555
Rp556
sg101
g534
sg61
g11
(g15
S'\x13\xf3@,\xf7\x0c\xe0?'
p557
tp558
Rp559
sg65
g11
(g12
(S'S3'
p560
I0
I1
tp561
Rp562
(I3
S'|'
p563
NNNI3
I1
I0
tp564
bS'SVM'
p565
tp566
Rp567
sg74
I3
sg75
g76
sg77
g11
(g15
S't\x17\xd1]Dw\xe1?'
p568
tp569
Rp570
sg81
g82
sg83
g84
sbag4
(g5
g6
Ntp571
Rp572
(dp573
g10
g11
(g15
S'\x00\x00\x00\x00\x00\x00\xf8\xff'
p574
tp575
Rp576
sg21
g11
(g15
S'\x00\x00\x00\x00\x00@e@'
p577
tp578
Rp579
sg34
g35
sg91
g11
(g94
S'\x05\x00\x00\x00\x00\x00\x00\x00'
p580
tp581
Rp582
sg36
(dp583
g21
g579
sg91
g582
sg105
g11
(g94
S'\x02\x00\x00\x00\x00\x00\x00\x00'
p584
tp585
Rp586
sg38
g11
(g15
S'\xd8Pv\x07\x91\x89\xdb?'
p587
tp588
Rp589
ssg42
g11
(g12
(S'S6'
p590
I0
I1
tp591
Rp592
(I3
S'|'
p593
NNNI6
I1
I0
tp594
bS'ISOMAP'
p595
tp596
Rp597
sg51
F0.2
sg105
g586
sg52
g11
(g12
(S'S9'
p598
I0
I1
tp599
Rp600
(I3
S'|'
p601
NNNI9
I1
I0
tp602
bS'inception'
p603
tp604
Rp605
sg61
g11
(g15
S'\xf5\xe6\xa9\xf5_\x83\xef?'
p606
tp607
Rp608
sg65
g11
(g12
(S'S2'
p609
I0
I1
tp610
Rp611
(I3
S'|'
p612
NNNI2
I1
I0
tp613
bS'RF'
p614
tp615
Rp616
sg74
I3
sg38
g589
sg75
g76
sg77
g11
(g15
S'\x83T\xb1\xf7j\x84\xe5?'
p617
tp618
Rp619
sg81
g82
sg83
g84
sbag4
(g5
g6
Ntp620
Rp621
(dp622
g10
g11
(g15
S'\x00\x00\x00\x00\x00\x00\xf8\xff'
p623
tp624
Rp625
sg21
g11
(g15
S'\x00\x00\x00\x00\x00`i@'
p626
tp627
Rp628
sg25
g203
sg34
g35
sg36
(dp629
g21
g628
sg38
g11
(g15
S'p \x1fF\x0c\xd9\xdd?'
p630
tp631
Rp632
sg25
g203
sg280
g11
(g94
S'\x02\x00\x00\x00\x00\x00\x00\x00'
p633
tp634
Rp635
ssg42
g11
(g12
(S'S3'
p636
I0
I1
tp637
Rp638
(I3
S'|'
p639
NNNI3
I1
I0
tp640
bS'PCA'
p641
tp642
Rp643
sg51
F0.2
sg52
g11
(g12
(S'S8'
p644
I0
I1
tp645
Rp646
(I3
S'|'
p647
NNNI8
I1
I0
tp648
bS'haralick'
p649
tp650
Rp651
sg280
g635
sg61
g11
(g15
S'\xc9\x13\xad\xdd\x07\xf2\xe2?'
p652
tp653
Rp654
sg65
g11
(g12
(S'S2'
p655
I0
I1
tp656
Rp657
(I3
S'|'
p658
NNNI2
I1
I0
tp659
bS'RF'
p660
tp661
Rp662
sg74
I3
sg38
g632
sg75
g76
sg77
g11
(g15
S'p/\xb0\xae\xb1\xab\xeb?'
p663
tp664
Rp665
sg81
g82
sg83
g84
sbag4
(g5
g6
Ntp666
Rp667
(dp668
g10
g11
(g15
S'\x00\x00\x00\x00\x00\x00\xf8\xff'
p669
tp670
Rp671
sg21
g11
(g15
S'\x00\x00\x00\x00\x00`i@'
p672
tp673
Rp674
sg34
g35
sg91
g11
(g94
S'\x04\x00\x00\x00\x00\x00\x00\x00'
p675
tp676
Rp677
sg36
(dp678
g21
g674
sg91
g677
sg105
g11
(g94
S'\x02\x00\x00\x00\x00\x00\x00\x00'
p679
tp680
Rp681
sg38
g11
(g15
S'\xb4\xbau\x91>\xbf\xd3?'
p682
tp683
Rp684
ssg42
g11
(g12
(S'S6'
p685
I0
I1
tp686
Rp687
(I3
S'|'
p688
NNNI6
I1
I0
tp689
bS'ISOMAP'
p690
tp691
Rp692
sg51
F0.2
sg105
g681
sg52
g11
(g12
(S'S9'
p693
I0
I1
tp694
Rp695
(I3
S'|'
p696
NNNI9
I1
I0
tp697
bS'inception'
p698
tp699
Rp700
sg61
g11
(g15
S'\x9d.\xd8\x94\xce\xda\xef?'
p701
tp702
Rp703
sg65
g11
(g12
(S'S2'
p704
I0
I1
tp705
Rp706
(I3
S'|'
p707
NNNI2
I1
I0
tp708
bS'RF'
p709
tp710
Rp711
sg74
I3
sg38
g684
sg75
g76
sg77
g11
(g15
S'W3{\xeb\n\xcc\xe5?'
p712
tp713
Rp714
sg81
g82
sg83
g84
sbag4
(g5
g6
Ntp715
Rp716
(dp717
g10
g11
(g15
S'\x00\x00\x00\x00\x00\x00\xf8\xff'
p718
tp719
Rp720
sg21
g11
(g15
S'\x00\x00\x00\x00\x00`i@'
p721
tp722
Rp723
sg25
g33
sg34
g35
sg36
(dp724
g21
g723
sg38
g11
(g15
S'N\xdc\xe8\x86\x9e\x00\xdf?'
p725
tp726
Rp727
sg25
g33
sg280
g11
(g94
S'\x01\x00\x00\x00\x00\x00\x00\x00'
p728
tp729
Rp730
ssg42
g11
(g12
(S'S3'
p731
I0
I1
tp732
Rp733
(I3
S'|'
p734
NNNI3
I1
I0
tp735
bS'PCA'
p736
tp737
Rp738
sg51
F0.2
sg52
g11
(g12
(S'S8'
p739
I0
I1
tp740
Rp741
(I3
S'|'
p742
NNNI8
I1
I0
tp743
bS'haralick'
p744
tp745
Rp746
sg280
g730
sg61
g11
(g15
S'-\xec,x4\xc4\xf7?'
p747
tp748
Rp749
sg65
g11
(g12
(S'S2'
p750
I0
I1
tp751
Rp752
(I3
S'|'
p753
NNNI2
I1
I0
tp754
bS'RF'
p755
tp756
Rp757
sg74
I3
sg38
g727
sg75
g76
sg77
g11
(g15
S'\t\x19\xfb6\xbf\xae\xe7?'
p758
tp759
Rp760
sg81
g82
sg83
g84
sbag4
(g5
g6
Ntp761
Rp762
(dp763
g10
g11
(g15
S'\x00\x00\x00\x00\x00\x00\xf8\xff'
p764
tp765
Rp766
sg21
g11
(g15
S'\x00\x00\x00\x00\x00@a@'
p767
tp768
Rp769
sg34
g35
sg91
g11
(g94
S'\x03\x00\x00\x00\x00\x00\x00\x00'
p770
tp771
Rp772
sg36
(dp773
g21
g769
sg91
g772
sg105
g11
(g94
S'\x04\x00\x00\x00\x00\x00\x00\x00'
p774
tp775
Rp776
sg38
g11
(g15
S'o\x92\xbdTV5\xd6?'
p777
tp778
Rp779
ssg42
g11
(g12
(S'S6'
p780
I0
I1
tp781
Rp782
(I3
S'|'
p783
NNNI6
I1
I0
tp784
bS'ISOMAP'
p785
tp786
Rp787
sg51
F0.2
sg105
g776
sg52
g11
(g12
(S'S3'
p788
I0
I1
tp789
Rp790
(I3
S'|'
p791
NNNI3
I1
I0
tp792
bS'VGG'
p793
tp794
Rp795
sg61
g11
(g15
S'E\xb4\xfe:`T\xe4?'
p796
tp797
Rp798
sg65
g11
(g12
(S'S2'
p799
I0
I1
tp800
Rp801
(I3
S'|'
p802
NNNI2
I1
I0
tp803
bS'RF'
p804
tp805
Rp806
sg74
I3
sg38
g779
sg75
g76
sg77
g11
(g15
S'-\x87\xd3:l\t\xeb?'
p807
tp808
Rp809
sg81
g82
sg83
g84
sbag4
(g5
g6
Ntp810
Rp811
(dp812
g10
g11
(g15
S'\x00\x00\x00\x00\x00\x00\xf8\xff'
p813
tp814
Rp815
sg21
g11
(g15
S'\x00\x00\x00\x00\x00@e@'
p816
tp817
Rp818
sg34
g35
sg91
g11
(g94
S'\x06\x00\x00\x00\x00\x00\x00\x00'
p819
tp820
Rp821
sg36
(dp822
g21
g818
sg91
g821
sg280
g11
(g94
S'\x03\x00\x00\x00\x00\x00\x00\x00'
p823
tp824
Rp825
sg105
g11
(g94
S'\x02\x00\x00\x00\x00\x00\x00\x00'
p826
tp827
Rp828
sg38
g11
(g15
S'\x95S\xdd\x91\x14y\xe2?'
p829
tp830
Rp831
ssg42
g11
(g12
(S'S6'
p832
I0
I1
tp833
Rp834
(I3
S'|'
p835
NNNI6
I1
I0
tp836
bS'ISOMAP'
p837
tp838
Rp839
sg51
F0.2
sg105
g828
sg52
g11
(g12
(S'S8'
p840
I0
I1
tp841
Rp842
(I3
S'|'
p843
NNNI8
I1
I0
tp844
bS'haralick'
p845
tp846
Rp847
sg280
g825
sg61
g11
(g15
S'\xcb+kR\xf4\xe3\xef?'
p848
tp849
Rp850
sg65
g11
(g12
(S'S2'
p851
I0
I1
tp852
Rp853
(I3
S'|'
p854
NNNI2
I1
I0
tp855
bS'RF'
p856
tp857
Rp858
sg74
I3
sg38
g831
sg75
g76
sg77
g11
(g15
S'\xe01\x8d\xd6Ci\xea?'
p859
tp860
Rp861
sg81
g82
sg83
g84
sbag4
(g5
g6
Ntp862
Rp863
(dp864
g10
g11
(g15
S'\x00\x00\x00\x00\x00\x00\xf8\xff'
p865
tp866
Rp867
sg91
g11
(g94
S'\x05\x00\x00\x00\x00\x00\x00\x00'
p868
tp869
Rp870
sg34
g35
sg36
(dp871
g91
g870
sg101
g11
(g15
S'X\xcf\xbf\x9b\xd3\xfbE@'
p872
tp873
Rp874
sg105
g11
(g94
S'\x04\x00\x00\x00\x00\x00\x00\x00'
p875
tp876
Rp877
sg109
g11
(g15
S'\x97\xab\xe2\xa2\x05\xa2\x1a@'
p878
tp879
Rp880
ssg109
g880
sg42
g11
(g12
(S'S6'
p881
I0
I1
tp882
Rp883
(I3
S'|'
p884
NNNI6
I1
I0
tp885
bS'ISOMAP'
p886
tp887
Rp888
sg51
F0.2
sg105
g877
sg52
g11
(g12
(S'S3'
p889
I0
I1
tp890
Rp891
(I3
S'|'
p892
NNNI3
I1
I0
tp893
bS'VGG'
p894
tp895
Rp896
sg101
g874
sg61
g11
(g15
S'\x07R\x89\xeb#\xdf\xd8?'
p897
tp898
Rp899
sg65
g11
(g12
(S'S3'
p900
I0
I1
tp901
Rp902
(I3
S'|'
p903
NNNI3
I1
I0
tp904
bS'SVM'
p905
tp906
Rp907
sg74
I3
sg75
g76
sg77
g11
(g15
S'\xf0lqhzV\xea?'
p908
tp909
Rp910
sg81
g82
sg83
g84
sbag4
(g5
g6
Ntp911
Rp912
(dp913
g10
g11
(g15
S'\x00\x00\x00\x00\x00\x00\xf8\xff'
p914
tp915
Rp916
sg25
g33
sg34
g35
sg36
(dp917
g25
g33
sg101
g11
(g15
S'K\x81\t\x87*\x15R@'
p918
tp919
Rp920
sg109
g11
(g15
S'\x87\x98\xc4\xc3\xba\xc3\x18@'
p921
tp922
Rp923
ssg42
g11
(g12
(S'S3'
p924
I0
I1
tp925
Rp926
(I3
S'|'
p927
NNNI3
I1
I0
tp928
bS'PCA'
p929
tp930
Rp931
sg51
F0.2
sg109
g923
sg52
g11
(g12
(S'S3'
p932
I0
I1
tp933
Rp934
(I3
S'|'
p935
NNNI3
I1
I0
tp936
bS'VGG'
p937
tp938
Rp939
sg101
g920
sg61
g11
(g15
S'\x93\xbe\x8e\xae\x8b@\xd9?'
p940
tp941
Rp942
sg65
g11
(g12
(S'S3'
p943
I0
I1
tp944
Rp945
(I3
S'|'
p946
NNNI3
I1
I0
tp947
bS'SVM'
p948
tp949
Rp950
sg74
I3
sg75
g76
sg77
g11
(g15
S'\xcd\x84\x14\xf53\xb6\xe9?'
p951
tp952
Rp953
sg81
g82
sg83
g84
sbag4
(g5
g6
Ntp954
Rp955
(dp956
g10
g11
(g15
S'\x00\x00\x00\x00\x00\x00\xf8\xff'
p957
tp958
Rp959
sg21
g11
(g15
S'\x00\x00\x00\x00\x00@e@'
p960
tp961
Rp962
sg25
g33
sg34
g35
sg36
(dp963
g21
g962
sg38
g11
(g15
S'\xfc_\x9d\x83<x\xe6?'
p964
tp965
Rp966
sg25
g33
ssg42
g11
(g12
(S'S3'
p967
I0
I1
tp968
Rp969
(I3
S'|'
p970
NNNI3
I1
I0
tp971
bS'PCA'
p972
tp973
Rp974
sg51
F0.2
sg52
g11
(g12
(S'S3'
p975
I0
I1
tp976
Rp977
(I3
S'|'
p978
NNNI3
I1
I0
tp979
bS'VGG'
p980
tp981
Rp982
sg61
g11
(g15
S'\x8f\x17\xf6\xed\xc8N\xdb?'
p983
tp984
Rp985
sg65
g11
(g12
(S'S2'
p986
I0
I1
tp987
Rp988
(I3
S'|'
p989
NNNI2
I1
I0
tp990
bS'RF'
p991
tp992
Rp993
sg74
I3
sg38
g966
sg75
g76
sg77
g11
(g15
S'\xd1MUFd(\xec?'
p994
tp995
Rp996
sg81
g82
sg83
g84
sbag4
(g5
g6
Ntp997
Rp998
(dp999
g10
g11
(g15
S'\x00\x00\x00\x00\x00\x00\xf8\xff'
p1000
tp1001
Rp1002
sg21
g11
(g15
S'\x00\x00\x00\x00\x00@Z@'
p1003
tp1004
Rp1005
sg34
g35
sg91
g11
(g94
S'\x06\x00\x00\x00\x00\x00\x00\x00'
p1006
tp1007
Rp1008
sg36
(dp1009
g21
g1005
sg91
g1008
sg280
g11
(g94
S'\x03\x00\x00\x00\x00\x00\x00\x00'
p1010
tp1011
Rp1012
sg105
g11
(g94
S'\x02\x00\x00\x00\x00\x00\x00\x00'
p1013
tp1014
Rp1015
sg38
g11
(g15
S'\xbe\x9c\xea\x02\xbd\x15\xe8?'
p1016
tp1017
Rp1018
ssg42
g11
(g12
(S'S6'
p1019
I0
I1
tp1020
Rp1021
(I3
S'|'
p1022
NNNI6
I1
I0
tp1023
bS'ISOMAP'
p1024
tp1025
Rp1026
sg51
F0.2
sg105
g1015
sg52
g11
(g12
(S'S8'
p1027
I0
I1
tp1028
Rp1029
(I3
S'|'
p1030
NNNI8
I1
I0
tp1031
bS'haralick'
p1032
tp1033
Rp1034
sg280
g1012
sg61
g11
(g15
S'"Bj>\xca\xe7\xf1?'
p1035
tp1036
Rp1037
sg65
g11
(g12
(S'S2'
p1038
I0
I1
tp1039
Rp1040
(I3
S'|'
p1041
NNNI2
I1
I0
tp1042
bS'RF'
p1043
tp1044
Rp1045
sg74
I3
sg38
g1018
sg75
g76
sg77
g11
(g15
S'\x95\x03&\xe1jW\xea?'
p1046
tp1047
Rp1048
sg81
g82
sg83
g84
sbag4
(g5
g6
Ntp1049
Rp1050
(dp1051
g10
g11
(g15
S'\x00\x00\x00\x00\x00\x00\xf8\xff'
p1052
tp1053
Rp1054
sg21
g11
(g15
S'\x00\x00\x00\x00\x00\xc0p@'
p1055
tp1056
Rp1057
sg25
g33
sg34
g35
sg36
(dp1058
g21
g1057
sg38
g11
(g15
S'\x1c\xf8z\xf0\xcc\xf7\xec?'
p1059
tp1060
Rp1061
sg25
g33
ssg42
g11
(g12
(S'S3'
p1062
I0
I1
tp1063
Rp1064
(I3
S'|'
p1065
NNNI3
I1
I0
tp1066
bS'PCA'
p1067
tp1068
Rp1069
sg51
F0.2
sg52
g11
(g12
(S'S3'
p1070
I0
I1
tp1071
Rp1072
(I3
S'|'
p1073
NNNI3
I1
I0
tp1074
bS'VGG'
p1075
tp1076
Rp1077
sg61
g11
(g15
S'!\xdc\xc2\xd4\xa1\xa3\xd3?'
p1078
tp1079
Rp1080
sg65
g11
(g12
(S'S2'
p1081
I0
I1
tp1082
Rp1083
(I3
S'|'
p1084
NNNI2
I1
I0
tp1085
bS'RF'
p1086
tp1087
Rp1088
sg74
I3
sg38
g1061
sg75
g76
sg77
g11
(g15
S'\x93\xcbY=v\x04\xec?'
p1089
tp1090
Rp1091
sg81
g82
sg83
g84
sbag4
(g5
g6
Ntp1092
Rp1093
(dp1094
g10
g11
(g15
S'\x00\x00\x00\x00\x00\x00\xf8\xff'
p1095
tp1096
Rp1097
sg21
g11
(g15
S'\x00\x00\x00\x00\x00\xc0p@'
p1098
tp1099
Rp1100
sg25
g33
sg34
g35
sg36
(dp1101
g21
g1100
sg38
g11
(g15
S'Z\xd0\xc8\x06\xb6\x90\xee?'
p1102
tp1103
Rp1104
sg25
g33
sg280
g11
(g94
S'\x02\x00\x00\x00\x00\x00\x00\x00'
p1105
tp1106
Rp1107
ssg42
g11
(g12
(S'S3'
p1108
I0
I1
tp1109
Rp1110
(I3
S'|'
p1111
NNNI3
I1
I0
tp1112
bS'PCA'
p1113
tp1114
Rp1115
sg51
F0.2
sg52
g11
(g12
(S'S8'
p1116
I0
I1
tp1117
Rp1118
(I3
S'|'
p1119
NNNI8
I1
I0
tp1120
bS'haralick'
p1121
tp1122
Rp1123
sg280
g1107
sg61
g11
(g15
S'S\xa4tX;o\xe2?'
p1124
tp1125
Rp1126
sg65
g11
(g12
(S'S2'
p1127
I0
I1
tp1128
Rp1129
(I3
S'|'
p1130
NNNI2
I1
I0
tp1131
bS'RF'
p1132
tp1133
Rp1134
sg74
I3
sg38
g1104
sg75
g76
sg77
g11
(g15
S'\xbb]\x17\xa4\x8a\xbd\xeb?'
p1135
tp1136
Rp1137
sg81
g82
sg83
g84
sbag4
(g5
g6
Ntp1138
Rp1139
(dp1140
g10
g11
(g15
S'\x00\x00\x00\x00\x00\x00\xf8\xff'
p1141
tp1142
Rp1143
sg21
g11
(g15
S'\x00\x00\x00\x00\x00@a@'
p1144
tp1145
Rp1146
sg34
g35
sg91
g11
(g94
S'\x05\x00\x00\x00\x00\x00\x00\x00'
p1147
tp1148
Rp1149
sg36
(dp1150
g21
g1146
sg91
g1149
sg105
g11
(g94
S'\x04\x00\x00\x00\x00\x00\x00\x00'
p1151
tp1152
Rp1153
sg38
g11
(g15
S'V\xeb\x1f\xf0g\t\xef?'
p1154
tp1155
Rp1156
ssg42
g11
(g12
(S'S6'
p1157
I0
I1
tp1158
Rp1159
(I3
S'|'
p1160
NNNI6
I1
I0
tp1161
bS'ISOMAP'
p1162
tp1163
Rp1164
sg51
F0.2
sg105
g1153
sg52
g11
(g12
(S'S9'
p1165
I0
I1
tp1166
Rp1167
(I3
S'|'
p1168
NNNI9
I1
I0
tp1169
bS'inception'
p1170
tp1171
Rp1172
sg61
g11
(g15
S'\xe5\x8bg\x0ei3\xf1?'
p1173
tp1174
Rp1175
sg65
g11
(g12
(S'S2'
p1176
I0
I1
tp1177
Rp1178
(I3
S'|'
p1179
NNNI2
I1
I0
tp1180
bS'RF'
p1181
tp1182
Rp1183
sg74
I3
sg38
g1156
sg75
g76
sg77
g11
(g15
S'\x83\x08\xfe\x12\xe9<\xe5?'
p1184
tp1185
Rp1186
sg81
g82
sg83
g84
sbag4
(g5
g6
Ntp1187
Rp1188
(dp1189
g10
g11
(g15
S'\x00\x00\x00\x00\x00\x00\xf8\xff'
p1190
tp1191
Rp1192
sg21
g11
(g15
S'\x00\x00\x00\x00\x00@R@'
p1193
tp1194
Rp1195
sg34
g35
sg91
g11
(g94
S'\x07\x00\x00\x00\x00\x00\x00\x00'
p1196
tp1197
Rp1198
sg36
(dp1199
g21
g1195
sg91
g1198
sg105
g11
(g94
S'\x03\x00\x00\x00\x00\x00\x00\x00'
p1200
tp1201
Rp1202
sg38
g11
(g15
S'/?\xc1\xa38\xca\xdc?'
p1203
tp1204
Rp1205
ssg42
g11
(g12
(S'S6'
p1206
I0
I1
tp1207
Rp1208
(I3
S'|'
p1209
NNNI6
I1
I0
tp1210
bS'ISOMAP'
p1211
tp1212
Rp1213
sg51
F0.2
sg105
g1202
sg52
g11
(g12
(S'S9'
p1214
I0
I1
tp1215
Rp1216
(I3
S'|'
p1217
NNNI9
I1
I0
tp1218
bS'inception'
p1219
tp1220
Rp1221
sg61
g11
(g15
S'\x87\xab2]h_\xf0?'
p1222
tp1223
Rp1224
sg65
g11
(g12
(S'S2'
p1225
I0
I1
tp1226
Rp1227
(I3
S'|'
p1228
NNNI2
I1
I0
tp1229
bS'RF'
p1230
tp1231
Rp1232
sg74
I3
sg38
g1205
sg75
g76
sg77
g11
(g15
S'\xad\rN\xcd\xce\xcb\xe5?'
p1233
tp1234
Rp1235
sg81
g82
sg83
g84
sbag4
(g5
g6
Ntp1236
Rp1237
(dp1238
g10
g11
(g15
S'\x00\x00\x00\x00\x00\x00\xf8\xff'
p1239
tp1240
Rp1241
sg21
g11
(g15
S'\x00\x00\x00\x00\x00@a@'
p1242
tp1243
Rp1244
sg25
g203
sg34
g35
sg36
(dp1245
g21
g1244
sg38
g11
(g15
S'\xe3\xa4v\xb5\xae\x86\xd8?'
p1246
tp1247
Rp1248
sg25
g203
ssg42
g11
(g12
(S'S3'
p1249
I0
I1
tp1250
Rp1251
(I3
S'|'
p1252
NNNI3
I1
I0
tp1253
bS'PCA'
p1254
tp1255
Rp1256
sg51
F0.2
sg52
g11
(g12
(S'S3'
p1257
I0
I1
tp1258
Rp1259
(I3
S'|'
p1260
NNNI3
I1
I0
tp1261
bS'VGG'
p1262
tp1263
Rp1264
sg61
g11
(g15
S'e\xcb16Fa\xd2?'
p1265
tp1266
Rp1267
sg65
g11
(g12
(S'S2'
p1268
I0
I1
tp1269
Rp1270
(I3
S'|'
p1271
NNNI2
I1
I0
tp1272
bS'RF'
p1273
tp1274
Rp1275
sg74
I3
sg38
g1248
sg75
g76
sg77
g11
(g15
S'\xd1\x99\x08+\xe6o\xec?'
p1276
tp1277
Rp1278
sg81
g82
sg83
g84
sbag4
(g5
g6
Ntp1279
Rp1280
(dp1281
g10
g11
(g15
S'\x00\x00\x00\x00\x00\x00\xf8\xff'
p1282
tp1283
Rp1284
sg21
g11
(g15
S'\x00\x00\x00\x00\x00@a@'
p1285
tp1286
Rp1287
sg25
g33
sg34
g35
sg36
(dp1288
g21
g1287
sg38
g11
(g15
S"4')\xdb\xea-\xd7?"
p1289
tp1290
Rp1291
sg25
g33
sg280
g11
(g94
S'\x03\x00\x00\x00\x00\x00\x00\x00'
p1292
tp1293
Rp1294
ssg42
g11
(g12
(S'S3'
p1295
I0
I1
tp1296
Rp1297
(I3
S'|'
p1298
NNNI3
I1
I0
tp1299
bS'PCA'
p1300
tp1301
Rp1302
sg51
F0.2
sg52
g11
(g12
(S'S8'
p1303
I0
I1
tp1304
Rp1305
(I3
S'|'
p1306
NNNI8
I1
I0
tp1307
bS'haralick'
p1308
tp1309
Rp1310
sg280
g1294
sg61
g11
(g15
S'\x97W\xe4\x9f\x90\xe3\xe6?'
p1311
tp1312
Rp1313
sg65
g11
(g12
(S'S2'
p1314
I0
I1
tp1315
Rp1316
(I3
S'|'
p1317
NNNI2
I1
I0
tp1318
bS'RF'
p1319
tp1320
Rp1321
sg74
I3
sg38
g1291
sg75
g76
sg77
g11
(g15
S'\xc7\t\x83\x90u\xab\xeb?'
p1322
tp1323
Rp1324
sg81
g82
sg83
g84
sbag4
(g5
g6
Ntp1325
Rp1326
(dp1327
g10
g11
(g15
S'\x00\x00\x00\x00\x00\x00\xf8\xff'
p1328
tp1329
Rp1330
sg25
g33
sg34
g35
sg36
(dp1331
g25
g33
sg101
g11
(g15
S'\x92Y\xf5X%\x07X@'
p1332
tp1333
Rp1334
sg109
g11
(g15
S'\xcb\xa6:3\xd2\x9f\x16@'
p1335
tp1336
Rp1337
ssg42
g11
(g12
(S'S3'
p1338
I0
I1
tp1339
Rp1340
(I3
S'|'
p1341
NNNI3
I1
I0
tp1342
bS'PCA'
p1343
tp1344
Rp1345
sg51
F0.2
sg109
g1337
sg52
g11
(g12
(S'S3'
p1346
I0
I1
tp1347
Rp1348
(I3
S'|'
p1349
NNNI3
I1
I0
tp1350
bS'VGG'
p1351
tp1352
Rp1353
sg101
g1334
sg61
g11
(g15
S'\xf0\xc5\xf9Yf\xce\xd8?'
p1354
tp1355
Rp1356
sg65
g11
(g12
(S'S3'
p1357
I0
I1
tp1358
Rp1359
(I3
S'|'
p1360
NNNI3
I1
I0
tp1361
bS'SVM'
p1362
tp1363
Rp1364
sg74
I3
sg75
g76
sg77
g11
(g15
S'\xcd\x84\x14\xf53\xb6\xe9?'
p1365
tp1366
Rp1367
sg81
g82
sg83
g84
sbag4
(g5
g6
Ntp1368
Rp1369
(dp1370
g10
g11
(g15
S'\x00\x00\x00\x00\x00\x00\xf8\xff'
p1371
tp1372
Rp1373
sg25
g33
sg34
g35
sg36
(dp1374
g25
g33
sg101
g11
(g15
S'\xa8W\xd3_hZ&@'
p1375
tp1376
Rp1377
sg109
g11
(g15
S'zP\xb6\xc1N\x9a\x02@'
p1378
tp1379
Rp1380
ssg42
g11
(g12
(S'S3'
p1381
I0
I1
tp1382
Rp1383
(I3
S'|'
p1384
NNNI3
I1
I0
tp1385
bS'PCA'
p1386
tp1387
Rp1388
sg51
F0.2
sg109
g1380
sg52
g11
(g12
(S'S9'
p1389
I0
I1
tp1390
Rp1391
(I3
S'|'
p1392
NNNI9
I1
I0
tp1393
bS'inception'
p1394
tp1395
Rp1396
sg101
g1377
sg61
g11
(g15
S'\r`p\x0ffu\xe0?'
p1397
tp1398
Rp1399
sg65
g11
(g12
(S'S3'
p1400
I0
I1
tp1401
Rp1402
(I3
S'|'
p1403
NNNI3
I1
I0
tp1404
bS'SVM'
p1405
tp1406
Rp1407
sg74
I3
sg75
g76
sg77
g11
(g15
S'\x0f\xf1,\xb5\xa4\xc5\xe3?'
p1408
tp1409
Rp1410
sg81
g82
sg83
g84
sbag4
(g5
g6
Ntp1411
Rp1412
(dp1413
g10
g11
(g15
S'\x00\x00\x00\x00\x00\x00\xf8\xff'
p1414
tp1415
Rp1416
sg21
g11
(g15
S'\x00\x00\x00\x00\x00`i@'
p1417
tp1418
Rp1419
sg34
g35
sg91
g11
(g94
S'\x03\x00\x00\x00\x00\x00\x00\x00'
p1420
tp1421
Rp1422
sg36
(dp1423
g21
g1419
sg91
g1422
sg105
g11
(g94
S'\x02\x00\x00\x00\x00\x00\x00\x00'
p1424
tp1425
Rp1426
sg38
g11
(g15
S'\xf0\x80w\xfc~>\xdb?'
p1427
tp1428
Rp1429
ssg42
g11
(g12
(S'S6'
p1430
I0
I1
tp1431
Rp1432
(I3
S'|'
p1433
NNNI6
I1
I0
tp1434
bS'ISOMAP'
p1435
tp1436
Rp1437
sg51
F0.2
sg105
g1426
sg52
g11
(g12
(S'S3'
p1438
I0
I1
tp1439
Rp1440
(I3
S'|'
p1441
NNNI3
I1
I0
tp1442
bS'VGG'
p1443
tp1444
Rp1445
sg61
g11
(g15
S'\xd85\x90\xf7\x07\x1e\xea?'
p1446
tp1447
Rp1448
sg65
g11
(g12
(S'S2'
p1449
I0
I1
tp1450
Rp1451
(I3
S'|'
p1452
NNNI2
I1
I0
tp1453
bS'RF'
p1454
tp1455
Rp1456
sg74
I3
sg38
g1429
sg75
g76
sg77
g11
(g15
S'\x13\xbdg\x12\xbdg\xea?'
p1457
tp1458
Rp1459
sg81
g82
sg83
g84
sbag4
(g5
g6
Ntp1460
Rp1461
(dp1462
g10
g11
(g15
S'\x00\x00\x00\x00\x00\x00\xf8\xff'
p1463
tp1464
Rp1465
sg91
g11
(g94
S'\x03\x00\x00\x00\x00\x00\x00\x00'
p1466
tp1467
Rp1468
sg34
g35
sg36
(dp1469
g91
g1468
sg101
g11
(g15
S'\xdb\xac\x8f\x9e\x94\nH@'
p1470
tp1471
Rp1472
sg105
g11
(g94
S'\x02\x00\x00\x00\x00\x00\x00\x00'
p1473
tp1474
Rp1475
sg109
g11
(g15
S'm]$3\x0e\xe3\x1b@'
p1476
tp1477
Rp1478
ssg109
g1478
sg42
g11
(g12
(S'S6'
p1479
I0
I1
tp1480
Rp1481
(I3
S'|'
p1482
NNNI6
I1
I0
tp1483
bS'ISOMAP'
p1484
tp1485
Rp1486
sg51
F0.2
sg105
g1475
sg52
g11
(g12
(S'S9'
p1487
I0
I1
tp1488
Rp1489
(I3
S'|'
p1490
NNNI9
I1
I0
tp1491
bS'inception'
p1492
tp1493
Rp1494
sg101
g1472
sg61
g11
(g15
S'\xdd\xa8u4\xe1\x9b\xe0?'
p1495
tp1496
Rp1497
sg65
g11
(g12
(S'S3'
p1498
I0
I1
tp1499
Rp1500
(I3
S'|'
p1501
NNNI3
I1
I0
tp1502
bS'SVM'
p1503
tp1504
Rp1505
sg74
I3
sg75
g76
sg77
g11
(g15
S'\xff\xe3\x19\xae\x85\xd6\xe0?'
p1506
tp1507
Rp1508
sg81
g82
sg83
g84
sbag4
(g5
g6
Ntp1509
Rp1510
(dp1511
g10
g11
(g15
S'\x00\x00\x00\x00\x00\x00\xf8\xff'
p1512
tp1513
Rp1514
sg91
g11
(g94
S'\x03\x00\x00\x00\x00\x00\x00\x00'
p1515
tp1516
Rp1517
sg34
g35
sg36
(dp1518
g91
g1517
sg101
g11
(g15
S'p\xf2\x01n\xd3\xa2$@'
p1519
tp1520
Rp1521
sg105
g11
(g94
S'\x03\x00\x00\x00\x00\x00\x00\x00'
p1522
tp1523
Rp1524
sg109
g11
(g15
S'\xde=\x9cL3t\x1d@'
p1525
tp1526
Rp1527
ssg109
g1527
sg42
g11
(g12
(S'S6'
p1528
I0
I1
tp1529
Rp1530
(I3
S'|'
p1531
NNNI6
I1
I0
tp1532
bS'ISOMAP'
p1533
tp1534
Rp1535
sg51
F0.2
sg105
g1524
sg52
g11
(g12
(S'S3'
p1536
I0
I1
tp1537
Rp1538
(I3
S'|'
p1539
NNNI3
I1
I0
tp1540
bS'VGG'
p1541
tp1542
Rp1543
sg101
g1521
sg61
g11
(g15
S'`Qi\xe9#<\xd7?'
p1544
tp1545
Rp1546
sg65
g11
(g12
(S'S3'
p1547
I0
I1
tp1548
Rp1549
(I3
S'|'
p1550
NNNI3
I1
I0
tp1551
bS'SVM'
p1552
tp1553
Rp1554
sg74
I3
sg75
g76
sg77
g11
(g15
S'x\xb5:0E\x1b\xeb?'
p1555
tp1556
Rp1557
sg81
g82
sg83
g84
sbag4
(g5
g6
Ntp1558
Rp1559
(dp1560
g10
g11
(g15
S'\x00\x00\x00\x00\x00\x00\xf8\xff'
p1561
tp1562
Rp1563
sg25
g33
sg34
g35
sg36
(dp1564
g25
g33
sg101
g11
(g15
S'\xf3N\x9fk\x1b\xb3\x16@'
p1565
tp1566
Rp1567
sg109
g11
(g15
S'z\x19[\x8e(\x80\x07@'
p1568
tp1569
Rp1570
ssg42
g11
(g12
(S'S3'
p1571
I0
I1
tp1572
Rp1573
(I3
S'|'
p1574
NNNI3
I1
I0
tp1575
bS'PCA'
p1576
tp1577
Rp1578
sg51
F0.2
sg109
g1570
sg52
g11
(g12
(S'S3'
p1579
I0
I1
tp1580
Rp1581
(I3
S'|'
p1582
NNNI3
I1
I0
tp1583
bS'VGG'
p1584
tp1585
Rp1586
sg101
g1567
sg61
g11
(g15
S'qf\x8f>1\xff\xd7?'
p1587
tp1588
Rp1589
sg65
g11
(g12
(S'S3'
p1590
I0
I1
tp1591
Rp1592
(I3
S'|'
p1593
NNNI3
I1
I0
tp1594
bS'SVM'
p1595
tp1596
Rp1597
sg74
I3
sg75
g76
sg77
g11
(g15
S'm\xd9\x01\xb1R\x0f\xea?'
p1598
tp1599
Rp1600
sg81
g82
sg83
g84
sbag4
(g5
g6
Ntp1601
Rp1602
(dp1603
g10
g11
(g15
S'\x00\x00\x00\x00\x00\x00\xf8\xff'
p1604
tp1605
Rp1606
sg21
g11
(g15
S'\x00\x00\x00\x00\x00@e@'
p1607
tp1608
Rp1609
sg25
g203
sg34
g35
sg36
(dp1610
g21
g1609
sg38
g11
(g15
S'\xfe\xac\xdb\x7f\xdb\r\xeb?'
p1611
tp1612
Rp1613
sg25
g203
ssg42
g11
(g12
(S'S3'
p1614
I0
I1
tp1615
Rp1616
(I3
S'|'
p1617
NNNI3
I1
I0
tp1618
bS'PCA'
p1619
tp1620
Rp1621
sg51
F0.2
sg52
g11
(g12
(S'S3'
p1622
I0
I1
tp1623
Rp1624
(I3
S'|'
p1625
NNNI3
I1
I0
tp1626
bS'VGG'
p1627
tp1628
Rp1629
sg61
g11
(g15
S'\xca\x10\xaf\x00Em\xd3?'
p1630
tp1631
Rp1632
sg65
g11
(g12
(S'S2'
p1633
I0
I1
tp1634
Rp1635
(I3
S'|'
p1636
NNNI2
I1
I0
tp1637
bS'RF'
p1638
tp1639
Rp1640
sg74
I3
sg38
g1613
sg75
g76
sg77
g11
(g15
S'\xd1MUFd(\xec?'
p1641
tp1642
Rp1643
sg81
g82
sg83
g84
sbag4
(g5
g6
Ntp1644
Rp1645
(dp1646
g10
g11
(g15
S'\x00\x00\x00\x00\x00\x00\xf8\xff'
p1647
tp1648
Rp1649
sg21
g11
(g15
S'\x00\x00\x00\x00\x00\xc0p@'
p1650
tp1651
Rp1652
sg25
g203
sg34
g35
sg36
(dp1653
g21
g1652
sg38
g11
(g15
S'4\xe8\x82>{\x1a\xe2?'
p1654
tp1655
Rp1656
sg25
g203
sg280
g11
(g94
S'\x01\x00\x00\x00\x00\x00\x00\x00'
p1657
tp1658
Rp1659
ssg42
g11
(g12
(S'S3'
p1660
I0
I1
tp1661
Rp1662
(I3
S'|'
p1663
NNNI3
I1
I0
tp1664
bS'PCA'
p1665
tp1666
Rp1667
sg51
F0.2
sg52
g11
(g12
(S'S8'
p1668
I0
I1
tp1669
Rp1670
(I3
S'|'
p1671
NNNI8
I1
I0
tp1672
bS'haralick'
p1673
tp1674
Rp1675
sg280
g1659
sg61
g11
(g15
S' -\x8b\xebl\xbe\xf6?'
p1676
tp1677
Rp1678
sg65
g11
(g12
(S'S2'
p1679
I0
I1
tp1680
Rp1681
(I3
S'|'
p1682
NNNI2
I1
I0
tp1683
bS'RF'
p1684
tp1685
Rp1686
sg74
I3
sg38
g1656
sg75
g76
sg77
g11
(g15
S'\t\x19\xfb6\xbf\xae\xe7?'
p1687
tp1688
Rp1689
sg81
g82
sg83
g84
sbag4
(g5
g6
Ntp1690
Rp1691
(dp1692
g10
g11
(g15
S'\x00\x00\x00\x00\x00\x00\xf8\xff'
p1693
tp1694
Rp1695
sg91
g11
(g94
S'\x05\x00\x00\x00\x00\x00\x00\x00'
p1696
tp1697
Rp1698
sg34
g35
sg36
(dp1699
g91
g1698
sg101
g11
(g15
S'\x12\xc04\x94\xe7\xbe\x05@'
p1700
tp1701
Rp1702
sg105
g11
(g94
S'\x03\x00\x00\x00\x00\x00\x00\x00'
p1703
tp1704
Rp1705
sg109
g11
(g15
S'\xc0NP\x17\xa9\xe8\xf4?'
p1706
tp1707
Rp1708
ssg109
g1708
sg42
g11
(g12
(S'S6'
p1709
I0
I1
tp1710
Rp1711
(I3
S'|'
p1712
NNNI6
I1
I0
tp1713
bS'ISOMAP'
p1714
tp1715
Rp1716
sg51
F0.2
sg105
g1705
sg52
g11
(g12
(S'S9'
p1717
I0
I1
tp1718
Rp1719
(I3
S'|'
p1720
NNNI9
I1
I0
tp1721
bS'inception'
p1722
tp1723
Rp1724
sg101
g1702
sg61
g11
(g15
S'\xa09K+\xa1\x13\xe0?'
p1725
tp1726
Rp1727
sg65
g11
(g12
(S'S3'
p1728
I0
I1
tp1729
Rp1730
(I3
S'|'
p1731
NNNI3
I1
I0
tp1732
bS'SVM'
p1733
tp1734
Rp1735
sg74
I3
sg75
g76
sg77
g11
(g15
S'\x1d\x89\xb1`\x02\xbf\xe1?'
p1736
tp1737
Rp1738
sg81
g82
sg83
g84
sbag4
(g5
g6
Ntp1739
Rp1740
(dp1741
g10
g11
(g15
S'\x00\x00\x00\x00\x00\x00\xf8\xff'
p1742
tp1743
Rp1744
sg21
g11
(g15
S'\x00\x00\x00\x00\x00@e@'
p1745
tp1746
Rp1747
sg34
g35
sg91
g11
(g94
S'\x04\x00\x00\x00\x00\x00\x00\x00'
p1748
tp1749
Rp1750
sg36
(dp1751
g21
g1747
sg91
g1750
sg105
g11
(g94
S'\x04\x00\x00\x00\x00\x00\x00\x00'
p1752
tp1753
Rp1754
sg38
g11
(g15
S'Y\xd4\xc0\xb0\xecz\xd3?'
p1755
tp1756
Rp1757
ssg42
g11
(g12
(S'S6'
p1758
I0
I1
tp1759
Rp1760
(I3
S'|'
p1761
NNNI6
I1
I0
tp1762
bS'ISOMAP'
p1763
tp1764
Rp1765
sg51
F0.2
sg105
g1754
sg52
g11
(g12
(S'S9'
p1766
I0
I1
tp1767
Rp1768
(I3
S'|'
p1769
NNNI9
I1
I0
tp1770
bS'inception'
p1771
tp1772
Rp1773
sg61
g11
(g15
S'\xa7\x06\xc4`\xa0\xf3\xf2?'
p1774
tp1775
Rp1776
sg65
g11
(g12
(S'S2'
p1777
I0
I1
tp1778
Rp1779
(I3
S'|'
p1780
NNNI2
I1
I0
tp1781
bS'RF'
p1782
tp1783
Rp1784
sg74
I3
sg38
g1757
sg75
g76
sg77
g11
(g15
S'k\xfc\xd9\x1e\x95\xa8\xe5?'
p1785
tp1786
Rp1787
sg81
g82
sg83
g84
sbag4
(g5
g6
Ntp1788
Rp1789
(dp1790
g10
g11
(g15
S'\x00\x00\x00\x00\x00\x00\xf8\xff'
p1791
tp1792
Rp1793
sg21
g11
(g15
S'\x00\x00\x00\x00\x00\xc0r@'
p1794
tp1795
Rp1796
sg34
g35
sg91
g11
(g94
S'\x06\x00\x00\x00\x00\x00\x00\x00'
p1797
tp1798
Rp1799
sg36
(dp1800
g21
g1796
sg91
g1799
sg280
g11
(g94
S'\x03\x00\x00\x00\x00\x00\x00\x00'
p1801
tp1802
Rp1803
sg105
g11
(g94
S'\x03\x00\x00\x00\x00\x00\x00\x00'
p1804
tp1805
Rp1806
sg38
g11
(g15
S'\xc0\xb5\xa0\x89\xd0\xd7\xea?'
p1807
tp1808
Rp1809
ssg42
g11
(g12
(S'S6'
p1810
I0
I1
tp1811
Rp1812
(I3
S'|'
p1813
NNNI6
I1
I0
tp1814
bS'ISOMAP'
p1815
tp1816
Rp1817
sg51
F0.2
sg105
g1806
sg52
g11
(g12
(S'S8'
p1818
I0
I1
tp1819
Rp1820
(I3
S'|'
p1821
NNNI8
I1
I0
tp1822
bS'haralick'
p1823
tp1824
Rp1825
sg280
g1803
sg61
g11
(g15
S'\xd9\x9c\xa5\x90F\x98\xe8?'
p1826
tp1827
Rp1828
sg65
g11
(g12
(S'S2'
p1829
I0
I1
tp1830
Rp1831
(I3
S'|'
p1832
NNNI2
I1
I0
tp1833
bS'RF'
p1834
tp1835
Rp1836
sg74
I3
sg38
g1809
sg75
g76
sg77
g11
(g15
S'\xa8d\xeb\xdd\xf8\xc2\xea?'
p1837
tp1838
Rp1839
sg81
g82
sg83
g84
sbag4
(g5
g6
Ntp1840
Rp1841
(dp1842
g10
g11
(g15
S'\x00\x00\x00\x00\x00\x00\xf8\xff'
p1843
tp1844
Rp1845
sg21
g11
(g15
S'\x00\x00\x00\x00\x00@a@'
p1846
tp1847
Rp1848
sg34
g35
sg91
g11
(g94
S'\x05\x00\x00\x00\x00\x00\x00\x00'
p1849
tp1850
Rp1851
sg36
(dp1852
g21
g1848
sg91
g1851
sg105
g11
(g94
S'\x02\x00\x00\x00\x00\x00\x00\x00'
p1853
tp1854
Rp1855
sg38
g11
(g15
S'Z\xf4\xd2B\r\xf4\xeb?'
p1856
tp1857
Rp1858
ssg42
g11
(g12
(S'S6'
p1859
I0
I1
tp1860
Rp1861
(I3
S'|'
p1862
NNNI6
I1
I0
tp1863
bS'ISOMAP'
p1864
tp1865
Rp1866
sg51
F0.2
sg105
g1855
sg52
g11
(g12
(S'S9'
p1867
I0
I1
tp1868
Rp1869
(I3
S'|'
p1870
NNNI9
I1
I0
tp1871
bS'inception'
p1872
tp1873
Rp1874
sg61
g11
(g15
S'!\x1akr\x11\xd7\xf0?'
p1875
tp1876
Rp1877
sg65
g11
(g12
(S'S2'
p1878
I0
I1
tp1879
Rp1880
(I3
S'|'
p1881
NNNI2
I1
I0
tp1882
bS'RF'
p1883
tp1884
Rp1885
sg74
I3
sg38
g1858
sg75
g76
sg77
g11
(g15
S'\x18e\xcc\xfd\x9a`\xe5?'
p1886
tp1887
Rp1888
sg81
g82
sg83
g84
sbag4
(g5
g6
Ntp1889
Rp1890
(dp1891
g10
g11
(g15
S'\x00\x00\x00\x00\x00\x00\xf8\xff'
p1892
tp1893
Rp1894
sg21
g11
(g15
S'\x00\x00\x00\x00\x00@e@'
p1895
tp1896
Rp1897
sg34
g35
sg91
g11
(g94
S'\x03\x00\x00\x00\x00\x00\x00\x00'
p1898
tp1899
Rp1900
sg36
(dp1901
g21
g1897
sg91
g1900
sg280
g11
(g94
S'\x01\x00\x00\x00\x00\x00\x00\x00'
p1902
tp1903
Rp1904
sg105
g11
(g94
S'\x03\x00\x00\x00\x00\x00\x00\x00'
p1905
tp1906
Rp1907
sg38
g11
(g15
S'\xd2\xae\xd2\x87\x8dp\xe0?'
p1908
tp1909
Rp1910
ssg42
g11
(g12
(S'S6'
p1911
I0
I1
tp1912
Rp1913
(I3
S'|'
p1914
NNNI6
I1
I0
tp1915
bS'ISOMAP'
p1916
tp1917
Rp1918
sg51
F0.2
sg105
g1907
sg52
g11
(g12
(S'S8'
p1919
I0
I1
tp1920
Rp1921
(I3
S'|'
p1922
NNNI8
I1
I0
tp1923
bS'haralick'
p1924
tp1925
Rp1926
sg280
g1904
sg61
g11
(g15
S'\r\x9f`1uR\xef?'
p1927
tp1928
Rp1929
sg65
g11
(g12
(S'S2'
p1930
I0
I1
tp1931
Rp1932
(I3
S'|'
p1933
NNNI2
I1
I0
tp1934
bS'RF'
p1935
tp1936
Rp1937
sg74
I3
sg38
g1910
sg75
g76
sg77
g11
(g15
S'\x00\xc3=H3]\xe9?'
p1938
tp1939
Rp1940
sg81
g82
sg83
g84
sbag4
(g5
g6
Ntp1941
Rp1942
(dp1943
g10
g11
(g15
S'\x00\x00\x00\x00\x00\x00\xf8\xff'
p1944
tp1945
Rp1946
sg21
g11
(g15
S'\x00\x00\x00\x00\x00`i@'
p1947
tp1948
Rp1949
sg25
g33
sg34
g35
sg36
(dp1950
g21
g1949
sg38
g11
(g15
S'JC\xca\xf3i\xea\xe1?'
p1951
tp1952
Rp1953
sg25
g33
ssg42
g11
(g12
(S'S3'
p1954
I0
I1
tp1955
Rp1956
(I3
S'|'
p1957
NNNI3
I1
I0
tp1958
bS'PCA'
p1959
tp1960
Rp1961
sg51
F0.2
sg52
g11
(g12
(S'S9'
p1962
I0
I1
tp1963
Rp1964
(I3
S'|'
p1965
NNNI9
I1
I0
tp1966
bS'inception'
p1967
tp1968
Rp1969
sg61
g11
(g15
S'\x11\xc3\x8agq\xc5\xe2?'
p1970
tp1971
Rp1972
sg65
g11
(g12
(S'S2'
p1973
I0
I1
tp1974
Rp1975
(I3
S'|'
p1976
NNNI2
I1
I0
tp1977
bS'RF'
p1978
tp1979
Rp1980
sg74
I3
sg38
g1953
sg75
g76
sg77
g11
(g15
S'p\x11\xceTGb\xe8?'
p1981
tp1982
Rp1983
sg81
g82
sg83
g84
sbag4
(g5
g6
Ntp1984
Rp1985
(dp1986
g10
g11
(g15
S'\x00\x00\x00\x00\x00\x00\xf8\xff'
p1987
tp1988
Rp1989
sg91
g11
(g94
S'\x06\x00\x00\x00\x00\x00\x00\x00'
p1990
tp1991
Rp1992
sg34
g35
sg36
(dp1993
g91
g1992
sg101
g11
(g15
S'\x81\x89\x05Y\xb3\rV@'
p1994
tp1995
Rp1996
sg105
g11
(g94
S'\x03\x00\x00\x00\x00\x00\x00\x00'
p1997
tp1998
Rp1999
sg109
g11
(g15
S'c\xd8\x92\xeb\x18\x90\xf0?'
p2000
tp2001
Rp2002
ssg109
g2002
sg42
g11
(g12
(S'S6'
p2003
I0
I1
tp2004
Rp2005
(I3
S'|'
p2006
NNNI6
I1
I0
tp2007
bS'ISOMAP'
p2008
tp2009
Rp2010
sg51
F0.2
sg105
g1999
sg52
g11
(g12
(S'S9'
p2011
I0
I1
tp2012
Rp2013
(I3
S'|'
p2014
NNNI9
I1
I0
tp2015
bS'inception'
p2016
tp2017
Rp2018
sg101
g1996
sg61
g11
(g15
S'H\xa2\x8a?P\xcb\xdf?'
p2019
tp2020
Rp2021
sg65
g11
(g12
(S'S3'
p2022
I0
I1
tp2023
Rp2024
(I3
S'|'
p2025
NNNI3
I1
I0
tp2026
bS'SVM'
p2027
tp2028
Rp2029
sg74
I3
sg75
g76
sg77
g11
(g15
S'\x88,\xe3uP\x9b\xe1?'
p2030
tp2031
Rp2032
sg81
g82
sg83
g84
sbag4
(g5
g6
Ntp2033
Rp2034
(dp2035
g10
g11
(g15
S'\x00\x00\x00\x00\x00\x00\xf8\xff'
p2036
tp2037
Rp2038
sg21
g11
(g15
S'\x00\x00\x00\x00\x00\xc0r@'
p2039
tp2040
Rp2041
sg25
g33
sg34
g35
sg36
(dp2042
g21
g2041
sg38
g11
(g15
S'W\xcf7\xed\x84I\xd5?'
p2043
tp2044
Rp2045
sg25
g33
sg280
g11
(g94
S'\x03\x00\x00\x00\x00\x00\x00\x00'
p2046
tp2047
Rp2048
ssg42
g11
(g12
(S'S3'
p2049
I0
I1
tp2050
Rp2051
(I3
S'|'
p2052
NNNI3
I1
I0
tp2053
bS'PCA'
p2054
tp2055
Rp2056
sg51
F0.2
sg52
g11
(g12
(S'S8'
p2057
I0
I1
tp2058
Rp2059
(I3
S'|'
p2060
NNNI8
I1
I0
tp2061
bS'haralick'
p2062
tp2063
Rp2064
sg280
g2048
sg61
g11
(g15
S'\x83\x05\xf36Y\x9f\xe2?'
p2065
tp2066
Rp2067
sg65
g11
(g12
(S'S2'
p2068
I0
I1
tp2069
Rp2070
(I3
S'|'
p2071
NNNI2
I1
I0
tp2072
bS'RF'
p2073
tp2074
Rp2075
sg74
I3
sg38
g2045
sg75
g76
sg77
g11
(g15
S'Pn2\xaa\xba\x99\xeb?'
p2076
tp2077
Rp2078
sg81
g82
sg83
g84
sbag4
(g5
g6
Ntp2079
Rp2080
(dp2081
g10
g11
(g15
S'\x00\x00\x00\x00\x00\x00\xf8\xff'
p2082
tp2083
Rp2084
sg21
g11
(g15
S'\x00\x00\x00\x00\x00`m@'
p2085
tp2086
Rp2087
sg25
g203
sg34
g35
sg36
(dp2088
g21
g2087
sg38
g11
(g15
S'\xb6\xc6j\xf8D\xc0\xe7?'
p2089
tp2090
Rp2091
sg25
g203
ssg42
g11
(g12
(S'S3'
p2092
I0
I1
tp2093
Rp2094
(I3
S'|'
p2095
NNNI3
I1
I0
tp2096
bS'PCA'
p2097
tp2098
Rp2099
sg51
F0.2
sg52
g11
(g12
(S'S3'
p2100
I0
I1
tp2101
Rp2102
(I3
S'|'
p2103
NNNI3
I1
I0
tp2104
bS'VGG'
p2105
tp2106
Rp2107
sg61
g11
(g15
S'\x7f\x02!\xba\xf6\x1d\xd3?'
p2108
tp2109
Rp2110
sg65
g11
(g12
(S'S2'
p2111
I0
I1
tp2112
Rp2113
(I3
S'|'
p2114
NNNI2
I1
I0
tp2115
bS'RF'
p2116
tp2117
Rp2118
sg74
I3
sg38
g2091
sg75
g76
sg77
g11
(g15
S'\xb3\x8c\xd7Am\x16\xec?'
p2119
tp2120
Rp2121
sg81
g82
sg83
g84
sbag4
(g5
g6
Ntp2122
Rp2123
(dp2124
g10
g11
(g15
S'\x00\x00\x00\x00\x00\x00\xf8\xff'
p2125
tp2126
Rp2127
sg91
g11
(g94
S'\x04\x00\x00\x00\x00\x00\x00\x00'
p2128
tp2129
Rp2130
sg34
g35
sg36
(dp2131
g91
g2130
sg101
g11
(g15
S'\xb3(\x8c\x17L|I@'
p2132
tp2133
Rp2134
sg105
g11
(g94
S'\x03\x00\x00\x00\x00\x00\x00\x00'
p2135
tp2136
Rp2137
sg109
g11
(g15
S'\x13\xbcW\x14j\xd9\x18@'
p2138
tp2139
Rp2140
ssg109
g2140
sg42
g11
(g12
(S'S6'
p2141
I0
I1
tp2142
Rp2143
(I3
S'|'
p2144
NNNI6
I1
I0
tp2145
bS'ISOMAP'
p2146
tp2147
Rp2148
sg51
F0.2
sg105
g2137
sg52
g11
(g12
(S'S9'
p2149
I0
I1
tp2150
Rp2151
(I3
S'|'
p2152
NNNI9
I1
I0
tp2153
bS'inception'
p2154
tp2155
Rp2156
sg101
g2134
sg61
g11
(g15
S'l\xf9\xc0gaJ\xe0?'
p2157
tp2158
Rp2159
sg65
g11
(g12
(S'S3'
p2160
I0
I1
tp2161
Rp2162
(I3
S'|'
p2163
NNNI3
I1
I0
tp2164
bS'SVM'
p2165
tp2166
Rp2167
sg74
I3
sg75
g76
sg77
g11
(g15
S'\xf1\xb3.9$N\xe2?'
p2168
tp2169
Rp2170
sg81
g82
sg83
g84
sbag4
(g5
g6
Ntp2171
Rp2172
(dp2173
g10
g11
(g15
S'\x00\x00\x00\x00\x00\x00\xf8\xff'
p2174
tp2175
Rp2176
sg21
g11
(g15
S'\x00\x00\x00\x00\x00`i@'
p2177
tp2178
Rp2179
sg25
g33
sg34
g35
sg36
(dp2180
g21
g2179
sg38
g11
(g15
S'\x897\xec\xf4L;\xd6?'
p2181
tp2182
Rp2183
sg25
g33
ssg42
g11
(g12
(S'S3'
p2184
I0
I1
tp2185
Rp2186
(I3
S'|'
p2187
NNNI3
I1
I0
tp2188
bS'PCA'
p2189
tp2190
Rp2191
sg51
F0.2
sg52
g11
(g12
(S'S9'
p2192
I0
I1
tp2193
Rp2194
(I3
S'|'
p2195
NNNI9
I1
I0
tp2196
bS'inception'
p2197
tp2198
Rp2199
sg61
g11
(g15
S'6\xee\x8f\xea\x81\xb2\xe0?'
p2200
tp2201
Rp2202
sg65
g11
(g12
(S'S2'
p2203
I0
I1
tp2204
Rp2205
(I3
S'|'
p2206
NNNI2
I1
I0
tp2207
bS'RF'
p2208
tp2209
Rp2210
sg74
I3
sg38
g2183
sg75
g76
sg77
g11
(g15
S'\x8f\xd2KY>t\xe8?'
p2211
tp2212
Rp2213
sg81
g82
sg83
g84
sbag4
(g5
g6
Ntp2214
Rp2215
(dp2216
g10
g11
(g15
S'\x00\x00\x00\x00\x00\x00\xf8\xff'
p2217
tp2218
Rp2219
sg91
g11
(g94
S'\x06\x00\x00\x00\x00\x00\x00\x00'
p2220
tp2221
Rp2222
sg34
g35
sg36
(dp2223
g91
g2222
sg101
g11
(g15
S'L\xc9\x0c)\xcau!@'
p2224
tp2225
Rp2226
sg105
g11
(g94
S'\x04\x00\x00\x00\x00\x00\x00\x00'
p2227
tp2228
Rp2229
sg109
g11
(g15
S'KQ\x8c\x8a0X\x11@'
p2230
tp2231
Rp2232
ssg109
g2232
sg42
g11
(g12
(S'S6'
p2233
I0
I1
tp2234
Rp2235
(I3
S'|'
p2236
NNNI6
I1
I0
tp2237
bS'ISOMAP'
p2238
tp2239
Rp2240
sg51
F0.2
sg105
g2229
sg52
g11
(g12
(S'S3'
p2241
I0
I1
tp2242
Rp2243
(I3
S'|'
p2244
NNNI3
I1
I0
tp2245
bS'VGG'
p2246
tp2247
Rp2248
sg101
g2226
sg61
g11
(g15
S'\xf5\xfe\x96W\n\x9e\xd7?'
p2249
tp2250
Rp2251
sg65
g11
(g12
(S'S3'
p2252
I0
I1
tp2253
Rp2254
(I3
S'|'
p2255
NNNI3
I1
I0
tp2256
bS'SVM'
p2257
tp2258
Rp2259
sg74
I3
sg75
g76
sg77
g11
(g15
S'\x0f\xc6U6u\xf7\xea?'
p2260
tp2261
Rp2262
sg81
g82
sg83
g84
sbag4
(g5
g6
Ntp2263
Rp2264
(dp2265
g10
g11
(g15
S'\x00\x00\x00\x00\x00\x00\xf8\xff'
p2266
tp2267
Rp2268
sg21
g11
(g15
S'\x00\x00\x00\x00\x00@R@'
p2269
tp2270
Rp2271
sg34
g35
sg91
g11
(g94
S'\x05\x00\x00\x00\x00\x00\x00\x00'
p2272
tp2273
Rp2274
sg36
(dp2275
g21
g2271
sg91
g2274
sg105
g11
(g94
S'\x02\x00\x00\x00\x00\x00\x00\x00'
p2276
tp2277
Rp2278
sg38
g11
(g15
S'I\x05]\x14\xfc\xc5\xd6?'
p2279
tp2280
Rp2281
ssg42
g11
(g12
(S'S6'
p2282
I0
I1
tp2283
Rp2284
(I3
S'|'
p2285
NNNI6
I1
I0
tp2286
bS'ISOMAP'
p2287
tp2288
Rp2289
sg51
F0.2
sg105
g2278
sg52
g11
(g12
(S'S9'
p2290
I0
I1
tp2291
Rp2292
(I3
S'|'
p2293
NNNI9
I1
I0
tp2294
bS'inception'
p2295
tp2296
Rp2297
sg61
g11
(g15
S'\xfc\xe5\xeb\x93R\xdb\xf0?'
p2298
tp2299
Rp2300
sg65
g11
(g12
(S'S2'
p2301
I0
I1
tp2302
Rp2303
(I3
S'|'
p2304
NNNI2
I1
I0
tp2305
bS'RF'
p2306
tp2307
Rp2308
sg74
I3
sg38
g2281
sg75
g76
sg77
g11
(g15
S'c\x933\xf3sr\xe5?'
p2309
tp2310
Rp2311
sg81
g82
sg83
g84
sbag4
(g5
g6
Ntp2312
Rp2313
(dp2314
g10
g11
(g15
S'\x00\x00\x00\x00\x00\x00\xf8\xff'
p2315
tp2316
Rp2317
sg25
g33
sg34
g35
sg36
(dp2318
g25
g33
sg101
g11
(g15
S'\x93\x8b\x8d\xad\x1d\xbeA@'
p2319
tp2320
Rp2321
sg109
g11
(g15
S'vm\xa7\xafE\xb4\x1d@'
p2322
tp2323
Rp2324
ssg42
g11
(g12
(S'S3'
p2325
I0
I1
tp2326
Rp2327
(I3
S'|'
p2328
NNNI3
I1
I0
tp2329
bS'PCA'
p2330
tp2331
Rp2332
sg51
F0.2
sg109
g2324
sg52
g11
(g12
(S'S9'
p2333
I0
I1
tp2334
Rp2335
(I3
S'|'
p2336
NNNI9
I1
I0
tp2337
bS'inception'
p2338
tp2339
Rp2340
sg101
g2321
sg61
g11
(g15
S'\xa0\x0bz\x1c\x96\x8c\xe0?'
p2341
tp2342
Rp2343
sg65
g11
(g12
(S'S3'
p2344
I0
I1
tp2345
Rp2346
(I3
S'|'
p2347
NNNI3
I1
I0
tp2348
bS'SVM'
p2349
tp2350
Rp2351
sg74
I3
sg75
g76
sg77
g11
(g15
S'E\xee\x9b@\xf7\x89\xe4?'
p2352
tp2353
Rp2354
sg81
g82
sg83
g84
sbag4
(g5
g6
Ntp2355
Rp2356
(dp2357
g10
g11
(g15
S'\x00\x00\x00\x00\x00\x00\xf8\xff'
p2358
tp2359
Rp2360
sg91
g11
(g94
S'\x07\x00\x00\x00\x00\x00\x00\x00'
p2361
tp2362
Rp2363
sg34
g35
sg36
(dp2364
g91
g2363
sg101
g11
(g15
S'\xb2w\xb1\xf6\xfb)Q@'
p2365
tp2366
Rp2367
sg105
g11
(g94
S'\x03\x00\x00\x00\x00\x00\x00\x00'
p2368
tp2369
Rp2370
sg109
g11
(g15
S'%\xe6\xe7#\xbe\xe0\x1c@'
p2371
tp2372
Rp2373
ssg109
g2373
sg42
g11
(g12
(S'S6'
p2374
I0
I1
tp2375
Rp2376
(I3
S'|'
p2377
NNNI6
I1
I0
tp2378
bS'ISOMAP'
p2379
tp2380
Rp2381
sg51
F0.2
sg105
g2370
sg52
g11
(g12
(S'S3'
p2382
I0
I1
tp2383
Rp2384
(I3
S'|'
p2385
NNNI3
I1
I0
tp2386
bS'VGG'
p2387
tp2388
Rp2389
sg101
g2367
sg61
g11
(g15
S'\xc182_\xab\xae\xde?'
p2390
tp2391
Rp2392
sg65
g11
(g12
(S'S3'
p2393
I0
I1
tp2394
Rp2395
(I3
S'|'
p2396
NNNI3
I1
I0
tp2397
bS'SVM'
p2398
tp2399
Rp2400
sg74
I3
sg75
g76
sg77
g11
(g15
S'<\x1fX\xe6\xc9\x02\xe9?'
p2401
tp2402
Rp2403
sg81
g82
sg83
g84
sbag4
(g5
g6
Ntp2404
Rp2405
(dp2406
g10
g11
(g15
S'\x00\x00\x00\x00\x00\x00\xf8\xff'
p2407
tp2408
Rp2409
sg21
g11
(g15
S'\x00\x00\x00\x00\x00\x00D@'
p2410
tp2411
Rp2412
sg34
g35
sg91
g11
(g94
S'\x03\x00\x00\x00\x00\x00\x00\x00'
p2413
tp2414
Rp2415
sg36
(dp2416
g21
g2412
sg91
g2415
sg105
g11
(g94
S'\x02\x00\x00\x00\x00\x00\x00\x00'
p2417
tp2418
Rp2419
sg38
g11
(g15
S'k\xfd\xb5G,m\xd3?'
p2420
tp2421
Rp2422
ssg42
g11
(g12
(S'S6'
p2423
I0
I1
tp2424
Rp2425
(I3
S'|'
p2426
NNNI6
I1
I0
tp2427
bS'ISOMAP'
p2428
tp2429
Rp2430
sg51
F0.2
sg105
g2419
sg52
g11
(g12
(S'S9'
p2431
I0
I1
tp2432
Rp2433
(I3
S'|'
p2434
NNNI9
I1
I0
tp2435
bS'inception'
p2436
tp2437
Rp2438
sg61
g11
(g15
S']\xc1k\x82\x14\x02\xf3?'
p2439
tp2440
Rp2441
sg65
g11
(g12
(S'S2'
p2442
I0
I1
tp2443
Rp2444
(I3
S'|'
p2445
NNNI2
I1
I0
tp2446
bS'RF'
p2447
tp2448
Rp2449
sg74
I3
sg38
g2422
sg75
g76
sg77
g11
(g15
S'x\xc4+]\xfa\xbf\xe4?'
p2450
tp2451
Rp2452
sg81
g82
sg83
g84
sbag4
(g5
g6
Ntp2453
Rp2454
(dp2455
g10
g11
(g15
S'\x00\x00\x00\x00\x00\x00\xf8\xff'
p2456
tp2457
Rp2458
sg91
g11
(g94
S'\x07\x00\x00\x00\x00\x00\x00\x00'
p2459
tp2460
Rp2461
sg34
g35
sg36
(dp2462
g91
g2461
sg101
g11
(g15
S"\xd8\x04'\xe3\xac03@"
p2463
tp2464
Rp2465
sg105
g11
(g94
S'\x02\x00\x00\x00\x00\x00\x00\x00'
p2466
tp2467
Rp2468
sg109
g11
(g15
S'\xa1\x1aG\xfe\x8a\x92\x03@'
p2469
tp2470
Rp2471
ssg109
g2471
sg42
g11
(g12
(S'S6'
p2472
I0
I1
tp2473
Rp2474
(I3
S'|'
p2475
NNNI6
I1
I0
tp2476
bS'ISOMAP'
p2477
tp2478
Rp2479
sg51
F0.2
sg105
g2468
sg52
g11
(g12
(S'S9'
p2480
I0
I1
tp2481
Rp2482
(I3
S'|'
p2483
NNNI9
I1
I0
tp2484
bS'inception'
p2485
tp2486
Rp2487
sg101
g2465
sg61
g11
(g15
S'\x0b\x12\xf8\xfc\xf6\x92\xdf?'
p2488
tp2489
Rp2490
sg65
g11
(g12
(S'S3'
p2491
I0
I1
tp2492
Rp2493
(I3
S'|'
p2494
NNNI3
I1
I0
tp2495
bS'SVM'
p2496
tp2497
Rp2498
sg74
I3
sg75
g76
sg77
g11
(g15
S'\x88x\x96Z\xd2\xe2\xe1?'
p2499
tp2500
Rp2501
sg81
g82
sg83
g84
sbag4
(g5
g6
Ntp2502
Rp2503
(dp2504
g10
g11
(g15
S'\x00\x00\x00\x00\x00\x00\xf8\xff'
p2505
tp2506
Rp2507
sg91
g11
(g94
S'\x05\x00\x00\x00\x00\x00\x00\x00'
p2508
tp2509
Rp2510
sg34
g35
sg36
(dp2511
g91
g2510
sg101
g11
(g15
S"'\x06\x1d)\x82{#@"
p2512
tp2513
Rp2514
sg105
g11
(g94
S'\x04\x00\x00\x00\x00\x00\x00\x00'
p2515
tp2516
Rp2517
sg109
g11
(g15
S'{j8\t\xb0\xd6\r@'
p2518
tp2519
Rp2520
ssg109
g2520
sg42
g11
(g12
(S'S6'
p2521
I0
I1
tp2522
Rp2523
(I3
S'|'
p2524
NNNI6
I1
I0
tp2525
bS'ISOMAP'
p2526
tp2527
Rp2528
sg51
F0.2
sg105
g2517
sg52
g11
(g12
(S'S9'
p2529
I0
I1
tp2530
Rp2531
(I3
S'|'
p2532
NNNI9
I1
I0
tp2533
bS'inception'
p2534
tp2535
Rp2536
sg101
g2514
sg61
g11
(g15
S'\xc7\xde;\xef\x19\x1f\xe0?'
p2537
tp2538
Rp2539
sg65
g11
(g12
(S'S3'
p2540
I0
I1
tp2541
Rp2542
(I3
S'|'
p2543
NNNI3
I1
I0
tp2544
bS'SVM'
p2545
tp2546
Rp2547
sg74
I3
sg75
g76
sg77
g11
(g15
S'gO\x7f\x1f\xdf_\xe2?'
p2548
tp2549
Rp2550
sg81
g82
sg83
g84
sbag4
(g5
g6
Ntp2551
Rp2552
(dp2553
g10
g11
(g15
S'\x00\x00\x00\x00\x00\x00\xf8\xff'
p2554
tp2555
Rp2556
sg21
g11
(g15
S'\x00\x00\x00\x00\x00@Z@'
p2557
tp2558
Rp2559
sg25
g203
sg34
g35
sg36
(dp2560
g21
g2559
sg38
g11
(g15
S'Y\xd5R\xfb\x85\xdc\xdd?'
p2561
tp2562
Rp2563
sg25
g203
sg280
g11
(g94
S'\x03\x00\x00\x00\x00\x00\x00\x00'
p2564
tp2565
Rp2566
ssg42
g11
(g12
(S'S3'
p2567
I0
I1
tp2568
Rp2569
(I3
S'|'
p2570
NNNI3
I1
I0
tp2571
bS'PCA'
p2572
tp2573
Rp2574
sg51
F0.2
sg52
g11
(g12
(S'S8'
p2575
I0
I1
tp2576
Rp2577
(I3
S'|'
p2578
NNNI8
I1
I0
tp2579
bS'haralick'
p2580
tp2581
Rp2582
sg280
g2566
sg61
g11
(g15
S' ba#\x94\x90\xe8?'
p2583
tp2584
Rp2585
sg65
g11
(g12
(S'S2'
p2586
I0
I1
tp2587
Rp2588
(I3
S'|'
p2589
NNNI2
I1
I0
tp2590
bS'RF'
p2591
tp2592
Rp2593
sg74
I3
sg38
g2563
sg75
g76
sg77
g11
(g15
S'\x11\xec6\xa1\xccu\xeb?'
p2594
tp2595
Rp2596
sg81
g82
sg83
g84
sbag4
(g5
g6
Ntp2597
Rp2598
(dp2599
g10
g11
(g15
S'\x00\x00\x00\x00\x00\x00\xf8\xff'
p2600
tp2601
Rp2602
sg25
g203
sg34
g35
sg36
(dp2603
g25
g203
sg101
g11
(g15
S"\x0e'\x8c<\n\x1e;@"
p2604
tp2605
Rp2606
sg109
g11
(g15
S'"%S9\x08\xa9\xed?'
p2607
tp2608
Rp2609
ssg42
g11
(g12
(S'S3'
p2610
I0
I1
tp2611
Rp2612
(I3
S'|'
p2613
NNNI3
I1
I0
tp2614
bS'PCA'
p2615
tp2616
Rp2617
sg51
F0.2
sg109
g2609
sg52
g11
(g12
(S'S3'
p2618
I0
I1
tp2619
Rp2620
(I3
S'|'
p2621
NNNI3
I1
I0
tp2622
bS'VGG'
p2623
tp2624
Rp2625
sg101
g2606
sg61
g11
(g15
S'\xa5\x98\xea\xac+!\xd8?'
p2626
tp2627
Rp2628
sg65
g11
(g12
(S'S3'
p2629
I0
I1
tp2630
Rp2631
(I3
S'|'
p2632
NNNI3
I1
I0
tp2633
bS'SVM'
p2634
tp2635
Rp2636
sg74
I3
sg75
g76
sg77
g11
(g15
S'\xb3\\\n\xafe\xf8\xea?'
p2637
tp2638
Rp2639
sg81
g82
sg83
g84
sbag4
(g5
g6
Ntp2640
Rp2641
(dp2642
g10
g11
(g15
S'\x00\x00\x00\x00\x00\x00\xf8\xff'
p2643
tp2644
Rp2645
sg91
g11
(g94
S'\x03\x00\x00\x00\x00\x00\x00\x00'
p2646
tp2647
Rp2648
sg34
g35
sg36
(dp2649
g91
g2648
sg101
g11
(g15
S'\xffM\xda\x1d\x98\x86N@'
p2650
tp2651
Rp2652
sg280
g11
(g94
S'\x03\x00\x00\x00\x00\x00\x00\x00'
p2653
tp2654
Rp2655
sg105
g11
(g94
S'\x04\x00\x00\x00\x00\x00\x00\x00'
p2656
tp2657
Rp2658
sg109
g11
(g15
S's\xff\xe5G\xaa\x12\xf8?'
p2659
tp2660
Rp2661
ssg109
g2661
sg42
g11
(g12
(S'S6'
p2662
I0
I1
tp2663
Rp2664
(I3
S'|'
p2665
NNNI6
I1
I0
tp2666
bS'ISOMAP'
p2667
tp2668
Rp2669
sg51
F0.2
sg105
g2658
sg52
g11
(g12
(S'S8'
p2670
I0
I1
tp2671
Rp2672
(I3
S'|'
p2673
NNNI8
I1
I0
tp2674
bS'haralick'
p2675
tp2676
Rp2677
sg101
g2652
sg280
g2655
sg61
g11
(g15
S'8\x81\xb2\xfb\x82o\xdd?'
p2678
tp2679
Rp2680
sg65
g11
(g12
(S'S3'
p2681
I0
I1
tp2682
Rp2683
(I3
S'|'
p2684
NNNI3
I1
I0
tp2685
bS'SVM'
p2686
tp2687
Rp2688
sg74
I3
sg75
g76
sg77
g11
(g15
S'\xf5\x16\xd2[Ho\xe9?'
p2689
tp2690
Rp2691
sg81
g82
sg83
g84
sbag4
(g5
g6
Ntp2692
Rp2693
(dp2694
g10
g11
(g15
S'\x00\x00\x00\x00\x00\x00\xf8\xff'
p2695
tp2696
Rp2697
sg21
g11
(g15
S'\x00\x00\x00\x00\x00`m@'
p2698
tp2699
Rp2700
sg25
g203
sg34
g35
sg36
(dp2701
g21
g2700
sg38
g11
(g15
S'G\x96l0\xd2s\xdb?'
p2702
tp2703
Rp2704
sg25
g203
ssg42
g11
(g12
(S'S3'
p2705
I0
I1
tp2706
Rp2707
(I3
S'|'
p2708
NNNI3
I1
I0
tp2709
bS'PCA'
p2710
tp2711
Rp2712
sg51
F0.2
sg52
g11
(g12
(S'S3'
p2713
I0
I1
tp2714
Rp2715
(I3
S'|'
p2716
NNNI3
I1
I0
tp2717
bS'VGG'
p2718
tp2719
Rp2720
sg61
g11
(g15
S'\x1f)ZW/\xf8\xd2?'
p2721
tp2722
Rp2723
sg65
g11
(g12
(S'S2'
p2724
I0
I1
tp2725
Rp2726
(I3
S'|'
p2727
NNNI2
I1
I0
tp2728
bS'RF'
p2729
tp2730
Rp2731
sg74
I3
sg38
g2704
sg75
g76
sg77
g11
(g15
S'\xa7\xe0kU\x82(\xec?'
p2732
tp2733
Rp2734
sg81
g82
sg83
g84
sbag4
(g5
g6
Ntp2735
Rp2736
(dp2737
g10
g11
(g15
S'\x00\x00\x00\x00\x00\x00\xf8\xff'
p2738
tp2739
Rp2740
sg21
g11
(g15
S'\x00\x00\x00\x00\x00\xc0p@'
p2741
tp2742
Rp2743
sg34
g35
sg91
g11
(g94
S'\x03\x00\x00\x00\x00\x00\x00\x00'
p2744
tp2745
Rp2746
sg36
(dp2747
g21
g2743
sg91
g2746
sg280
g11
(g94
S'\x01\x00\x00\x00\x00\x00\x00\x00'
p2748
tp2749
Rp2750
sg105
g11
(g94
S'\x03\x00\x00\x00\x00\x00\x00\x00'
p2751
tp2752
Rp2753
sg38
g11
(g15
S'\x86<o2k\x02\xec?'
p2754
tp2755
Rp2756
ssg42
g11
(g12
(S'S6'
p2757
I0
I1
tp2758
Rp2759
(I3
S'|'
p2760
NNNI6
I1
I0
tp2761
bS'ISOMAP'
p2762
tp2763
Rp2764
sg51
F0.2
sg105
g2753
sg52
g11
(g12
(S'S8'
p2765
I0
I1
tp2766
Rp2767
(I3
S'|'
p2768
NNNI8
I1
I0
tp2769
bS'haralick'
p2770
tp2771
Rp2772
sg280
g2750
sg61
g11
(g15
S'\xb3\xa2\x1f/Ul\xed?'
p2773
tp2774
Rp2775
sg65
g11
(g12
(S'S2'
p2776
I0
I1
tp2777
Rp2778
(I3
S'|'
p2779
NNNI2
I1
I0
tp2780
bS'RF'
p2781
tp2782
Rp2783
sg74
I3
sg38
g2756
sg75
g76
sg77
g11
(g15
S'}\xc74Z\x0f\xa5\xe9?'
p2784
tp2785
Rp2786
sg81
g82
sg83
g84
sbag4
(g5
g6
Ntp2787
Rp2788
(dp2789
g10
g11
(g15
S'\x00\x00\x00\x00\x00\x00\xf8\xff'
p2790
tp2791
Rp2792
sg91
g11
(g94
S'\x04\x00\x00\x00\x00\x00\x00\x00'
p2793
tp2794
Rp2795
sg34
g35
sg36
(dp2796
g91
g2795
sg101
g11
(g15
S'\xac1\xa7H`[O@'
p2797
tp2798
Rp2799
sg280
g11
(g94
S'\x03\x00\x00\x00\x00\x00\x00\x00'
p2800
tp2801
Rp2802
sg105
g11
(g94
S'\x04\x00\x00\x00\x00\x00\x00\x00'
p2803
tp2804
Rp2805
sg109
g11
(g15
S'\x19X\x10-:\xb0\x01@'
p2806
tp2807
Rp2808
ssg109
g2808
sg42
g11
(g12
(S'S6'
p2809
I0
I1
tp2810
Rp2811
(I3
S'|'
p2812
NNNI6
I1
I0
tp2813
bS'ISOMAP'
p2814
tp2815
Rp2816
sg51
F0.2
sg105
g2805
sg52
g11
(g12
(S'S8'
p2817
I0
I1
tp2818
Rp2819
(I3
S'|'
p2820
NNNI8
I1
I0
tp2821
bS'haralick'
p2822
tp2823
Rp2824
sg101
g2799
sg280
g2802
sg61
g11
(g15
S'\xf9\xa6y\xa7m\xd9\xdd?'
p2825
tp2826
Rp2827
sg65
g11
(g12
(S'S3'
p2828
I0
I1
tp2829
Rp2830
(I3
S'|'
p2831
NNNI3
I1
I0
tp2832
bS'SVM'
p2833
tp2834
Rp2835
sg74
I3
sg75
g76
sg77
g11
(g15
S'\x0c\x07\x10\xfe!\xda\xe9?'
p2836
tp2837
Rp2838
sg81
g82
sg83
g84
sbasS'error_curve'
p2839
(lp2840
g64
ag131
ag131
ag180
ag180
ag226
ag226
ag226
ag226
ag226
ag226
ag226
ag226
ag226
ag226
ag226
ag226
ag226
ag226
ag226
ag226
ag226
ag226
ag226
ag226
ag226
ag226
ag226
ag226
ag226
ag226
ag226
ag226
ag226
ag226
ag226
ag226
ag226
ag226
ag226
ag226
ag226
ag226
ag226
ag226
ag226
ag226
ag226
ag226
ag226
ag226
ag226
ag226
ag226
ag226
ag226
ag226
ag226
asS'iters'
p2841
I51
sg34
g35
sS'results_loc'
p2842
S'/gpfs/u/home/CGHI/CGHIarch/barn/EP_project/results/'
p2843
sS'times'
p2844
(lp2845
F462.71513986587524
aF463.6188519001007
aF836.3585288524628
aF837.2535560131073
aF838.1866419315338
aF839.8257298469543
aF857.1555869579315
aF859.2861139774323
aF859.5715968608856
aF860.5434029102325
aF862.7443330287933
aF881.3578879833221
aF883.7794380187988
aF902.1782529354095
aF904.0041949748993
aF923.12327003479
aF924.0398709774017
aF924.3187549114227
aF926.2118229866028
aF943.6796998977661
aF946.7786190509796
aF967.9637680053711
aF969.9714028835297
aF971.4564740657806
aF972.8427920341492
aF991.3315739631653
aF991.6024389266968
aF991.8639528751373
aF994.1812748908997
aF995.0772018432617
aF995.9093749523163
aF996.1830449104309
aF998.165923833847
aF1017.6056008338928
aF1018.5459489822388
aF1020.7196798324585
aF1040.0282599925995
aF1041.9758639335632
aF1059.684180021286
aF1061.7870378494263
aF1062.755840063095
aF1081.932965040207
aF1084.491371870041
aF1085.4318778514862
aF1087.3689439296722
aF1088.289932012558
aF1089.734699010849
aF1090.0036759376526
aF1090.9611158370972
aF1092.0921969413757
aF1093.0724608898163
aF1094.019315958023
aF1111.2263078689575
aF1111.4802708625793
aF1132.7416038513184
aF1135.0465478897095
aF1153.6633110046387
aF1170.2376618385315
asS'data_loc'
p2846
g84
sS'run'
p2847
I1
sg81
S'random_MCMC'
p2848
sb.